ARM GAS  /tmp/ccYL221C.s 			page 1


   1              		.cpu cortex-m0
   2              		.eabi_attribute 23, 1
   3              		.eabi_attribute 24, 1
   4              		.eabi_attribute 25, 1
   5              		.eabi_attribute 26, 1
   6              		.eabi_attribute 30, 4
   7              		.eabi_attribute 34, 0
   8              		.eabi_attribute 18, 4
   9              		.file	"stm32l0xx_hal_rtc_ex.c"
  10              		.text
  11              		.section	.text.HAL_RTCEx_SetTimeStamp,"ax",%progbits
  12              		.align	1
  13              		.global	HAL_RTCEx_SetTimeStamp
  14              		.arch armv6s-m
  15              		.syntax unified
  16              		.code	16
  17              		.thumb_func
  18              		.fpu softvfp
  20              	HAL_RTCEx_SetTimeStamp:
  21              		@ args = 0, pretend = 0, frame = 0
  22              		@ frame_needed = 0, uses_anonymous_args = 0
  23 0000 0A00     		movs	r2, r1
  24 0002 0221     		movs	r1, #2
  25 0004 70B5     		push	{r4, r5, r6, lr}
  26 0006 441C     		adds	r4, r0, #1
  27 0008 E57F     		ldrb	r5, [r4, #31]
  28 000a 0300     		movs	r3, r0
  29 000c 0800     		movs	r0, r1
  30 000e 012D     		cmp	r5, #1
  31 0010 20D0     		beq	.L2
  32 0012 5D18     		adds	r5, r3, r1
  33 0014 E977     		strb	r1, [r5, #31]
  34 0016 1B68     		ldr	r3, [r3]
  35 0018 0F48     		ldr	r0, .L4
  36 001a 9968     		ldr	r1, [r3, #8]
  37 001c 0140     		ands	r1, r0
  38 001e 1143     		orrs	r1, r2
  39 0020 CA22     		movs	r2, #202
  40 0022 5A62     		str	r2, [r3, #36]
  41 0024 773A     		subs	r2, r2, #119
  42 0026 5A62     		str	r2, [r3, #36]
  43 0028 DE68     		ldr	r6, [r3, #12]
  44 002a AC32     		adds	r2, r2, #172
  45 002c 0B48     		ldr	r0, .L4+4
  46 002e 1640     		ands	r6, r2
  47 0030 3043     		orrs	r0, r6
  48 0032 D860     		str	r0, [r3, #12]
  49 0034 DE68     		ldr	r6, [r3, #12]
  50 0036 0A48     		ldr	r0, .L4+8
  51 0038 1640     		ands	r6, r2
  52 003a 3043     		orrs	r0, r6
  53 003c D860     		str	r0, [r3, #12]
  54 003e 9960     		str	r1, [r3, #8]
  55 0040 8021     		movs	r1, #128
  56 0042 9868     		ldr	r0, [r3, #8]
  57 0044 0901     		lsls	r1, r1, #4
  58 0046 0143     		orrs	r1, r0
ARM GAS  /tmp/ccYL221C.s 			page 2


  59 0048 9960     		str	r1, [r3, #8]
  60 004a 0020     		movs	r0, #0
  61 004c 5A62     		str	r2, [r3, #36]
  62 004e 0123     		movs	r3, #1
  63 0050 EB77     		strb	r3, [r5, #31]
  64 0052 E077     		strb	r0, [r4, #31]
  65              	.L2:
  66              		@ sp needed
  67 0054 70BD     		pop	{r4, r5, r6, pc}
  68              	.L5:
  69 0056 C046     		.align	2
  70              	.L4:
  71 0058 F7F7FFFF 		.word	-2057
  72 005c 7FF7FFFF 		.word	-2177
  73 0060 7FEFFFFF 		.word	-4225
  75              		.section	.text.HAL_RTCEx_SetTimeStamp_IT,"ax",%progbits
  76              		.align	1
  77              		.global	HAL_RTCEx_SetTimeStamp_IT
  78              		.syntax unified
  79              		.code	16
  80              		.thumb_func
  81              		.fpu softvfp
  83              	HAL_RTCEx_SetTimeStamp_IT:
  84              		@ args = 0, pretend = 0, frame = 0
  85              		@ frame_needed = 0, uses_anonymous_args = 0
  86 0000 0A00     		movs	r2, r1
  87 0002 0221     		movs	r1, #2
  88 0004 70B5     		push	{r4, r5, r6, lr}
  89 0006 441C     		adds	r4, r0, #1
  90 0008 E57F     		ldrb	r5, [r4, #31]
  91 000a 0300     		movs	r3, r0
  92 000c 0800     		movs	r0, r1
  93 000e 012D     		cmp	r5, #1
  94 0010 2ED0     		beq	.L7
  95 0012 5D18     		adds	r5, r3, r1
  96 0014 E977     		strb	r1, [r5, #31]
  97 0016 1B68     		ldr	r3, [r3]
  98 0018 1648     		ldr	r0, .L9
  99 001a 9968     		ldr	r1, [r3, #8]
 100 001c 0140     		ands	r1, r0
 101 001e 1143     		orrs	r1, r2
 102 0020 CA22     		movs	r2, #202
 103 0022 FF20     		movs	r0, #255
 104 0024 5A62     		str	r2, [r3, #36]
 105 0026 773A     		subs	r2, r2, #119
 106 0028 5A62     		str	r2, [r3, #36]
 107 002a DE68     		ldr	r6, [r3, #12]
 108 002c 124A     		ldr	r2, .L9+4
 109 002e 0640     		ands	r6, r0
 110 0030 3243     		orrs	r2, r6
 111 0032 DA60     		str	r2, [r3, #12]
 112 0034 DE68     		ldr	r6, [r3, #12]
 113 0036 114A     		ldr	r2, .L9+8
 114 0038 0640     		ands	r6, r0
 115 003a 3243     		orrs	r2, r6
 116 003c DA60     		str	r2, [r3, #12]
 117 003e 8022     		movs	r2, #128
ARM GAS  /tmp/ccYL221C.s 			page 3


 118 0040 9960     		str	r1, [r3, #8]
 119 0042 9968     		ldr	r1, [r3, #8]
 120 0044 1201     		lsls	r2, r2, #4
 121 0046 0A43     		orrs	r2, r1
 122 0048 9A60     		str	r2, [r3, #8]
 123 004a 8022     		movs	r2, #128
 124 004c 9968     		ldr	r1, [r3, #8]
 125 004e 1202     		lsls	r2, r2, #8
 126 0050 0A43     		orrs	r2, r1
 127 0052 8021     		movs	r1, #128
 128 0054 9A60     		str	r2, [r3, #8]
 129 0056 0A4A     		ldr	r2, .L9+12
 130 0058 0903     		lsls	r1, r1, #12
 131 005a 1668     		ldr	r6, [r2]
 132 005c 0E43     		orrs	r6, r1
 133 005e 1660     		str	r6, [r2]
 134 0060 9668     		ldr	r6, [r2, #8]
 135 0062 3143     		orrs	r1, r6
 136 0064 9160     		str	r1, [r2, #8]
 137 0066 5862     		str	r0, [r3, #36]
 138 0068 0123     		movs	r3, #1
 139 006a 0020     		movs	r0, #0
 140 006c EB77     		strb	r3, [r5, #31]
 141 006e E077     		strb	r0, [r4, #31]
 142              	.L7:
 143              		@ sp needed
 144 0070 70BD     		pop	{r4, r5, r6, pc}
 145              	.L10:
 146 0072 C046     		.align	2
 147              	.L9:
 148 0074 F7F7FFFF 		.word	-2057
 149 0078 7FF7FFFF 		.word	-2177
 150 007c 7FEFFFFF 		.word	-4225
 151 0080 00040140 		.word	1073808384
 153              		.section	.text.HAL_RTCEx_DeactivateTimeStamp,"ax",%progbits
 154              		.align	1
 155              		.global	HAL_RTCEx_DeactivateTimeStamp
 156              		.syntax unified
 157              		.code	16
 158              		.thumb_func
 159              		.fpu softvfp
 161              	HAL_RTCEx_DeactivateTimeStamp:
 162              		@ args = 0, pretend = 0, frame = 0
 163              		@ frame_needed = 0, uses_anonymous_args = 0
 164 0000 0222     		movs	r2, #2
 165 0002 10B5     		push	{r4, lr}
 166 0004 411C     		adds	r1, r0, #1
 167 0006 CC7F     		ldrb	r4, [r1, #31]
 168 0008 0300     		movs	r3, r0
 169 000a 1000     		movs	r0, r2
 170 000c 012C     		cmp	r4, #1
 171 000e 14D0     		beq	.L12
 172 0010 9818     		adds	r0, r3, r2
 173 0012 C277     		strb	r2, [r0, #31]
 174 0014 1B68     		ldr	r3, [r3]
 175 0016 C832     		adds	r2, r2, #200
 176 0018 5A62     		str	r2, [r3, #36]
ARM GAS  /tmp/ccYL221C.s 			page 4


 177 001a 773A     		subs	r2, r2, #119
 178 001c 5A62     		str	r2, [r3, #36]
 179 001e 9A68     		ldr	r2, [r3, #8]
 180 0020 064C     		ldr	r4, .L14
 181 0022 2240     		ands	r2, r4
 182 0024 9A60     		str	r2, [r3, #8]
 183 0026 9A68     		ldr	r2, [r3, #8]
 184 0028 054C     		ldr	r4, .L14+4
 185 002a 2240     		ands	r2, r4
 186 002c 9A60     		str	r2, [r3, #8]
 187 002e FF22     		movs	r2, #255
 188 0030 5A62     		str	r2, [r3, #36]
 189 0032 0123     		movs	r3, #1
 190 0034 C377     		strb	r3, [r0, #31]
 191 0036 0020     		movs	r0, #0
 192 0038 C877     		strb	r0, [r1, #31]
 193              	.L12:
 194              		@ sp needed
 195 003a 10BD     		pop	{r4, pc}
 196              	.L15:
 197              		.align	2
 198              	.L14:
 199 003c FF7FFFFF 		.word	-32769
 200 0040 F7F7FFFF 		.word	-2057
 202              		.section	.text.HAL_RTCEx_GetTimeStamp,"ax",%progbits
 203              		.align	1
 204              		.global	HAL_RTCEx_GetTimeStamp
 205              		.syntax unified
 206              		.code	16
 207              		.thumb_func
 208              		.fpu softvfp
 210              	HAL_RTCEx_GetTimeStamp:
 211              		@ args = 0, pretend = 0, frame = 8
 212              		@ frame_needed = 0, uses_anonymous_args = 0
 213 0000 F7B5     		push	{r0, r1, r2, r4, r5, r6, r7, lr}
 214 0002 0768     		ldr	r7, [r0]
 215 0004 0D00     		movs	r5, r1
 216 0006 1400     		movs	r4, r2
 217 0008 396B     		ldr	r1, [r7, #48]
 218 000a 204A     		ldr	r2, .L18
 219 000c 0600     		movs	r6, r0
 220 000e 1140     		ands	r1, r2
 221 0010 786B     		ldr	r0, [r7, #52]
 222 0012 1F4A     		ldr	r2, .L18+4
 223 0014 0193     		str	r3, [sp, #4]
 224 0016 0240     		ands	r2, r0
 225 0018 080C     		lsrs	r0, r1, #16
 226 001a 8446     		mov	ip, r0
 227 001c 3F20     		movs	r0, #63
 228 001e 6346     		mov	r3, ip
 229 0020 1840     		ands	r0, r3
 230 0022 0B0A     		lsrs	r3, r1, #8
 231 0024 6B70     		strb	r3, [r5, #1]
 232 0026 A970     		strb	r1, [r5, #2]
 233 0028 6346     		mov	r3, ip
 234 002a 4021     		movs	r1, #64
 235 002c 1940     		ands	r1, r3
ARM GAS  /tmp/ccYL221C.s 			page 5


 236 002e 2870     		strb	r0, [r5]
 237 0030 E970     		strb	r1, [r5, #3]
 238 0032 B96B     		ldr	r1, [r7, #56]
 239 0034 019B     		ldr	r3, [sp, #4]
 240 0036 6960     		str	r1, [r5, #4]
 241 0038 0021     		movs	r1, #0
 242 003a A270     		strb	r2, [r4, #2]
 243 003c E170     		strb	r1, [r4, #3]
 244 003e D104     		lsls	r1, r2, #19
 245 0040 1204     		lsls	r2, r2, #16
 246 0042 C90E     		lsrs	r1, r1, #27
 247 0044 520F     		lsrs	r2, r2, #29
 248 0046 6170     		strb	r1, [r4, #1]
 249 0048 2270     		strb	r2, [r4]
 250 004a 002B     		cmp	r3, #0
 251 004c 16D1     		bne	.L17
 252 004e FFF7FEFF 		bl	RTC_Bcd2ToByte
 253 0052 2870     		strb	r0, [r5]
 254 0054 6878     		ldrb	r0, [r5, #1]
 255 0056 FFF7FEFF 		bl	RTC_Bcd2ToByte
 256 005a 6870     		strb	r0, [r5, #1]
 257 005c A878     		ldrb	r0, [r5, #2]
 258 005e FFF7FEFF 		bl	RTC_Bcd2ToByte
 259 0062 A870     		strb	r0, [r5, #2]
 260 0064 6078     		ldrb	r0, [r4, #1]
 261 0066 FFF7FEFF 		bl	RTC_Bcd2ToByte
 262 006a 6070     		strb	r0, [r4, #1]
 263 006c A078     		ldrb	r0, [r4, #2]
 264 006e FFF7FEFF 		bl	RTC_Bcd2ToByte
 265 0072 A070     		strb	r0, [r4, #2]
 266 0074 2078     		ldrb	r0, [r4]
 267 0076 FFF7FEFF 		bl	RTC_Bcd2ToByte
 268 007a 2070     		strb	r0, [r4]
 269              	.L17:
 270 007c 3168     		ldr	r1, [r6]
 271 007e 054B     		ldr	r3, .L18+8
 272 0080 CA68     		ldr	r2, [r1, #12]
 273 0082 0020     		movs	r0, #0
 274              		@ sp needed
 275 0084 D2B2     		uxtb	r2, r2
 276 0086 1343     		orrs	r3, r2
 277 0088 CB60     		str	r3, [r1, #12]
 278 008a FEBD     		pop	{r1, r2, r3, r4, r5, r6, r7, pc}
 279              	.L19:
 280              		.align	2
 281              	.L18:
 282 008c 7F7F7F00 		.word	8355711
 283 0090 3FFFFF00 		.word	16777023
 284 0094 7FF7FFFF 		.word	-2177
 286              		.section	.text.HAL_RTCEx_SetTamper,"ax",%progbits
 287              		.align	1
 288              		.global	HAL_RTCEx_SetTamper
 289              		.syntax unified
 290              		.code	16
 291              		.thumb_func
 292              		.fpu softvfp
 294              	HAL_RTCEx_SetTamper:
ARM GAS  /tmp/ccYL221C.s 			page 6


 295              		@ args = 0, pretend = 0, frame = 0
 296              		@ frame_needed = 0, uses_anonymous_args = 0
 297 0000 0222     		movs	r2, #2
 298 0002 F0B5     		push	{r4, r5, r6, r7, lr}
 299 0004 451C     		adds	r5, r0, #1
 300 0006 EB7F     		ldrb	r3, [r5, #31]
 301 0008 0400     		movs	r4, r0
 302 000a 1000     		movs	r0, r2
 303 000c 012B     		cmp	r3, #1
 304 000e 54D0     		beq	.L21
 305 0010 0123     		movs	r3, #1
 306 0012 A018     		adds	r0, r4, r2
 307 0014 EB77     		strb	r3, [r5, #31]
 308 0016 C277     		strb	r2, [r0, #31]
 309 0018 0A68     		ldr	r2, [r1]
 310 001a 8F68     		ldr	r7, [r1, #8]
 311 001c 5600     		lsls	r6, r2, #1
 312 001e 002F     		cmp	r7, #0
 313 0020 00D0     		beq	.L22
 314 0022 8E60     		str	r6, [r1, #8]
 315              	.L22:
 316 0024 CF68     		ldr	r7, [r1, #12]
 317 0026 002F     		cmp	r7, #0
 318 0028 12D0     		beq	.L24
 319 002a 1700     		movs	r7, r2
 320 002c 1F40     		ands	r7, r3
 321 002e 1A42     		tst	r2, r3
 322 0030 44D1     		bne	.L25
 323 0032 CF60     		str	r7, [r1, #12]
 324              	.L26:
 325 0034 1307     		lsls	r3, r2, #28
 326 0036 04D5     		bpl	.L27
 327 0038 8023     		movs	r3, #128
 328 003a CF68     		ldr	r7, [r1, #12]
 329 003c 5B03     		lsls	r3, r3, #13
 330 003e 3B43     		orrs	r3, r7
 331 0040 CB60     		str	r3, [r1, #12]
 332              	.L27:
 333 0042 9306     		lsls	r3, r2, #26
 334 0044 04D5     		bpl	.L24
 335 0046 8023     		movs	r3, #128
 336 0048 CF68     		ldr	r7, [r1, #12]
 337 004a 1B04     		lsls	r3, r3, #16
 338 004c 3B43     		orrs	r3, r7
 339 004e CB60     		str	r3, [r1, #12]
 340              	.L24:
 341 0050 0B69     		ldr	r3, [r1, #16]
 342 0052 002B     		cmp	r3, #0
 343 0054 13D0     		beq	.L30
 344 0056 0123     		movs	r3, #1
 345 0058 1700     		movs	r7, r2
 346 005a 1F40     		ands	r7, r3
 347 005c 1A42     		tst	r2, r3
 348 005e 31D1     		bne	.L31
 349 0060 0F61     		str	r7, [r1, #16]
 350              	.L32:
 351 0062 1307     		lsls	r3, r2, #28
ARM GAS  /tmp/ccYL221C.s 			page 7


 352 0064 04D5     		bpl	.L33
 353 0066 8023     		movs	r3, #128
 354 0068 0F69     		ldr	r7, [r1, #16]
 355 006a 9B03     		lsls	r3, r3, #14
 356 006c 3B43     		orrs	r3, r7
 357 006e 0B61     		str	r3, [r1, #16]
 358              	.L33:
 359 0070 9306     		lsls	r3, r2, #26
 360 0072 04D5     		bpl	.L30
 361 0074 8023     		movs	r3, #128
 362 0076 0F69     		ldr	r7, [r1, #16]
 363 0078 5B04     		lsls	r3, r3, #17
 364 007a 3B43     		orrs	r3, r7
 365 007c 0B61     		str	r3, [r1, #16]
 366              	.L30:
 367 007e 8B68     		ldr	r3, [r1, #8]
 368 0080 CF68     		ldr	r7, [r1, #12]
 369 0082 1343     		orrs	r3, r2
 370 0084 3B43     		orrs	r3, r7
 371 0086 0F69     		ldr	r7, [r1, #16]
 372 0088 3243     		orrs	r2, r6
 373 008a 3B43     		orrs	r3, r7
 374 008c 4F69     		ldr	r7, [r1, #20]
 375 008e 0F4E     		ldr	r6, .L51
 376 0090 3B43     		orrs	r3, r7
 377 0092 8F69     		ldr	r7, [r1, #24]
 378 0094 3243     		orrs	r2, r6
 379 0096 3B43     		orrs	r3, r7
 380 0098 CF69     		ldr	r7, [r1, #28]
 381 009a 3B43     		orrs	r3, r7
 382 009c 0F6A     		ldr	r7, [r1, #32]
 383 009e 496A     		ldr	r1, [r1, #36]
 384 00a0 3B43     		orrs	r3, r7
 385 00a2 0B43     		orrs	r3, r1
 386 00a4 2168     		ldr	r1, [r4]
 387 00a6 0C6C     		ldr	r4, [r1, #64]
 388 00a8 9443     		bics	r4, r2
 389 00aa 0C64     		str	r4, [r1, #64]
 390 00ac 0A6C     		ldr	r2, [r1, #64]
 391 00ae 1343     		orrs	r3, r2
 392 00b0 0B64     		str	r3, [r1, #64]
 393 00b2 0123     		movs	r3, #1
 394 00b4 C377     		strb	r3, [r0, #31]
 395 00b6 0020     		movs	r0, #0
 396 00b8 E877     		strb	r0, [r5, #31]
 397              	.L21:
 398              		@ sp needed
 399 00ba F0BD     		pop	{r4, r5, r6, r7, pc}
 400              	.L25:
 401 00bc 8023     		movs	r3, #128
 402 00be 9B02     		lsls	r3, r3, #10
 403 00c0 CB60     		str	r3, [r1, #12]
 404 00c2 B7E7     		b	.L26
 405              	.L31:
 406 00c4 8023     		movs	r3, #128
 407 00c6 DB02     		lsls	r3, r3, #11
 408 00c8 0B61     		str	r3, [r1, #16]
ARM GAS  /tmp/ccYL221C.s 			page 8


 409 00ca CAE7     		b	.L32
 410              	.L52:
 411              		.align	2
 412              	.L51:
 413 00cc 84FFFF01 		.word	33554308
 415              		.section	.text.HAL_RTCEx_SetTamper_IT,"ax",%progbits
 416              		.align	1
 417              		.global	HAL_RTCEx_SetTamper_IT
 418              		.syntax unified
 419              		.code	16
 420              		.thumb_func
 421              		.fpu softvfp
 423              	HAL_RTCEx_SetTamper_IT:
 424              		@ args = 0, pretend = 0, frame = 0
 425              		@ frame_needed = 0, uses_anonymous_args = 0
 426 0000 0222     		movs	r2, #2
 427 0002 F0B5     		push	{r4, r5, r6, r7, lr}
 428 0004 451C     		adds	r5, r0, #1
 429 0006 EB7F     		ldrb	r3, [r5, #31]
 430 0008 0400     		movs	r4, r0
 431 000a 1000     		movs	r0, r2
 432 000c 012B     		cmp	r3, #1
 433 000e 5FD0     		beq	.L54
 434 0010 0123     		movs	r3, #1
 435 0012 A018     		adds	r0, r4, r2
 436 0014 EB77     		strb	r3, [r5, #31]
 437 0016 C277     		strb	r2, [r0, #31]
 438 0018 0A68     		ldr	r2, [r1]
 439 001a 8F68     		ldr	r7, [r1, #8]
 440 001c 5600     		lsls	r6, r2, #1
 441 001e 002F     		cmp	r7, #0
 442 0020 00D0     		beq	.L55
 443 0022 8E60     		str	r6, [r1, #8]
 444              	.L55:
 445 0024 CF68     		ldr	r7, [r1, #12]
 446 0026 002F     		cmp	r7, #0
 447 0028 12D0     		beq	.L57
 448 002a 1700     		movs	r7, r2
 449 002c 1F40     		ands	r7, r3
 450 002e 1A42     		tst	r2, r3
 451 0030 4FD1     		bne	.L58
 452 0032 CF60     		str	r7, [r1, #12]
 453              	.L59:
 454 0034 1307     		lsls	r3, r2, #28
 455 0036 04D5     		bpl	.L60
 456 0038 8023     		movs	r3, #128
 457 003a CF68     		ldr	r7, [r1, #12]
 458 003c 5B03     		lsls	r3, r3, #13
 459 003e 3B43     		orrs	r3, r7
 460 0040 CB60     		str	r3, [r1, #12]
 461              	.L60:
 462 0042 9306     		lsls	r3, r2, #26
 463 0044 04D5     		bpl	.L57
 464 0046 8023     		movs	r3, #128
 465 0048 CF68     		ldr	r7, [r1, #12]
 466 004a 1B04     		lsls	r3, r3, #16
 467 004c 3B43     		orrs	r3, r7
ARM GAS  /tmp/ccYL221C.s 			page 9


 468 004e CB60     		str	r3, [r1, #12]
 469              	.L57:
 470 0050 0B69     		ldr	r3, [r1, #16]
 471 0052 002B     		cmp	r3, #0
 472 0054 13D0     		beq	.L63
 473 0056 0123     		movs	r3, #1
 474 0058 1700     		movs	r7, r2
 475 005a 1F40     		ands	r7, r3
 476 005c 1A42     		tst	r2, r3
 477 005e 3CD1     		bne	.L64
 478 0060 0F61     		str	r7, [r1, #16]
 479              	.L65:
 480 0062 1307     		lsls	r3, r2, #28
 481 0064 04D5     		bpl	.L66
 482 0066 8023     		movs	r3, #128
 483 0068 0F69     		ldr	r7, [r1, #16]
 484 006a 9B03     		lsls	r3, r3, #14
 485 006c 3B43     		orrs	r3, r7
 486 006e 0B61     		str	r3, [r1, #16]
 487              	.L66:
 488 0070 9306     		lsls	r3, r2, #26
 489 0072 04D5     		bpl	.L63
 490 0074 8023     		movs	r3, #128
 491 0076 0F69     		ldr	r7, [r1, #16]
 492 0078 5B04     		lsls	r3, r3, #17
 493 007a 3B43     		orrs	r3, r7
 494 007c 0B61     		str	r3, [r1, #16]
 495              	.L63:
 496 007e 4B68     		ldr	r3, [r1, #4]
 497 0080 8F68     		ldr	r7, [r1, #8]
 498 0082 1343     		orrs	r3, r2
 499 0084 3B43     		orrs	r3, r7
 500 0086 CF68     		ldr	r7, [r1, #12]
 501 0088 3243     		orrs	r2, r6
 502 008a 3B43     		orrs	r3, r7
 503 008c 0F69     		ldr	r7, [r1, #16]
 504 008e 154E     		ldr	r6, .L84
 505 0090 3B43     		orrs	r3, r7
 506 0092 4F69     		ldr	r7, [r1, #20]
 507 0094 3243     		orrs	r2, r6
 508 0096 3B43     		orrs	r3, r7
 509 0098 8F69     		ldr	r7, [r1, #24]
 510 009a 3B43     		orrs	r3, r7
 511 009c CF69     		ldr	r7, [r1, #28]
 512 009e 3B43     		orrs	r3, r7
 513 00a0 0F6A     		ldr	r7, [r1, #32]
 514 00a2 496A     		ldr	r1, [r1, #36]
 515 00a4 3B43     		orrs	r3, r7
 516 00a6 0B43     		orrs	r3, r1
 517 00a8 2168     		ldr	r1, [r4]
 518 00aa 0C6C     		ldr	r4, [r1, #64]
 519 00ac 9443     		bics	r4, r2
 520 00ae 0C64     		str	r4, [r1, #64]
 521 00b0 0A6C     		ldr	r2, [r1, #64]
 522 00b2 1343     		orrs	r3, r2
 523 00b4 8022     		movs	r2, #128
 524 00b6 0B64     		str	r3, [r1, #64]
ARM GAS  /tmp/ccYL221C.s 			page 10


 525 00b8 0B4B     		ldr	r3, .L84+4
 526 00ba 1203     		lsls	r2, r2, #12
 527 00bc 1968     		ldr	r1, [r3]
 528 00be 1143     		orrs	r1, r2
 529 00c0 1960     		str	r1, [r3]
 530 00c2 9968     		ldr	r1, [r3, #8]
 531 00c4 0A43     		orrs	r2, r1
 532 00c6 9A60     		str	r2, [r3, #8]
 533 00c8 0123     		movs	r3, #1
 534 00ca C377     		strb	r3, [r0, #31]
 535 00cc 0020     		movs	r0, #0
 536 00ce E877     		strb	r0, [r5, #31]
 537              	.L54:
 538              		@ sp needed
 539 00d0 F0BD     		pop	{r4, r5, r6, r7, pc}
 540              	.L58:
 541 00d2 8023     		movs	r3, #128
 542 00d4 9B02     		lsls	r3, r3, #10
 543 00d6 CB60     		str	r3, [r1, #12]
 544 00d8 ACE7     		b	.L59
 545              	.L64:
 546 00da 8023     		movs	r3, #128
 547 00dc DB02     		lsls	r3, r3, #11
 548 00de 0B61     		str	r3, [r1, #16]
 549 00e0 BFE7     		b	.L65
 550              	.L85:
 551 00e2 C046     		.align	2
 552              	.L84:
 553 00e4 84FFFF01 		.word	33554308
 554 00e8 00040140 		.word	1073808384
 556              		.section	.text.HAL_RTCEx_DeactivateTamper,"ax",%progbits
 557              		.align	1
 558              		.global	HAL_RTCEx_DeactivateTamper
 559              		.syntax unified
 560              		.code	16
 561              		.thumb_func
 562              		.fpu softvfp
 564              	HAL_RTCEx_DeactivateTamper:
 565              		@ args = 0, pretend = 0, frame = 0
 566              		@ frame_needed = 0, uses_anonymous_args = 0
 567 0000 0222     		movs	r2, #2
 568 0002 30B5     		push	{r4, r5, lr}
 569 0004 441C     		adds	r4, r0, #1
 570 0006 E57F     		ldrb	r5, [r4, #31]
 571 0008 0300     		movs	r3, r0
 572 000a 1000     		movs	r0, r2
 573 000c 012D     		cmp	r5, #1
 574 000e 1BD0     		beq	.L87
 575 0010 9818     		adds	r0, r3, r2
 576 0012 C277     		strb	r2, [r0, #31]
 577 0014 1B68     		ldr	r3, [r3]
 578 0016 1A6C     		ldr	r2, [r3, #64]
 579 0018 8A43     		bics	r2, r1
 580 001a 1A64     		str	r2, [r3, #64]
 581 001c CA07     		lsls	r2, r1, #31
 582 001e 03D5     		bpl	.L88
 583 0020 1A6C     		ldr	r2, [r3, #64]
ARM GAS  /tmp/ccYL221C.s 			page 11


 584 0022 0A4D     		ldr	r5, .L101
 585 0024 2A40     		ands	r2, r5
 586 0026 1A64     		str	r2, [r3, #64]
 587              	.L88:
 588 0028 0A07     		lsls	r2, r1, #28
 589 002a 03D5     		bpl	.L89
 590 002c 1A6C     		ldr	r2, [r3, #64]
 591 002e 084D     		ldr	r5, .L101+4
 592 0030 2A40     		ands	r2, r5
 593 0032 1A64     		str	r2, [r3, #64]
 594              	.L89:
 595 0034 8A06     		lsls	r2, r1, #26
 596 0036 03D5     		bpl	.L90
 597 0038 1A6C     		ldr	r2, [r3, #64]
 598 003a 0649     		ldr	r1, .L101+8
 599 003c 0A40     		ands	r2, r1
 600 003e 1A64     		str	r2, [r3, #64]
 601              	.L90:
 602 0040 0123     		movs	r3, #1
 603 0042 C377     		strb	r3, [r0, #31]
 604 0044 0020     		movs	r0, #0
 605 0046 E077     		strb	r0, [r4, #31]
 606              	.L87:
 607              		@ sp needed
 608 0048 30BD     		pop	{r4, r5, pc}
 609              	.L102:
 610 004a C046     		.align	2
 611              	.L101:
 612 004c FBFFFEFF 		.word	-65541
 613 0050 FBFFF7FF 		.word	-524293
 614 0054 FBFFBFFF 		.word	-4194309
 616              		.section	.text.HAL_RTCEx_TimeStampEventCallback,"ax",%progbits
 617              		.align	1
 618              		.weak	HAL_RTCEx_TimeStampEventCallback
 619              		.syntax unified
 620              		.code	16
 621              		.thumb_func
 622              		.fpu softvfp
 624              	HAL_RTCEx_TimeStampEventCallback:
 625              		@ args = 0, pretend = 0, frame = 0
 626              		@ frame_needed = 0, uses_anonymous_args = 0
 627              		@ link register save eliminated.
 628              		@ sp needed
 629 0000 7047     		bx	lr
 631              		.section	.text.HAL_RTCEx_Tamper1EventCallback,"ax",%progbits
 632              		.align	1
 633              		.weak	HAL_RTCEx_Tamper1EventCallback
 634              		.syntax unified
 635              		.code	16
 636              		.thumb_func
 637              		.fpu softvfp
 639              	HAL_RTCEx_Tamper1EventCallback:
 640              		@ args = 0, pretend = 0, frame = 0
 641              		@ frame_needed = 0, uses_anonymous_args = 0
 642              		@ link register save eliminated.
 643              		@ sp needed
 644 0000 7047     		bx	lr
ARM GAS  /tmp/ccYL221C.s 			page 12


 646              		.section	.text.HAL_RTCEx_Tamper2EventCallback,"ax",%progbits
 647              		.align	1
 648              		.weak	HAL_RTCEx_Tamper2EventCallback
 649              		.syntax unified
 650              		.code	16
 651              		.thumb_func
 652              		.fpu softvfp
 654              	HAL_RTCEx_Tamper2EventCallback:
 655              		@ args = 0, pretend = 0, frame = 0
 656              		@ frame_needed = 0, uses_anonymous_args = 0
 657              		@ link register save eliminated.
 658              		@ sp needed
 659 0000 7047     		bx	lr
 661              		.section	.text.HAL_RTCEx_Tamper3EventCallback,"ax",%progbits
 662              		.align	1
 663              		.weak	HAL_RTCEx_Tamper3EventCallback
 664              		.syntax unified
 665              		.code	16
 666              		.thumb_func
 667              		.fpu softvfp
 669              	HAL_RTCEx_Tamper3EventCallback:
 670              		@ args = 0, pretend = 0, frame = 0
 671              		@ frame_needed = 0, uses_anonymous_args = 0
 672              		@ link register save eliminated.
 673              		@ sp needed
 674 0000 7047     		bx	lr
 676              		.section	.text.HAL_RTCEx_TamperTimeStampIRQHandler,"ax",%progbits
 677              		.align	1
 678              		.global	HAL_RTCEx_TamperTimeStampIRQHandler
 679              		.syntax unified
 680              		.code	16
 681              		.thumb_func
 682              		.fpu softvfp
 684              	HAL_RTCEx_TamperTimeStampIRQHandler:
 685              		@ args = 0, pretend = 0, frame = 0
 686              		@ frame_needed = 0, uses_anonymous_args = 0
 687 0000 0368     		ldr	r3, [r0]
 688 0002 10B5     		push	{r4, lr}
 689 0004 9A68     		ldr	r2, [r3, #8]
 690 0006 0400     		movs	r4, r0
 691 0008 1204     		lsls	r2, r2, #16
 692 000a 0AD5     		bpl	.L108
 693 000c DB68     		ldr	r3, [r3, #12]
 694 000e 1B05     		lsls	r3, r3, #20
 695 0010 07D5     		bpl	.L108
 696 0012 FFF7FEFF 		bl	HAL_RTCEx_TimeStampEventCallback
 697 0016 2168     		ldr	r1, [r4]
 698 0018 1F4B     		ldr	r3, .L136
 699 001a CA68     		ldr	r2, [r1, #12]
 700 001c D2B2     		uxtb	r2, r2
 701 001e 1343     		orrs	r3, r2
 702 0020 CB60     		str	r3, [r1, #12]
 703              	.L108:
 704 0022 2368     		ldr	r3, [r4]
 705 0024 1D4A     		ldr	r2, .L136+4
 706 0026 196C     		ldr	r1, [r3, #64]
 707 0028 1142     		tst	r1, r2
ARM GAS  /tmp/ccYL221C.s 			page 13


 708 002a 0BD0     		beq	.L109
 709 002c DB68     		ldr	r3, [r3, #12]
 710 002e 9B04     		lsls	r3, r3, #18
 711 0030 08D5     		bpl	.L109
 712 0032 2000     		movs	r0, r4
 713 0034 FFF7FEFF 		bl	HAL_RTCEx_Tamper1EventCallback
 714 0038 2168     		ldr	r1, [r4]
 715 003a 194B     		ldr	r3, .L136+8
 716 003c CA68     		ldr	r2, [r1, #12]
 717 003e D2B2     		uxtb	r2, r2
 718 0040 1343     		orrs	r3, r2
 719 0042 CB60     		str	r3, [r1, #12]
 720              	.L109:
 721 0044 2368     		ldr	r3, [r4]
 722 0046 174A     		ldr	r2, .L136+12
 723 0048 196C     		ldr	r1, [r3, #64]
 724 004a 1142     		tst	r1, r2
 725 004c 0BD0     		beq	.L110
 726 004e DB68     		ldr	r3, [r3, #12]
 727 0050 5B04     		lsls	r3, r3, #17
 728 0052 08D5     		bpl	.L110
 729 0054 2000     		movs	r0, r4
 730 0056 FFF7FEFF 		bl	HAL_RTCEx_Tamper2EventCallback
 731 005a 2168     		ldr	r1, [r4]
 732 005c 124B     		ldr	r3, .L136+16
 733 005e CA68     		ldr	r2, [r1, #12]
 734 0060 D2B2     		uxtb	r2, r2
 735 0062 1343     		orrs	r3, r2
 736 0064 CB60     		str	r3, [r1, #12]
 737              	.L110:
 738 0066 2368     		ldr	r3, [r4]
 739 0068 104A     		ldr	r2, .L136+20
 740 006a 196C     		ldr	r1, [r3, #64]
 741 006c 1142     		tst	r1, r2
 742 006e 0BD0     		beq	.L111
 743 0070 DB68     		ldr	r3, [r3, #12]
 744 0072 1B04     		lsls	r3, r3, #16
 745 0074 08D5     		bpl	.L111
 746 0076 2000     		movs	r0, r4
 747 0078 FFF7FEFF 		bl	HAL_RTCEx_Tamper3EventCallback
 748 007c 2168     		ldr	r1, [r4]
 749 007e 0C4B     		ldr	r3, .L136+24
 750 0080 CA68     		ldr	r2, [r1, #12]
 751 0082 D2B2     		uxtb	r2, r2
 752 0084 1343     		orrs	r3, r2
 753 0086 CB60     		str	r3, [r1, #12]
 754              	.L111:
 755 0088 8022     		movs	r2, #128
 756              		@ sp needed
 757 008a 0A4B     		ldr	r3, .L136+28
 758 008c 1203     		lsls	r2, r2, #12
 759 008e 5A61     		str	r2, [r3, #20]
 760 0090 0123     		movs	r3, #1
 761 0092 0234     		adds	r4, r4, #2
 762 0094 E377     		strb	r3, [r4, #31]
 763 0096 10BD     		pop	{r4, pc}
 764              	.L137:
ARM GAS  /tmp/ccYL221C.s 			page 14


 765              		.align	2
 766              	.L136:
 767 0098 7FF7FFFF 		.word	-2177
 768 009c 04000100 		.word	65540
 769 00a0 7FDFFFFF 		.word	-8321
 770 00a4 04000800 		.word	524292
 771 00a8 7FBFFFFF 		.word	-16513
 772 00ac 04004000 		.word	4194308
 773 00b0 7F7FFFFF 		.word	-32897
 774 00b4 00040140 		.word	1073808384
 776              		.section	.text.HAL_RTCEx_PollForTimeStampEvent,"ax",%progbits
 777              		.align	1
 778              		.global	HAL_RTCEx_PollForTimeStampEvent
 779              		.syntax unified
 780              		.code	16
 781              		.thumb_func
 782              		.fpu softvfp
 784              	HAL_RTCEx_PollForTimeStampEvent:
 785              		@ args = 0, pretend = 0, frame = 0
 786              		@ frame_needed = 0, uses_anonymous_args = 0
 787 0000 F8B5     		push	{r3, r4, r5, r6, r7, lr}
 788 0002 0400     		movs	r4, r0
 789 0004 0D00     		movs	r5, r1
 790 0006 FFF7FEFF 		bl	HAL_GetTick
 791 000a 8027     		movs	r7, #128
 792 000c 0600     		movs	r6, r0
 793 000e 7F01     		lsls	r7, r7, #5
 794              	.L139:
 795 0010 2368     		ldr	r3, [r4]
 796              	.L142:
 797 0012 8021     		movs	r1, #128
 798 0014 DA68     		ldr	r2, [r3, #12]
 799 0016 0901     		lsls	r1, r1, #4
 800 0018 0A42     		tst	r2, r1
 801 001a 04D0     		beq	.L144
 802 001c 0123     		movs	r3, #1
 803 001e 0234     		adds	r4, r4, #2
 804 0020 0020     		movs	r0, #0
 805 0022 E377     		strb	r3, [r4, #31]
 806 0024 0BE0     		b	.L141
 807              	.L144:
 808 0026 DA68     		ldr	r2, [r3, #12]
 809 0028 3A42     		tst	r2, r7
 810 002a 09D0     		beq	.L140
 811 002c D968     		ldr	r1, [r3, #12]
 812 002e 0B4A     		ldr	r2, .L148
 813 0030 C9B2     		uxtb	r1, r1
 814 0032 0A43     		orrs	r2, r1
 815 0034 DA60     		str	r2, [r3, #12]
 816 0036 0423     		movs	r3, #4
 817 0038 0120     		movs	r0, #1
 818 003a 0234     		adds	r4, r4, #2
 819 003c E377     		strb	r3, [r4, #31]
 820              	.L141:
 821              		@ sp needed
 822 003e F8BD     		pop	{r3, r4, r5, r6, r7, pc}
 823              	.L140:
ARM GAS  /tmp/ccYL221C.s 			page 15


 824 0040 6A1C     		adds	r2, r5, #1
 825 0042 E6D0     		beq	.L142
 826 0044 FFF7FEFF 		bl	HAL_GetTick
 827 0048 801B     		subs	r0, r0, r6
 828 004a A842     		cmp	r0, r5
 829 004c 01D8     		bhi	.L143
 830 004e 002D     		cmp	r5, #0
 831 0050 DED1     		bne	.L139
 832              	.L143:
 833 0052 0320     		movs	r0, #3
 834 0054 0234     		adds	r4, r4, #2
 835 0056 E077     		strb	r0, [r4, #31]
 836 0058 F1E7     		b	.L141
 837              	.L149:
 838 005a C046     		.align	2
 839              	.L148:
 840 005c 7FEFFFFF 		.word	-4225
 842              		.section	.text.HAL_RTCEx_PollForTamper1Event,"ax",%progbits
 843              		.align	1
 844              		.global	HAL_RTCEx_PollForTamper1Event
 845              		.syntax unified
 846              		.code	16
 847              		.thumb_func
 848              		.fpu softvfp
 850              	HAL_RTCEx_PollForTamper1Event:
 851              		@ args = 0, pretend = 0, frame = 0
 852              		@ frame_needed = 0, uses_anonymous_args = 0
 853 0000 F8B5     		push	{r3, r4, r5, r6, r7, lr}
 854 0002 0400     		movs	r4, r0
 855 0004 0D00     		movs	r5, r1
 856 0006 FFF7FEFF 		bl	HAL_GetTick
 857 000a 8027     		movs	r7, #128
 858 000c 0600     		movs	r6, r0
 859 000e BF01     		lsls	r7, r7, #6
 860              	.L151:
 861 0010 2368     		ldr	r3, [r4]
 862              	.L152:
 863 0012 DA68     		ldr	r2, [r3, #12]
 864 0014 3A42     		tst	r2, r7
 865 0016 09D0     		beq	.L155
 866 0018 D968     		ldr	r1, [r3, #12]
 867 001a 0B4A     		ldr	r2, .L159
 868 001c C9B2     		uxtb	r1, r1
 869 001e 0A43     		orrs	r2, r1
 870 0020 DA60     		str	r2, [r3, #12]
 871 0022 0123     		movs	r3, #1
 872 0024 0234     		adds	r4, r4, #2
 873 0026 0020     		movs	r0, #0
 874 0028 E377     		strb	r3, [r4, #31]
 875 002a 0BE0     		b	.L154
 876              	.L155:
 877 002c 6A1C     		adds	r2, r5, #1
 878 002e F0D0     		beq	.L152
 879 0030 FFF7FEFF 		bl	HAL_GetTick
 880 0034 801B     		subs	r0, r0, r6
 881 0036 A842     		cmp	r0, r5
 882 0038 01D8     		bhi	.L153
ARM GAS  /tmp/ccYL221C.s 			page 16


 883 003a 002D     		cmp	r5, #0
 884 003c E8D1     		bne	.L151
 885              	.L153:
 886 003e 0320     		movs	r0, #3
 887 0040 0234     		adds	r4, r4, #2
 888 0042 E077     		strb	r0, [r4, #31]
 889              	.L154:
 890              		@ sp needed
 891 0044 F8BD     		pop	{r3, r4, r5, r6, r7, pc}
 892              	.L160:
 893 0046 C046     		.align	2
 894              	.L159:
 895 0048 7FDFFFFF 		.word	-8321
 897              		.section	.text.HAL_RTCEx_PollForTamper2Event,"ax",%progbits
 898              		.align	1
 899              		.global	HAL_RTCEx_PollForTamper2Event
 900              		.syntax unified
 901              		.code	16
 902              		.thumb_func
 903              		.fpu softvfp
 905              	HAL_RTCEx_PollForTamper2Event:
 906              		@ args = 0, pretend = 0, frame = 0
 907              		@ frame_needed = 0, uses_anonymous_args = 0
 908 0000 F8B5     		push	{r3, r4, r5, r6, r7, lr}
 909 0002 0400     		movs	r4, r0
 910 0004 0D00     		movs	r5, r1
 911 0006 FFF7FEFF 		bl	HAL_GetTick
 912 000a 8027     		movs	r7, #128
 913 000c 0600     		movs	r6, r0
 914 000e FF01     		lsls	r7, r7, #7
 915              	.L162:
 916 0010 2368     		ldr	r3, [r4]
 917              	.L163:
 918 0012 DA68     		ldr	r2, [r3, #12]
 919 0014 3A42     		tst	r2, r7
 920 0016 09D0     		beq	.L166
 921 0018 D968     		ldr	r1, [r3, #12]
 922 001a 0B4A     		ldr	r2, .L170
 923 001c C9B2     		uxtb	r1, r1
 924 001e 0A43     		orrs	r2, r1
 925 0020 DA60     		str	r2, [r3, #12]
 926 0022 0123     		movs	r3, #1
 927 0024 0234     		adds	r4, r4, #2
 928 0026 0020     		movs	r0, #0
 929 0028 E377     		strb	r3, [r4, #31]
 930 002a 0BE0     		b	.L165
 931              	.L166:
 932 002c 6A1C     		adds	r2, r5, #1
 933 002e F0D0     		beq	.L163
 934 0030 FFF7FEFF 		bl	HAL_GetTick
 935 0034 801B     		subs	r0, r0, r6
 936 0036 A842     		cmp	r0, r5
 937 0038 01D8     		bhi	.L164
 938 003a 002D     		cmp	r5, #0
 939 003c E8D1     		bne	.L162
 940              	.L164:
 941 003e 0320     		movs	r0, #3
ARM GAS  /tmp/ccYL221C.s 			page 17


 942 0040 0234     		adds	r4, r4, #2
 943 0042 E077     		strb	r0, [r4, #31]
 944              	.L165:
 945              		@ sp needed
 946 0044 F8BD     		pop	{r3, r4, r5, r6, r7, pc}
 947              	.L171:
 948 0046 C046     		.align	2
 949              	.L170:
 950 0048 7FBFFFFF 		.word	-16513
 952              		.section	.text.HAL_RTCEx_PollForTamper3Event,"ax",%progbits
 953              		.align	1
 954              		.global	HAL_RTCEx_PollForTamper3Event
 955              		.syntax unified
 956              		.code	16
 957              		.thumb_func
 958              		.fpu softvfp
 960              	HAL_RTCEx_PollForTamper3Event:
 961              		@ args = 0, pretend = 0, frame = 0
 962              		@ frame_needed = 0, uses_anonymous_args = 0
 963 0000 F8B5     		push	{r3, r4, r5, r6, r7, lr}
 964 0002 0400     		movs	r4, r0
 965 0004 0D00     		movs	r5, r1
 966 0006 FFF7FEFF 		bl	HAL_GetTick
 967 000a 8027     		movs	r7, #128
 968 000c 0600     		movs	r6, r0
 969 000e 3F02     		lsls	r7, r7, #8
 970              	.L173:
 971 0010 2368     		ldr	r3, [r4]
 972              	.L174:
 973 0012 DA68     		ldr	r2, [r3, #12]
 974 0014 3A42     		tst	r2, r7
 975 0016 09D0     		beq	.L177
 976 0018 D968     		ldr	r1, [r3, #12]
 977 001a 0B4A     		ldr	r2, .L181
 978 001c C9B2     		uxtb	r1, r1
 979 001e 0A43     		orrs	r2, r1
 980 0020 DA60     		str	r2, [r3, #12]
 981 0022 0123     		movs	r3, #1
 982 0024 0234     		adds	r4, r4, #2
 983 0026 0020     		movs	r0, #0
 984 0028 E377     		strb	r3, [r4, #31]
 985 002a 0BE0     		b	.L176
 986              	.L177:
 987 002c 6A1C     		adds	r2, r5, #1
 988 002e F0D0     		beq	.L174
 989 0030 FFF7FEFF 		bl	HAL_GetTick
 990 0034 801B     		subs	r0, r0, r6
 991 0036 A842     		cmp	r0, r5
 992 0038 01D8     		bhi	.L175
 993 003a 002D     		cmp	r5, #0
 994 003c E8D1     		bne	.L173
 995              	.L175:
 996 003e 0320     		movs	r0, #3
 997 0040 0234     		adds	r4, r4, #2
 998 0042 E077     		strb	r0, [r4, #31]
 999              	.L176:
 1000              		@ sp needed
ARM GAS  /tmp/ccYL221C.s 			page 18


 1001 0044 F8BD     		pop	{r3, r4, r5, r6, r7, pc}
 1002              	.L182:
 1003 0046 C046     		.align	2
 1004              	.L181:
 1005 0048 7F7FFFFF 		.word	-32897
 1007              		.section	.text.HAL_RTCEx_SetWakeUpTimer,"ax",%progbits
 1008              		.align	1
 1009              		.global	HAL_RTCEx_SetWakeUpTimer
 1010              		.syntax unified
 1011              		.code	16
 1012              		.thumb_func
 1013              		.fpu softvfp
 1015              	HAL_RTCEx_SetWakeUpTimer:
 1016              		@ args = 0, pretend = 0, frame = 16
 1017              		@ frame_needed = 0, uses_anonymous_args = 0
 1018 0000 0223     		movs	r3, #2
 1019 0002 F0B5     		push	{r4, r5, r6, r7, lr}
 1020 0004 85B0     		sub	sp, sp, #20
 1021 0006 461C     		adds	r6, r0, #1
 1022 0008 0191     		str	r1, [sp, #4]
 1023 000a 0292     		str	r2, [sp, #8]
 1024 000c F27F     		ldrb	r2, [r6, #31]
 1025 000e 0400     		movs	r4, r0
 1026 0010 1800     		movs	r0, r3
 1027 0012 012A     		cmp	r2, #1
 1028 0014 47D0     		beq	.L184
 1029 0016 0122     		movs	r2, #1
 1030 0018 E718     		adds	r7, r4, r3
 1031 001a F277     		strb	r2, [r6, #31]
 1032 001c FB77     		strb	r3, [r7, #31]
 1033 001e 2368     		ldr	r3, [r4]
 1034 0020 C932     		adds	r2, r2, #201
 1035 0022 5A62     		str	r2, [r3, #36]
 1036 0024 773A     		subs	r2, r2, #119
 1037 0026 5A62     		str	r2, [r3, #36]
 1038 0028 9B68     		ldr	r3, [r3, #8]
 1039 002a 5B05     		lsls	r3, r3, #21
 1040 002c 25D4     		bmi	.L185
 1041              	.L189:
 1042 002e 2268     		ldr	r2, [r4]
 1043 0030 2549     		ldr	r1, .L195
 1044 0032 9368     		ldr	r3, [r2, #8]
 1045 0034 0425     		movs	r5, #4
 1046 0036 0B40     		ands	r3, r1
 1047 0038 9360     		str	r3, [r2, #8]
 1048 003a FFF7FEFF 		bl	HAL_GetTick
 1049 003e 0090     		str	r0, [sp]
 1050              	.L186:
 1051 0040 2368     		ldr	r3, [r4]
 1052 0042 DA68     		ldr	r2, [r3, #12]
 1053 0044 1100     		movs	r1, r2
 1054 0046 2940     		ands	r1, r5
 1055 0048 0391     		str	r1, [sp, #12]
 1056 004a 2A42     		tst	r2, r5
 1057 004c 2DD0     		beq	.L190
 1058 004e 0721     		movs	r1, #7
 1059 0050 9A68     		ldr	r2, [r3, #8]
ARM GAS  /tmp/ccYL221C.s 			page 19


 1060 0052 0020     		movs	r0, #0
 1061 0054 8A43     		bics	r2, r1
 1062 0056 9A60     		str	r2, [r3, #8]
 1063 0058 9A68     		ldr	r2, [r3, #8]
 1064 005a 0299     		ldr	r1, [sp, #8]
 1065 005c 0A43     		orrs	r2, r1
 1066 005e 9A60     		str	r2, [r3, #8]
 1067 0060 019A     		ldr	r2, [sp, #4]
 1068 0062 5A61     		str	r2, [r3, #20]
 1069 0064 8022     		movs	r2, #128
 1070 0066 9968     		ldr	r1, [r3, #8]
 1071 0068 D200     		lsls	r2, r2, #3
 1072 006a 0A43     		orrs	r2, r1
 1073 006c 9A60     		str	r2, [r3, #8]
 1074 006e FF22     		movs	r2, #255
 1075 0070 5A62     		str	r2, [r3, #36]
 1076 0072 0123     		movs	r3, #1
 1077 0074 FB77     		strb	r3, [r7, #31]
 1078 0076 F077     		strb	r0, [r6, #31]
 1079 0078 15E0     		b	.L184
 1080              	.L185:
 1081 007a FFF7FEFF 		bl	HAL_GetTick
 1082 007e 0500     		movs	r5, r0
 1083              	.L187:
 1084 0080 0422     		movs	r2, #4
 1085 0082 2368     		ldr	r3, [r4]
 1086 0084 DB68     		ldr	r3, [r3, #12]
 1087 0086 1342     		tst	r3, r2
 1088 0088 D1D0     		beq	.L189
 1089 008a FFF7FEFF 		bl	HAL_GetTick
 1090 008e FA23     		movs	r3, #250
 1091 0090 401B     		subs	r0, r0, r5
 1092 0092 9B00     		lsls	r3, r3, #2
 1093 0094 9842     		cmp	r0, r3
 1094 0096 F3D9     		bls	.L187
 1095 0098 FF22     		movs	r2, #255
 1096 009a 2368     		ldr	r3, [r4]
 1097 009c 0320     		movs	r0, #3
 1098 009e 5A62     		str	r2, [r3, #36]
 1099 00a0 0023     		movs	r3, #0
 1100 00a2 F877     		strb	r0, [r7, #31]
 1101              	.L194:
 1102 00a4 F377     		strb	r3, [r6, #31]
 1103              	.L184:
 1104 00a6 05B0     		add	sp, sp, #20
 1105              		@ sp needed
 1106 00a8 F0BD     		pop	{r4, r5, r6, r7, pc}
 1107              	.L190:
 1108 00aa FFF7FEFF 		bl	HAL_GetTick
 1109 00ae 009B     		ldr	r3, [sp]
 1110 00b0 C01A     		subs	r0, r0, r3
 1111 00b2 FA23     		movs	r3, #250
 1112 00b4 9B00     		lsls	r3, r3, #2
 1113 00b6 9842     		cmp	r0, r3
 1114 00b8 C2D9     		bls	.L186
 1115 00ba FF22     		movs	r2, #255
 1116 00bc 0320     		movs	r0, #3
ARM GAS  /tmp/ccYL221C.s 			page 20


 1117 00be 2368     		ldr	r3, [r4]
 1118 00c0 5A62     		str	r2, [r3, #36]
 1119 00c2 039B     		ldr	r3, [sp, #12]
 1120 00c4 F877     		strb	r0, [r7, #31]
 1121 00c6 EDE7     		b	.L194
 1122              	.L196:
 1123              		.align	2
 1124              	.L195:
 1125 00c8 FFFBFFFF 		.word	-1025
 1127              		.section	.text.HAL_RTCEx_SetWakeUpTimer_IT,"ax",%progbits
 1128              		.align	1
 1129              		.global	HAL_RTCEx_SetWakeUpTimer_IT
 1130              		.syntax unified
 1131              		.code	16
 1132              		.thumb_func
 1133              		.fpu softvfp
 1135              	HAL_RTCEx_SetWakeUpTimer_IT:
 1136              		@ args = 0, pretend = 0, frame = 16
 1137              		@ frame_needed = 0, uses_anonymous_args = 0
 1138 0000 0223     		movs	r3, #2
 1139 0002 F0B5     		push	{r4, r5, r6, r7, lr}
 1140 0004 85B0     		sub	sp, sp, #20
 1141 0006 461C     		adds	r6, r0, #1
 1142 0008 0191     		str	r1, [sp, #4]
 1143 000a 0292     		str	r2, [sp, #8]
 1144 000c F27F     		ldrb	r2, [r6, #31]
 1145 000e 0400     		movs	r4, r0
 1146 0010 1800     		movs	r0, r3
 1147 0012 012A     		cmp	r2, #1
 1148 0014 5AD0     		beq	.L198
 1149 0016 0122     		movs	r2, #1
 1150 0018 E718     		adds	r7, r4, r3
 1151 001a F277     		strb	r2, [r6, #31]
 1152 001c FB77     		strb	r3, [r7, #31]
 1153 001e 2368     		ldr	r3, [r4]
 1154 0020 C932     		adds	r2, r2, #201
 1155 0022 5A62     		str	r2, [r3, #36]
 1156 0024 773A     		subs	r2, r2, #119
 1157 0026 5A62     		str	r2, [r3, #36]
 1158 0028 9B68     		ldr	r3, [r3, #8]
 1159 002a 5B05     		lsls	r3, r3, #21
 1160 002c 38D4     		bmi	.L199
 1161              	.L203:
 1162 002e 2368     		ldr	r3, [r4]
 1163 0030 2F49     		ldr	r1, .L209
 1164 0032 9A68     		ldr	r2, [r3, #8]
 1165 0034 0425     		movs	r5, #4
 1166 0036 0A40     		ands	r2, r1
 1167 0038 9A60     		str	r2, [r3, #8]
 1168 003a D968     		ldr	r1, [r3, #12]
 1169 003c 2D4A     		ldr	r2, .L209+4
 1170 003e C9B2     		uxtb	r1, r1
 1171 0040 0A43     		orrs	r2, r1
 1172 0042 DA60     		str	r2, [r3, #12]
 1173 0044 FFF7FEFF 		bl	HAL_GetTick
 1174 0048 0090     		str	r0, [sp]
 1175              	.L200:
ARM GAS  /tmp/ccYL221C.s 			page 21


 1176 004a 2368     		ldr	r3, [r4]
 1177 004c DA68     		ldr	r2, [r3, #12]
 1178 004e 1100     		movs	r1, r2
 1179 0050 2940     		ands	r1, r5
 1180 0052 0391     		str	r1, [sp, #12]
 1181 0054 2A42     		tst	r2, r5
 1182 0056 3BD0     		beq	.L204
 1183 0058 0721     		movs	r1, #7
 1184 005a 019A     		ldr	r2, [sp, #4]
 1185 005c 5A61     		str	r2, [r3, #20]
 1186 005e 9A68     		ldr	r2, [r3, #8]
 1187 0060 8A43     		bics	r2, r1
 1188 0062 9A60     		str	r2, [r3, #8]
 1189 0064 9A68     		ldr	r2, [r3, #8]
 1190 0066 0299     		ldr	r1, [sp, #8]
 1191 0068 0A43     		orrs	r2, r1
 1192 006a 8021     		movs	r1, #128
 1193 006c 9A60     		str	r2, [r3, #8]
 1194 006e 224A     		ldr	r2, .L209+8
 1195 0070 4903     		lsls	r1, r1, #13
 1196 0072 1068     		ldr	r0, [r2]
 1197 0074 0843     		orrs	r0, r1
 1198 0076 1060     		str	r0, [r2]
 1199 0078 9068     		ldr	r0, [r2, #8]
 1200 007a 0143     		orrs	r1, r0
 1201 007c 9160     		str	r1, [r2, #8]
 1202 007e 8022     		movs	r2, #128
 1203 0080 9968     		ldr	r1, [r3, #8]
 1204 0082 D201     		lsls	r2, r2, #7
 1205 0084 0A43     		orrs	r2, r1
 1206 0086 9A60     		str	r2, [r3, #8]
 1207 0088 8022     		movs	r2, #128
 1208 008a 9968     		ldr	r1, [r3, #8]
 1209 008c D200     		lsls	r2, r2, #3
 1210 008e 0A43     		orrs	r2, r1
 1211 0090 9A60     		str	r2, [r3, #8]
 1212 0092 FF22     		movs	r2, #255
 1213 0094 0020     		movs	r0, #0
 1214 0096 5A62     		str	r2, [r3, #36]
 1215 0098 0123     		movs	r3, #1
 1216 009a FB77     		strb	r3, [r7, #31]
 1217 009c F077     		strb	r0, [r6, #31]
 1218 009e 15E0     		b	.L198
 1219              	.L199:
 1220 00a0 FFF7FEFF 		bl	HAL_GetTick
 1221 00a4 0500     		movs	r5, r0
 1222              	.L201:
 1223 00a6 0422     		movs	r2, #4
 1224 00a8 2368     		ldr	r3, [r4]
 1225 00aa DB68     		ldr	r3, [r3, #12]
 1226 00ac 1342     		tst	r3, r2
 1227 00ae BED0     		beq	.L203
 1228 00b0 FFF7FEFF 		bl	HAL_GetTick
 1229 00b4 FA23     		movs	r3, #250
 1230 00b6 401B     		subs	r0, r0, r5
 1231 00b8 9B00     		lsls	r3, r3, #2
 1232 00ba 9842     		cmp	r0, r3
ARM GAS  /tmp/ccYL221C.s 			page 22


 1233 00bc F3D9     		bls	.L201
 1234 00be FF22     		movs	r2, #255
 1235 00c0 2368     		ldr	r3, [r4]
 1236 00c2 0320     		movs	r0, #3
 1237 00c4 5A62     		str	r2, [r3, #36]
 1238 00c6 0023     		movs	r3, #0
 1239 00c8 F877     		strb	r0, [r7, #31]
 1240              	.L208:
 1241 00ca F377     		strb	r3, [r6, #31]
 1242              	.L198:
 1243 00cc 05B0     		add	sp, sp, #20
 1244              		@ sp needed
 1245 00ce F0BD     		pop	{r4, r5, r6, r7, pc}
 1246              	.L204:
 1247 00d0 FFF7FEFF 		bl	HAL_GetTick
 1248 00d4 009B     		ldr	r3, [sp]
 1249 00d6 C01A     		subs	r0, r0, r3
 1250 00d8 FA23     		movs	r3, #250
 1251 00da 9B00     		lsls	r3, r3, #2
 1252 00dc 9842     		cmp	r0, r3
 1253 00de B4D9     		bls	.L200
 1254 00e0 FF22     		movs	r2, #255
 1255 00e2 0320     		movs	r0, #3
 1256 00e4 2368     		ldr	r3, [r4]
 1257 00e6 5A62     		str	r2, [r3, #36]
 1258 00e8 039B     		ldr	r3, [sp, #12]
 1259 00ea F877     		strb	r0, [r7, #31]
 1260 00ec EDE7     		b	.L208
 1261              	.L210:
 1262 00ee C046     		.align	2
 1263              	.L209:
 1264 00f0 FFFBFFFF 		.word	-1025
 1265 00f4 7FFBFFFF 		.word	-1153
 1266 00f8 00040140 		.word	1073808384
 1268              		.section	.text.HAL_RTCEx_DeactivateWakeUpTimer,"ax",%progbits
 1269              		.align	1
 1270              		.global	HAL_RTCEx_DeactivateWakeUpTimer
 1271              		.syntax unified
 1272              		.code	16
 1273              		.thumb_func
 1274              		.fpu softvfp
 1276              	HAL_RTCEx_DeactivateWakeUpTimer:
 1277              		@ args = 0, pretend = 0, frame = 8
 1278              		@ frame_needed = 0, uses_anonymous_args = 0
 1279 0000 0223     		movs	r3, #2
 1280 0002 F7B5     		push	{r0, r1, r2, r4, r5, r6, r7, lr}
 1281 0004 451C     		adds	r5, r0, #1
 1282 0006 EA7F     		ldrb	r2, [r5, #31]
 1283 0008 0400     		movs	r4, r0
 1284 000a 1800     		movs	r0, r3
 1285 000c 012A     		cmp	r2, #1
 1286 000e 31D0     		beq	.L212
 1287 0010 0122     		movs	r2, #1
 1288 0012 E618     		adds	r6, r4, r3
 1289 0014 EA77     		strb	r2, [r5, #31]
 1290 0016 F377     		strb	r3, [r6, #31]
 1291 0018 2368     		ldr	r3, [r4]
ARM GAS  /tmp/ccYL221C.s 			page 23


 1292 001a C932     		adds	r2, r2, #201
 1293 001c 5A62     		str	r2, [r3, #36]
 1294 001e 773A     		subs	r2, r2, #119
 1295 0020 5A62     		str	r2, [r3, #36]
 1296 0022 9A68     		ldr	r2, [r3, #8]
 1297 0024 1449     		ldr	r1, .L217
 1298 0026 0427     		movs	r7, #4
 1299 0028 0A40     		ands	r2, r1
 1300 002a 9A60     		str	r2, [r3, #8]
 1301 002c 9A68     		ldr	r2, [r3, #8]
 1302 002e 1349     		ldr	r1, .L217+4
 1303 0030 0A40     		ands	r2, r1
 1304 0032 9A60     		str	r2, [r3, #8]
 1305 0034 FFF7FEFF 		bl	HAL_GetTick
 1306 0038 0090     		str	r0, [sp]
 1307              	.L213:
 1308 003a 2368     		ldr	r3, [r4]
 1309 003c DA68     		ldr	r2, [r3, #12]
 1310 003e 1100     		movs	r1, r2
 1311 0040 3940     		ands	r1, r7
 1312 0042 0191     		str	r1, [sp, #4]
 1313 0044 3A42     		tst	r2, r7
 1314 0046 06D0     		beq	.L214
 1315 0048 FF22     		movs	r2, #255
 1316 004a 0020     		movs	r0, #0
 1317 004c 5A62     		str	r2, [r3, #36]
 1318 004e 0123     		movs	r3, #1
 1319 0050 F377     		strb	r3, [r6, #31]
 1320 0052 E877     		strb	r0, [r5, #31]
 1321 0054 0EE0     		b	.L212
 1322              	.L214:
 1323 0056 FFF7FEFF 		bl	HAL_GetTick
 1324 005a 009B     		ldr	r3, [sp]
 1325 005c C01A     		subs	r0, r0, r3
 1326 005e FA23     		movs	r3, #250
 1327 0060 9B00     		lsls	r3, r3, #2
 1328 0062 9842     		cmp	r0, r3
 1329 0064 E9D9     		bls	.L213
 1330 0066 FF22     		movs	r2, #255
 1331 0068 0320     		movs	r0, #3
 1332 006a 2368     		ldr	r3, [r4]
 1333 006c 5A62     		str	r2, [r3, #36]
 1334 006e 019B     		ldr	r3, [sp, #4]
 1335 0070 F077     		strb	r0, [r6, #31]
 1336 0072 EB77     		strb	r3, [r5, #31]
 1337              	.L212:
 1338              		@ sp needed
 1339 0074 FEBD     		pop	{r1, r2, r3, r4, r5, r6, r7, pc}
 1340              	.L218:
 1341 0076 C046     		.align	2
 1342              	.L217:
 1343 0078 FFFBFFFF 		.word	-1025
 1344 007c FFBFFFFF 		.word	-16385
 1346              		.section	.text.HAL_RTCEx_GetWakeUpTimer,"ax",%progbits
 1347              		.align	1
 1348              		.global	HAL_RTCEx_GetWakeUpTimer
 1349              		.syntax unified
ARM GAS  /tmp/ccYL221C.s 			page 24


 1350              		.code	16
 1351              		.thumb_func
 1352              		.fpu softvfp
 1354              	HAL_RTCEx_GetWakeUpTimer:
 1355              		@ args = 0, pretend = 0, frame = 0
 1356              		@ frame_needed = 0, uses_anonymous_args = 0
 1357              		@ link register save eliminated.
 1358 0000 0368     		ldr	r3, [r0]
 1359              		@ sp needed
 1360 0002 5869     		ldr	r0, [r3, #20]
 1361 0004 80B2     		uxth	r0, r0
 1362 0006 7047     		bx	lr
 1364              		.section	.text.HAL_RTCEx_WakeUpTimerEventCallback,"ax",%progbits
 1365              		.align	1
 1366              		.weak	HAL_RTCEx_WakeUpTimerEventCallback
 1367              		.syntax unified
 1368              		.code	16
 1369              		.thumb_func
 1370              		.fpu softvfp
 1372              	HAL_RTCEx_WakeUpTimerEventCallback:
 1373              		@ args = 0, pretend = 0, frame = 0
 1374              		@ frame_needed = 0, uses_anonymous_args = 0
 1375              		@ link register save eliminated.
 1376              		@ sp needed
 1377 0000 7047     		bx	lr
 1379              		.section	.text.HAL_RTCEx_WakeUpTimerIRQHandler,"ax",%progbits
 1380              		.align	1
 1381              		.global	HAL_RTCEx_WakeUpTimerIRQHandler
 1382              		.syntax unified
 1383              		.code	16
 1384              		.thumb_func
 1385              		.fpu softvfp
 1387              	HAL_RTCEx_WakeUpTimerIRQHandler:
 1388              		@ args = 0, pretend = 0, frame = 0
 1389              		@ frame_needed = 0, uses_anonymous_args = 0
 1390 0000 0368     		ldr	r3, [r0]
 1391 0002 10B5     		push	{r4, lr}
 1392 0004 DB68     		ldr	r3, [r3, #12]
 1393 0006 0400     		movs	r4, r0
 1394 0008 5B05     		lsls	r3, r3, #21
 1395 000a 07D5     		bpl	.L222
 1396 000c FFF7FEFF 		bl	HAL_RTCEx_WakeUpTimerEventCallback
 1397 0010 2168     		ldr	r1, [r4]
 1398 0012 064B     		ldr	r3, .L226
 1399 0014 CA68     		ldr	r2, [r1, #12]
 1400 0016 D2B2     		uxtb	r2, r2
 1401 0018 1343     		orrs	r3, r2
 1402 001a CB60     		str	r3, [r1, #12]
 1403              	.L222:
 1404 001c 8022     		movs	r2, #128
 1405              		@ sp needed
 1406 001e 044B     		ldr	r3, .L226+4
 1407 0020 5203     		lsls	r2, r2, #13
 1408 0022 5A61     		str	r2, [r3, #20]
 1409 0024 0123     		movs	r3, #1
 1410 0026 0234     		adds	r4, r4, #2
 1411 0028 E377     		strb	r3, [r4, #31]
ARM GAS  /tmp/ccYL221C.s 			page 25


 1412 002a 10BD     		pop	{r4, pc}
 1413              	.L227:
 1414              		.align	2
 1415              	.L226:
 1416 002c 7FFBFFFF 		.word	-1153
 1417 0030 00040140 		.word	1073808384
 1419              		.section	.text.HAL_RTCEx_PollForWakeUpTimerEvent,"ax",%progbits
 1420              		.align	1
 1421              		.global	HAL_RTCEx_PollForWakeUpTimerEvent
 1422              		.syntax unified
 1423              		.code	16
 1424              		.thumb_func
 1425              		.fpu softvfp
 1427              	HAL_RTCEx_PollForWakeUpTimerEvent:
 1428              		@ args = 0, pretend = 0, frame = 0
 1429              		@ frame_needed = 0, uses_anonymous_args = 0
 1430 0000 F8B5     		push	{r3, r4, r5, r6, r7, lr}
 1431 0002 0400     		movs	r4, r0
 1432 0004 0D00     		movs	r5, r1
 1433 0006 FFF7FEFF 		bl	HAL_GetTick
 1434 000a 8027     		movs	r7, #128
 1435 000c 0600     		movs	r6, r0
 1436 000e FF00     		lsls	r7, r7, #3
 1437              	.L229:
 1438 0010 2368     		ldr	r3, [r4]
 1439              	.L230:
 1440 0012 DA68     		ldr	r2, [r3, #12]
 1441 0014 3A42     		tst	r2, r7
 1442 0016 09D0     		beq	.L233
 1443 0018 D968     		ldr	r1, [r3, #12]
 1444 001a 0B4A     		ldr	r2, .L237
 1445 001c C9B2     		uxtb	r1, r1
 1446 001e 0A43     		orrs	r2, r1
 1447 0020 DA60     		str	r2, [r3, #12]
 1448 0022 0123     		movs	r3, #1
 1449 0024 0234     		adds	r4, r4, #2
 1450 0026 0020     		movs	r0, #0
 1451 0028 E377     		strb	r3, [r4, #31]
 1452 002a 0BE0     		b	.L232
 1453              	.L233:
 1454 002c 6A1C     		adds	r2, r5, #1
 1455 002e F0D0     		beq	.L230
 1456 0030 FFF7FEFF 		bl	HAL_GetTick
 1457 0034 801B     		subs	r0, r0, r6
 1458 0036 A842     		cmp	r0, r5
 1459 0038 01D8     		bhi	.L231
 1460 003a 002D     		cmp	r5, #0
 1461 003c E8D1     		bne	.L229
 1462              	.L231:
 1463 003e 0320     		movs	r0, #3
 1464 0040 0234     		adds	r4, r4, #2
 1465 0042 E077     		strb	r0, [r4, #31]
 1466              	.L232:
 1467              		@ sp needed
 1468 0044 F8BD     		pop	{r3, r4, r5, r6, r7, pc}
 1469              	.L238:
 1470 0046 C046     		.align	2
ARM GAS  /tmp/ccYL221C.s 			page 26


 1471              	.L237:
 1472 0048 7FFBFFFF 		.word	-1153
 1474              		.section	.text.HAL_RTCEx_BKUPWrite,"ax",%progbits
 1475              		.align	1
 1476              		.global	HAL_RTCEx_BKUPWrite
 1477              		.syntax unified
 1478              		.code	16
 1479              		.thumb_func
 1480              		.fpu softvfp
 1482              	HAL_RTCEx_BKUPWrite:
 1483              		@ args = 0, pretend = 0, frame = 0
 1484              		@ frame_needed = 0, uses_anonymous_args = 0
 1485              		@ link register save eliminated.
 1486 0000 0368     		ldr	r3, [r0]
 1487 0002 8900     		lsls	r1, r1, #2
 1488 0004 5033     		adds	r3, r3, #80
 1489 0006 C918     		adds	r1, r1, r3
 1490 0008 0A60     		str	r2, [r1]
 1491              		@ sp needed
 1492 000a 7047     		bx	lr
 1494              		.section	.text.HAL_RTCEx_BKUPRead,"ax",%progbits
 1495              		.align	1
 1496              		.global	HAL_RTCEx_BKUPRead
 1497              		.syntax unified
 1498              		.code	16
 1499              		.thumb_func
 1500              		.fpu softvfp
 1502              	HAL_RTCEx_BKUPRead:
 1503              		@ args = 0, pretend = 0, frame = 0
 1504              		@ frame_needed = 0, uses_anonymous_args = 0
 1505              		@ link register save eliminated.
 1506 0000 0368     		ldr	r3, [r0]
 1507 0002 8900     		lsls	r1, r1, #2
 1508 0004 5033     		adds	r3, r3, #80
 1509 0006 C918     		adds	r1, r1, r3
 1510 0008 0868     		ldr	r0, [r1]
 1511              		@ sp needed
 1512 000a 7047     		bx	lr
 1514              		.section	.text.HAL_RTCEx_SetSmoothCalib,"ax",%progbits
 1515              		.align	1
 1516              		.global	HAL_RTCEx_SetSmoothCalib
 1517              		.syntax unified
 1518              		.code	16
 1519              		.thumb_func
 1520              		.fpu softvfp
 1522              	HAL_RTCEx_SetSmoothCalib:
 1523              		@ args = 0, pretend = 0, frame = 16
 1524              		@ frame_needed = 0, uses_anonymous_args = 0
 1525 0000 F0B5     		push	{r4, r5, r6, r7, lr}
 1526 0002 85B0     		sub	sp, sp, #20
 1527 0004 0393     		str	r3, [sp, #12]
 1528 0006 0223     		movs	r3, #2
 1529 0008 451C     		adds	r5, r0, #1
 1530 000a 0191     		str	r1, [sp, #4]
 1531 000c 0292     		str	r2, [sp, #8]
 1532 000e EA7F     		ldrb	r2, [r5, #31]
 1533 0010 0400     		movs	r4, r0
ARM GAS  /tmp/ccYL221C.s 			page 27


 1534 0012 1800     		movs	r0, r3
 1535 0014 012A     		cmp	r2, #1
 1536 0016 1AD0     		beq	.L242
 1537 0018 0122     		movs	r2, #1
 1538 001a 8027     		movs	r7, #128
 1539 001c E618     		adds	r6, r4, r3
 1540 001e EA77     		strb	r2, [r5, #31]
 1541 0020 F377     		strb	r3, [r6, #31]
 1542 0022 2368     		ldr	r3, [r4]
 1543 0024 C932     		adds	r2, r2, #201
 1544 0026 5A62     		str	r2, [r3, #36]
 1545 0028 773A     		subs	r2, r2, #119
 1546 002a 5A62     		str	r2, [r3, #36]
 1547 002c DB68     		ldr	r3, [r3, #12]
 1548 002e 7F02     		lsls	r7, r7, #9
 1549 0030 3B42     		tst	r3, r7
 1550 0032 0ED1     		bne	.L243
 1551              	.L246:
 1552 0034 039A     		ldr	r2, [sp, #12]
 1553 0036 0299     		ldr	r1, [sp, #8]
 1554 0038 2368     		ldr	r3, [r4]
 1555 003a 1143     		orrs	r1, r2
 1556 003c 019A     		ldr	r2, [sp, #4]
 1557 003e 0020     		movs	r0, #0
 1558 0040 1143     		orrs	r1, r2
 1559 0042 FF22     		movs	r2, #255
 1560 0044 D963     		str	r1, [r3, #60]
 1561 0046 5A62     		str	r2, [r3, #36]
 1562 0048 0123     		movs	r3, #1
 1563 004a F377     		strb	r3, [r6, #31]
 1564 004c E877     		strb	r0, [r5, #31]
 1565              	.L242:
 1566 004e 05B0     		add	sp, sp, #20
 1567              		@ sp needed
 1568 0050 F0BD     		pop	{r4, r5, r6, r7, pc}
 1569              	.L243:
 1570 0052 FFF7FEFF 		bl	HAL_GetTick
 1571 0056 0090     		str	r0, [sp]
 1572              	.L244:
 1573 0058 2368     		ldr	r3, [r4]
 1574 005a DB68     		ldr	r3, [r3, #12]
 1575 005c 3B42     		tst	r3, r7
 1576 005e E9D0     		beq	.L246
 1577 0060 FFF7FEFF 		bl	HAL_GetTick
 1578 0064 009B     		ldr	r3, [sp]
 1579 0066 C01A     		subs	r0, r0, r3
 1580 0068 FA23     		movs	r3, #250
 1581 006a 9B00     		lsls	r3, r3, #2
 1582 006c 9842     		cmp	r0, r3
 1583 006e F3D9     		bls	.L244
 1584 0070 FF22     		movs	r2, #255
 1585 0072 2368     		ldr	r3, [r4]
 1586 0074 0320     		movs	r0, #3
 1587 0076 5A62     		str	r2, [r3, #36]
 1588 0078 0023     		movs	r3, #0
 1589 007a F077     		strb	r0, [r6, #31]
 1590 007c EB77     		strb	r3, [r5, #31]
ARM GAS  /tmp/ccYL221C.s 			page 28


 1591 007e E6E7     		b	.L242
 1593              		.section	.text.HAL_RTCEx_SetSynchroShift,"ax",%progbits
 1594              		.align	1
 1595              		.global	HAL_RTCEx_SetSynchroShift
 1596              		.syntax unified
 1597              		.code	16
 1598              		.thumb_func
 1599              		.fpu softvfp
 1601              	HAL_RTCEx_SetSynchroShift:
 1602              		@ args = 0, pretend = 0, frame = 16
 1603              		@ frame_needed = 0, uses_anonymous_args = 0
 1604 0000 0223     		movs	r3, #2
 1605 0002 F0B5     		push	{r4, r5, r6, r7, lr}
 1606 0004 85B0     		sub	sp, sp, #20
 1607 0006 451C     		adds	r5, r0, #1
 1608 0008 0291     		str	r1, [sp, #8]
 1609 000a 0392     		str	r2, [sp, #12]
 1610 000c EA7F     		ldrb	r2, [r5, #31]
 1611 000e 0400     		movs	r4, r0
 1612 0010 1800     		movs	r0, r3
 1613 0012 012A     		cmp	r2, #1
 1614 0014 3BD0     		beq	.L250
 1615 0016 0122     		movs	r2, #1
 1616 0018 E618     		adds	r6, r4, r3
 1617 001a EA77     		strb	r2, [r5, #31]
 1618 001c F377     		strb	r3, [r6, #31]
 1619 001e 2368     		ldr	r3, [r4]
 1620 0020 C932     		adds	r2, r2, #201
 1621 0022 5A62     		str	r2, [r3, #36]
 1622 0024 773A     		subs	r2, r2, #119
 1623 0026 5A62     		str	r2, [r3, #36]
 1624 0028 FFF7FEFF 		bl	HAL_GetTick
 1625 002c 0827     		movs	r7, #8
 1626 002e 0190     		str	r0, [sp, #4]
 1627              	.L251:
 1628 0030 2368     		ldr	r3, [r4]
 1629 0032 DA68     		ldr	r2, [r3, #12]
 1630 0034 1100     		movs	r1, r2
 1631 0036 3940     		ands	r1, r7
 1632 0038 3A42     		tst	r2, r7
 1633 003a 19D1     		bne	.L252
 1634 003c 9A68     		ldr	r2, [r3, #8]
 1635 003e D206     		lsls	r2, r2, #27
 1636 0040 27D4     		bmi	.L253
 1637 0042 029A     		ldr	r2, [sp, #8]
 1638 0044 0399     		ldr	r1, [sp, #12]
 1639 0046 1143     		orrs	r1, r2
 1640 0048 D962     		str	r1, [r3, #44]
 1641 004a 9A68     		ldr	r2, [r3, #8]
 1642 004c 2023     		movs	r3, #32
 1643 004e 1700     		movs	r7, r2
 1644 0050 1F40     		ands	r7, r3
 1645 0052 1A42     		tst	r2, r3
 1646 0054 23D1     		bne	.L254
 1647 0056 2000     		movs	r0, r4
 1648 0058 FFF7FEFF 		bl	HAL_RTC_WaitForSynchro
 1649 005c 0028     		cmp	r0, #0
ARM GAS  /tmp/ccYL221C.s 			page 29


 1650 005e 1ED0     		beq	.L254
 1651 0060 FF22     		movs	r2, #255
 1652 0062 2368     		ldr	r3, [r4]
 1653 0064 5A62     		str	r2, [r3, #36]
 1654 0066 0423     		movs	r3, #4
 1655 0068 F377     		strb	r3, [r6, #31]
 1656 006a EF77     		strb	r7, [r5, #31]
 1657              	.L260:
 1658 006c 0120     		movs	r0, #1
 1659 006e 0EE0     		b	.L250
 1660              	.L252:
 1661 0070 FFF7FEFF 		bl	HAL_GetTick
 1662 0074 019B     		ldr	r3, [sp, #4]
 1663 0076 C01A     		subs	r0, r0, r3
 1664 0078 FA23     		movs	r3, #250
 1665 007a 9B00     		lsls	r3, r3, #2
 1666 007c 9842     		cmp	r0, r3
 1667 007e D7D9     		bls	.L251
 1668 0080 FF22     		movs	r2, #255
 1669 0082 2368     		ldr	r3, [r4]
 1670 0084 0320     		movs	r0, #3
 1671 0086 5A62     		str	r2, [r3, #36]
 1672 0088 0023     		movs	r3, #0
 1673 008a F077     		strb	r0, [r6, #31]
 1674 008c EB77     		strb	r3, [r5, #31]
 1675              	.L250:
 1676 008e 05B0     		add	sp, sp, #20
 1677              		@ sp needed
 1678 0090 F0BD     		pop	{r4, r5, r6, r7, pc}
 1679              	.L253:
 1680 0092 FF22     		movs	r2, #255
 1681 0094 5A62     		str	r2, [r3, #36]
 1682 0096 0423     		movs	r3, #4
 1683 0098 F377     		strb	r3, [r6, #31]
 1684 009a E977     		strb	r1, [r5, #31]
 1685 009c E6E7     		b	.L260
 1686              	.L254:
 1687 009e FF22     		movs	r2, #255
 1688 00a0 2368     		ldr	r3, [r4]
 1689 00a2 0020     		movs	r0, #0
 1690 00a4 5A62     		str	r2, [r3, #36]
 1691 00a6 0123     		movs	r3, #1
 1692 00a8 F377     		strb	r3, [r6, #31]
 1693 00aa E877     		strb	r0, [r5, #31]
 1694 00ac EFE7     		b	.L250
 1696              		.section	.text.HAL_RTCEx_SetCalibrationOutPut,"ax",%progbits
 1697              		.align	1
 1698              		.global	HAL_RTCEx_SetCalibrationOutPut
 1699              		.syntax unified
 1700              		.code	16
 1701              		.thumb_func
 1702              		.fpu softvfp
 1704              	HAL_RTCEx_SetCalibrationOutPut:
 1705              		@ args = 0, pretend = 0, frame = 0
 1706              		@ frame_needed = 0, uses_anonymous_args = 0
 1707 0000 0A00     		movs	r2, r1
 1708 0002 0221     		movs	r1, #2
ARM GAS  /tmp/ccYL221C.s 			page 30


 1709 0004 30B5     		push	{r4, r5, lr}
 1710 0006 441C     		adds	r4, r0, #1
 1711 0008 E57F     		ldrb	r5, [r4, #31]
 1712 000a 0300     		movs	r3, r0
 1713 000c 0800     		movs	r0, r1
 1714 000e 012D     		cmp	r5, #1
 1715 0010 18D0     		beq	.L262
 1716 0012 5818     		adds	r0, r3, r1
 1717 0014 C177     		strb	r1, [r0, #31]
 1718 0016 1B68     		ldr	r3, [r3]
 1719 0018 C831     		adds	r1, r1, #200
 1720 001a 5962     		str	r1, [r3, #36]
 1721 001c 7739     		subs	r1, r1, #119
 1722 001e 5962     		str	r1, [r3, #36]
 1723 0020 9968     		ldr	r1, [r3, #8]
 1724 0022 094D     		ldr	r5, .L264
 1725 0024 2940     		ands	r1, r5
 1726 0026 9960     		str	r1, [r3, #8]
 1727 0028 9968     		ldr	r1, [r3, #8]
 1728 002a 1143     		orrs	r1, r2
 1729 002c 8022     		movs	r2, #128
 1730 002e 9960     		str	r1, [r3, #8]
 1731 0030 9968     		ldr	r1, [r3, #8]
 1732 0032 1204     		lsls	r2, r2, #16
 1733 0034 0A43     		orrs	r2, r1
 1734 0036 9A60     		str	r2, [r3, #8]
 1735 0038 FF22     		movs	r2, #255
 1736 003a 5A62     		str	r2, [r3, #36]
 1737 003c 0123     		movs	r3, #1
 1738 003e C377     		strb	r3, [r0, #31]
 1739 0040 0020     		movs	r0, #0
 1740 0042 E077     		strb	r0, [r4, #31]
 1741              	.L262:
 1742              		@ sp needed
 1743 0044 30BD     		pop	{r4, r5, pc}
 1744              	.L265:
 1745 0046 C046     		.align	2
 1746              	.L264:
 1747 0048 FFFFF7FF 		.word	-524289
 1749              		.section	.text.HAL_RTCEx_DeactivateCalibrationOutPut,"ax",%progbits
 1750              		.align	1
 1751              		.global	HAL_RTCEx_DeactivateCalibrationOutPut
 1752              		.syntax unified
 1753              		.code	16
 1754              		.thumb_func
 1755              		.fpu softvfp
 1757              	HAL_RTCEx_DeactivateCalibrationOutPut:
 1758              		@ args = 0, pretend = 0, frame = 0
 1759              		@ frame_needed = 0, uses_anonymous_args = 0
 1760 0000 0222     		movs	r2, #2
 1761 0002 10B5     		push	{r4, lr}
 1762 0004 411C     		adds	r1, r0, #1
 1763 0006 CC7F     		ldrb	r4, [r1, #31]
 1764 0008 0300     		movs	r3, r0
 1765 000a 1000     		movs	r0, r2
 1766 000c 012C     		cmp	r4, #1
 1767 000e 10D0     		beq	.L267
ARM GAS  /tmp/ccYL221C.s 			page 31


 1768 0010 9818     		adds	r0, r3, r2
 1769 0012 C277     		strb	r2, [r0, #31]
 1770 0014 1B68     		ldr	r3, [r3]
 1771 0016 C832     		adds	r2, r2, #200
 1772 0018 5A62     		str	r2, [r3, #36]
 1773 001a 773A     		subs	r2, r2, #119
 1774 001c 5A62     		str	r2, [r3, #36]
 1775 001e 9A68     		ldr	r2, [r3, #8]
 1776 0020 044C     		ldr	r4, .L269
 1777 0022 2240     		ands	r2, r4
 1778 0024 9A60     		str	r2, [r3, #8]
 1779 0026 FF22     		movs	r2, #255
 1780 0028 5A62     		str	r2, [r3, #36]
 1781 002a 0123     		movs	r3, #1
 1782 002c C377     		strb	r3, [r0, #31]
 1783 002e 0020     		movs	r0, #0
 1784 0030 C877     		strb	r0, [r1, #31]
 1785              	.L267:
 1786              		@ sp needed
 1787 0032 10BD     		pop	{r4, pc}
 1788              	.L270:
 1789              		.align	2
 1790              	.L269:
 1791 0034 FFFF7FFF 		.word	-8388609
 1793              		.section	.text.HAL_RTCEx_SetRefClock,"ax",%progbits
 1794              		.align	1
 1795              		.global	HAL_RTCEx_SetRefClock
 1796              		.syntax unified
 1797              		.code	16
 1798              		.thumb_func
 1799              		.fpu softvfp
 1801              	HAL_RTCEx_SetRefClock:
 1802              		@ args = 0, pretend = 0, frame = 0
 1803              		@ frame_needed = 0, uses_anonymous_args = 0
 1804 0000 F8B5     		push	{r3, r4, r5, r6, r7, lr}
 1805 0002 0223     		movs	r3, #2
 1806 0004 451C     		adds	r5, r0, #1
 1807 0006 EA7F     		ldrb	r2, [r5, #31]
 1808 0008 0400     		movs	r4, r0
 1809 000a 1800     		movs	r0, r3
 1810 000c 012A     		cmp	r2, #1
 1811 000e 15D0     		beq	.L272
 1812 0010 0127     		movs	r7, #1
 1813 0012 CA22     		movs	r2, #202
 1814 0014 E618     		adds	r6, r4, r3
 1815 0016 EF77     		strb	r7, [r5, #31]
 1816 0018 F377     		strb	r3, [r6, #31]
 1817 001a 2368     		ldr	r3, [r4]
 1818 001c 2000     		movs	r0, r4
 1819 001e 5A62     		str	r2, [r3, #36]
 1820 0020 773A     		subs	r2, r2, #119
 1821 0022 5A62     		str	r2, [r3, #36]
 1822 0024 FFF7FEFF 		bl	RTC_EnterInitMode
 1823 0028 2368     		ldr	r3, [r4]
 1824 002a 0028     		cmp	r0, #0
 1825 002c 07D0     		beq	.L273
 1826 002e FF22     		movs	r2, #255
ARM GAS  /tmp/ccYL221C.s 			page 32


 1827 0030 5A62     		str	r2, [r3, #36]
 1828 0032 0423     		movs	r3, #4
 1829 0034 F377     		strb	r3, [r6, #31]
 1830 0036 0023     		movs	r3, #0
 1831 0038 3800     		movs	r0, r7
 1832 003a EB77     		strb	r3, [r5, #31]
 1833              	.L272:
 1834              		@ sp needed
 1835 003c F8BD     		pop	{r3, r4, r5, r6, r7, pc}
 1836              	.L273:
 1837 003e 1022     		movs	r2, #16
 1838 0040 9968     		ldr	r1, [r3, #8]
 1839 0042 0A43     		orrs	r2, r1
 1840 0044 8021     		movs	r1, #128
 1841 0046 9A60     		str	r2, [r3, #8]
 1842 0048 DA68     		ldr	r2, [r3, #12]
 1843 004a 8A43     		bics	r2, r1
 1844 004c DA60     		str	r2, [r3, #12]
 1845 004e FF22     		movs	r2, #255
 1846 0050 5A62     		str	r2, [r3, #36]
 1847 0052 F777     		strb	r7, [r6, #31]
 1848 0054 E877     		strb	r0, [r5, #31]
 1849 0056 F1E7     		b	.L272
 1851              		.section	.text.HAL_RTCEx_DeactivateRefClock,"ax",%progbits
 1852              		.align	1
 1853              		.global	HAL_RTCEx_DeactivateRefClock
 1854              		.syntax unified
 1855              		.code	16
 1856              		.thumb_func
 1857              		.fpu softvfp
 1859              	HAL_RTCEx_DeactivateRefClock:
 1860              		@ args = 0, pretend = 0, frame = 0
 1861              		@ frame_needed = 0, uses_anonymous_args = 0
 1862 0000 F8B5     		push	{r3, r4, r5, r6, r7, lr}
 1863 0002 0223     		movs	r3, #2
 1864 0004 451C     		adds	r5, r0, #1
 1865 0006 EA7F     		ldrb	r2, [r5, #31]
 1866 0008 0400     		movs	r4, r0
 1867 000a 1800     		movs	r0, r3
 1868 000c 012A     		cmp	r2, #1
 1869 000e 15D0     		beq	.L276
 1870 0010 0127     		movs	r7, #1
 1871 0012 CA22     		movs	r2, #202
 1872 0014 E618     		adds	r6, r4, r3
 1873 0016 EF77     		strb	r7, [r5, #31]
 1874 0018 F377     		strb	r3, [r6, #31]
 1875 001a 2368     		ldr	r3, [r4]
 1876 001c 2000     		movs	r0, r4
 1877 001e 5A62     		str	r2, [r3, #36]
 1878 0020 773A     		subs	r2, r2, #119
 1879 0022 5A62     		str	r2, [r3, #36]
 1880 0024 FFF7FEFF 		bl	RTC_EnterInitMode
 1881 0028 2368     		ldr	r3, [r4]
 1882 002a 0028     		cmp	r0, #0
 1883 002c 07D0     		beq	.L277
 1884 002e FF22     		movs	r2, #255
 1885 0030 5A62     		str	r2, [r3, #36]
ARM GAS  /tmp/ccYL221C.s 			page 33


 1886 0032 0423     		movs	r3, #4
 1887 0034 F377     		strb	r3, [r6, #31]
 1888 0036 0023     		movs	r3, #0
 1889 0038 3800     		movs	r0, r7
 1890 003a EB77     		strb	r3, [r5, #31]
 1891              	.L276:
 1892              		@ sp needed
 1893 003c F8BD     		pop	{r3, r4, r5, r6, r7, pc}
 1894              	.L277:
 1895 003e 1021     		movs	r1, #16
 1896 0040 9A68     		ldr	r2, [r3, #8]
 1897 0042 8A43     		bics	r2, r1
 1898 0044 9A60     		str	r2, [r3, #8]
 1899 0046 DA68     		ldr	r2, [r3, #12]
 1900 0048 7031     		adds	r1, r1, #112
 1901 004a 8A43     		bics	r2, r1
 1902 004c DA60     		str	r2, [r3, #12]
 1903 004e FF22     		movs	r2, #255
 1904 0050 5A62     		str	r2, [r3, #36]
 1905 0052 F777     		strb	r7, [r6, #31]
 1906 0054 E877     		strb	r0, [r5, #31]
 1907 0056 F1E7     		b	.L276
 1909              		.section	.text.HAL_RTCEx_EnableBypassShadow,"ax",%progbits
 1910              		.align	1
 1911              		.global	HAL_RTCEx_EnableBypassShadow
 1912              		.syntax unified
 1913              		.code	16
 1914              		.thumb_func
 1915              		.fpu softvfp
 1917              	HAL_RTCEx_EnableBypassShadow:
 1918              		@ args = 0, pretend = 0, frame = 0
 1919              		@ frame_needed = 0, uses_anonymous_args = 0
 1920 0000 0222     		movs	r2, #2
 1921 0002 10B5     		push	{r4, lr}
 1922 0004 411C     		adds	r1, r0, #1
 1923 0006 CC7F     		ldrb	r4, [r1, #31]
 1924 0008 0300     		movs	r3, r0
 1925 000a 1000     		movs	r0, r2
 1926 000c 012C     		cmp	r4, #1
 1927 000e 10D0     		beq	.L280
 1928 0010 9818     		adds	r0, r3, r2
 1929 0012 C277     		strb	r2, [r0, #31]
 1930 0014 1B68     		ldr	r3, [r3]
 1931 0016 C832     		adds	r2, r2, #200
 1932 0018 5A62     		str	r2, [r3, #36]
 1933 001a 773A     		subs	r2, r2, #119
 1934 001c 5A62     		str	r2, [r3, #36]
 1935 001e 9C68     		ldr	r4, [r3, #8]
 1936 0020 333A     		subs	r2, r2, #51
 1937 0022 2243     		orrs	r2, r4
 1938 0024 9A60     		str	r2, [r3, #8]
 1939 0026 FF22     		movs	r2, #255
 1940 0028 5A62     		str	r2, [r3, #36]
 1941 002a 0123     		movs	r3, #1
 1942 002c C377     		strb	r3, [r0, #31]
 1943 002e 0020     		movs	r0, #0
 1944 0030 C877     		strb	r0, [r1, #31]
ARM GAS  /tmp/ccYL221C.s 			page 34


 1945              	.L280:
 1946              		@ sp needed
 1947 0032 10BD     		pop	{r4, pc}
 1949              		.section	.text.HAL_RTCEx_DisableBypassShadow,"ax",%progbits
 1950              		.align	1
 1951              		.global	HAL_RTCEx_DisableBypassShadow
 1952              		.syntax unified
 1953              		.code	16
 1954              		.thumb_func
 1955              		.fpu softvfp
 1957              	HAL_RTCEx_DisableBypassShadow:
 1958              		@ args = 0, pretend = 0, frame = 0
 1959              		@ frame_needed = 0, uses_anonymous_args = 0
 1960 0000 0222     		movs	r2, #2
 1961 0002 10B5     		push	{r4, lr}
 1962 0004 411C     		adds	r1, r0, #1
 1963 0006 CC7F     		ldrb	r4, [r1, #31]
 1964 0008 0300     		movs	r3, r0
 1965 000a 1000     		movs	r0, r2
 1966 000c 012C     		cmp	r4, #1
 1967 000e 10D0     		beq	.L283
 1968 0010 DF24     		movs	r4, #223
 1969 0012 9818     		adds	r0, r3, r2
 1970 0014 C277     		strb	r2, [r0, #31]
 1971 0016 1B68     		ldr	r3, [r3]
 1972 0018 C832     		adds	r2, r2, #200
 1973 001a 5A62     		str	r2, [r3, #36]
 1974 001c 773A     		subs	r2, r2, #119
 1975 001e 5A62     		str	r2, [r3, #36]
 1976 0020 9A68     		ldr	r2, [r3, #8]
 1977 0022 2240     		ands	r2, r4
 1978 0024 9A60     		str	r2, [r3, #8]
 1979 0026 FF22     		movs	r2, #255
 1980 0028 5A62     		str	r2, [r3, #36]
 1981 002a 0123     		movs	r3, #1
 1982 002c C377     		strb	r3, [r0, #31]
 1983 002e 0020     		movs	r0, #0
 1984 0030 C877     		strb	r0, [r1, #31]
 1985              	.L283:
 1986              		@ sp needed
 1987 0032 10BD     		pop	{r4, pc}
 1989              		.section	.text.HAL_RTCEx_AlarmBEventCallback,"ax",%progbits
 1990              		.align	1
 1991              		.weak	HAL_RTCEx_AlarmBEventCallback
 1992              		.syntax unified
 1993              		.code	16
 1994              		.thumb_func
 1995              		.fpu softvfp
 1997              	HAL_RTCEx_AlarmBEventCallback:
 1998              		@ args = 0, pretend = 0, frame = 0
 1999              		@ frame_needed = 0, uses_anonymous_args = 0
 2000              		@ link register save eliminated.
 2001              		@ sp needed
 2002 0000 7047     		bx	lr
 2004              		.section	.text.HAL_RTCEx_PollForAlarmBEvent,"ax",%progbits
 2005              		.align	1
 2006              		.global	HAL_RTCEx_PollForAlarmBEvent
ARM GAS  /tmp/ccYL221C.s 			page 35


 2007              		.syntax unified
 2008              		.code	16
 2009              		.thumb_func
 2010              		.fpu softvfp
 2012              	HAL_RTCEx_PollForAlarmBEvent:
 2013              		@ args = 0, pretend = 0, frame = 0
 2014              		@ frame_needed = 0, uses_anonymous_args = 0
 2015 0000 F8B5     		push	{r3, r4, r5, r6, r7, lr}
 2016 0002 0400     		movs	r4, r0
 2017 0004 0D00     		movs	r5, r1
 2018 0006 FFF7FEFF 		bl	HAL_GetTick
 2019 000a 8027     		movs	r7, #128
 2020 000c 0600     		movs	r6, r0
 2021 000e BF00     		lsls	r7, r7, #2
 2022              	.L287:
 2023 0010 2368     		ldr	r3, [r4]
 2024              	.L288:
 2025 0012 DA68     		ldr	r2, [r3, #12]
 2026 0014 3A42     		tst	r2, r7
 2027 0016 09D0     		beq	.L291
 2028 0018 D968     		ldr	r1, [r3, #12]
 2029 001a 0B4A     		ldr	r2, .L295
 2030 001c C9B2     		uxtb	r1, r1
 2031 001e 0A43     		orrs	r2, r1
 2032 0020 DA60     		str	r2, [r3, #12]
 2033 0022 0123     		movs	r3, #1
 2034 0024 0234     		adds	r4, r4, #2
 2035 0026 0020     		movs	r0, #0
 2036 0028 E377     		strb	r3, [r4, #31]
 2037 002a 0BE0     		b	.L290
 2038              	.L291:
 2039 002c 6A1C     		adds	r2, r5, #1
 2040 002e F0D0     		beq	.L288
 2041 0030 FFF7FEFF 		bl	HAL_GetTick
 2042 0034 801B     		subs	r0, r0, r6
 2043 0036 A842     		cmp	r0, r5
 2044 0038 01D8     		bhi	.L289
 2045 003a 002D     		cmp	r5, #0
 2046 003c E8D1     		bne	.L287
 2047              	.L289:
 2048 003e 0320     		movs	r0, #3
 2049 0040 0234     		adds	r4, r4, #2
 2050 0042 E077     		strb	r0, [r4, #31]
 2051              	.L290:
 2052              		@ sp needed
 2053 0044 F8BD     		pop	{r3, r4, r5, r6, r7, pc}
 2054              	.L296:
 2055 0046 C046     		.align	2
 2056              	.L295:
 2057 0048 7FFDFFFF 		.word	-641
 2059              		.ident	"GCC: (15:10.3-2021.07-4) 10.3.1 20210621 (release)"
ARM GAS  /tmp/ccYL221C.s 			page 36

