ARM GAS  /tmp/ccNRztGU.s 			page 1


   1              		.cpu cortex-m0
   2              		.eabi_attribute 23, 1
   3              		.eabi_attribute 24, 1
   4              		.eabi_attribute 25, 1
   5              		.eabi_attribute 26, 1
   6              		.eabi_attribute 30, 4
   7              		.eabi_attribute 34, 0
   8              		.eabi_attribute 18, 4
   9              		.file	"stm32l0xx_hal.c"
  10              		.text
  11              		.section	.text.HAL_MspInit,"ax",%progbits
  12              		.align	1
  13              		.weak	HAL_MspInit
  14              		.arch armv6s-m
  15              		.syntax unified
  16              		.code	16
  17              		.thumb_func
  18              		.fpu softvfp
  20              	HAL_MspInit:
  21              		@ args = 0, pretend = 0, frame = 0
  22              		@ frame_needed = 0, uses_anonymous_args = 0
  23              		@ link register save eliminated.
  24              		@ sp needed
  25 0000 7047     		bx	lr
  27              		.section	.text.HAL_MspDeInit,"ax",%progbits
  28              		.align	1
  29              		.weak	HAL_MspDeInit
  30              		.syntax unified
  31              		.code	16
  32              		.thumb_func
  33              		.fpu softvfp
  35              	HAL_MspDeInit:
  36              		@ args = 0, pretend = 0, frame = 0
  37              		@ frame_needed = 0, uses_anonymous_args = 0
  38              		@ link register save eliminated.
  39              		@ sp needed
  40 0000 7047     		bx	lr
  42              		.section	.text.HAL_DeInit,"ax",%progbits
  43              		.align	1
  44              		.global	HAL_DeInit
  45              		.syntax unified
  46              		.code	16
  47              		.thumb_func
  48              		.fpu softvfp
  50              	HAL_DeInit:
  51              		@ args = 0, pretend = 0, frame = 0
  52              		@ frame_needed = 0, uses_anonymous_args = 0
  53 0000 0122     		movs	r2, #1
  54 0002 10B5     		push	{r4, lr}
  55 0004 0024     		movs	r4, #0
  56              		@ sp needed
  57 0006 074B     		ldr	r3, .L4
  58 0008 5242     		rsbs	r2, r2, #0
  59 000a 9A62     		str	r2, [r3, #40]
  60 000c 9C62     		str	r4, [r3, #40]
  61 000e 5A62     		str	r2, [r3, #36]
  62 0010 5C62     		str	r4, [r3, #36]
ARM GAS  /tmp/ccNRztGU.s 			page 2


  63 0012 1A62     		str	r2, [r3, #32]
  64 0014 1C62     		str	r4, [r3, #32]
  65 0016 DA61     		str	r2, [r3, #28]
  66 0018 DC61     		str	r4, [r3, #28]
  67 001a FFF7FEFF 		bl	HAL_MspDeInit
  68 001e 2000     		movs	r0, r4
  69 0020 10BD     		pop	{r4, pc}
  70              	.L5:
  71 0022 C046     		.align	2
  72              	.L4:
  73 0024 00100240 		.word	1073876992
  75              		.global	__aeabi_uidiv
  76              		.global	__aeabi_idiv
  77              		.section	.text.HAL_InitTick,"ax",%progbits
  78              		.align	1
  79              		.weak	HAL_InitTick
  80              		.syntax unified
  81              		.code	16
  82              		.thumb_func
  83              		.fpu softvfp
  85              	HAL_InitTick:
  86              		@ args = 0, pretend = 0, frame = 0
  87              		@ frame_needed = 0, uses_anonymous_args = 0
  88 0000 70B5     		push	{r4, r5, r6, lr}
  89 0002 0500     		movs	r5, r0
  90 0004 FA20     		movs	r0, #250
  91 0006 0D4B     		ldr	r3, .L10
  92 0008 8000     		lsls	r0, r0, #2
  93 000a 1978     		ldrb	r1, [r3]
  94 000c FFF7FEFF 		bl	__aeabi_uidiv
  95 0010 0B4B     		ldr	r3, .L10+4
  96 0012 0100     		movs	r1, r0
  97 0014 1868     		ldr	r0, [r3]
  98 0016 FFF7FEFF 		bl	__aeabi_uidiv
  99 001a FFF7FEFF 		bl	HAL_SYSTICK_Config
 100 001e 0400     		movs	r4, r0
 101 0020 0120     		movs	r0, #1
 102 0022 002C     		cmp	r4, #0
 103 0024 09D1     		bne	.L7
 104 0026 032D     		cmp	r5, #3
 105 0028 07D8     		bhi	.L7
 106 002a 0238     		subs	r0, r0, #2
 107 002c 2200     		movs	r2, r4
 108 002e 2900     		movs	r1, r5
 109 0030 FFF7FEFF 		bl	HAL_NVIC_SetPriority
 110 0034 2000     		movs	r0, r4
 111 0036 034B     		ldr	r3, .L10+8
 112 0038 1D60     		str	r5, [r3]
 113              	.L7:
 114              		@ sp needed
 115 003a 70BD     		pop	{r4, r5, r6, pc}
 116              	.L11:
 117              		.align	2
 118              	.L10:
 119 003c 00000000 		.word	.LANCHOR0
 120 0040 00000000 		.word	SystemCoreClock
 121 0044 00000000 		.word	.LANCHOR1
ARM GAS  /tmp/ccNRztGU.s 			page 3


 123              		.section	.text.HAL_Init,"ax",%progbits
 124              		.align	1
 125              		.global	HAL_Init
 126              		.syntax unified
 127              		.code	16
 128              		.thumb_func
 129              		.fpu softvfp
 131              	HAL_Init:
 132              		@ args = 0, pretend = 0, frame = 0
 133              		@ frame_needed = 0, uses_anonymous_args = 0
 134 0000 4023     		movs	r3, #64
 135 0002 084A     		ldr	r2, .L15
 136 0004 10B5     		push	{r4, lr}
 137 0006 1168     		ldr	r1, [r2]
 138 0008 0020     		movs	r0, #0
 139 000a 0B43     		orrs	r3, r1
 140 000c 1360     		str	r3, [r2]
 141 000e FFF7FEFF 		bl	HAL_InitTick
 142 0012 041E     		subs	r4, r0, #0
 143 0014 03D1     		bne	.L14
 144 0016 FFF7FEFF 		bl	HAL_MspInit
 145              	.L13:
 146              		@ sp needed
 147 001a 2000     		movs	r0, r4
 148 001c 10BD     		pop	{r4, pc}
 149              	.L14:
 150 001e 0124     		movs	r4, #1
 151 0020 FBE7     		b	.L13
 152              	.L16:
 153 0022 C046     		.align	2
 154              	.L15:
 155 0024 00200240 		.word	1073881088
 157              		.section	.text.HAL_IncTick,"ax",%progbits
 158              		.align	1
 159              		.weak	HAL_IncTick
 160              		.syntax unified
 161              		.code	16
 162              		.thumb_func
 163              		.fpu softvfp
 165              	HAL_IncTick:
 166              		@ args = 0, pretend = 0, frame = 0
 167              		@ frame_needed = 0, uses_anonymous_args = 0
 168              		@ link register save eliminated.
 169 0000 034A     		ldr	r2, .L18
 170 0002 044B     		ldr	r3, .L18+4
 171 0004 1168     		ldr	r1, [r2]
 172 0006 1B78     		ldrb	r3, [r3]
 173              		@ sp needed
 174 0008 5B18     		adds	r3, r3, r1
 175 000a 1360     		str	r3, [r2]
 176 000c 7047     		bx	lr
 177              	.L19:
 178 000e C046     		.align	2
 179              	.L18:
 180 0010 00000000 		.word	.LANCHOR2
 181 0014 00000000 		.word	.LANCHOR0
 183              		.section	.text.HAL_GetTick,"ax",%progbits
ARM GAS  /tmp/ccNRztGU.s 			page 4


 184              		.align	1
 185              		.weak	HAL_GetTick
 186              		.syntax unified
 187              		.code	16
 188              		.thumb_func
 189              		.fpu softvfp
 191              	HAL_GetTick:
 192              		@ args = 0, pretend = 0, frame = 0
 193              		@ frame_needed = 0, uses_anonymous_args = 0
 194              		@ link register save eliminated.
 195 0000 014B     		ldr	r3, .L21
 196              		@ sp needed
 197 0002 1868     		ldr	r0, [r3]
 198 0004 7047     		bx	lr
 199              	.L22:
 200 0006 C046     		.align	2
 201              	.L21:
 202 0008 00000000 		.word	.LANCHOR2
 204              		.section	.text.HAL_GetTickPrio,"ax",%progbits
 205              		.align	1
 206              		.global	HAL_GetTickPrio
 207              		.syntax unified
 208              		.code	16
 209              		.thumb_func
 210              		.fpu softvfp
 212              	HAL_GetTickPrio:
 213              		@ args = 0, pretend = 0, frame = 0
 214              		@ frame_needed = 0, uses_anonymous_args = 0
 215              		@ link register save eliminated.
 216 0000 014B     		ldr	r3, .L24
 217              		@ sp needed
 218 0002 1868     		ldr	r0, [r3]
 219 0004 7047     		bx	lr
 220              	.L25:
 221 0006 C046     		.align	2
 222              	.L24:
 223 0008 00000000 		.word	.LANCHOR1
 225              		.section	.text.HAL_SetTickFreq,"ax",%progbits
 226              		.align	1
 227              		.global	HAL_SetTickFreq
 228              		.syntax unified
 229              		.code	16
 230              		.thumb_func
 231              		.fpu softvfp
 233              	HAL_SetTickFreq:
 234              		@ args = 0, pretend = 0, frame = 0
 235              		@ frame_needed = 0, uses_anonymous_args = 0
 236 0000 70B5     		push	{r4, r5, r6, lr}
 237 0002 074C     		ldr	r4, .L32
 238 0004 0300     		movs	r3, r0
 239 0006 2578     		ldrb	r5, [r4]
 240 0008 0020     		movs	r0, #0
 241 000a 9D42     		cmp	r5, r3
 242 000c 07D0     		beq	.L27
 243 000e 2370     		strb	r3, [r4]
 244 0010 044B     		ldr	r3, .L32+4
 245 0012 1868     		ldr	r0, [r3]
ARM GAS  /tmp/ccNRztGU.s 			page 5


 246 0014 FFF7FEFF 		bl	HAL_InitTick
 247 0018 0028     		cmp	r0, #0
 248 001a 00D0     		beq	.L27
 249 001c 2570     		strb	r5, [r4]
 250              	.L27:
 251              		@ sp needed
 252 001e 70BD     		pop	{r4, r5, r6, pc}
 253              	.L33:
 254              		.align	2
 255              	.L32:
 256 0020 00000000 		.word	.LANCHOR0
 257 0024 00000000 		.word	.LANCHOR1
 259              		.section	.text.HAL_GetTickFreq,"ax",%progbits
 260              		.align	1
 261              		.global	HAL_GetTickFreq
 262              		.syntax unified
 263              		.code	16
 264              		.thumb_func
 265              		.fpu softvfp
 267              	HAL_GetTickFreq:
 268              		@ args = 0, pretend = 0, frame = 0
 269              		@ frame_needed = 0, uses_anonymous_args = 0
 270              		@ link register save eliminated.
 271 0000 014B     		ldr	r3, .L35
 272              		@ sp needed
 273 0002 1878     		ldrb	r0, [r3]
 274 0004 7047     		bx	lr
 275              	.L36:
 276 0006 C046     		.align	2
 277              	.L35:
 278 0008 00000000 		.word	.LANCHOR0
 280              		.section	.text.HAL_Delay,"ax",%progbits
 281              		.align	1
 282              		.weak	HAL_Delay
 283              		.syntax unified
 284              		.code	16
 285              		.thumb_func
 286              		.fpu softvfp
 288              	HAL_Delay:
 289              		@ args = 0, pretend = 0, frame = 0
 290              		@ frame_needed = 0, uses_anonymous_args = 0
 291 0000 70B5     		push	{r4, r5, r6, lr}
 292 0002 0400     		movs	r4, r0
 293 0004 FFF7FEFF 		bl	HAL_GetTick
 294 0008 0500     		movs	r5, r0
 295 000a 631C     		adds	r3, r4, #1
 296 000c 02D0     		beq	.L39
 297 000e 044B     		ldr	r3, .L44
 298 0010 1B78     		ldrb	r3, [r3]
 299 0012 E418     		adds	r4, r4, r3
 300              	.L39:
 301 0014 FFF7FEFF 		bl	HAL_GetTick
 302 0018 401B     		subs	r0, r0, r5
 303 001a A042     		cmp	r0, r4
 304 001c FAD3     		bcc	.L39
 305              		@ sp needed
 306 001e 70BD     		pop	{r4, r5, r6, pc}
ARM GAS  /tmp/ccNRztGU.s 			page 6


 307              	.L45:
 308              		.align	2
 309              	.L44:
 310 0020 00000000 		.word	.LANCHOR0
 312              		.section	.text.HAL_SuspendTick,"ax",%progbits
 313              		.align	1
 314              		.weak	HAL_SuspendTick
 315              		.syntax unified
 316              		.code	16
 317              		.thumb_func
 318              		.fpu softvfp
 320              	HAL_SuspendTick:
 321              		@ args = 0, pretend = 0, frame = 0
 322              		@ frame_needed = 0, uses_anonymous_args = 0
 323              		@ link register save eliminated.
 324 0000 0221     		movs	r1, #2
 325              		@ sp needed
 326 0002 024A     		ldr	r2, .L47
 327 0004 1368     		ldr	r3, [r2]
 328 0006 8B43     		bics	r3, r1
 329 0008 1360     		str	r3, [r2]
 330 000a 7047     		bx	lr
 331              	.L48:
 332              		.align	2
 333              	.L47:
 334 000c 10E000E0 		.word	-536813552
 336              		.section	.text.HAL_ResumeTick,"ax",%progbits
 337              		.align	1
 338              		.weak	HAL_ResumeTick
 339              		.syntax unified
 340              		.code	16
 341              		.thumb_func
 342              		.fpu softvfp
 344              	HAL_ResumeTick:
 345              		@ args = 0, pretend = 0, frame = 0
 346              		@ frame_needed = 0, uses_anonymous_args = 0
 347              		@ link register save eliminated.
 348 0000 0223     		movs	r3, #2
 349              		@ sp needed
 350 0002 024A     		ldr	r2, .L50
 351 0004 1168     		ldr	r1, [r2]
 352 0006 0B43     		orrs	r3, r1
 353 0008 1360     		str	r3, [r2]
 354 000a 7047     		bx	lr
 355              	.L51:
 356              		.align	2
 357              	.L50:
 358 000c 10E000E0 		.word	-536813552
 360              		.section	.text.HAL_GetHalVersion,"ax",%progbits
 361              		.align	1
 362              		.global	HAL_GetHalVersion
 363              		.syntax unified
 364              		.code	16
 365              		.thumb_func
 366              		.fpu softvfp
 368              	HAL_GetHalVersion:
 369              		@ args = 0, pretend = 0, frame = 0
ARM GAS  /tmp/ccNRztGU.s 			page 7


 370              		@ frame_needed = 0, uses_anonymous_args = 0
 371              		@ link register save eliminated.
 372 0000 0048     		ldr	r0, .L53
 373              		@ sp needed
 374 0002 7047     		bx	lr
 375              	.L54:
 376              		.align	2
 377              	.L53:
 378 0004 00050A01 		.word	17433856
 380              		.section	.text.HAL_GetREVID,"ax",%progbits
 381              		.align	1
 382              		.global	HAL_GetREVID
 383              		.syntax unified
 384              		.code	16
 385              		.thumb_func
 386              		.fpu softvfp
 388              	HAL_GetREVID:
 389              		@ args = 0, pretend = 0, frame = 0
 390              		@ frame_needed = 0, uses_anonymous_args = 0
 391              		@ link register save eliminated.
 392 0000 014B     		ldr	r3, .L56
 393              		@ sp needed
 394 0002 1868     		ldr	r0, [r3]
 395 0004 000C     		lsrs	r0, r0, #16
 396 0006 7047     		bx	lr
 397              	.L57:
 398              		.align	2
 399              	.L56:
 400 0008 00580140 		.word	1073829888
 402              		.section	.text.HAL_GetDEVID,"ax",%progbits
 403              		.align	1
 404              		.global	HAL_GetDEVID
 405              		.syntax unified
 406              		.code	16
 407              		.thumb_func
 408              		.fpu softvfp
 410              	HAL_GetDEVID:
 411              		@ args = 0, pretend = 0, frame = 0
 412              		@ frame_needed = 0, uses_anonymous_args = 0
 413              		@ link register save eliminated.
 414 0000 024B     		ldr	r3, .L59
 415              		@ sp needed
 416 0002 1868     		ldr	r0, [r3]
 417 0004 0005     		lsls	r0, r0, #20
 418 0006 000D     		lsrs	r0, r0, #20
 419 0008 7047     		bx	lr
 420              	.L60:
 421 000a C046     		.align	2
 422              	.L59:
 423 000c 00580140 		.word	1073829888
 425              		.section	.text.HAL_GetUIDw0,"ax",%progbits
 426              		.align	1
 427              		.global	HAL_GetUIDw0
 428              		.syntax unified
 429              		.code	16
 430              		.thumb_func
 431              		.fpu softvfp
ARM GAS  /tmp/ccNRztGU.s 			page 8


 433              	HAL_GetUIDw0:
 434              		@ args = 0, pretend = 0, frame = 0
 435              		@ frame_needed = 0, uses_anonymous_args = 0
 436              		@ link register save eliminated.
 437 0000 014B     		ldr	r3, .L62
 438              		@ sp needed
 439 0002 1868     		ldr	r0, [r3]
 440 0004 7047     		bx	lr
 441              	.L63:
 442 0006 C046     		.align	2
 443              	.L62:
 444 0008 5000F81F 		.word	536346704
 446              		.section	.text.HAL_GetUIDw1,"ax",%progbits
 447              		.align	1
 448              		.global	HAL_GetUIDw1
 449              		.syntax unified
 450              		.code	16
 451              		.thumb_func
 452              		.fpu softvfp
 454              	HAL_GetUIDw1:
 455              		@ args = 0, pretend = 0, frame = 0
 456              		@ frame_needed = 0, uses_anonymous_args = 0
 457              		@ link register save eliminated.
 458 0000 014B     		ldr	r3, .L65
 459              		@ sp needed
 460 0002 1868     		ldr	r0, [r3]
 461 0004 7047     		bx	lr
 462              	.L66:
 463 0006 C046     		.align	2
 464              	.L65:
 465 0008 5400F81F 		.word	536346708
 467              		.section	.text.HAL_GetUIDw2,"ax",%progbits
 468              		.align	1
 469              		.global	HAL_GetUIDw2
 470              		.syntax unified
 471              		.code	16
 472              		.thumb_func
 473              		.fpu softvfp
 475              	HAL_GetUIDw2:
 476              		@ args = 0, pretend = 0, frame = 0
 477              		@ frame_needed = 0, uses_anonymous_args = 0
 478              		@ link register save eliminated.
 479 0000 014B     		ldr	r3, .L68
 480              		@ sp needed
 481 0002 1868     		ldr	r0, [r3]
 482 0004 7047     		bx	lr
 483              	.L69:
 484 0006 C046     		.align	2
 485              	.L68:
 486 0008 6400F81F 		.word	536346724
 488              		.section	.text.HAL_DBGMCU_EnableDBGSleepMode,"ax",%progbits
 489              		.align	1
 490              		.global	HAL_DBGMCU_EnableDBGSleepMode
 491              		.syntax unified
 492              		.code	16
 493              		.thumb_func
 494              		.fpu softvfp
ARM GAS  /tmp/ccNRztGU.s 			page 9


 496              	HAL_DBGMCU_EnableDBGSleepMode:
 497              		@ args = 0, pretend = 0, frame = 0
 498              		@ frame_needed = 0, uses_anonymous_args = 0
 499              		@ link register save eliminated.
 500 0000 0123     		movs	r3, #1
 501              		@ sp needed
 502 0002 024A     		ldr	r2, .L71
 503 0004 5168     		ldr	r1, [r2, #4]
 504 0006 0B43     		orrs	r3, r1
 505 0008 5360     		str	r3, [r2, #4]
 506 000a 7047     		bx	lr
 507              	.L72:
 508              		.align	2
 509              	.L71:
 510 000c 00580140 		.word	1073829888
 512              		.section	.text.HAL_DBGMCU_DisableDBGSleepMode,"ax",%progbits
 513              		.align	1
 514              		.global	HAL_DBGMCU_DisableDBGSleepMode
 515              		.syntax unified
 516              		.code	16
 517              		.thumb_func
 518              		.fpu softvfp
 520              	HAL_DBGMCU_DisableDBGSleepMode:
 521              		@ args = 0, pretend = 0, frame = 0
 522              		@ frame_needed = 0, uses_anonymous_args = 0
 523              		@ link register save eliminated.
 524 0000 0121     		movs	r1, #1
 525              		@ sp needed
 526 0002 024A     		ldr	r2, .L74
 527 0004 5368     		ldr	r3, [r2, #4]
 528 0006 8B43     		bics	r3, r1
 529 0008 5360     		str	r3, [r2, #4]
 530 000a 7047     		bx	lr
 531              	.L75:
 532              		.align	2
 533              	.L74:
 534 000c 00580140 		.word	1073829888
 536              		.section	.text.HAL_DBGMCU_EnableDBGStopMode,"ax",%progbits
 537              		.align	1
 538              		.global	HAL_DBGMCU_EnableDBGStopMode
 539              		.syntax unified
 540              		.code	16
 541              		.thumb_func
 542              		.fpu softvfp
 544              	HAL_DBGMCU_EnableDBGStopMode:
 545              		@ args = 0, pretend = 0, frame = 0
 546              		@ frame_needed = 0, uses_anonymous_args = 0
 547              		@ link register save eliminated.
 548 0000 0223     		movs	r3, #2
 549              		@ sp needed
 550 0002 024A     		ldr	r2, .L77
 551 0004 5168     		ldr	r1, [r2, #4]
 552 0006 0B43     		orrs	r3, r1
 553 0008 5360     		str	r3, [r2, #4]
 554 000a 7047     		bx	lr
 555              	.L78:
 556              		.align	2
ARM GAS  /tmp/ccNRztGU.s 			page 10


 557              	.L77:
 558 000c 00580140 		.word	1073829888
 560              		.section	.text.HAL_DBGMCU_DisableDBGStopMode,"ax",%progbits
 561              		.align	1
 562              		.global	HAL_DBGMCU_DisableDBGStopMode
 563              		.syntax unified
 564              		.code	16
 565              		.thumb_func
 566              		.fpu softvfp
 568              	HAL_DBGMCU_DisableDBGStopMode:
 569              		@ args = 0, pretend = 0, frame = 0
 570              		@ frame_needed = 0, uses_anonymous_args = 0
 571              		@ link register save eliminated.
 572 0000 0221     		movs	r1, #2
 573              		@ sp needed
 574 0002 024A     		ldr	r2, .L80
 575 0004 5368     		ldr	r3, [r2, #4]
 576 0006 8B43     		bics	r3, r1
 577 0008 5360     		str	r3, [r2, #4]
 578 000a 7047     		bx	lr
 579              	.L81:
 580              		.align	2
 581              	.L80:
 582 000c 00580140 		.word	1073829888
 584              		.section	.text.HAL_DBGMCU_EnableDBGStandbyMode,"ax",%progbits
 585              		.align	1
 586              		.global	HAL_DBGMCU_EnableDBGStandbyMode
 587              		.syntax unified
 588              		.code	16
 589              		.thumb_func
 590              		.fpu softvfp
 592              	HAL_DBGMCU_EnableDBGStandbyMode:
 593              		@ args = 0, pretend = 0, frame = 0
 594              		@ frame_needed = 0, uses_anonymous_args = 0
 595              		@ link register save eliminated.
 596 0000 0423     		movs	r3, #4
 597              		@ sp needed
 598 0002 024A     		ldr	r2, .L83
 599 0004 5168     		ldr	r1, [r2, #4]
 600 0006 0B43     		orrs	r3, r1
 601 0008 5360     		str	r3, [r2, #4]
 602 000a 7047     		bx	lr
 603              	.L84:
 604              		.align	2
 605              	.L83:
 606 000c 00580140 		.word	1073829888
 608              		.section	.text.HAL_DBGMCU_DisableDBGStandbyMode,"ax",%progbits
 609              		.align	1
 610              		.global	HAL_DBGMCU_DisableDBGStandbyMode
 611              		.syntax unified
 612              		.code	16
 613              		.thumb_func
 614              		.fpu softvfp
 616              	HAL_DBGMCU_DisableDBGStandbyMode:
 617              		@ args = 0, pretend = 0, frame = 0
 618              		@ frame_needed = 0, uses_anonymous_args = 0
 619              		@ link register save eliminated.
ARM GAS  /tmp/ccNRztGU.s 			page 11


 620 0000 0421     		movs	r1, #4
 621              		@ sp needed
 622 0002 024A     		ldr	r2, .L86
 623 0004 5368     		ldr	r3, [r2, #4]
 624 0006 8B43     		bics	r3, r1
 625 0008 5360     		str	r3, [r2, #4]
 626 000a 7047     		bx	lr
 627              	.L87:
 628              		.align	2
 629              	.L86:
 630 000c 00580140 		.word	1073829888
 632              		.section	.text.HAL_DBGMCU_DBG_EnableLowPowerConfig,"ax",%progbits
 633              		.align	1
 634              		.global	HAL_DBGMCU_DBG_EnableLowPowerConfig
 635              		.syntax unified
 636              		.code	16
 637              		.thumb_func
 638              		.fpu softvfp
 640              	HAL_DBGMCU_DBG_EnableLowPowerConfig:
 641              		@ args = 0, pretend = 0, frame = 0
 642              		@ frame_needed = 0, uses_anonymous_args = 0
 643              		@ link register save eliminated.
 644 0000 024A     		ldr	r2, .L89
 645              		@ sp needed
 646 0002 5368     		ldr	r3, [r2, #4]
 647 0004 0343     		orrs	r3, r0
 648 0006 5360     		str	r3, [r2, #4]
 649 0008 7047     		bx	lr
 650              	.L90:
 651 000a C046     		.align	2
 652              	.L89:
 653 000c 00580140 		.word	1073829888
 655              		.section	.text.HAL_DBGMCU_DBG_DisableLowPowerConfig,"ax",%progbits
 656              		.align	1
 657              		.global	HAL_DBGMCU_DBG_DisableLowPowerConfig
 658              		.syntax unified
 659              		.code	16
 660              		.thumb_func
 661              		.fpu softvfp
 663              	HAL_DBGMCU_DBG_DisableLowPowerConfig:
 664              		@ args = 0, pretend = 0, frame = 0
 665              		@ frame_needed = 0, uses_anonymous_args = 0
 666              		@ link register save eliminated.
 667 0000 024A     		ldr	r2, .L92
 668              		@ sp needed
 669 0002 5368     		ldr	r3, [r2, #4]
 670 0004 8343     		bics	r3, r0
 671 0006 5360     		str	r3, [r2, #4]
 672 0008 7047     		bx	lr
 673              	.L93:
 674 000a C046     		.align	2
 675              	.L92:
 676 000c 00580140 		.word	1073829888
 678              		.section	.text.HAL_SYSCFG_GetBootMode,"ax",%progbits
 679              		.align	1
 680              		.global	HAL_SYSCFG_GetBootMode
 681              		.syntax unified
ARM GAS  /tmp/ccNRztGU.s 			page 12


 682              		.code	16
 683              		.thumb_func
 684              		.fpu softvfp
 686              	HAL_SYSCFG_GetBootMode:
 687              		@ args = 0, pretend = 0, frame = 0
 688              		@ frame_needed = 0, uses_anonymous_args = 0
 689              		@ link register save eliminated.
 690 0000 024B     		ldr	r3, .L95
 691              		@ sp needed
 692 0002 1868     		ldr	r0, [r3]
 693 0004 C023     		movs	r3, #192
 694 0006 9B00     		lsls	r3, r3, #2
 695 0008 1840     		ands	r0, r3
 696 000a 7047     		bx	lr
 697              	.L96:
 698              		.align	2
 699              	.L95:
 700 000c 00000140 		.word	1073807360
 702              		.section	.text.HAL_SYSCFG_VREFINT_OutputSelect,"ax",%progbits
 703              		.align	1
 704              		.global	HAL_SYSCFG_VREFINT_OutputSelect
 705              		.syntax unified
 706              		.code	16
 707              		.thumb_func
 708              		.fpu softvfp
 710              	HAL_SYSCFG_VREFINT_OutputSelect:
 711              		@ args = 0, pretend = 0, frame = 0
 712              		@ frame_needed = 0, uses_anonymous_args = 0
 713              		@ link register save eliminated.
 714 0000 3022     		movs	r2, #48
 715              		@ sp needed
 716 0002 044B     		ldr	r3, .L98
 717 0004 196A     		ldr	r1, [r3, #32]
 718 0006 9143     		bics	r1, r2
 719 0008 1962     		str	r1, [r3, #32]
 720 000a 1A6A     		ldr	r2, [r3, #32]
 721 000c 0243     		orrs	r2, r0
 722 000e 1A62     		str	r2, [r3, #32]
 723 0010 7047     		bx	lr
 724              	.L99:
 725 0012 C046     		.align	2
 726              	.L98:
 727 0014 00000140 		.word	1073807360
 729              		.section	.text.HAL_SYSCFG_Enable_Lock_VREFINT,"ax",%progbits
 730              		.align	1
 731              		.global	HAL_SYSCFG_Enable_Lock_VREFINT
 732              		.syntax unified
 733              		.code	16
 734              		.thumb_func
 735              		.fpu softvfp
 737              	HAL_SYSCFG_Enable_Lock_VREFINT:
 738              		@ args = 0, pretend = 0, frame = 0
 739              		@ frame_needed = 0, uses_anonymous_args = 0
 740              		@ link register save eliminated.
 741 0000 8023     		movs	r3, #128
 742              		@ sp needed
 743 0002 034A     		ldr	r2, .L101
ARM GAS  /tmp/ccNRztGU.s 			page 13


 744 0004 1B06     		lsls	r3, r3, #24
 745 0006 116A     		ldr	r1, [r2, #32]
 746 0008 0B43     		orrs	r3, r1
 747 000a 1362     		str	r3, [r2, #32]
 748 000c 7047     		bx	lr
 749              	.L102:
 750 000e C046     		.align	2
 751              	.L101:
 752 0010 00000140 		.word	1073807360
 754              		.section	.text.HAL_SYSCFG_Disable_Lock_VREFINT,"ax",%progbits
 755              		.align	1
 756              		.global	HAL_SYSCFG_Disable_Lock_VREFINT
 757              		.syntax unified
 758              		.code	16
 759              		.thumb_func
 760              		.fpu softvfp
 762              	HAL_SYSCFG_Disable_Lock_VREFINT:
 763              		@ args = 0, pretend = 0, frame = 0
 764              		@ frame_needed = 0, uses_anonymous_args = 0
 765              		@ link register save eliminated.
 766 0000 024A     		ldr	r2, .L104
 767              		@ sp needed
 768 0002 136A     		ldr	r3, [r2, #32]
 769 0004 5B00     		lsls	r3, r3, #1
 770 0006 5B08     		lsrs	r3, r3, #1
 771 0008 1362     		str	r3, [r2, #32]
 772 000a 7047     		bx	lr
 773              	.L105:
 774              		.align	2
 775              	.L104:
 776 000c 00000140 		.word	1073807360
 778              		.global	uwTickFreq
 779              		.global	uwTickPrio
 780              		.global	uwTick
 781              		.section	.bss.uwTick,"aw",%nobits
 782              		.align	2
 783              		.set	.LANCHOR2,. + 0
 786              	uwTick:
 787 0000 00000000 		.space	4
 788              		.section	.data.uwTickFreq,"aw"
 789              		.set	.LANCHOR0,. + 0
 792              	uwTickFreq:
 793 0000 01       		.byte	1
 794              		.section	.data.uwTickPrio,"aw"
 795              		.align	2
 796              		.set	.LANCHOR1,. + 0
 799              	uwTickPrio:
 800 0000 04000000 		.word	4
 801              		.ident	"GCC: (15:10.3-2021.07-4) 10.3.1 20210621 (release)"
ARM GAS  /tmp/ccNRztGU.s 			page 14

