ARM GAS  /tmp/ccjphgoR.s 			page 1


   1              		.cpu cortex-m4
   2              		.eabi_attribute 27, 1
   3              		.eabi_attribute 28, 1
   4              		.eabi_attribute 20, 1
   5              		.eabi_attribute 21, 1
   6              		.eabi_attribute 23, 3
   7              		.eabi_attribute 24, 1
   8              		.eabi_attribute 25, 1
   9              		.eabi_attribute 26, 1
  10              		.eabi_attribute 30, 6
  11              		.eabi_attribute 34, 1
  12              		.eabi_attribute 18, 4
  13              		.file	"lis2de12.c"
  14              		.text
  15              	.Ltext0:
  16              		.cfi_sections	.debug_frame
  17              		.section	.bss.accelerometer_irq1_state,"aw",%nobits
  20              	accelerometer_irq1_state:
  21 0000 00       		.space	1
  22              		.section	.bss.who_am_i,"aw",%nobits
  25              	who_am_i:
  26 0000 00       		.space	1
  27              		.global	data_raw_acceleration
  28              		.section	.bss.data_raw_acceleration,"aw",%nobits
  29              		.align	2
  32              	data_raw_acceleration:
  33 0000 00000000 		.space	6
  33      0000
  34              		.global	acceleration_mg
  35              		.section	.bss.acceleration_mg,"aw",%nobits
  36              		.align	2
  39              	acceleration_mg:
  40 0000 00000000 		.space	12
  40      00000000 
  40      00000000 
  41              		.section	.data.lis2de12_int1,"aw"
  42              		.align	2
  45              	lis2de12_int1:
  46 0000 0900     		.short	9
  47 0002 0000     		.space	2
  48 0004 00000000 		.word	0
  49 0008 00000000 		.word	lis2de12_int1_irq_handler
  50              		.section	.text.accelerometer_init,"ax",%progbits
  51              		.align	1
  52              		.global	accelerometer_init
  53              		.arch armv7e-m
  54              		.syntax unified
  55              		.thumb
  56              		.thumb_func
  57              		.fpu fpv4-sp-d16
  59              	accelerometer_init:
  60              	.LFB590:
  61              		.file 1 "../Drivers/BSP/Components/lis2de12/lis2de12.c"
   1:../Drivers/BSP/Components/lis2de12/lis2de12.c **** /*
   2:../Drivers/BSP/Components/lis2de12/lis2de12.c ****  ******************************************************************************
   3:../Drivers/BSP/Components/lis2de12/lis2de12.c ****  * @file    lis2de12_reg.c
   4:../Drivers/BSP/Components/lis2de12/lis2de12.c ****  * @author  Sensors Software Solution Team
ARM GAS  /tmp/ccjphgoR.s 			page 2


   5:../Drivers/BSP/Components/lis2de12/lis2de12.c ****  * @brief   LIS2DE12 driver file
   6:../Drivers/BSP/Components/lis2de12/lis2de12.c ****  ******************************************************************************
   7:../Drivers/BSP/Components/lis2de12/lis2de12.c ****  * @attention
   8:../Drivers/BSP/Components/lis2de12/lis2de12.c ****  *
   9:../Drivers/BSP/Components/lis2de12/lis2de12.c ****  * <h2><center>&copy; COPYRIGHT(c) 2018 STMicroelectronics</center></h2>
  10:../Drivers/BSP/Components/lis2de12/lis2de12.c ****  *
  11:../Drivers/BSP/Components/lis2de12/lis2de12.c ****  * Redistribution and use in source and binary forms, with or without
  12:../Drivers/BSP/Components/lis2de12/lis2de12.c ****  * modification, are permitted provided that the following conditions
  13:../Drivers/BSP/Components/lis2de12/lis2de12.c ****  * are met:
  14:../Drivers/BSP/Components/lis2de12/lis2de12.c ****  *   1. Redistributions of source code must retain the above copyright notice,
  15:../Drivers/BSP/Components/lis2de12/lis2de12.c ****  *      this list of conditions and the following disclaimer.
  16:../Drivers/BSP/Components/lis2de12/lis2de12.c ****  *   2. Redistributions in binary form must reproduce the above copyright
  17:../Drivers/BSP/Components/lis2de12/lis2de12.c ****  *      notice, this list of conditions and the following disclaimer in the
  18:../Drivers/BSP/Components/lis2de12/lis2de12.c ****  *      documentation and/or other materials provided with the distribution.
  19:../Drivers/BSP/Components/lis2de12/lis2de12.c ****  *   3. Neither the name of STMicroelectronics nor the names of its
  20:../Drivers/BSP/Components/lis2de12/lis2de12.c ****  *      contributors may be used to endorse or promote products derived from
  21:../Drivers/BSP/Components/lis2de12/lis2de12.c ****  *      this software without specific prior written permission.
  22:../Drivers/BSP/Components/lis2de12/lis2de12.c ****  *
  23:../Drivers/BSP/Components/lis2de12/lis2de12.c ****  * THIS SOFTWARE IS PROVIDED BY THE COPYRIGHT HOLDERS AND CONTRIBUTORS "AS IS"
  24:../Drivers/BSP/Components/lis2de12/lis2de12.c ****  * AND ANY EXPRESS OR IMPLIED WARRANTIES, INCLUDING, BUT NOT LIMITED TO, THE
  25:../Drivers/BSP/Components/lis2de12/lis2de12.c ****  * IMPLIED WARRANTIES OF MERCHANTABILITY AND FITNESS FOR A PARTICULAR PURPOSE
  26:../Drivers/BSP/Components/lis2de12/lis2de12.c ****  * ARE DISCLAIMED. IN NO EVENT SHALL THE COPYRIGHT HOLDER OR CONTRIBUTORS BE
  27:../Drivers/BSP/Components/lis2de12/lis2de12.c ****  * LIABLE FOR ANY DIRECT, INDIRECT, INCIDENTAL, SPECIAL, EXEMPLARY, OR
  28:../Drivers/BSP/Components/lis2de12/lis2de12.c ****  * CONSEQUENTIAL DAMAGES (INCLUDING, BUT NOT LIMITED TO, PROCUREMENT OF
  29:../Drivers/BSP/Components/lis2de12/lis2de12.c ****  * SUBSTITUTE GOODS OR SERVICES; LOSS OF USE, DATA, OR PROFITS; OR BUSINESS
  30:../Drivers/BSP/Components/lis2de12/lis2de12.c ****  * INTERRUPTION) HOWEVER CAUSED AND ON ANY THEORY OF LIABILITY, WHETHER IN
  31:../Drivers/BSP/Components/lis2de12/lis2de12.c ****  * CONTRACT, STRICT LIABILITY, OR TORT (INCLUDING NEGLIGENCE OR OTHERWISE)
  32:../Drivers/BSP/Components/lis2de12/lis2de12.c ****  * ARISING IN ANY WAY OUT OF THE USE OF THIS SOFTWARE, EVEN IF ADVISED OF THE
  33:../Drivers/BSP/Components/lis2de12/lis2de12.c ****  * POSSIBILITY OF SUCH DAMAGE.
  34:../Drivers/BSP/Components/lis2de12/lis2de12.c ****  *
  35:../Drivers/BSP/Components/lis2de12/lis2de12.c ****  */
  36:../Drivers/BSP/Components/lis2de12/lis2de12.c **** #include "lis2de12.h"
  37:../Drivers/BSP/Components/lis2de12/lis2de12.c **** #include "lr1110_modem_board.h"
  38:../Drivers/BSP/Components/lis2de12/lis2de12.c **** 
  39:../Drivers/BSP/Components/lis2de12/lis2de12.c **** /***************************************************************************\
  40:../Drivers/BSP/Components/lis2de12/lis2de12.c ****  * RAM data
  41:../Drivers/BSP/Components/lis2de12/lis2de12.c **** \***************************************************************************/
  42:../Drivers/BSP/Components/lis2de12/lis2de12.c **** 
  43:../Drivers/BSP/Components/lis2de12/lis2de12.c **** // The I2C instance of the LIS2DE12.
  44:../Drivers/BSP/Components/lis2de12/lis2de12.c **** extern hal_i2c_t i2c1_instance;
  45:../Drivers/BSP/Components/lis2de12/lis2de12.c **** 
  46:../Drivers/BSP/Components/lis2de12/lis2de12.c **** static bool accelerometer_irq1_state = false;
  47:../Drivers/BSP/Components/lis2de12/lis2de12.c **** 
  48:../Drivers/BSP/Components/lis2de12/lis2de12.c **** static uint8_t who_am_i;
  49:../Drivers/BSP/Components/lis2de12/lis2de12.c **** axis3bit16_t   data_raw_acceleration;
  50:../Drivers/BSP/Components/lis2de12/lis2de12.c **** float          acceleration_mg[3];
  51:../Drivers/BSP/Components/lis2de12/lis2de12.c **** 
  52:../Drivers/BSP/Components/lis2de12/lis2de12.c **** static void accelerometer_irq1_init( void );
  53:../Drivers/BSP/Components/lis2de12/lis2de12.c **** 
  54:../Drivers/BSP/Components/lis2de12/lis2de12.c **** /*!
  55:../Drivers/BSP/Components/lis2de12/lis2de12.c ****  * @brief INT1 interrupt callback
  56:../Drivers/BSP/Components/lis2de12/lis2de12.c ****  */
  57:../Drivers/BSP/Components/lis2de12/lis2de12.c **** void lis2de12_int1_irq_handler( void* obj );
  58:../Drivers/BSP/Components/lis2de12/lis2de12.c **** 
  59:../Drivers/BSP/Components/lis2de12/lis2de12.c **** /*!
  60:../Drivers/BSP/Components/lis2de12/lis2de12.c ****  * Hardware IRQ INT1 callback initialization
  61:../Drivers/BSP/Components/lis2de12/lis2de12.c ****  */
ARM GAS  /tmp/ccjphgoR.s 			page 3


  62:../Drivers/BSP/Components/lis2de12/lis2de12.c **** static hal_gpio_irq_t lis2de12_int1 = {
  63:../Drivers/BSP/Components/lis2de12/lis2de12.c ****     .pin      = ACC_INT1,
  64:../Drivers/BSP/Components/lis2de12/lis2de12.c ****     .callback = lis2de12_int1_irq_handler,
  65:../Drivers/BSP/Components/lis2de12/lis2de12.c ****     .context  = NULL,
  66:../Drivers/BSP/Components/lis2de12/lis2de12.c **** };
  67:../Drivers/BSP/Components/lis2de12/lis2de12.c **** 
  68:../Drivers/BSP/Components/lis2de12/lis2de12.c **** /**
  69:../Drivers/BSP/Components/lis2de12/lis2de12.c ****  * @defgroup  LIS2DE12
  70:../Drivers/BSP/Components/lis2de12/lis2de12.c ****  * @brief     This file provides a set of functions needed to drive the
  71:../Drivers/BSP/Components/lis2de12/lis2de12.c ****  *            lis2de12 enanced inertial module.
  72:../Drivers/BSP/Components/lis2de12/lis2de12.c ****  * @{
  73:../Drivers/BSP/Components/lis2de12/lis2de12.c ****  *
  74:../Drivers/BSP/Components/lis2de12/lis2de12.c ****  */
  75:../Drivers/BSP/Components/lis2de12/lis2de12.c **** 
  76:../Drivers/BSP/Components/lis2de12/lis2de12.c **** /**
  77:../Drivers/BSP/Components/lis2de12/lis2de12.c ****  * @defgroup  LIS2DE12_Interfaces_Functions
  78:../Drivers/BSP/Components/lis2de12/lis2de12.c ****  * @brief     This section provide a set of functions used to read and
  79:../Drivers/BSP/Components/lis2de12/lis2de12.c ****  *            write a generic register of the device.
  80:../Drivers/BSP/Components/lis2de12/lis2de12.c ****  *            MANDATORY: return 0 -> no Error.
  81:../Drivers/BSP/Components/lis2de12/lis2de12.c ****  * @{
  82:../Drivers/BSP/Components/lis2de12/lis2de12.c ****  *
  83:../Drivers/BSP/Components/lis2de12/lis2de12.c ****  */
  84:../Drivers/BSP/Components/lis2de12/lis2de12.c **** 
  85:../Drivers/BSP/Components/lis2de12/lis2de12.c **** /*!
  86:../Drivers/BSP/Components/lis2de12/lis2de12.c ****  * @brief Initializes the hardware and variables associated with the lis2de12.
  87:../Drivers/BSP/Components/lis2de12/lis2de12.c ****  *
  88:../Drivers/BSP/Components/lis2de12/lis2de12.c ****  * @param [in]  irq_active      Interupt MASK to activate int1 or not
  89:../Drivers/BSP/Components/lis2de12/lis2de12.c ****  * @returns      Status        SUCCESS(1) or FAIL(0)
  90:../Drivers/BSP/Components/lis2de12/lis2de12.c ****  */
  91:../Drivers/BSP/Components/lis2de12/lis2de12.c **** uint8_t accelerometer_init( uint8_t irq_active )
  92:../Drivers/BSP/Components/lis2de12/lis2de12.c **** {
  62              		.loc 1 92 1
  63              		.cfi_startproc
  64              		@ args = 0, pretend = 0, frame = 24
  65              		@ frame_needed = 1, uses_anonymous_args = 0
  66 0000 80B5     		push	{r7, lr}
  67              	.LCFI0:
  68              		.cfi_def_cfa_offset 8
  69              		.cfi_offset 7, -8
  70              		.cfi_offset 14, -4
  71 0002 86B0     		sub	sp, sp, #24
  72              	.LCFI1:
  73              		.cfi_def_cfa_offset 32
  74 0004 00AF     		add	r7, sp, #0
  75              	.LCFI2:
  76              		.cfi_def_cfa_register 7
  77 0006 0346     		mov	r3, r0
  78 0008 FB71     		strb	r3, [r7, #7]
  93:../Drivers/BSP/Components/lis2de12/lis2de12.c ****     int                  i = 0;
  79              		.loc 1 93 26
  80 000a 0023     		movs	r3, #0
  81 000c 7B61     		str	r3, [r7, #20]
  94:../Drivers/BSP/Components/lis2de12/lis2de12.c ****     lis2de12_int1_cfg_t  lis2de12_int1_cfg;
  95:../Drivers/BSP/Components/lis2de12/lis2de12.c ****     lis2de12_ctrl_reg1_t ctrl_reg1;
  96:../Drivers/BSP/Components/lis2de12/lis2de12.c ****     lis2de12_ctrl_reg3_t ctrl_reg3;
  97:../Drivers/BSP/Components/lis2de12/lis2de12.c **** 
  98:../Drivers/BSP/Components/lis2de12/lis2de12.c ****     /* Check device ID */
ARM GAS  /tmp/ccjphgoR.s 			page 4


  99:../Drivers/BSP/Components/lis2de12/lis2de12.c ****     while( ( i <= 5 ) && ( who_am_i != LIS2DE12_ID ) )
  82              		.loc 1 99 10
  83 000e 0EE0     		b	.L2
  84              	.L6:
 100:../Drivers/BSP/Components/lis2de12/lis2de12.c ****     {
 101:../Drivers/BSP/Components/lis2de12/lis2de12.c ****         lis2de12_device_id_get( &who_am_i );
  85              		.loc 1 101 9
  86 0010 4648     		ldr	r0, .L9
  87 0012 FFF7FEFF 		bl	lis2de12_device_id_get
 102:../Drivers/BSP/Components/lis2de12/lis2de12.c ****         if( who_am_i != LIS2DE12_ID )
  88              		.loc 1 102 22
  89 0016 454B     		ldr	r3, .L9
  90 0018 1B78     		ldrb	r3, [r3]	@ zero_extendqisi2
  91              		.loc 1 102 11
  92 001a 332B     		cmp	r3, #51
  93 001c 04D0     		beq	.L3
 103:../Drivers/BSP/Components/lis2de12/lis2de12.c ****         {
 104:../Drivers/BSP/Components/lis2de12/lis2de12.c ****             if( i == 5 )
  94              		.loc 1 104 15
  95 001e 7B69     		ldr	r3, [r7, #20]
  96 0020 052B     		cmp	r3, #5
  97 0022 01D1     		bne	.L3
 105:../Drivers/BSP/Components/lis2de12/lis2de12.c ****             {
 106:../Drivers/BSP/Components/lis2de12/lis2de12.c ****                 return 0;
  98              		.loc 1 106 24
  99 0024 0023     		movs	r3, #0
 100 0026 7DE0     		b	.L8
 101              	.L3:
 107:../Drivers/BSP/Components/lis2de12/lis2de12.c ****             }
 108:../Drivers/BSP/Components/lis2de12/lis2de12.c ****         }
 109:../Drivers/BSP/Components/lis2de12/lis2de12.c ****         i++;
 102              		.loc 1 109 10
 103 0028 7B69     		ldr	r3, [r7, #20]
 104 002a 0133     		adds	r3, r3, #1
 105 002c 7B61     		str	r3, [r7, #20]
 106              	.L2:
  99:../Drivers/BSP/Components/lis2de12/lis2de12.c ****     {
 107              		.loc 1 99 10
 108 002e 7B69     		ldr	r3, [r7, #20]
 109 0030 052B     		cmp	r3, #5
 110 0032 03DC     		bgt	.L5
  99:../Drivers/BSP/Components/lis2de12/lis2de12.c ****     {
 111              		.loc 1 99 37 discriminator 1
 112 0034 3D4B     		ldr	r3, .L9
 113 0036 1B78     		ldrb	r3, [r3]	@ zero_extendqisi2
  99:../Drivers/BSP/Components/lis2de12/lis2de12.c ****     {
 114              		.loc 1 99 23 discriminator 1
 115 0038 332B     		cmp	r3, #51
 116 003a E9D1     		bne	.L6
 117              	.L5:
 110:../Drivers/BSP/Components/lis2de12/lis2de12.c ****     }
 111:../Drivers/BSP/Components/lis2de12/lis2de12.c **** 
 112:../Drivers/BSP/Components/lis2de12/lis2de12.c ****     /* Set Output Data Rate to 10Hz */
 113:../Drivers/BSP/Components/lis2de12/lis2de12.c ****     lis2de12_data_rate_set( LIS2DE12_ODR_10Hz );
 118              		.loc 1 113 5
 119 003c 0220     		movs	r0, #2
 120 003e FFF7FEFF 		bl	lis2de12_data_rate_set
ARM GAS  /tmp/ccjphgoR.s 			page 5


 114:../Drivers/BSP/Components/lis2de12/lis2de12.c **** 
 115:../Drivers/BSP/Components/lis2de12/lis2de12.c ****     /* Enable Block Data Update */
 116:../Drivers/BSP/Components/lis2de12/lis2de12.c ****     lis2de12_block_data_update_set( PROPERTY_ENABLE );
 121              		.loc 1 116 5
 122 0042 0120     		movs	r0, #1
 123 0044 FFF7FEFF 		bl	lis2de12_block_data_update_set
 117:../Drivers/BSP/Components/lis2de12/lis2de12.c **** 
 118:../Drivers/BSP/Components/lis2de12/lis2de12.c ****     /* Enable bypass mode */
 119:../Drivers/BSP/Components/lis2de12/lis2de12.c ****     lis2de12_fifo_mode_set( LIS2DE12_BYPASS_MODE );
 124              		.loc 1 119 5
 125 0048 0020     		movs	r0, #0
 126 004a FFF7FEFF 		bl	lis2de12_fifo_mode_set
 120:../Drivers/BSP/Components/lis2de12/lis2de12.c **** 
 121:../Drivers/BSP/Components/lis2de12/lis2de12.c ****     /* Set full scale to 2g */
 122:../Drivers/BSP/Components/lis2de12/lis2de12.c ****     lis2de12_full_scale_set( LIS2DE12_2g );
 127              		.loc 1 122 5
 128 004e 0020     		movs	r0, #0
 129 0050 FFF7FEFF 		bl	lis2de12_full_scale_set
 123:../Drivers/BSP/Components/lis2de12/lis2de12.c **** 
 124:../Drivers/BSP/Components/lis2de12/lis2de12.c ****     /* Motion detection setup */
 125:../Drivers/BSP/Components/lis2de12/lis2de12.c ****     lis2de12_read_reg( LIS2DE12_CTRL_REG1, ( uint8_t* ) &ctrl_reg1, 1 );
 130              		.loc 1 125 5
 131 0054 07F10C03 		add	r3, r7, #12
 132 0058 0122     		movs	r2, #1
 133 005a 1946     		mov	r1, r3
 134 005c 2020     		movs	r0, #32
 135 005e FFF7FEFF 		bl	lis2de12_read_reg
 126:../Drivers/BSP/Components/lis2de12/lis2de12.c ****     ctrl_reg1.xen  = 1;
 136              		.loc 1 126 20
 137 0062 3B7B     		ldrb	r3, [r7, #12]
 138 0064 43F00103 		orr	r3, r3, #1
 139 0068 3B73     		strb	r3, [r7, #12]
 127:../Drivers/BSP/Components/lis2de12/lis2de12.c ****     ctrl_reg1.yen  = 1;
 140              		.loc 1 127 20
 141 006a 3B7B     		ldrb	r3, [r7, #12]
 142 006c 43F00203 		orr	r3, r3, #2
 143 0070 3B73     		strb	r3, [r7, #12]
 128:../Drivers/BSP/Components/lis2de12/lis2de12.c ****     ctrl_reg1.zen  = 1;
 144              		.loc 1 128 20
 145 0072 3B7B     		ldrb	r3, [r7, #12]
 146 0074 43F00403 		orr	r3, r3, #4
 147 0078 3B73     		strb	r3, [r7, #12]
 129:../Drivers/BSP/Components/lis2de12/lis2de12.c ****     ctrl_reg1.lpen = 1;
 148              		.loc 1 129 20
 149 007a 3B7B     		ldrb	r3, [r7, #12]
 150 007c 43F00803 		orr	r3, r3, #8
 151 0080 3B73     		strb	r3, [r7, #12]
 130:../Drivers/BSP/Components/lis2de12/lis2de12.c ****     lis2de12_write_reg( LIS2DE12_CTRL_REG1, ( uint8_t* ) &ctrl_reg1, 1 );
 152              		.loc 1 130 5
 153 0082 07F10C03 		add	r3, r7, #12
 154 0086 0122     		movs	r2, #1
 155 0088 1946     		mov	r1, r3
 156 008a 2020     		movs	r0, #32
 157 008c FFF7FEFF 		bl	lis2de12_write_reg
 131:../Drivers/BSP/Components/lis2de12/lis2de12.c **** 
 132:../Drivers/BSP/Components/lis2de12/lis2de12.c ****     lis2de12_high_pass_int_conf_set( LIS2DE12_ON_INT1_GEN );
 158              		.loc 1 132 5
ARM GAS  /tmp/ccjphgoR.s 			page 6


 159 0090 0120     		movs	r0, #1
 160 0092 FFF7FEFF 		bl	lis2de12_high_pass_int_conf_set
 133:../Drivers/BSP/Components/lis2de12/lis2de12.c **** 
 134:../Drivers/BSP/Components/lis2de12/lis2de12.c ****     ctrl_reg3.i1_zyxda    = 0;
 161              		.loc 1 134 27
 162 0096 3B7A     		ldrb	r3, [r7, #8]
 163 0098 6FF30413 		bfc	r3, #4, #1
 164 009c 3B72     		strb	r3, [r7, #8]
 135:../Drivers/BSP/Components/lis2de12/lis2de12.c ****     ctrl_reg3.i1_ia1      = 1;
 165              		.loc 1 135 27
 166 009e 3B7A     		ldrb	r3, [r7, #8]
 167 00a0 43F04003 		orr	r3, r3, #64
 168 00a4 3B72     		strb	r3, [r7, #8]
 136:../Drivers/BSP/Components/lis2de12/lis2de12.c ****     ctrl_reg3.i1_ia2      = 0;
 169              		.loc 1 136 27
 170 00a6 3B7A     		ldrb	r3, [r7, #8]
 171 00a8 6FF34513 		bfc	r3, #5, #1
 172 00ac 3B72     		strb	r3, [r7, #8]
 137:../Drivers/BSP/Components/lis2de12/lis2de12.c ****     ctrl_reg3.i1_click    = 0;
 173              		.loc 1 137 27
 174 00ae 3B7A     		ldrb	r3, [r7, #8]
 175 00b0 6FF3C713 		bfc	r3, #7, #1
 176 00b4 3B72     		strb	r3, [r7, #8]
 138:../Drivers/BSP/Components/lis2de12/lis2de12.c ****     ctrl_reg3.i1_overrun  = 0;
 177              		.loc 1 138 27
 178 00b6 3B7A     		ldrb	r3, [r7, #8]
 179 00b8 6FF34103 		bfc	r3, #1, #1
 180 00bc 3B72     		strb	r3, [r7, #8]
 139:../Drivers/BSP/Components/lis2de12/lis2de12.c ****     ctrl_reg3.i1_wtm      = 0;
 181              		.loc 1 139 27
 182 00be 3B7A     		ldrb	r3, [r7, #8]
 183 00c0 6FF38203 		bfc	r3, #2, #1
 184 00c4 3B72     		strb	r3, [r7, #8]
 140:../Drivers/BSP/Components/lis2de12/lis2de12.c ****     ctrl_reg3.not_used_01 = 0;
 185              		.loc 1 140 27
 186 00c6 3B7A     		ldrb	r3, [r7, #8]
 187 00c8 6FF30003 		bfc	r3, #0, #1
 188 00cc 3B72     		strb	r3, [r7, #8]
 141:../Drivers/BSP/Components/lis2de12/lis2de12.c ****     ctrl_reg3.not_used_02 = 0;
 189              		.loc 1 141 27
 190 00ce 3B7A     		ldrb	r3, [r7, #8]
 191 00d0 6FF3C303 		bfc	r3, #3, #1
 192 00d4 3B72     		strb	r3, [r7, #8]
 142:../Drivers/BSP/Components/lis2de12/lis2de12.c ****     lis2de12_pin_int1_config_set( &ctrl_reg3 );
 193              		.loc 1 142 5
 194 00d6 07F10803 		add	r3, r7, #8
 195 00da 1846     		mov	r0, r3
 196 00dc FFF7FEFF 		bl	lis2de12_pin_int1_config_set
 143:../Drivers/BSP/Components/lis2de12/lis2de12.c **** 
 144:../Drivers/BSP/Components/lis2de12/lis2de12.c ****     lis2de12_int1_pin_notification_mode_set( LIS2DE12_INT1_LATCHED );
 197              		.loc 1 144 5
 198 00e0 0120     		movs	r0, #1
 199 00e2 FFF7FEFF 		bl	lis2de12_int1_pin_notification_mode_set
 145:../Drivers/BSP/Components/lis2de12/lis2de12.c **** 
 146:../Drivers/BSP/Components/lis2de12/lis2de12.c ****     lis2de12_int1_cfg.xhie = 1;
 200              		.loc 1 146 28
 201 00e6 3B7C     		ldrb	r3, [r7, #16]
ARM GAS  /tmp/ccjphgoR.s 			page 7


 202 00e8 43F00203 		orr	r3, r3, #2
 203 00ec 3B74     		strb	r3, [r7, #16]
 147:../Drivers/BSP/Components/lis2de12/lis2de12.c ****     lis2de12_int1_cfg.yhie = 1;
 204              		.loc 1 147 28
 205 00ee 3B7C     		ldrb	r3, [r7, #16]
 206 00f0 43F00803 		orr	r3, r3, #8
 207 00f4 3B74     		strb	r3, [r7, #16]
 148:../Drivers/BSP/Components/lis2de12/lis2de12.c ****     lis2de12_int1_cfg.zhie = 1;
 208              		.loc 1 148 28
 209 00f6 3B7C     		ldrb	r3, [r7, #16]
 210 00f8 43F02003 		orr	r3, r3, #32
 211 00fc 3B74     		strb	r3, [r7, #16]
 149:../Drivers/BSP/Components/lis2de12/lis2de12.c ****     lis2de12_int1_gen_conf_set( &lis2de12_int1_cfg );
 212              		.loc 1 149 5
 213 00fe 07F11003 		add	r3, r7, #16
 214 0102 1846     		mov	r0, r3
 215 0104 FFF7FEFF 		bl	lis2de12_int1_gen_conf_set
 150:../Drivers/BSP/Components/lis2de12/lis2de12.c **** 
 151:../Drivers/BSP/Components/lis2de12/lis2de12.c ****     lis2de12_int1_gen_threshold_set( 4 );
 216              		.loc 1 151 5
 217 0108 0420     		movs	r0, #4
 218 010a FFF7FEFF 		bl	lis2de12_int1_gen_threshold_set
 152:../Drivers/BSP/Components/lis2de12/lis2de12.c **** 
 153:../Drivers/BSP/Components/lis2de12/lis2de12.c ****     lis2de12_int1_gen_duration_set( 3 );
 219              		.loc 1 153 5
 220 010e 0320     		movs	r0, #3
 221 0110 FFF7FEFF 		bl	lis2de12_int1_gen_duration_set
 154:../Drivers/BSP/Components/lis2de12/lis2de12.c **** 
 155:../Drivers/BSP/Components/lis2de12/lis2de12.c ****     if( irq_active & 0x01 )
 222              		.loc 1 155 20
 223 0114 FB79     		ldrb	r3, [r7, #7]	@ zero_extendqisi2
 224 0116 03F00103 		and	r3, r3, #1
 225              		.loc 1 155 7
 226 011a 002B     		cmp	r3, #0
 227 011c 01D0     		beq	.L7
 156:../Drivers/BSP/Components/lis2de12/lis2de12.c ****     {
 157:../Drivers/BSP/Components/lis2de12/lis2de12.c ****         accelerometer_irq1_init( );
 228              		.loc 1 157 9
 229 011e FFF7FEFF 		bl	accelerometer_irq1_init
 230              	.L7:
 158:../Drivers/BSP/Components/lis2de12/lis2de12.c ****     }
 159:../Drivers/BSP/Components/lis2de12/lis2de12.c **** 
 160:../Drivers/BSP/Components/lis2de12/lis2de12.c ****     return SUCCESS;
 231              		.loc 1 160 12
 232 0122 0023     		movs	r3, #0
 233              	.L8:
 161:../Drivers/BSP/Components/lis2de12/lis2de12.c **** }
 234              		.loc 1 161 1 discriminator 1
 235 0124 1846     		mov	r0, r3
 236 0126 1837     		adds	r7, r7, #24
 237              	.LCFI3:
 238              		.cfi_def_cfa_offset 8
 239 0128 BD46     		mov	sp, r7
 240              	.LCFI4:
 241              		.cfi_def_cfa_register 13
 242              		@ sp needed
 243 012a 80BD     		pop	{r7, pc}
ARM GAS  /tmp/ccjphgoR.s 			page 8


 244              	.L10:
 245              		.align	2
 246              	.L9:
 247 012c 00000000 		.word	who_am_i
 248              		.cfi_endproc
 249              	.LFE590:
 251              		.section	.text.is_accelerometer_detected_moved,"ax",%progbits
 252              		.align	1
 253              		.global	is_accelerometer_detected_moved
 254              		.syntax unified
 255              		.thumb
 256              		.thumb_func
 257              		.fpu fpv4-sp-d16
 259              	is_accelerometer_detected_moved:
 260              	.LFB591:
 162:../Drivers/BSP/Components/lis2de12/lis2de12.c **** 
 163:../Drivers/BSP/Components/lis2de12/lis2de12.c **** uint8_t is_accelerometer_detected_moved( void )
 164:../Drivers/BSP/Components/lis2de12/lis2de12.c **** {
 261              		.loc 1 164 1
 262              		.cfi_startproc
 263              		@ args = 0, pretend = 0, frame = 8
 264              		@ frame_needed = 1, uses_anonymous_args = 0
 265 0000 80B5     		push	{r7, lr}
 266              	.LCFI5:
 267              		.cfi_def_cfa_offset 8
 268              		.cfi_offset 7, -8
 269              		.cfi_offset 14, -4
 270 0002 82B0     		sub	sp, sp, #8
 271              	.LCFI6:
 272              		.cfi_def_cfa_offset 16
 273 0004 00AF     		add	r7, sp, #0
 274              	.LCFI7:
 275              		.cfi_def_cfa_register 7
 165:../Drivers/BSP/Components/lis2de12/lis2de12.c ****     lis2de12_int1_src_t int1_gen_source;
 166:../Drivers/BSP/Components/lis2de12/lis2de12.c **** 
 167:../Drivers/BSP/Components/lis2de12/lis2de12.c ****     lis2de12_int1_gen_source_get( &int1_gen_source );
 276              		.loc 1 167 5
 277 0006 3B1D     		adds	r3, r7, #4
 278 0008 1846     		mov	r0, r3
 279 000a FFF7FEFF 		bl	lis2de12_int1_gen_source_get
 168:../Drivers/BSP/Components/lis2de12/lis2de12.c **** 
 169:../Drivers/BSP/Components/lis2de12/lis2de12.c ****     if( ( int1_gen_source.xh == 1 ) || ( int1_gen_source.yh == 1 ) || ( int1_gen_source.zh == 1 ) )
 280              		.loc 1 169 30
 281 000e 3B79     		ldrb	r3, [r7, #4]	@ zero_extendqisi2
 282 0010 03F00203 		and	r3, r3, #2
 283 0014 DBB2     		uxtb	r3, r3
 284              		.loc 1 169 7
 285 0016 002B     		cmp	r3, #0
 286 0018 0BD1     		bne	.L12
 287              		.loc 1 169 61 discriminator 1
 288 001a 3B79     		ldrb	r3, [r7, #4]	@ zero_extendqisi2
 289 001c 03F00803 		and	r3, r3, #8
 290 0020 DBB2     		uxtb	r3, r3
 291              		.loc 1 169 37 discriminator 1
 292 0022 002B     		cmp	r3, #0
 293 0024 05D1     		bne	.L12
 294              		.loc 1 169 92 discriminator 2
ARM GAS  /tmp/ccjphgoR.s 			page 9


 295 0026 3B79     		ldrb	r3, [r7, #4]	@ zero_extendqisi2
 296 0028 03F02003 		and	r3, r3, #32
 297 002c DBB2     		uxtb	r3, r3
 298              		.loc 1 169 68 discriminator 2
 299 002e 002B     		cmp	r3, #0
 300 0030 04D0     		beq	.L13
 301              	.L12:
 170:../Drivers/BSP/Components/lis2de12/lis2de12.c ****     {
 171:../Drivers/BSP/Components/lis2de12/lis2de12.c ****         accelerometer_irq1_state = false;
 302              		.loc 1 171 34
 303 0032 054B     		ldr	r3, .L16
 304 0034 0022     		movs	r2, #0
 305 0036 1A70     		strb	r2, [r3]
 172:../Drivers/BSP/Components/lis2de12/lis2de12.c **** 
 173:../Drivers/BSP/Components/lis2de12/lis2de12.c ****         return 1;
 306              		.loc 1 173 16
 307 0038 0123     		movs	r3, #1
 308 003a 00E0     		b	.L15
 309              	.L13:
 174:../Drivers/BSP/Components/lis2de12/lis2de12.c ****     }
 175:../Drivers/BSP/Components/lis2de12/lis2de12.c ****     return 0;
 310              		.loc 1 175 12
 311 003c 0023     		movs	r3, #0
 312              	.L15:
 176:../Drivers/BSP/Components/lis2de12/lis2de12.c **** }
 313              		.loc 1 176 1 discriminator 1
 314 003e 1846     		mov	r0, r3
 315 0040 0837     		adds	r7, r7, #8
 316              	.LCFI8:
 317              		.cfi_def_cfa_offset 8
 318 0042 BD46     		mov	sp, r7
 319              	.LCFI9:
 320              		.cfi_def_cfa_register 13
 321              		@ sp needed
 322 0044 80BD     		pop	{r7, pc}
 323              	.L17:
 324 0046 00BF     		.align	2
 325              	.L16:
 326 0048 00000000 		.word	accelerometer_irq1_state
 327              		.cfi_endproc
 328              	.LFE591:
 330              		.section	.text.get_accelerometer_irq1_state,"ax",%progbits
 331              		.align	1
 332              		.global	get_accelerometer_irq1_state
 333              		.syntax unified
 334              		.thumb
 335              		.thumb_func
 336              		.fpu fpv4-sp-d16
 338              	get_accelerometer_irq1_state:
 339              	.LFB592:
 177:../Drivers/BSP/Components/lis2de12/lis2de12.c **** 
 178:../Drivers/BSP/Components/lis2de12/lis2de12.c **** /*!
 179:../Drivers/BSP/Components/lis2de12/lis2de12.c ****  * @brief Get the accelerometer IRQ state
 180:../Drivers/BSP/Components/lis2de12/lis2de12.c ****  */
 181:../Drivers/BSP/Components/lis2de12/lis2de12.c **** bool get_accelerometer_irq1_state( void ) { return accelerometer_irq1_state; }
 340              		.loc 1 181 43
 341              		.cfi_startproc
ARM GAS  /tmp/ccjphgoR.s 			page 10


 342              		@ args = 0, pretend = 0, frame = 0
 343              		@ frame_needed = 1, uses_anonymous_args = 0
 344              		@ link register save eliminated.
 345 0000 80B4     		push	{r7}
 346              	.LCFI10:
 347              		.cfi_def_cfa_offset 4
 348              		.cfi_offset 7, -4
 349 0002 00AF     		add	r7, sp, #0
 350              	.LCFI11:
 351              		.cfi_def_cfa_register 7
 352              		.loc 1 181 52
 353 0004 034B     		ldr	r3, .L20
 354 0006 1B78     		ldrb	r3, [r3]	@ zero_extendqisi2
 355              		.loc 1 181 78
 356 0008 1846     		mov	r0, r3
 357 000a BD46     		mov	sp, r7
 358              	.LCFI12:
 359              		.cfi_def_cfa_register 13
 360              		@ sp needed
 361 000c 5DF8047B 		ldr	r7, [sp], #4
 362              	.LCFI13:
 363              		.cfi_restore 7
 364              		.cfi_def_cfa_offset 0
 365 0010 7047     		bx	lr
 366              	.L21:
 367 0012 00BF     		.align	2
 368              	.L20:
 369 0014 00000000 		.word	accelerometer_irq1_state
 370              		.cfi_endproc
 371              	.LFE592:
 373              		.section	.text.is_accelerometer_double_tap_detected,"ax",%progbits
 374              		.align	1
 375              		.global	is_accelerometer_double_tap_detected
 376              		.syntax unified
 377              		.thumb
 378              		.thumb_func
 379              		.fpu fpv4-sp-d16
 381              	is_accelerometer_double_tap_detected:
 382              	.LFB593:
 182:../Drivers/BSP/Components/lis2de12/lis2de12.c **** 
 183:../Drivers/BSP/Components/lis2de12/lis2de12.c **** uint8_t is_accelerometer_double_tap_detected( void )
 184:../Drivers/BSP/Components/lis2de12/lis2de12.c **** {
 383              		.loc 1 184 1
 384              		.cfi_startproc
 385              		@ args = 0, pretend = 0, frame = 8
 386              		@ frame_needed = 1, uses_anonymous_args = 0
 387 0000 80B5     		push	{r7, lr}
 388              	.LCFI14:
 389              		.cfi_def_cfa_offset 8
 390              		.cfi_offset 7, -8
 391              		.cfi_offset 14, -4
 392 0002 82B0     		sub	sp, sp, #8
 393              	.LCFI15:
 394              		.cfi_def_cfa_offset 16
 395 0004 00AF     		add	r7, sp, #0
 396              	.LCFI16:
 397              		.cfi_def_cfa_register 7
ARM GAS  /tmp/ccjphgoR.s 			page 11


 185:../Drivers/BSP/Components/lis2de12/lis2de12.c ****     lis2de12_click_src_t click_src;
 186:../Drivers/BSP/Components/lis2de12/lis2de12.c **** 
 187:../Drivers/BSP/Components/lis2de12/lis2de12.c ****     lis2de12_tap_source_get( &click_src );
 398              		.loc 1 187 5
 399 0006 3B1D     		adds	r3, r7, #4
 400 0008 1846     		mov	r0, r3
 401 000a FFF7FEFF 		bl	lis2de12_tap_source_get
 188:../Drivers/BSP/Components/lis2de12/lis2de12.c **** 
 189:../Drivers/BSP/Components/lis2de12/lis2de12.c ****     if( ( click_src.dclick == 1 ) || ( click_src.ia == 1 ) || ( click_src.z == 1 ) )
 402              		.loc 1 189 28
 403 000e 3B79     		ldrb	r3, [r7, #4]	@ zero_extendqisi2
 404 0010 03F02003 		and	r3, r3, #32
 405 0014 DBB2     		uxtb	r3, r3
 406              		.loc 1 189 7
 407 0016 002B     		cmp	r3, #0
 408 0018 0BD1     		bne	.L23
 409              		.loc 1 189 53 discriminator 1
 410 001a 3B79     		ldrb	r3, [r7, #4]	@ zero_extendqisi2
 411 001c 03F04003 		and	r3, r3, #64
 412 0020 DBB2     		uxtb	r3, r3
 413              		.loc 1 189 35 discriminator 1
 414 0022 002B     		cmp	r3, #0
 415 0024 05D1     		bne	.L23
 416              		.loc 1 189 77 discriminator 2
 417 0026 3B79     		ldrb	r3, [r7, #4]	@ zero_extendqisi2
 418 0028 03F00403 		and	r3, r3, #4
 419 002c DBB2     		uxtb	r3, r3
 420              		.loc 1 189 60 discriminator 2
 421 002e 002B     		cmp	r3, #0
 422 0030 01D0     		beq	.L24
 423              	.L23:
 190:../Drivers/BSP/Components/lis2de12/lis2de12.c ****     {
 191:../Drivers/BSP/Components/lis2de12/lis2de12.c ****         return 1;
 424              		.loc 1 191 16
 425 0032 0123     		movs	r3, #1
 426 0034 00E0     		b	.L26
 427              	.L24:
 192:../Drivers/BSP/Components/lis2de12/lis2de12.c ****     }
 193:../Drivers/BSP/Components/lis2de12/lis2de12.c ****     return 0;
 428              		.loc 1 193 12
 429 0036 0023     		movs	r3, #0
 430              	.L26:
 194:../Drivers/BSP/Components/lis2de12/lis2de12.c **** }
 431              		.loc 1 194 1 discriminator 1
 432 0038 1846     		mov	r0, r3
 433 003a 0837     		adds	r7, r7, #8
 434              	.LCFI17:
 435              		.cfi_def_cfa_offset 8
 436 003c BD46     		mov	sp, r7
 437              	.LCFI18:
 438              		.cfi_def_cfa_register 13
 439              		@ sp needed
 440 003e 80BD     		pop	{r7, pc}
 441              		.cfi_endproc
 442              	.LFE593:
 444              		.section	.text.acc_read_raw_data,"ax",%progbits
 445              		.align	1
ARM GAS  /tmp/ccjphgoR.s 			page 12


 446              		.global	acc_read_raw_data
 447              		.syntax unified
 448              		.thumb
 449              		.thumb_func
 450              		.fpu fpv4-sp-d16
 452              	acc_read_raw_data:
 453              	.LFB594:
 195:../Drivers/BSP/Components/lis2de12/lis2de12.c **** 
 196:../Drivers/BSP/Components/lis2de12/lis2de12.c **** void acc_read_raw_data( void )
 197:../Drivers/BSP/Components/lis2de12/lis2de12.c **** {
 454              		.loc 1 197 1
 455              		.cfi_startproc
 456              		@ args = 0, pretend = 0, frame = 8
 457              		@ frame_needed = 1, uses_anonymous_args = 0
 458 0000 80B5     		push	{r7, lr}
 459              	.LCFI19:
 460              		.cfi_def_cfa_offset 8
 461              		.cfi_offset 7, -8
 462              		.cfi_offset 14, -4
 463 0002 82B0     		sub	sp, sp, #8
 464              	.LCFI20:
 465              		.cfi_def_cfa_offset 16
 466 0004 00AF     		add	r7, sp, #0
 467              	.LCFI21:
 468              		.cfi_def_cfa_register 7
 198:../Drivers/BSP/Components/lis2de12/lis2de12.c ****     lis2de12_reg_t reg;
 199:../Drivers/BSP/Components/lis2de12/lis2de12.c ****     bool           data_read = false;
 469              		.loc 1 199 20
 470 0006 0023     		movs	r3, #0
 471 0008 FB71     		strb	r3, [r7, #7]
 200:../Drivers/BSP/Components/lis2de12/lis2de12.c **** 
 201:../Drivers/BSP/Components/lis2de12/lis2de12.c ****     while( data_read == false )
 472              		.loc 1 201 10
 473 000a 3CE0     		b	.L28
 474              	.L29:
 202:../Drivers/BSP/Components/lis2de12/lis2de12.c ****     {
 203:../Drivers/BSP/Components/lis2de12/lis2de12.c ****         lis2de12_xl_data_ready_get( &reg.byte );
 475              		.loc 1 203 9
 476 000c 3B1D     		adds	r3, r7, #4
 477 000e 1846     		mov	r0, r3
 478 0010 FFF7FEFF 		bl	lis2de12_xl_data_ready_get
 204:../Drivers/BSP/Components/lis2de12/lis2de12.c ****         if( reg.byte )
 479              		.loc 1 204 16
 480 0014 3B79     		ldrb	r3, [r7, #4]	@ zero_extendqisi2
 481              		.loc 1 204 11
 482 0016 002B     		cmp	r3, #0
 483 0018 35D0     		beq	.L28
 205:../Drivers/BSP/Components/lis2de12/lis2de12.c ****         {
 206:../Drivers/BSP/Components/lis2de12/lis2de12.c ****             /* Read accelerometer data */
 207:../Drivers/BSP/Components/lis2de12/lis2de12.c ****             memset( data_raw_acceleration.u8bit, 0x00, 3 * sizeof( int16_t ) );
 484              		.loc 1 207 13
 485 001a 0622     		movs	r2, #6
 486 001c 0021     		movs	r1, #0
 487 001e 1F48     		ldr	r0, .L30
 488 0020 FFF7FEFF 		bl	memset
 208:../Drivers/BSP/Components/lis2de12/lis2de12.c ****             lis2de12_acceleration_raw_get( data_raw_acceleration.u8bit );
 489              		.loc 1 208 13
ARM GAS  /tmp/ccjphgoR.s 			page 13


 490 0024 1D48     		ldr	r0, .L30
 491 0026 FFF7FEFF 		bl	lis2de12_acceleration_raw_get
 209:../Drivers/BSP/Components/lis2de12/lis2de12.c **** 
 210:../Drivers/BSP/Components/lis2de12/lis2de12.c ****             lis2de12_acceleration_raw_get_x( data_raw_acceleration.u8bit );
 492              		.loc 1 210 13
 493 002a 1C48     		ldr	r0, .L30
 494 002c FFF7FEFF 		bl	lis2de12_acceleration_raw_get_x
 211:../Drivers/BSP/Components/lis2de12/lis2de12.c ****             lis2de12_acceleration_raw_get_y( data_raw_acceleration.u8bit + 2 );
 495              		.loc 1 211 13
 496 0030 1B4B     		ldr	r3, .L30+4
 497 0032 1846     		mov	r0, r3
 498 0034 FFF7FEFF 		bl	lis2de12_acceleration_raw_get_y
 212:../Drivers/BSP/Components/lis2de12/lis2de12.c ****             lis2de12_acceleration_raw_get_z( data_raw_acceleration.u8bit + 4 );
 499              		.loc 1 212 13
 500 0038 1A4B     		ldr	r3, .L30+8
 501 003a 1846     		mov	r0, r3
 502 003c FFF7FEFF 		bl	lis2de12_acceleration_raw_get_z
 213:../Drivers/BSP/Components/lis2de12/lis2de12.c **** 
 214:../Drivers/BSP/Components/lis2de12/lis2de12.c ****             acceleration_mg[0] = lis2de12_from_fs2_to_mg( data_raw_acceleration.i16bit[0] );
 503              		.loc 1 214 34
 504 0040 164B     		ldr	r3, .L30
 505 0042 B3F90030 		ldrsh	r3, [r3]
 506 0046 1846     		mov	r0, r3
 507 0048 FFF7FEFF 		bl	lis2de12_from_fs2_to_mg
 508 004c F0EE407A 		vmov.f32	s15, s0
 509              		.loc 1 214 32
 510 0050 154B     		ldr	r3, .L30+12
 511 0052 C3ED007A 		vstr.32	s15, [r3]
 215:../Drivers/BSP/Components/lis2de12/lis2de12.c ****             acceleration_mg[1] = lis2de12_from_fs2_to_mg( data_raw_acceleration.i16bit[1] );
 512              		.loc 1 215 34
 513 0056 114B     		ldr	r3, .L30
 514 0058 B3F90230 		ldrsh	r3, [r3, #2]
 515 005c 1846     		mov	r0, r3
 516 005e FFF7FEFF 		bl	lis2de12_from_fs2_to_mg
 517 0062 F0EE407A 		vmov.f32	s15, s0
 518              		.loc 1 215 32
 519 0066 104B     		ldr	r3, .L30+12
 520 0068 C3ED017A 		vstr.32	s15, [r3, #4]
 216:../Drivers/BSP/Components/lis2de12/lis2de12.c ****             acceleration_mg[2] = lis2de12_from_fs2_to_mg( data_raw_acceleration.i16bit[2] );
 521              		.loc 1 216 34
 522 006c 0B4B     		ldr	r3, .L30
 523 006e B3F90430 		ldrsh	r3, [r3, #4]
 524 0072 1846     		mov	r0, r3
 525 0074 FFF7FEFF 		bl	lis2de12_from_fs2_to_mg
 526 0078 F0EE407A 		vmov.f32	s15, s0
 527              		.loc 1 216 32
 528 007c 0A4B     		ldr	r3, .L30+12
 529 007e C3ED027A 		vstr.32	s15, [r3, #8]
 217:../Drivers/BSP/Components/lis2de12/lis2de12.c **** 
 218:../Drivers/BSP/Components/lis2de12/lis2de12.c ****             data_read = true;
 530              		.loc 1 218 23
 531 0082 0123     		movs	r3, #1
 532 0084 FB71     		strb	r3, [r7, #7]
 533              	.L28:
 201:../Drivers/BSP/Components/lis2de12/lis2de12.c ****     {
 534              		.loc 1 201 22
 535 0086 FB79     		ldrb	r3, [r7, #7]
ARM GAS  /tmp/ccjphgoR.s 			page 14


 536 0088 83F00103 		eor	r3, r3, #1
 537 008c DBB2     		uxtb	r3, r3
 201:../Drivers/BSP/Components/lis2de12/lis2de12.c ****     {
 538              		.loc 1 201 10
 539 008e 002B     		cmp	r3, #0
 540 0090 BCD1     		bne	.L29
 219:../Drivers/BSP/Components/lis2de12/lis2de12.c ****         }
 220:../Drivers/BSP/Components/lis2de12/lis2de12.c ****     }
 221:../Drivers/BSP/Components/lis2de12/lis2de12.c **** }
 541              		.loc 1 221 1
 542 0092 00BF     		nop
 543 0094 00BF     		nop
 544 0096 0837     		adds	r7, r7, #8
 545              	.LCFI22:
 546              		.cfi_def_cfa_offset 8
 547 0098 BD46     		mov	sp, r7
 548              	.LCFI23:
 549              		.cfi_def_cfa_register 13
 550              		@ sp needed
 551 009a 80BD     		pop	{r7, pc}
 552              	.L31:
 553              		.align	2
 554              	.L30:
 555 009c 00000000 		.word	data_raw_acceleration
 556 00a0 02000000 		.word	data_raw_acceleration+2
 557 00a4 04000000 		.word	data_raw_acceleration+4
 558 00a8 00000000 		.word	acceleration_mg
 559              		.cfi_endproc
 560              	.LFE594:
 562              		.section	.text.acc_get_raw_x,"ax",%progbits
 563              		.align	1
 564              		.global	acc_get_raw_x
 565              		.syntax unified
 566              		.thumb
 567              		.thumb_func
 568              		.fpu fpv4-sp-d16
 570              	acc_get_raw_x:
 571              	.LFB595:
 222:../Drivers/BSP/Components/lis2de12/lis2de12.c **** 
 223:../Drivers/BSP/Components/lis2de12/lis2de12.c **** int16_t acc_get_raw_x( void ) { return acceleration_mg[0]; }
 572              		.loc 1 223 31
 573              		.cfi_startproc
 574              		@ args = 0, pretend = 0, frame = 0
 575              		@ frame_needed = 1, uses_anonymous_args = 0
 576              		@ link register save eliminated.
 577 0000 80B4     		push	{r7}
 578              	.LCFI24:
 579              		.cfi_def_cfa_offset 4
 580              		.cfi_offset 7, -4
 581 0002 00AF     		add	r7, sp, #0
 582              	.LCFI25:
 583              		.cfi_def_cfa_register 7
 584              		.loc 1 223 55
 585 0004 064B     		ldr	r3, .L34
 586 0006 D3ED007A 		vldr.32	s15, [r3]
 587 000a FDEEE77A 		vcvt.s32.f32	s15, s15
 588 000e 17EE903A 		vmov	r3, s15	@ int
ARM GAS  /tmp/ccjphgoR.s 			page 15


 589 0012 1BB2     		sxth	r3, r3
 590              		.loc 1 223 60
 591 0014 1846     		mov	r0, r3
 592 0016 BD46     		mov	sp, r7
 593              	.LCFI26:
 594              		.cfi_def_cfa_register 13
 595              		@ sp needed
 596 0018 5DF8047B 		ldr	r7, [sp], #4
 597              	.LCFI27:
 598              		.cfi_restore 7
 599              		.cfi_def_cfa_offset 0
 600 001c 7047     		bx	lr
 601              	.L35:
 602 001e 00BF     		.align	2
 603              	.L34:
 604 0020 00000000 		.word	acceleration_mg
 605              		.cfi_endproc
 606              	.LFE595:
 608              		.section	.text.acc_get_raw_y,"ax",%progbits
 609              		.align	1
 610              		.global	acc_get_raw_y
 611              		.syntax unified
 612              		.thumb
 613              		.thumb_func
 614              		.fpu fpv4-sp-d16
 616              	acc_get_raw_y:
 617              	.LFB596:
 224:../Drivers/BSP/Components/lis2de12/lis2de12.c **** 
 225:../Drivers/BSP/Components/lis2de12/lis2de12.c **** int16_t acc_get_raw_y( void ) { return acceleration_mg[1]; }
 618              		.loc 1 225 31
 619              		.cfi_startproc
 620              		@ args = 0, pretend = 0, frame = 0
 621              		@ frame_needed = 1, uses_anonymous_args = 0
 622              		@ link register save eliminated.
 623 0000 80B4     		push	{r7}
 624              	.LCFI28:
 625              		.cfi_def_cfa_offset 4
 626              		.cfi_offset 7, -4
 627 0002 00AF     		add	r7, sp, #0
 628              	.LCFI29:
 629              		.cfi_def_cfa_register 7
 630              		.loc 1 225 55
 631 0004 064B     		ldr	r3, .L38
 632 0006 D3ED017A 		vldr.32	s15, [r3, #4]
 633 000a FDEEE77A 		vcvt.s32.f32	s15, s15
 634 000e 17EE903A 		vmov	r3, s15	@ int
 635 0012 1BB2     		sxth	r3, r3
 636              		.loc 1 225 60
 637 0014 1846     		mov	r0, r3
 638 0016 BD46     		mov	sp, r7
 639              	.LCFI30:
 640              		.cfi_def_cfa_register 13
 641              		@ sp needed
 642 0018 5DF8047B 		ldr	r7, [sp], #4
 643              	.LCFI31:
 644              		.cfi_restore 7
 645              		.cfi_def_cfa_offset 0
ARM GAS  /tmp/ccjphgoR.s 			page 16


 646 001c 7047     		bx	lr
 647              	.L39:
 648 001e 00BF     		.align	2
 649              	.L38:
 650 0020 00000000 		.word	acceleration_mg
 651              		.cfi_endproc
 652              	.LFE596:
 654              		.section	.text.acc_get_raw_z,"ax",%progbits
 655              		.align	1
 656              		.global	acc_get_raw_z
 657              		.syntax unified
 658              		.thumb
 659              		.thumb_func
 660              		.fpu fpv4-sp-d16
 662              	acc_get_raw_z:
 663              	.LFB597:
 226:../Drivers/BSP/Components/lis2de12/lis2de12.c **** 
 227:../Drivers/BSP/Components/lis2de12/lis2de12.c **** int16_t acc_get_raw_z( void ) { return acceleration_mg[2]; }
 664              		.loc 1 227 31
 665              		.cfi_startproc
 666              		@ args = 0, pretend = 0, frame = 0
 667              		@ frame_needed = 1, uses_anonymous_args = 0
 668              		@ link register save eliminated.
 669 0000 80B4     		push	{r7}
 670              	.LCFI32:
 671              		.cfi_def_cfa_offset 4
 672              		.cfi_offset 7, -4
 673 0002 00AF     		add	r7, sp, #0
 674              	.LCFI33:
 675              		.cfi_def_cfa_register 7
 676              		.loc 1 227 55
 677 0004 064B     		ldr	r3, .L42
 678 0006 D3ED027A 		vldr.32	s15, [r3, #8]
 679 000a FDEEE77A 		vcvt.s32.f32	s15, s15
 680 000e 17EE903A 		vmov	r3, s15	@ int
 681 0012 1BB2     		sxth	r3, r3
 682              		.loc 1 227 60
 683 0014 1846     		mov	r0, r3
 684 0016 BD46     		mov	sp, r7
 685              	.LCFI34:
 686              		.cfi_def_cfa_register 13
 687              		@ sp needed
 688 0018 5DF8047B 		ldr	r7, [sp], #4
 689              	.LCFI35:
 690              		.cfi_restore 7
 691              		.cfi_def_cfa_offset 0
 692 001c 7047     		bx	lr
 693              	.L43:
 694 001e 00BF     		.align	2
 695              	.L42:
 696 0020 00000000 		.word	acceleration_mg
 697              		.cfi_endproc
 698              	.LFE597:
 700              		.section	.text.acc_get_temperature,"ax",%progbits
 701              		.align	1
 702              		.global	acc_get_temperature
 703              		.syntax unified
ARM GAS  /tmp/ccjphgoR.s 			page 17


 704              		.thumb
 705              		.thumb_func
 706              		.fpu fpv4-sp-d16
 708              	acc_get_temperature:
 709              	.LFB598:
 228:../Drivers/BSP/Components/lis2de12/lis2de12.c **** 
 229:../Drivers/BSP/Components/lis2de12/lis2de12.c **** int16_t acc_get_temperature( void )
 230:../Drivers/BSP/Components/lis2de12/lis2de12.c **** {
 710              		.loc 1 230 1
 711              		.cfi_startproc
 712              		@ args = 0, pretend = 0, frame = 8
 713              		@ frame_needed = 1, uses_anonymous_args = 0
 714 0000 80B5     		push	{r7, lr}
 715              	.LCFI36:
 716              		.cfi_def_cfa_offset 8
 717              		.cfi_offset 7, -8
 718              		.cfi_offset 14, -4
 719 0002 82B0     		sub	sp, sp, #8
 720              	.LCFI37:
 721              		.cfi_def_cfa_offset 16
 722 0004 00AF     		add	r7, sp, #0
 723              	.LCFI38:
 724              		.cfi_def_cfa_register 7
 231:../Drivers/BSP/Components/lis2de12/lis2de12.c ****     uint16_t temperature;
 232:../Drivers/BSP/Components/lis2de12/lis2de12.c ****     uint8_t  is_ready = 0;
 725              		.loc 1 232 14
 726 0006 0023     		movs	r3, #0
 727 0008 7B71     		strb	r3, [r7, #5]
 233:../Drivers/BSP/Components/lis2de12/lis2de12.c **** 
 234:../Drivers/BSP/Components/lis2de12/lis2de12.c ****     lis2de12_temp_data_ready_get( &is_ready );
 728              		.loc 1 234 5
 729 000a 7B1D     		adds	r3, r7, #5
 730 000c 1846     		mov	r0, r3
 731 000e FFF7FEFF 		bl	lis2de12_temp_data_ready_get
 235:../Drivers/BSP/Components/lis2de12/lis2de12.c **** 
 236:../Drivers/BSP/Components/lis2de12/lis2de12.c ****     lis2de12_temperature_raw_get( &temperature );
 732              		.loc 1 236 5
 733 0012 BB1D     		adds	r3, r7, #6
 734 0014 1846     		mov	r0, r3
 735 0016 FFF7FEFF 		bl	lis2de12_temperature_raw_get
 237:../Drivers/BSP/Components/lis2de12/lis2de12.c **** 
 238:../Drivers/BSP/Components/lis2de12/lis2de12.c ****     /* Build the raw tmp */
 239:../Drivers/BSP/Components/lis2de12/lis2de12.c ****     return ( int16_t ) temperature;
 736              		.loc 1 239 12
 737 001a FB88     		ldrh	r3, [r7, #6]
 738 001c 1BB2     		sxth	r3, r3
 240:../Drivers/BSP/Components/lis2de12/lis2de12.c **** }
 739              		.loc 1 240 1
 740 001e 1846     		mov	r0, r3
 741 0020 0837     		adds	r7, r7, #8
 742              	.LCFI39:
 743              		.cfi_def_cfa_offset 8
 744 0022 BD46     		mov	sp, r7
 745              	.LCFI40:
 746              		.cfi_def_cfa_register 13
 747              		@ sp needed
 748 0024 80BD     		pop	{r7, pc}
ARM GAS  /tmp/ccjphgoR.s 			page 18


 749              		.cfi_endproc
 750              	.LFE598:
 752              		.section	.text.lis2de12_read_reg,"ax",%progbits
 753              		.align	1
 754              		.global	lis2de12_read_reg
 755              		.syntax unified
 756              		.thumb
 757              		.thumb_func
 758              		.fpu fpv4-sp-d16
 760              	lis2de12_read_reg:
 761              	.LFB599:
 241:../Drivers/BSP/Components/lis2de12/lis2de12.c **** 
 242:../Drivers/BSP/Components/lis2de12/lis2de12.c **** /**
 243:../Drivers/BSP/Components/lis2de12/lis2de12.c ****  * @brief  Read generic device register
 244:../Drivers/BSP/Components/lis2de12/lis2de12.c ****  *
 245:../Drivers/BSP/Components/lis2de12/lis2de12.c ****  * @param  reg   register to read
 246:../Drivers/BSP/Components/lis2de12/lis2de12.c ****  * @param  data  pointer to buffer that store the data read(ptr)
 247:../Drivers/BSP/Components/lis2de12/lis2de12.c ****  * @param  len   number of consecutive register to read
 248:../Drivers/BSP/Components/lis2de12/lis2de12.c ****  * @retval          interface status (MANDATORY: return 0 -> no Error)
 249:../Drivers/BSP/Components/lis2de12/lis2de12.c ****  *
 250:../Drivers/BSP/Components/lis2de12/lis2de12.c ****  */
 251:../Drivers/BSP/Components/lis2de12/lis2de12.c **** int32_t lis2de12_read_reg( uint8_t reg, uint8_t* data, uint16_t len )
 252:../Drivers/BSP/Components/lis2de12/lis2de12.c **** {
 762              		.loc 1 252 1
 763              		.cfi_startproc
 764              		@ args = 0, pretend = 0, frame = 16
 765              		@ frame_needed = 1, uses_anonymous_args = 0
 766 0000 80B5     		push	{r7, lr}
 767              	.LCFI41:
 768              		.cfi_def_cfa_offset 8
 769              		.cfi_offset 7, -8
 770              		.cfi_offset 14, -4
 771 0002 86B0     		sub	sp, sp, #24
 772              	.LCFI42:
 773              		.cfi_def_cfa_offset 32
 774 0004 02AF     		add	r7, sp, #8
 775              	.LCFI43:
 776              		.cfi_def_cfa 7, 24
 777 0006 0346     		mov	r3, r0
 778 0008 3960     		str	r1, [r7]
 779 000a FB71     		strb	r3, [r7, #7]
 780 000c 1346     		mov	r3, r2	@ movhi
 781 000e BB80     		strh	r3, [r7, #4]	@ movhi
 253:../Drivers/BSP/Components/lis2de12/lis2de12.c ****     int32_t ret;
 254:../Drivers/BSP/Components/lis2de12/lis2de12.c ****     ret = hal_i2c_read_buffer( 1, LIS2DE12_I2C_ADD_H, reg, data, len );
 782              		.loc 1 254 11
 783 0010 FB79     		ldrb	r3, [r7, #7]	@ zero_extendqisi2
 784 0012 9AB2     		uxth	r2, r3
 785 0014 BB88     		ldrh	r3, [r7, #4]
 786 0016 0093     		str	r3, [sp]
 787 0018 3B68     		ldr	r3, [r7]
 788 001a 3321     		movs	r1, #51
 789 001c 0120     		movs	r0, #1
 790 001e FFF7FEFF 		bl	hal_i2c_read_buffer
 791 0022 0346     		mov	r3, r0
 792              		.loc 1 254 9
 793 0024 FB60     		str	r3, [r7, #12]
ARM GAS  /tmp/ccjphgoR.s 			page 19


 255:../Drivers/BSP/Components/lis2de12/lis2de12.c ****     return !ret;
 794              		.loc 1 255 12
 795 0026 FB68     		ldr	r3, [r7, #12]
 796 0028 002B     		cmp	r3, #0
 797 002a 0CBF     		ite	eq
 798 002c 0123     		moveq	r3, #1
 799 002e 0023     		movne	r3, #0
 800 0030 DBB2     		uxtb	r3, r3
 256:../Drivers/BSP/Components/lis2de12/lis2de12.c **** }
 801              		.loc 1 256 1
 802 0032 1846     		mov	r0, r3
 803 0034 1037     		adds	r7, r7, #16
 804              	.LCFI44:
 805              		.cfi_def_cfa_offset 8
 806 0036 BD46     		mov	sp, r7
 807              	.LCFI45:
 808              		.cfi_def_cfa_register 13
 809              		@ sp needed
 810 0038 80BD     		pop	{r7, pc}
 811              		.cfi_endproc
 812              	.LFE599:
 814              		.section	.text.lis2de12_write_reg,"ax",%progbits
 815              		.align	1
 816              		.global	lis2de12_write_reg
 817              		.syntax unified
 818              		.thumb
 819              		.thumb_func
 820              		.fpu fpv4-sp-d16
 822              	lis2de12_write_reg:
 823              	.LFB600:
 257:../Drivers/BSP/Components/lis2de12/lis2de12.c **** 
 258:../Drivers/BSP/Components/lis2de12/lis2de12.c **** /**
 259:../Drivers/BSP/Components/lis2de12/lis2de12.c ****  * @brief  Write generic device register
 260:../Drivers/BSP/Components/lis2de12/lis2de12.c ****  *
 261:../Drivers/BSP/Components/lis2de12/lis2de12.c ****  * @param  reg   register to write
 262:../Drivers/BSP/Components/lis2de12/lis2de12.c ****  * @param  data  pointer to data to write in register reg(ptr)
 263:../Drivers/BSP/Components/lis2de12/lis2de12.c ****  * @param  len   number of consecutive register to write
 264:../Drivers/BSP/Components/lis2de12/lis2de12.c ****  * @retval          interface status (MANDATORY: return 0 -> no Error)
 265:../Drivers/BSP/Components/lis2de12/lis2de12.c ****  *
 266:../Drivers/BSP/Components/lis2de12/lis2de12.c ****  */
 267:../Drivers/BSP/Components/lis2de12/lis2de12.c **** int32_t lis2de12_write_reg( uint8_t reg, uint8_t* data, uint16_t len )
 268:../Drivers/BSP/Components/lis2de12/lis2de12.c **** {
 824              		.loc 1 268 1
 825              		.cfi_startproc
 826              		@ args = 0, pretend = 0, frame = 16
 827              		@ frame_needed = 1, uses_anonymous_args = 0
 828 0000 80B5     		push	{r7, lr}
 829              	.LCFI46:
 830              		.cfi_def_cfa_offset 8
 831              		.cfi_offset 7, -8
 832              		.cfi_offset 14, -4
 833 0002 86B0     		sub	sp, sp, #24
 834              	.LCFI47:
 835              		.cfi_def_cfa_offset 32
 836 0004 02AF     		add	r7, sp, #8
 837              	.LCFI48:
 838              		.cfi_def_cfa 7, 24
ARM GAS  /tmp/ccjphgoR.s 			page 20


 839 0006 0346     		mov	r3, r0
 840 0008 3960     		str	r1, [r7]
 841 000a FB71     		strb	r3, [r7, #7]
 842 000c 1346     		mov	r3, r2	@ movhi
 843 000e BB80     		strh	r3, [r7, #4]	@ movhi
 269:../Drivers/BSP/Components/lis2de12/lis2de12.c ****     int32_t ret;
 270:../Drivers/BSP/Components/lis2de12/lis2de12.c ****     ret = hal_i2c_write_buffer( 1, LIS2DE12_I2C_ADD_H, reg, data, len );
 844              		.loc 1 270 11
 845 0010 FB79     		ldrb	r3, [r7, #7]	@ zero_extendqisi2
 846 0012 9AB2     		uxth	r2, r3
 847 0014 BB88     		ldrh	r3, [r7, #4]
 848 0016 0093     		str	r3, [sp]
 849 0018 3B68     		ldr	r3, [r7]
 850 001a 3321     		movs	r1, #51
 851 001c 0120     		movs	r0, #1
 852 001e FFF7FEFF 		bl	hal_i2c_write_buffer
 853 0022 0346     		mov	r3, r0
 854              		.loc 1 270 9
 855 0024 FB60     		str	r3, [r7, #12]
 271:../Drivers/BSP/Components/lis2de12/lis2de12.c ****     return !ret;
 856              		.loc 1 271 12
 857 0026 FB68     		ldr	r3, [r7, #12]
 858 0028 002B     		cmp	r3, #0
 859 002a 0CBF     		ite	eq
 860 002c 0123     		moveq	r3, #1
 861 002e 0023     		movne	r3, #0
 862 0030 DBB2     		uxtb	r3, r3
 272:../Drivers/BSP/Components/lis2de12/lis2de12.c **** }
 863              		.loc 1 272 1
 864 0032 1846     		mov	r0, r3
 865 0034 1037     		adds	r7, r7, #16
 866              	.LCFI49:
 867              		.cfi_def_cfa_offset 8
 868 0036 BD46     		mov	sp, r7
 869              	.LCFI50:
 870              		.cfi_def_cfa_register 13
 871              		@ sp needed
 872 0038 80BD     		pop	{r7, pc}
 873              		.cfi_endproc
 874              	.LFE600:
 876              		.section	.text.lis2de12_from_fs2_to_mg,"ax",%progbits
 877              		.align	1
 878              		.global	lis2de12_from_fs2_to_mg
 879              		.syntax unified
 880              		.thumb
 881              		.thumb_func
 882              		.fpu fpv4-sp-d16
 884              	lis2de12_from_fs2_to_mg:
 885              	.LFB601:
 273:../Drivers/BSP/Components/lis2de12/lis2de12.c **** 
 274:../Drivers/BSP/Components/lis2de12/lis2de12.c **** /**
 275:../Drivers/BSP/Components/lis2de12/lis2de12.c ****  * @}
 276:../Drivers/BSP/Components/lis2de12/lis2de12.c ****  *
 277:../Drivers/BSP/Components/lis2de12/lis2de12.c ****  */
 278:../Drivers/BSP/Components/lis2de12/lis2de12.c **** 
 279:../Drivers/BSP/Components/lis2de12/lis2de12.c **** /**
 280:../Drivers/BSP/Components/lis2de12/lis2de12.c ****  * @defgroup    LIS2DE12_Sensitivity
ARM GAS  /tmp/ccjphgoR.s 			page 21


 281:../Drivers/BSP/Components/lis2de12/lis2de12.c ****  * @brief       These functions convert raw-data into engineering units.
 282:../Drivers/BSP/Components/lis2de12/lis2de12.c ****  * @{
 283:../Drivers/BSP/Components/lis2de12/lis2de12.c ****  *
 284:../Drivers/BSP/Components/lis2de12/lis2de12.c ****  */
 285:../Drivers/BSP/Components/lis2de12/lis2de12.c **** 
 286:../Drivers/BSP/Components/lis2de12/lis2de12.c **** float_t lis2de12_from_fs2_to_mg( int16_t lsb ) { return ( ( float_t ) lsb / 256.0f ) * 16.0f; }
 886              		.loc 1 286 48
 887              		.cfi_startproc
 888              		@ args = 0, pretend = 0, frame = 8
 889              		@ frame_needed = 1, uses_anonymous_args = 0
 890              		@ link register save eliminated.
 891 0000 80B4     		push	{r7}
 892              	.LCFI51:
 893              		.cfi_def_cfa_offset 4
 894              		.cfi_offset 7, -4
 895 0002 83B0     		sub	sp, sp, #12
 896              	.LCFI52:
 897              		.cfi_def_cfa_offset 16
 898 0004 00AF     		add	r7, sp, #0
 899              	.LCFI53:
 900              		.cfi_def_cfa_register 7
 901 0006 0346     		mov	r3, r0
 902 0008 FB80     		strh	r3, [r7, #6]	@ movhi
 903              		.loc 1 286 59
 904 000a B7F90630 		ldrsh	r3, [r7, #6]
 905 000e 07EE903A 		vmov	s15, r3	@ int
 906 0012 B8EEE77A 		vcvt.f32.s32	s14, s15
 907              		.loc 1 286 75
 908 0016 DFED076A 		vldr.32	s13, .L52
 909 001a C7EE267A 		vdiv.f32	s15, s14, s13
 910              		.loc 1 286 86
 911 001e B3EE007A 		vmov.f32	s14, #1.6e+1
 912 0022 67EE877A 		vmul.f32	s15, s15, s14
 913              		.loc 1 286 95
 914 0026 B0EE670A 		vmov.f32	s0, s15
 915 002a 0C37     		adds	r7, r7, #12
 916              	.LCFI54:
 917              		.cfi_def_cfa_offset 4
 918 002c BD46     		mov	sp, r7
 919              	.LCFI55:
 920              		.cfi_def_cfa_register 13
 921              		@ sp needed
 922 002e 5DF8047B 		ldr	r7, [sp], #4
 923              	.LCFI56:
 924              		.cfi_restore 7
 925              		.cfi_def_cfa_offset 0
 926 0032 7047     		bx	lr
 927              	.L53:
 928              		.align	2
 929              	.L52:
 930 0034 00008043 		.word	1132462080
 931              		.cfi_endproc
 932              	.LFE601:
 934              		.section	.text.lis2de12_from_fs4_to_mg,"ax",%progbits
 935              		.align	1
 936              		.global	lis2de12_from_fs4_to_mg
 937              		.syntax unified
ARM GAS  /tmp/ccjphgoR.s 			page 22


 938              		.thumb
 939              		.thumb_func
 940              		.fpu fpv4-sp-d16
 942              	lis2de12_from_fs4_to_mg:
 943              	.LFB602:
 287:../Drivers/BSP/Components/lis2de12/lis2de12.c **** 
 288:../Drivers/BSP/Components/lis2de12/lis2de12.c **** float_t lis2de12_from_fs4_to_mg( int16_t lsb ) { return ( ( float_t ) lsb / 256.0f ) * 32.0f; }
 944              		.loc 1 288 48
 945              		.cfi_startproc
 946              		@ args = 0, pretend = 0, frame = 8
 947              		@ frame_needed = 1, uses_anonymous_args = 0
 948              		@ link register save eliminated.
 949 0000 80B4     		push	{r7}
 950              	.LCFI57:
 951              		.cfi_def_cfa_offset 4
 952              		.cfi_offset 7, -4
 953 0002 83B0     		sub	sp, sp, #12
 954              	.LCFI58:
 955              		.cfi_def_cfa_offset 16
 956 0004 00AF     		add	r7, sp, #0
 957              	.LCFI59:
 958              		.cfi_def_cfa_register 7
 959 0006 0346     		mov	r3, r0
 960 0008 FB80     		strh	r3, [r7, #6]	@ movhi
 961              		.loc 1 288 59
 962 000a B7F90630 		ldrsh	r3, [r7, #6]
 963 000e 07EE903A 		vmov	s15, r3	@ int
 964 0012 B8EEE77A 		vcvt.f32.s32	s14, s15
 965              		.loc 1 288 75
 966 0016 DFED076A 		vldr.32	s13, .L56
 967 001a C7EE267A 		vdiv.f32	s15, s14, s13
 968              		.loc 1 288 86
 969 001e 9FED067A 		vldr.32	s14, .L56+4
 970 0022 67EE877A 		vmul.f32	s15, s15, s14
 971              		.loc 1 288 95
 972 0026 B0EE670A 		vmov.f32	s0, s15
 973 002a 0C37     		adds	r7, r7, #12
 974              	.LCFI60:
 975              		.cfi_def_cfa_offset 4
 976 002c BD46     		mov	sp, r7
 977              	.LCFI61:
 978              		.cfi_def_cfa_register 13
 979              		@ sp needed
 980 002e 5DF8047B 		ldr	r7, [sp], #4
 981              	.LCFI62:
 982              		.cfi_restore 7
 983              		.cfi_def_cfa_offset 0
 984 0032 7047     		bx	lr
 985              	.L57:
 986              		.align	2
 987              	.L56:
 988 0034 00008043 		.word	1132462080
 989 0038 00000042 		.word	1107296256
 990              		.cfi_endproc
 991              	.LFE602:
 993              		.section	.text.lis2de12_from_fs8_to_mg,"ax",%progbits
 994              		.align	1
ARM GAS  /tmp/ccjphgoR.s 			page 23


 995              		.global	lis2de12_from_fs8_to_mg
 996              		.syntax unified
 997              		.thumb
 998              		.thumb_func
 999              		.fpu fpv4-sp-d16
 1001              	lis2de12_from_fs8_to_mg:
 1002              	.LFB603:
 289:../Drivers/BSP/Components/lis2de12/lis2de12.c **** 
 290:../Drivers/BSP/Components/lis2de12/lis2de12.c **** float_t lis2de12_from_fs8_to_mg( int16_t lsb ) { return ( ( float_t ) lsb / 256.0f ) * 64.0f; }
 1003              		.loc 1 290 48
 1004              		.cfi_startproc
 1005              		@ args = 0, pretend = 0, frame = 8
 1006              		@ frame_needed = 1, uses_anonymous_args = 0
 1007              		@ link register save eliminated.
 1008 0000 80B4     		push	{r7}
 1009              	.LCFI63:
 1010              		.cfi_def_cfa_offset 4
 1011              		.cfi_offset 7, -4
 1012 0002 83B0     		sub	sp, sp, #12
 1013              	.LCFI64:
 1014              		.cfi_def_cfa_offset 16
 1015 0004 00AF     		add	r7, sp, #0
 1016              	.LCFI65:
 1017              		.cfi_def_cfa_register 7
 1018 0006 0346     		mov	r3, r0
 1019 0008 FB80     		strh	r3, [r7, #6]	@ movhi
 1020              		.loc 1 290 59
 1021 000a B7F90630 		ldrsh	r3, [r7, #6]
 1022 000e 07EE903A 		vmov	s15, r3	@ int
 1023 0012 B8EEE77A 		vcvt.f32.s32	s14, s15
 1024              		.loc 1 290 75
 1025 0016 DFED076A 		vldr.32	s13, .L60
 1026 001a C7EE267A 		vdiv.f32	s15, s14, s13
 1027              		.loc 1 290 86
 1028 001e 9FED067A 		vldr.32	s14, .L60+4
 1029 0022 67EE877A 		vmul.f32	s15, s15, s14
 1030              		.loc 1 290 95
 1031 0026 B0EE670A 		vmov.f32	s0, s15
 1032 002a 0C37     		adds	r7, r7, #12
 1033              	.LCFI66:
 1034              		.cfi_def_cfa_offset 4
 1035 002c BD46     		mov	sp, r7
 1036              	.LCFI67:
 1037              		.cfi_def_cfa_register 13
 1038              		@ sp needed
 1039 002e 5DF8047B 		ldr	r7, [sp], #4
 1040              	.LCFI68:
 1041              		.cfi_restore 7
 1042              		.cfi_def_cfa_offset 0
 1043 0032 7047     		bx	lr
 1044              	.L61:
 1045              		.align	2
 1046              	.L60:
 1047 0034 00008043 		.word	1132462080
 1048 0038 00008042 		.word	1115684864
 1049              		.cfi_endproc
 1050              	.LFE603:
ARM GAS  /tmp/ccjphgoR.s 			page 24


 1052              		.section	.text.lis2de12_from_fs16_to_mg,"ax",%progbits
 1053              		.align	1
 1054              		.global	lis2de12_from_fs16_to_mg
 1055              		.syntax unified
 1056              		.thumb
 1057              		.thumb_func
 1058              		.fpu fpv4-sp-d16
 1060              	lis2de12_from_fs16_to_mg:
 1061              	.LFB604:
 291:../Drivers/BSP/Components/lis2de12/lis2de12.c **** 
 292:../Drivers/BSP/Components/lis2de12/lis2de12.c **** float_t lis2de12_from_fs16_to_mg( int16_t lsb ) { return ( ( float_t ) lsb / 256.0f ) * 192.0f; }
 1062              		.loc 1 292 49
 1063              		.cfi_startproc
 1064              		@ args = 0, pretend = 0, frame = 8
 1065              		@ frame_needed = 1, uses_anonymous_args = 0
 1066              		@ link register save eliminated.
 1067 0000 80B4     		push	{r7}
 1068              	.LCFI69:
 1069              		.cfi_def_cfa_offset 4
 1070              		.cfi_offset 7, -4
 1071 0002 83B0     		sub	sp, sp, #12
 1072              	.LCFI70:
 1073              		.cfi_def_cfa_offset 16
 1074 0004 00AF     		add	r7, sp, #0
 1075              	.LCFI71:
 1076              		.cfi_def_cfa_register 7
 1077 0006 0346     		mov	r3, r0
 1078 0008 FB80     		strh	r3, [r7, #6]	@ movhi
 1079              		.loc 1 292 60
 1080 000a B7F90630 		ldrsh	r3, [r7, #6]
 1081 000e 07EE903A 		vmov	s15, r3	@ int
 1082 0012 B8EEE77A 		vcvt.f32.s32	s14, s15
 1083              		.loc 1 292 76
 1084 0016 DFED076A 		vldr.32	s13, .L64
 1085 001a C7EE267A 		vdiv.f32	s15, s14, s13
 1086              		.loc 1 292 87
 1087 001e 9FED067A 		vldr.32	s14, .L64+4
 1088 0022 67EE877A 		vmul.f32	s15, s15, s14
 1089              		.loc 1 292 97
 1090 0026 B0EE670A 		vmov.f32	s0, s15
 1091 002a 0C37     		adds	r7, r7, #12
 1092              	.LCFI72:
 1093              		.cfi_def_cfa_offset 4
 1094 002c BD46     		mov	sp, r7
 1095              	.LCFI73:
 1096              		.cfi_def_cfa_register 13
 1097              		@ sp needed
 1098 002e 5DF8047B 		ldr	r7, [sp], #4
 1099              	.LCFI74:
 1100              		.cfi_restore 7
 1101              		.cfi_def_cfa_offset 0
 1102 0032 7047     		bx	lr
 1103              	.L65:
 1104              		.align	2
 1105              	.L64:
 1106 0034 00008043 		.word	1132462080
 1107 0038 00004043 		.word	1128267776
ARM GAS  /tmp/ccjphgoR.s 			page 25


 1108              		.cfi_endproc
 1109              	.LFE604:
 1111              		.section	.text.lis2de12_from_lsb_to_celsius,"ax",%progbits
 1112              		.align	1
 1113              		.global	lis2de12_from_lsb_to_celsius
 1114              		.syntax unified
 1115              		.thumb
 1116              		.thumb_func
 1117              		.fpu fpv4-sp-d16
 1119              	lis2de12_from_lsb_to_celsius:
 1120              	.LFB605:
 293:../Drivers/BSP/Components/lis2de12/lis2de12.c **** 
 294:../Drivers/BSP/Components/lis2de12/lis2de12.c **** float_t lis2de12_from_lsb_to_celsius( int16_t lsb ) { return ( ( ( float_t ) lsb / 256.0f ) * 1.0f 
 1121              		.loc 1 294 53
 1122              		.cfi_startproc
 1123              		@ args = 0, pretend = 0, frame = 8
 1124              		@ frame_needed = 1, uses_anonymous_args = 0
 1125              		@ link register save eliminated.
 1126 0000 80B4     		push	{r7}
 1127              	.LCFI75:
 1128              		.cfi_def_cfa_offset 4
 1129              		.cfi_offset 7, -4
 1130 0002 83B0     		sub	sp, sp, #12
 1131              	.LCFI76:
 1132              		.cfi_def_cfa_offset 16
 1133 0004 00AF     		add	r7, sp, #0
 1134              	.LCFI77:
 1135              		.cfi_def_cfa_register 7
 1136 0006 0346     		mov	r3, r0
 1137 0008 FB80     		strh	r3, [r7, #6]	@ movhi
 1138              		.loc 1 294 66
 1139 000a B7F90630 		ldrsh	r3, [r7, #6]
 1140 000e 07EE903A 		vmov	s15, r3	@ int
 1141 0012 B8EEE77A 		vcvt.f32.s32	s14, s15
 1142              		.loc 1 294 93
 1143 0016 DFED076A 		vldr.32	s13, .L68
 1144 001a C7EE267A 		vdiv.f32	s15, s14, s13
 1145              		.loc 1 294 102
 1146 001e B3EE097A 		vmov.f32	s14, #2.5e+1
 1147 0022 77EE877A 		vadd.f32	s15, s15, s14
 1148              		.loc 1 294 111
 1149 0026 B0EE670A 		vmov.f32	s0, s15
 1150 002a 0C37     		adds	r7, r7, #12
 1151              	.LCFI78:
 1152              		.cfi_def_cfa_offset 4
 1153 002c BD46     		mov	sp, r7
 1154              	.LCFI79:
 1155              		.cfi_def_cfa_register 13
 1156              		@ sp needed
 1157 002e 5DF8047B 		ldr	r7, [sp], #4
 1158              	.LCFI80:
 1159              		.cfi_restore 7
 1160              		.cfi_def_cfa_offset 0
 1161 0032 7047     		bx	lr
 1162              	.L69:
 1163              		.align	2
 1164              	.L68:
ARM GAS  /tmp/ccjphgoR.s 			page 26


 1165 0034 00008043 		.word	1132462080
 1166              		.cfi_endproc
 1167              	.LFE605:
 1169              		.section	.text.lis2de12_temp_status_reg_get,"ax",%progbits
 1170              		.align	1
 1171              		.global	lis2de12_temp_status_reg_get
 1172              		.syntax unified
 1173              		.thumb
 1174              		.thumb_func
 1175              		.fpu fpv4-sp-d16
 1177              	lis2de12_temp_status_reg_get:
 1178              	.LFB606:
 295:../Drivers/BSP/Components/lis2de12/lis2de12.c **** 
 296:../Drivers/BSP/Components/lis2de12/lis2de12.c **** /**
 297:../Drivers/BSP/Components/lis2de12/lis2de12.c ****  * @}
 298:../Drivers/BSP/Components/lis2de12/lis2de12.c ****  *
 299:../Drivers/BSP/Components/lis2de12/lis2de12.c ****  */
 300:../Drivers/BSP/Components/lis2de12/lis2de12.c **** 
 301:../Drivers/BSP/Components/lis2de12/lis2de12.c **** /**
 302:../Drivers/BSP/Components/lis2de12/lis2de12.c ****  * @defgroup  LIS2DE12_Data_generation
 303:../Drivers/BSP/Components/lis2de12/lis2de12.c ****  * @brief     This section group all the functions concerning data generation.
 304:../Drivers/BSP/Components/lis2de12/lis2de12.c ****  * @{
 305:../Drivers/BSP/Components/lis2de12/lis2de12.c ****  *
 306:../Drivers/BSP/Components/lis2de12/lis2de12.c ****  */
 307:../Drivers/BSP/Components/lis2de12/lis2de12.c **** 
 308:../Drivers/BSP/Components/lis2de12/lis2de12.c **** /**
 309:../Drivers/BSP/Components/lis2de12/lis2de12.c ****   * @brief  Temperature status register.[get]
 310:../Drivers/BSP/Components/lis2de12/lis2de12.c ****   *
 311:../Drivers/BSP/Components/lis2de12/lis2de12.c **** 
 312:../Drivers/BSP/Components/lis2de12/lis2de12.c ****   * @param  buff     buffer that stores data read
 313:../Drivers/BSP/Components/lis2de12/lis2de12.c ****   * @retval          interface status (MANDATORY: return 0 -> no Error)
 314:../Drivers/BSP/Components/lis2de12/lis2de12.c ****   *
 315:../Drivers/BSP/Components/lis2de12/lis2de12.c ****   */
 316:../Drivers/BSP/Components/lis2de12/lis2de12.c **** int32_t lis2de12_temp_status_reg_get( uint8_t* buff )
 317:../Drivers/BSP/Components/lis2de12/lis2de12.c **** {
 1179              		.loc 1 317 1
 1180              		.cfi_startproc
 1181              		@ args = 0, pretend = 0, frame = 16
 1182              		@ frame_needed = 1, uses_anonymous_args = 0
 1183 0000 80B5     		push	{r7, lr}
 1184              	.LCFI81:
 1185              		.cfi_def_cfa_offset 8
 1186              		.cfi_offset 7, -8
 1187              		.cfi_offset 14, -4
 1188 0002 84B0     		sub	sp, sp, #16
 1189              	.LCFI82:
 1190              		.cfi_def_cfa_offset 24
 1191 0004 00AF     		add	r7, sp, #0
 1192              	.LCFI83:
 1193              		.cfi_def_cfa_register 7
 1194 0006 7860     		str	r0, [r7, #4]
 318:../Drivers/BSP/Components/lis2de12/lis2de12.c ****     int32_t ret;
 319:../Drivers/BSP/Components/lis2de12/lis2de12.c ****     ret = lis2de12_read_reg( LIS2DE12_STATUS_REG_AUX, buff, 1 );
 1195              		.loc 1 319 11
 1196 0008 0122     		movs	r2, #1
 1197 000a 7968     		ldr	r1, [r7, #4]
 1198 000c 0720     		movs	r0, #7
ARM GAS  /tmp/ccjphgoR.s 			page 27


 1199 000e FFF7FEFF 		bl	lis2de12_read_reg
 1200 0012 F860     		str	r0, [r7, #12]
 320:../Drivers/BSP/Components/lis2de12/lis2de12.c ****     return ret;
 1201              		.loc 1 320 12
 1202 0014 FB68     		ldr	r3, [r7, #12]
 321:../Drivers/BSP/Components/lis2de12/lis2de12.c **** }
 1203              		.loc 1 321 1
 1204 0016 1846     		mov	r0, r3
 1205 0018 1037     		adds	r7, r7, #16
 1206              	.LCFI84:
 1207              		.cfi_def_cfa_offset 8
 1208 001a BD46     		mov	sp, r7
 1209              	.LCFI85:
 1210              		.cfi_def_cfa_register 13
 1211              		@ sp needed
 1212 001c 80BD     		pop	{r7, pc}
 1213              		.cfi_endproc
 1214              	.LFE606:
 1216              		.section	.text.lis2de12_temp_data_ready_get,"ax",%progbits
 1217              		.align	1
 1218              		.global	lis2de12_temp_data_ready_get
 1219              		.syntax unified
 1220              		.thumb
 1221              		.thumb_func
 1222              		.fpu fpv4-sp-d16
 1224              	lis2de12_temp_data_ready_get:
 1225              	.LFB607:
 322:../Drivers/BSP/Components/lis2de12/lis2de12.c **** /**
 323:../Drivers/BSP/Components/lis2de12/lis2de12.c ****   * @brief  Temperature data available.[get]
 324:../Drivers/BSP/Components/lis2de12/lis2de12.c ****   *
 325:../Drivers/BSP/Components/lis2de12/lis2de12.c **** 
 326:../Drivers/BSP/Components/lis2de12/lis2de12.c ****   * @param  val      change the values of tda in reg STATUS_REG_AUX
 327:../Drivers/BSP/Components/lis2de12/lis2de12.c ****   * @retval          interface status (MANDATORY: return 0 -> no Error)
 328:../Drivers/BSP/Components/lis2de12/lis2de12.c ****   *
 329:../Drivers/BSP/Components/lis2de12/lis2de12.c ****   */
 330:../Drivers/BSP/Components/lis2de12/lis2de12.c **** int32_t lis2de12_temp_data_ready_get( uint8_t* val )
 331:../Drivers/BSP/Components/lis2de12/lis2de12.c **** {
 1226              		.loc 1 331 1
 1227              		.cfi_startproc
 1228              		@ args = 0, pretend = 0, frame = 16
 1229              		@ frame_needed = 1, uses_anonymous_args = 0
 1230 0000 80B5     		push	{r7, lr}
 1231              	.LCFI86:
 1232              		.cfi_def_cfa_offset 8
 1233              		.cfi_offset 7, -8
 1234              		.cfi_offset 14, -4
 1235 0002 84B0     		sub	sp, sp, #16
 1236              	.LCFI87:
 1237              		.cfi_def_cfa_offset 24
 1238 0004 00AF     		add	r7, sp, #0
 1239              	.LCFI88:
 1240              		.cfi_def_cfa_register 7
 1241 0006 7860     		str	r0, [r7, #4]
 332:../Drivers/BSP/Components/lis2de12/lis2de12.c ****     lis2de12_status_reg_aux_t status_reg_aux;
 333:../Drivers/BSP/Components/lis2de12/lis2de12.c ****     int32_t                   ret;
 334:../Drivers/BSP/Components/lis2de12/lis2de12.c **** 
 335:../Drivers/BSP/Components/lis2de12/lis2de12.c ****     ret  = lis2de12_read_reg( LIS2DE12_STATUS_REG_AUX, ( uint8_t* ) &status_reg_aux, 1 );
ARM GAS  /tmp/ccjphgoR.s 			page 28


 1242              		.loc 1 335 12
 1243 0008 07F10803 		add	r3, r7, #8
 1244 000c 0122     		movs	r2, #1
 1245 000e 1946     		mov	r1, r3
 1246 0010 0720     		movs	r0, #7
 1247 0012 FFF7FEFF 		bl	lis2de12_read_reg
 1248 0016 F860     		str	r0, [r7, #12]
 336:../Drivers/BSP/Components/lis2de12/lis2de12.c ****     *val = status_reg_aux.tda;
 1249              		.loc 1 336 26
 1250 0018 3B7A     		ldrb	r3, [r7, #8]
 1251 001a C3F38003 		ubfx	r3, r3, #2, #1
 1252 001e DBB2     		uxtb	r3, r3
 1253 0020 1A46     		mov	r2, r3
 1254              		.loc 1 336 10
 1255 0022 7B68     		ldr	r3, [r7, #4]
 1256 0024 1A70     		strb	r2, [r3]
 337:../Drivers/BSP/Components/lis2de12/lis2de12.c **** 
 338:../Drivers/BSP/Components/lis2de12/lis2de12.c ****     return ret;
 1257              		.loc 1 338 12
 1258 0026 FB68     		ldr	r3, [r7, #12]
 339:../Drivers/BSP/Components/lis2de12/lis2de12.c **** }
 1259              		.loc 1 339 1
 1260 0028 1846     		mov	r0, r3
 1261 002a 1037     		adds	r7, r7, #16
 1262              	.LCFI89:
 1263              		.cfi_def_cfa_offset 8
 1264 002c BD46     		mov	sp, r7
 1265              	.LCFI90:
 1266              		.cfi_def_cfa_register 13
 1267              		@ sp needed
 1268 002e 80BD     		pop	{r7, pc}
 1269              		.cfi_endproc
 1270              	.LFE607:
 1272              		.section	.text.lis2de12_temp_data_ovr_get,"ax",%progbits
 1273              		.align	1
 1274              		.global	lis2de12_temp_data_ovr_get
 1275              		.syntax unified
 1276              		.thumb
 1277              		.thumb_func
 1278              		.fpu fpv4-sp-d16
 1280              	lis2de12_temp_data_ovr_get:
 1281              	.LFB608:
 340:../Drivers/BSP/Components/lis2de12/lis2de12.c **** /**
 341:../Drivers/BSP/Components/lis2de12/lis2de12.c ****   * @brief  Temperature data overrun.[get]
 342:../Drivers/BSP/Components/lis2de12/lis2de12.c ****   *
 343:../Drivers/BSP/Components/lis2de12/lis2de12.c **** 
 344:../Drivers/BSP/Components/lis2de12/lis2de12.c ****   * @param  val      change the values of tor in reg STATUS_REG_AUX
 345:../Drivers/BSP/Components/lis2de12/lis2de12.c ****   * @retval          interface status (MANDATORY: return 0 -> no Error)
 346:../Drivers/BSP/Components/lis2de12/lis2de12.c ****   *
 347:../Drivers/BSP/Components/lis2de12/lis2de12.c ****   */
 348:../Drivers/BSP/Components/lis2de12/lis2de12.c **** int32_t lis2de12_temp_data_ovr_get( uint8_t* val )
 349:../Drivers/BSP/Components/lis2de12/lis2de12.c **** {
 1282              		.loc 1 349 1
 1283              		.cfi_startproc
 1284              		@ args = 0, pretend = 0, frame = 16
 1285              		@ frame_needed = 1, uses_anonymous_args = 0
 1286 0000 80B5     		push	{r7, lr}
ARM GAS  /tmp/ccjphgoR.s 			page 29


 1287              	.LCFI91:
 1288              		.cfi_def_cfa_offset 8
 1289              		.cfi_offset 7, -8
 1290              		.cfi_offset 14, -4
 1291 0002 84B0     		sub	sp, sp, #16
 1292              	.LCFI92:
 1293              		.cfi_def_cfa_offset 24
 1294 0004 00AF     		add	r7, sp, #0
 1295              	.LCFI93:
 1296              		.cfi_def_cfa_register 7
 1297 0006 7860     		str	r0, [r7, #4]
 350:../Drivers/BSP/Components/lis2de12/lis2de12.c ****     lis2de12_status_reg_aux_t status_reg_aux;
 351:../Drivers/BSP/Components/lis2de12/lis2de12.c ****     int32_t                   ret;
 352:../Drivers/BSP/Components/lis2de12/lis2de12.c **** 
 353:../Drivers/BSP/Components/lis2de12/lis2de12.c ****     ret  = lis2de12_read_reg( LIS2DE12_STATUS_REG_AUX, ( uint8_t* ) &status_reg_aux, 1 );
 1298              		.loc 1 353 12
 1299 0008 07F10803 		add	r3, r7, #8
 1300 000c 0122     		movs	r2, #1
 1301 000e 1946     		mov	r1, r3
 1302 0010 0720     		movs	r0, #7
 1303 0012 FFF7FEFF 		bl	lis2de12_read_reg
 1304 0016 F860     		str	r0, [r7, #12]
 354:../Drivers/BSP/Components/lis2de12/lis2de12.c ****     *val = status_reg_aux.tor;
 1305              		.loc 1 354 26
 1306 0018 3B7A     		ldrb	r3, [r7, #8]
 1307 001a C3F38013 		ubfx	r3, r3, #6, #1
 1308 001e DBB2     		uxtb	r3, r3
 1309 0020 1A46     		mov	r2, r3
 1310              		.loc 1 354 10
 1311 0022 7B68     		ldr	r3, [r7, #4]
 1312 0024 1A70     		strb	r2, [r3]
 355:../Drivers/BSP/Components/lis2de12/lis2de12.c **** 
 356:../Drivers/BSP/Components/lis2de12/lis2de12.c ****     return ret;
 1313              		.loc 1 356 12
 1314 0026 FB68     		ldr	r3, [r7, #12]
 357:../Drivers/BSP/Components/lis2de12/lis2de12.c **** }
 1315              		.loc 1 357 1
 1316 0028 1846     		mov	r0, r3
 1317 002a 1037     		adds	r7, r7, #16
 1318              	.LCFI94:
 1319              		.cfi_def_cfa_offset 8
 1320 002c BD46     		mov	sp, r7
 1321              	.LCFI95:
 1322              		.cfi_def_cfa_register 13
 1323              		@ sp needed
 1324 002e 80BD     		pop	{r7, pc}
 1325              		.cfi_endproc
 1326              	.LFE608:
 1328              		.section	.text.lis2de12_temperature_raw_get,"ax",%progbits
 1329              		.align	1
 1330              		.global	lis2de12_temperature_raw_get
 1331              		.syntax unified
 1332              		.thumb
 1333              		.thumb_func
 1334              		.fpu fpv4-sp-d16
 1336              	lis2de12_temperature_raw_get:
 1337              	.LFB609:
ARM GAS  /tmp/ccjphgoR.s 			page 30


 358:../Drivers/BSP/Components/lis2de12/lis2de12.c **** /**
 359:../Drivers/BSP/Components/lis2de12/lis2de12.c ****   * @brief  Temperature output value.[get]
 360:../Drivers/BSP/Components/lis2de12/lis2de12.c ****   *
 361:../Drivers/BSP/Components/lis2de12/lis2de12.c **** 
 362:../Drivers/BSP/Components/lis2de12/lis2de12.c ****   * @param  buff     buffer that stores data read
 363:../Drivers/BSP/Components/lis2de12/lis2de12.c ****   * @retval          interface status (MANDATORY: return 0 -> no Error)
 364:../Drivers/BSP/Components/lis2de12/lis2de12.c ****   *
 365:../Drivers/BSP/Components/lis2de12/lis2de12.c ****   */
 366:../Drivers/BSP/Components/lis2de12/lis2de12.c **** int32_t lis2de12_temperature_raw_get( uint16_t* raw_temp )
 367:../Drivers/BSP/Components/lis2de12/lis2de12.c **** {
 1338              		.loc 1 367 1
 1339              		.cfi_startproc
 1340              		@ args = 0, pretend = 0, frame = 16
 1341              		@ frame_needed = 1, uses_anonymous_args = 0
 1342 0000 80B5     		push	{r7, lr}
 1343              	.LCFI96:
 1344              		.cfi_def_cfa_offset 8
 1345              		.cfi_offset 7, -8
 1346              		.cfi_offset 14, -4
 1347 0002 84B0     		sub	sp, sp, #16
 1348              	.LCFI97:
 1349              		.cfi_def_cfa_offset 24
 1350 0004 00AF     		add	r7, sp, #0
 1351              	.LCFI98:
 1352              		.cfi_def_cfa_register 7
 1353 0006 7860     		str	r0, [r7, #4]
 368:../Drivers/BSP/Components/lis2de12/lis2de12.c ****     int32_t ret;
 369:../Drivers/BSP/Components/lis2de12/lis2de12.c ****     uint8_t buf_tmp;
 370:../Drivers/BSP/Components/lis2de12/lis2de12.c **** 
 371:../Drivers/BSP/Components/lis2de12/lis2de12.c ****     ret       = lis2de12_read_reg( LIS2DE12_OUT_TEMP_L, &buf_tmp, 1 );
 1354              		.loc 1 371 17
 1355 0008 07F10B03 		add	r3, r7, #11
 1356 000c 0122     		movs	r2, #1
 1357 000e 1946     		mov	r1, r3
 1358 0010 0C20     		movs	r0, #12
 1359 0012 FFF7FEFF 		bl	lis2de12_read_reg
 1360 0016 F860     		str	r0, [r7, #12]
 372:../Drivers/BSP/Components/lis2de12/lis2de12.c ****     *raw_temp = buf_tmp;
 1361              		.loc 1 372 15
 1362 0018 FB7A     		ldrb	r3, [r7, #11]	@ zero_extendqisi2
 1363 001a 9AB2     		uxth	r2, r3
 1364 001c 7B68     		ldr	r3, [r7, #4]
 1365 001e 1A80     		strh	r2, [r3]	@ movhi
 373:../Drivers/BSP/Components/lis2de12/lis2de12.c **** 
 374:../Drivers/BSP/Components/lis2de12/lis2de12.c ****     ret = lis2de12_read_reg( LIS2DE12_OUT_TEMP_H, &buf_tmp, 1 );
 1366              		.loc 1 374 11
 1367 0020 07F10B03 		add	r3, r7, #11
 1368 0024 0122     		movs	r2, #1
 1369 0026 1946     		mov	r1, r3
 1370 0028 0D20     		movs	r0, #13
 1371 002a FFF7FEFF 		bl	lis2de12_read_reg
 1372 002e F860     		str	r0, [r7, #12]
 375:../Drivers/BSP/Components/lis2de12/lis2de12.c ****     *raw_temp += buf_tmp << 8;
 1373              		.loc 1 375 15
 1374 0030 7B68     		ldr	r3, [r7, #4]
 1375 0032 1A88     		ldrh	r2, [r3]
 1376              		.loc 1 375 26
ARM GAS  /tmp/ccjphgoR.s 			page 31


 1377 0034 FB7A     		ldrb	r3, [r7, #11]	@ zero_extendqisi2
 1378 0036 9BB2     		uxth	r3, r3
 1379 0038 1B02     		lsls	r3, r3, #8
 1380 003a 9BB2     		uxth	r3, r3
 1381              		.loc 1 375 15
 1382 003c 1344     		add	r3, r3, r2
 1383 003e 9AB2     		uxth	r2, r3
 1384 0040 7B68     		ldr	r3, [r7, #4]
 1385 0042 1A80     		strh	r2, [r3]	@ movhi
 376:../Drivers/BSP/Components/lis2de12/lis2de12.c **** 
 377:../Drivers/BSP/Components/lis2de12/lis2de12.c ****     return ret;
 1386              		.loc 1 377 12
 1387 0044 FB68     		ldr	r3, [r7, #12]
 378:../Drivers/BSP/Components/lis2de12/lis2de12.c **** }
 1388              		.loc 1 378 1
 1389 0046 1846     		mov	r0, r3
 1390 0048 1037     		adds	r7, r7, #16
 1391              	.LCFI99:
 1392              		.cfi_def_cfa_offset 8
 1393 004a BD46     		mov	sp, r7
 1394              	.LCFI100:
 1395              		.cfi_def_cfa_register 13
 1396              		@ sp needed
 1397 004c 80BD     		pop	{r7, pc}
 1398              		.cfi_endproc
 1399              	.LFE609:
 1401              		.section	.text.lis2de12_temperature_meas_set,"ax",%progbits
 1402              		.align	1
 1403              		.global	lis2de12_temperature_meas_set
 1404              		.syntax unified
 1405              		.thumb
 1406              		.thumb_func
 1407              		.fpu fpv4-sp-d16
 1409              	lis2de12_temperature_meas_set:
 1410              	.LFB610:
 379:../Drivers/BSP/Components/lis2de12/lis2de12.c **** /**
 380:../Drivers/BSP/Components/lis2de12/lis2de12.c ****   * @brief  Temperature sensor enable.[set]
 381:../Drivers/BSP/Components/lis2de12/lis2de12.c ****   *
 382:../Drivers/BSP/Components/lis2de12/lis2de12.c **** 
 383:../Drivers/BSP/Components/lis2de12/lis2de12.c ****   * @param  val      change the values of temp_en in reg TEMP_CFG_REG
 384:../Drivers/BSP/Components/lis2de12/lis2de12.c ****   * @retval          interface status (MANDATORY: return 0 -> no Error)
 385:../Drivers/BSP/Components/lis2de12/lis2de12.c ****   *
 386:../Drivers/BSP/Components/lis2de12/lis2de12.c ****   */
 387:../Drivers/BSP/Components/lis2de12/lis2de12.c **** int32_t lis2de12_temperature_meas_set( lis2de12_temp_en_t val )
 388:../Drivers/BSP/Components/lis2de12/lis2de12.c **** {
 1411              		.loc 1 388 1
 1412              		.cfi_startproc
 1413              		@ args = 0, pretend = 0, frame = 16
 1414              		@ frame_needed = 1, uses_anonymous_args = 0
 1415 0000 80B5     		push	{r7, lr}
 1416              	.LCFI101:
 1417              		.cfi_def_cfa_offset 8
 1418              		.cfi_offset 7, -8
 1419              		.cfi_offset 14, -4
 1420 0002 84B0     		sub	sp, sp, #16
 1421              	.LCFI102:
 1422              		.cfi_def_cfa_offset 24
ARM GAS  /tmp/ccjphgoR.s 			page 32


 1423 0004 00AF     		add	r7, sp, #0
 1424              	.LCFI103:
 1425              		.cfi_def_cfa_register 7
 1426 0006 0346     		mov	r3, r0
 1427 0008 FB71     		strb	r3, [r7, #7]
 389:../Drivers/BSP/Components/lis2de12/lis2de12.c ****     lis2de12_temp_cfg_reg_t temp_cfg_reg;
 390:../Drivers/BSP/Components/lis2de12/lis2de12.c ****     int32_t                 ret;
 391:../Drivers/BSP/Components/lis2de12/lis2de12.c **** 
 392:../Drivers/BSP/Components/lis2de12/lis2de12.c ****     ret = lis2de12_read_reg( LIS2DE12_TEMP_CFG_REG, ( uint8_t* ) &temp_cfg_reg, 1 );
 1428              		.loc 1 392 11
 1429 000a 07F10803 		add	r3, r7, #8
 1430 000e 0122     		movs	r2, #1
 1431 0010 1946     		mov	r1, r3
 1432 0012 1F20     		movs	r0, #31
 1433 0014 FFF7FEFF 		bl	lis2de12_read_reg
 1434 0018 F860     		str	r0, [r7, #12]
 393:../Drivers/BSP/Components/lis2de12/lis2de12.c ****     if( ret == 0 )
 1435              		.loc 1 393 7
 1436 001a FB68     		ldr	r3, [r7, #12]
 1437 001c 002B     		cmp	r3, #0
 1438 001e 0FD1     		bne	.L79
 394:../Drivers/BSP/Components/lis2de12/lis2de12.c ****     {
 395:../Drivers/BSP/Components/lis2de12/lis2de12.c ****         temp_cfg_reg.temp_en = ( uint8_t ) val;
 1439              		.loc 1 395 32
 1440 0020 FB79     		ldrb	r3, [r7, #7]
 1441 0022 03F00303 		and	r3, r3, #3
 1442 0026 DAB2     		uxtb	r2, r3
 1443              		.loc 1 395 30
 1444 0028 3B7A     		ldrb	r3, [r7, #8]
 1445 002a 62F38713 		bfi	r3, r2, #6, #2
 1446 002e 3B72     		strb	r3, [r7, #8]
 396:../Drivers/BSP/Components/lis2de12/lis2de12.c ****         ret                  = lis2de12_write_reg( LIS2DE12_TEMP_CFG_REG, ( uint8_t* ) &temp_cfg_re
 1447              		.loc 1 396 32
 1448 0030 07F10803 		add	r3, r7, #8
 1449 0034 0122     		movs	r2, #1
 1450 0036 1946     		mov	r1, r3
 1451 0038 1F20     		movs	r0, #31
 1452 003a FFF7FEFF 		bl	lis2de12_write_reg
 1453 003e F860     		str	r0, [r7, #12]
 1454              	.L79:
 397:../Drivers/BSP/Components/lis2de12/lis2de12.c ****     }
 398:../Drivers/BSP/Components/lis2de12/lis2de12.c ****     return ret;
 1455              		.loc 1 398 12
 1456 0040 FB68     		ldr	r3, [r7, #12]
 399:../Drivers/BSP/Components/lis2de12/lis2de12.c **** }
 1457              		.loc 1 399 1
 1458 0042 1846     		mov	r0, r3
 1459 0044 1037     		adds	r7, r7, #16
 1460              	.LCFI104:
 1461              		.cfi_def_cfa_offset 8
 1462 0046 BD46     		mov	sp, r7
 1463              	.LCFI105:
 1464              		.cfi_def_cfa_register 13
 1465              		@ sp needed
 1466 0048 80BD     		pop	{r7, pc}
 1467              		.cfi_endproc
 1468              	.LFE610:
ARM GAS  /tmp/ccjphgoR.s 			page 33


 1470              		.section	.text.lis2de12_temperature_meas_get,"ax",%progbits
 1471              		.align	1
 1472              		.global	lis2de12_temperature_meas_get
 1473              		.syntax unified
 1474              		.thumb
 1475              		.thumb_func
 1476              		.fpu fpv4-sp-d16
 1478              	lis2de12_temperature_meas_get:
 1479              	.LFB611:
 400:../Drivers/BSP/Components/lis2de12/lis2de12.c **** 
 401:../Drivers/BSP/Components/lis2de12/lis2de12.c **** /**
 402:../Drivers/BSP/Components/lis2de12/lis2de12.c ****   * @brief  Temperature sensor enable.[get]
 403:../Drivers/BSP/Components/lis2de12/lis2de12.c ****   *
 404:../Drivers/BSP/Components/lis2de12/lis2de12.c **** 
 405:../Drivers/BSP/Components/lis2de12/lis2de12.c ****   * @param  val      get the values of temp_en in reg TEMP_CFG_REG
 406:../Drivers/BSP/Components/lis2de12/lis2de12.c ****   * @retval          interface status (MANDATORY: return 0 -> no Error)
 407:../Drivers/BSP/Components/lis2de12/lis2de12.c ****   *
 408:../Drivers/BSP/Components/lis2de12/lis2de12.c ****   */
 409:../Drivers/BSP/Components/lis2de12/lis2de12.c **** int32_t lis2de12_temperature_meas_get( lis2de12_temp_en_t* val )
 410:../Drivers/BSP/Components/lis2de12/lis2de12.c **** {
 1480              		.loc 1 410 1
 1481              		.cfi_startproc
 1482              		@ args = 0, pretend = 0, frame = 16
 1483              		@ frame_needed = 1, uses_anonymous_args = 0
 1484 0000 80B5     		push	{r7, lr}
 1485              	.LCFI106:
 1486              		.cfi_def_cfa_offset 8
 1487              		.cfi_offset 7, -8
 1488              		.cfi_offset 14, -4
 1489 0002 84B0     		sub	sp, sp, #16
 1490              	.LCFI107:
 1491              		.cfi_def_cfa_offset 24
 1492 0004 00AF     		add	r7, sp, #0
 1493              	.LCFI108:
 1494              		.cfi_def_cfa_register 7
 1495 0006 7860     		str	r0, [r7, #4]
 411:../Drivers/BSP/Components/lis2de12/lis2de12.c ****     lis2de12_temp_cfg_reg_t temp_cfg_reg;
 412:../Drivers/BSP/Components/lis2de12/lis2de12.c ****     int32_t                 ret;
 413:../Drivers/BSP/Components/lis2de12/lis2de12.c **** 
 414:../Drivers/BSP/Components/lis2de12/lis2de12.c ****     ret = lis2de12_read_reg( LIS2DE12_TEMP_CFG_REG, ( uint8_t* ) &temp_cfg_reg, 1 );
 1496              		.loc 1 414 11
 1497 0008 07F10803 		add	r3, r7, #8
 1498 000c 0122     		movs	r2, #1
 1499 000e 1946     		mov	r1, r3
 1500 0010 1F20     		movs	r0, #31
 1501 0012 FFF7FEFF 		bl	lis2de12_read_reg
 1502 0016 F860     		str	r0, [r7, #12]
 415:../Drivers/BSP/Components/lis2de12/lis2de12.c ****     switch( temp_cfg_reg.temp_en )
 1503              		.loc 1 415 25
 1504 0018 3B7A     		ldrb	r3, [r7, #8]
 1505 001a C3F38113 		ubfx	r3, r3, #6, #2
 1506 001e DBB2     		uxtb	r3, r3
 1507              		.loc 1 415 5
 1508 0020 002B     		cmp	r3, #0
 1509 0022 02D0     		beq	.L82
 1510 0024 032B     		cmp	r3, #3
 1511 0026 04D0     		beq	.L83
ARM GAS  /tmp/ccjphgoR.s 			page 34


 1512 0028 07E0     		b	.L87
 1513              	.L82:
 416:../Drivers/BSP/Components/lis2de12/lis2de12.c ****     {
 417:../Drivers/BSP/Components/lis2de12/lis2de12.c ****     case LIS2DE12_TEMP_DISABLE:
 418:../Drivers/BSP/Components/lis2de12/lis2de12.c ****         *val = LIS2DE12_TEMP_DISABLE;
 1514              		.loc 1 418 14
 1515 002a 7B68     		ldr	r3, [r7, #4]
 1516 002c 0022     		movs	r2, #0
 1517 002e 1A70     		strb	r2, [r3]
 419:../Drivers/BSP/Components/lis2de12/lis2de12.c ****         break;
 1518              		.loc 1 419 9
 1519 0030 07E0     		b	.L85
 1520              	.L83:
 420:../Drivers/BSP/Components/lis2de12/lis2de12.c ****     case LIS2DE12_TEMP_ENABLE:
 421:../Drivers/BSP/Components/lis2de12/lis2de12.c ****         *val = LIS2DE12_TEMP_ENABLE;
 1521              		.loc 1 421 14
 1522 0032 7B68     		ldr	r3, [r7, #4]
 1523 0034 0322     		movs	r2, #3
 1524 0036 1A70     		strb	r2, [r3]
 422:../Drivers/BSP/Components/lis2de12/lis2de12.c ****         break;
 1525              		.loc 1 422 9
 1526 0038 03E0     		b	.L85
 1527              	.L87:
 423:../Drivers/BSP/Components/lis2de12/lis2de12.c ****     default:
 424:../Drivers/BSP/Components/lis2de12/lis2de12.c ****         *val = LIS2DE12_TEMP_DISABLE;
 1528              		.loc 1 424 14
 1529 003a 7B68     		ldr	r3, [r7, #4]
 1530 003c 0022     		movs	r2, #0
 1531 003e 1A70     		strb	r2, [r3]
 425:../Drivers/BSP/Components/lis2de12/lis2de12.c ****         break;
 1532              		.loc 1 425 9
 1533 0040 00BF     		nop
 1534              	.L85:
 426:../Drivers/BSP/Components/lis2de12/lis2de12.c ****     }
 427:../Drivers/BSP/Components/lis2de12/lis2de12.c ****     return ret;
 1535              		.loc 1 427 12
 1536 0042 FB68     		ldr	r3, [r7, #12]
 428:../Drivers/BSP/Components/lis2de12/lis2de12.c **** }
 1537              		.loc 1 428 1
 1538 0044 1846     		mov	r0, r3
 1539 0046 1037     		adds	r7, r7, #16
 1540              	.LCFI109:
 1541              		.cfi_def_cfa_offset 8
 1542 0048 BD46     		mov	sp, r7
 1543              	.LCFI110:
 1544              		.cfi_def_cfa_register 13
 1545              		@ sp needed
 1546 004a 80BD     		pop	{r7, pc}
 1547              		.cfi_endproc
 1548              	.LFE611:
 1550              		.section	.text.lis2de12_data_rate_set,"ax",%progbits
 1551              		.align	1
 1552              		.global	lis2de12_data_rate_set
 1553              		.syntax unified
 1554              		.thumb
 1555              		.thumb_func
 1556              		.fpu fpv4-sp-d16
ARM GAS  /tmp/ccjphgoR.s 			page 35


 1558              	lis2de12_data_rate_set:
 1559              	.LFB612:
 429:../Drivers/BSP/Components/lis2de12/lis2de12.c **** 
 430:../Drivers/BSP/Components/lis2de12/lis2de12.c **** /**
 431:../Drivers/BSP/Components/lis2de12/lis2de12.c ****   * @brief  Output data rate selection.[set]
 432:../Drivers/BSP/Components/lis2de12/lis2de12.c ****   *
 433:../Drivers/BSP/Components/lis2de12/lis2de12.c **** 
 434:../Drivers/BSP/Components/lis2de12/lis2de12.c ****   * @param  val      change the values of odr in reg CTRL_REG1
 435:../Drivers/BSP/Components/lis2de12/lis2de12.c ****   * @retval          interface status (MANDATORY: return 0 -> no Error)
 436:../Drivers/BSP/Components/lis2de12/lis2de12.c ****   *
 437:../Drivers/BSP/Components/lis2de12/lis2de12.c ****   */
 438:../Drivers/BSP/Components/lis2de12/lis2de12.c **** int32_t lis2de12_data_rate_set( lis2de12_odr_t val )
 439:../Drivers/BSP/Components/lis2de12/lis2de12.c **** {
 1560              		.loc 1 439 1
 1561              		.cfi_startproc
 1562              		@ args = 0, pretend = 0, frame = 16
 1563              		@ frame_needed = 1, uses_anonymous_args = 0
 1564 0000 80B5     		push	{r7, lr}
 1565              	.LCFI111:
 1566              		.cfi_def_cfa_offset 8
 1567              		.cfi_offset 7, -8
 1568              		.cfi_offset 14, -4
 1569 0002 84B0     		sub	sp, sp, #16
 1570              	.LCFI112:
 1571              		.cfi_def_cfa_offset 24
 1572 0004 00AF     		add	r7, sp, #0
 1573              	.LCFI113:
 1574              		.cfi_def_cfa_register 7
 1575 0006 0346     		mov	r3, r0
 1576 0008 FB71     		strb	r3, [r7, #7]
 440:../Drivers/BSP/Components/lis2de12/lis2de12.c ****     lis2de12_ctrl_reg1_t ctrl_reg1;
 441:../Drivers/BSP/Components/lis2de12/lis2de12.c ****     int32_t              ret;
 442:../Drivers/BSP/Components/lis2de12/lis2de12.c **** 
 443:../Drivers/BSP/Components/lis2de12/lis2de12.c ****     ret = lis2de12_read_reg( LIS2DE12_CTRL_REG1, ( uint8_t* ) &ctrl_reg1, 1 );
 1577              		.loc 1 443 11
 1578 000a 07F10803 		add	r3, r7, #8
 1579 000e 0122     		movs	r2, #1
 1580 0010 1946     		mov	r1, r3
 1581 0012 2020     		movs	r0, #32
 1582 0014 FFF7FEFF 		bl	lis2de12_read_reg
 1583 0018 F860     		str	r0, [r7, #12]
 444:../Drivers/BSP/Components/lis2de12/lis2de12.c ****     if( ret == 0 )
 1584              		.loc 1 444 7
 1585 001a FB68     		ldr	r3, [r7, #12]
 1586 001c 002B     		cmp	r3, #0
 1587 001e 13D1     		bne	.L89
 445:../Drivers/BSP/Components/lis2de12/lis2de12.c ****     {
 446:../Drivers/BSP/Components/lis2de12/lis2de12.c ****         ctrl_reg1.lpen = PROPERTY_ENABLE;
 1588              		.loc 1 446 24
 1589 0020 3B7A     		ldrb	r3, [r7, #8]
 1590 0022 43F00803 		orr	r3, r3, #8
 1591 0026 3B72     		strb	r3, [r7, #8]
 447:../Drivers/BSP/Components/lis2de12/lis2de12.c ****         ctrl_reg1.odr  = ( uint8_t ) val;
 1592              		.loc 1 447 26
 1593 0028 FB79     		ldrb	r3, [r7, #7]
 1594 002a 03F00F03 		and	r3, r3, #15
 1595 002e DAB2     		uxtb	r2, r3
ARM GAS  /tmp/ccjphgoR.s 			page 36


 1596              		.loc 1 447 24
 1597 0030 3B7A     		ldrb	r3, [r7, #8]
 1598 0032 62F30713 		bfi	r3, r2, #4, #4
 1599 0036 3B72     		strb	r3, [r7, #8]
 448:../Drivers/BSP/Components/lis2de12/lis2de12.c ****         ret            = lis2de12_write_reg( LIS2DE12_CTRL_REG1, ( uint8_t* ) &ctrl_reg1, 1 );
 1600              		.loc 1 448 26
 1601 0038 07F10803 		add	r3, r7, #8
 1602 003c 0122     		movs	r2, #1
 1603 003e 1946     		mov	r1, r3
 1604 0040 2020     		movs	r0, #32
 1605 0042 FFF7FEFF 		bl	lis2de12_write_reg
 1606 0046 F860     		str	r0, [r7, #12]
 1607              	.L89:
 449:../Drivers/BSP/Components/lis2de12/lis2de12.c ****     }
 450:../Drivers/BSP/Components/lis2de12/lis2de12.c ****     return ret;
 1608              		.loc 1 450 12
 1609 0048 FB68     		ldr	r3, [r7, #12]
 451:../Drivers/BSP/Components/lis2de12/lis2de12.c **** }
 1610              		.loc 1 451 1
 1611 004a 1846     		mov	r0, r3
 1612 004c 1037     		adds	r7, r7, #16
 1613              	.LCFI114:
 1614              		.cfi_def_cfa_offset 8
 1615 004e BD46     		mov	sp, r7
 1616              	.LCFI115:
 1617              		.cfi_def_cfa_register 13
 1618              		@ sp needed
 1619 0050 80BD     		pop	{r7, pc}
 1620              		.cfi_endproc
 1621              	.LFE612:
 1623              		.section	.text.lis2de12_data_rate_get,"ax",%progbits
 1624              		.align	1
 1625              		.global	lis2de12_data_rate_get
 1626              		.syntax unified
 1627              		.thumb
 1628              		.thumb_func
 1629              		.fpu fpv4-sp-d16
 1631              	lis2de12_data_rate_get:
 1632              	.LFB613:
 452:../Drivers/BSP/Components/lis2de12/lis2de12.c **** 
 453:../Drivers/BSP/Components/lis2de12/lis2de12.c **** /**
 454:../Drivers/BSP/Components/lis2de12/lis2de12.c ****   * @brief  Output data rate selection.[get]
 455:../Drivers/BSP/Components/lis2de12/lis2de12.c ****   *
 456:../Drivers/BSP/Components/lis2de12/lis2de12.c **** 
 457:../Drivers/BSP/Components/lis2de12/lis2de12.c ****   * @param  val      get the values of odr in reg CTRL_REG1
 458:../Drivers/BSP/Components/lis2de12/lis2de12.c ****   * @retval          interface status (MANDATORY: return 0 -> no Error)
 459:../Drivers/BSP/Components/lis2de12/lis2de12.c ****   *
 460:../Drivers/BSP/Components/lis2de12/lis2de12.c ****   */
 461:../Drivers/BSP/Components/lis2de12/lis2de12.c **** int32_t lis2de12_data_rate_get( lis2de12_odr_t* val )
 462:../Drivers/BSP/Components/lis2de12/lis2de12.c **** {
 1633              		.loc 1 462 1
 1634              		.cfi_startproc
 1635              		@ args = 0, pretend = 0, frame = 16
 1636              		@ frame_needed = 1, uses_anonymous_args = 0
 1637 0000 80B5     		push	{r7, lr}
 1638              	.LCFI116:
 1639              		.cfi_def_cfa_offset 8
ARM GAS  /tmp/ccjphgoR.s 			page 37


 1640              		.cfi_offset 7, -8
 1641              		.cfi_offset 14, -4
 1642 0002 84B0     		sub	sp, sp, #16
 1643              	.LCFI117:
 1644              		.cfi_def_cfa_offset 24
 1645 0004 00AF     		add	r7, sp, #0
 1646              	.LCFI118:
 1647              		.cfi_def_cfa_register 7
 1648 0006 7860     		str	r0, [r7, #4]
 463:../Drivers/BSP/Components/lis2de12/lis2de12.c ****     lis2de12_ctrl_reg1_t ctrl_reg1;
 464:../Drivers/BSP/Components/lis2de12/lis2de12.c ****     int32_t              ret;
 465:../Drivers/BSP/Components/lis2de12/lis2de12.c **** 
 466:../Drivers/BSP/Components/lis2de12/lis2de12.c ****     ret = lis2de12_read_reg( LIS2DE12_CTRL_REG1, ( uint8_t* ) &ctrl_reg1, 1 );
 1649              		.loc 1 466 11
 1650 0008 07F10803 		add	r3, r7, #8
 1651 000c 0122     		movs	r2, #1
 1652 000e 1946     		mov	r1, r3
 1653 0010 2020     		movs	r0, #32
 1654 0012 FFF7FEFF 		bl	lis2de12_read_reg
 1655 0016 F860     		str	r0, [r7, #12]
 467:../Drivers/BSP/Components/lis2de12/lis2de12.c ****     switch( ctrl_reg1.odr )
 1656              		.loc 1 467 22
 1657 0018 3B7A     		ldrb	r3, [r7, #8]
 1658 001a C3F30313 		ubfx	r3, r3, #4, #4
 1659 001e DBB2     		uxtb	r3, r3
 1660              		.loc 1 467 5
 1661 0020 092B     		cmp	r3, #9
 1662 0022 3FD8     		bhi	.L92
 1663 0024 01A2     		adr	r2, .L94
 1664 0026 52F823F0 		ldr	pc, [r2, r3, lsl #2]
 1665 002a 00BF     		.p2align 2
 1666              	.L94:
 1667 002c 55000000 		.word	.L103+1
 1668 0030 5D000000 		.word	.L102+1
 1669 0034 65000000 		.word	.L101+1
 1670 0038 6D000000 		.word	.L100+1
 1671 003c 75000000 		.word	.L99+1
 1672 0040 7D000000 		.word	.L98+1
 1673 0044 85000000 		.word	.L97+1
 1674 0048 8D000000 		.word	.L96+1
 1675 004c 95000000 		.word	.L95+1
 1676 0050 9D000000 		.word	.L93+1
 1677              		.p2align 1
 1678              	.L103:
 468:../Drivers/BSP/Components/lis2de12/lis2de12.c ****     {
 469:../Drivers/BSP/Components/lis2de12/lis2de12.c ****     case LIS2DE12_POWER_DOWN:
 470:../Drivers/BSP/Components/lis2de12/lis2de12.c ****         *val = LIS2DE12_POWER_DOWN;
 1679              		.loc 1 470 14
 1680 0054 7B68     		ldr	r3, [r7, #4]
 1681 0056 0022     		movs	r2, #0
 1682 0058 1A70     		strb	r2, [r3]
 471:../Drivers/BSP/Components/lis2de12/lis2de12.c ****         break;
 1683              		.loc 1 471 9
 1684 005a 27E0     		b	.L104
 1685              	.L102:
 472:../Drivers/BSP/Components/lis2de12/lis2de12.c ****     case LIS2DE12_ODR_1Hz:
 473:../Drivers/BSP/Components/lis2de12/lis2de12.c ****         *val = LIS2DE12_ODR_1Hz;
ARM GAS  /tmp/ccjphgoR.s 			page 38


 1686              		.loc 1 473 14
 1687 005c 7B68     		ldr	r3, [r7, #4]
 1688 005e 0122     		movs	r2, #1
 1689 0060 1A70     		strb	r2, [r3]
 474:../Drivers/BSP/Components/lis2de12/lis2de12.c ****         break;
 1690              		.loc 1 474 9
 1691 0062 23E0     		b	.L104
 1692              	.L101:
 475:../Drivers/BSP/Components/lis2de12/lis2de12.c ****     case LIS2DE12_ODR_10Hz:
 476:../Drivers/BSP/Components/lis2de12/lis2de12.c ****         *val = LIS2DE12_ODR_10Hz;
 1693              		.loc 1 476 14
 1694 0064 7B68     		ldr	r3, [r7, #4]
 1695 0066 0222     		movs	r2, #2
 1696 0068 1A70     		strb	r2, [r3]
 477:../Drivers/BSP/Components/lis2de12/lis2de12.c ****         break;
 1697              		.loc 1 477 9
 1698 006a 1FE0     		b	.L104
 1699              	.L100:
 478:../Drivers/BSP/Components/lis2de12/lis2de12.c ****     case LIS2DE12_ODR_25Hz:
 479:../Drivers/BSP/Components/lis2de12/lis2de12.c ****         *val = LIS2DE12_ODR_25Hz;
 1700              		.loc 1 479 14
 1701 006c 7B68     		ldr	r3, [r7, #4]
 1702 006e 0322     		movs	r2, #3
 1703 0070 1A70     		strb	r2, [r3]
 480:../Drivers/BSP/Components/lis2de12/lis2de12.c ****         break;
 1704              		.loc 1 480 9
 1705 0072 1BE0     		b	.L104
 1706              	.L99:
 481:../Drivers/BSP/Components/lis2de12/lis2de12.c ****     case LIS2DE12_ODR_50Hz:
 482:../Drivers/BSP/Components/lis2de12/lis2de12.c ****         *val = LIS2DE12_ODR_50Hz;
 1707              		.loc 1 482 14
 1708 0074 7B68     		ldr	r3, [r7, #4]
 1709 0076 0422     		movs	r2, #4
 1710 0078 1A70     		strb	r2, [r3]
 483:../Drivers/BSP/Components/lis2de12/lis2de12.c ****         break;
 1711              		.loc 1 483 9
 1712 007a 17E0     		b	.L104
 1713              	.L98:
 484:../Drivers/BSP/Components/lis2de12/lis2de12.c ****     case LIS2DE12_ODR_100Hz:
 485:../Drivers/BSP/Components/lis2de12/lis2de12.c ****         *val = LIS2DE12_ODR_100Hz;
 1714              		.loc 1 485 14
 1715 007c 7B68     		ldr	r3, [r7, #4]
 1716 007e 0522     		movs	r2, #5
 1717 0080 1A70     		strb	r2, [r3]
 486:../Drivers/BSP/Components/lis2de12/lis2de12.c ****         break;
 1718              		.loc 1 486 9
 1719 0082 13E0     		b	.L104
 1720              	.L97:
 487:../Drivers/BSP/Components/lis2de12/lis2de12.c ****     case LIS2DE12_ODR_200Hz:
 488:../Drivers/BSP/Components/lis2de12/lis2de12.c ****         *val = LIS2DE12_ODR_200Hz;
 1721              		.loc 1 488 14
 1722 0084 7B68     		ldr	r3, [r7, #4]
 1723 0086 0622     		movs	r2, #6
 1724 0088 1A70     		strb	r2, [r3]
 489:../Drivers/BSP/Components/lis2de12/lis2de12.c ****         break;
 1725              		.loc 1 489 9
 1726 008a 0FE0     		b	.L104
ARM GAS  /tmp/ccjphgoR.s 			page 39


 1727              	.L96:
 490:../Drivers/BSP/Components/lis2de12/lis2de12.c ****     case LIS2DE12_ODR_400Hz:
 491:../Drivers/BSP/Components/lis2de12/lis2de12.c ****         *val = LIS2DE12_ODR_400Hz;
 1728              		.loc 1 491 14
 1729 008c 7B68     		ldr	r3, [r7, #4]
 1730 008e 0722     		movs	r2, #7
 1731 0090 1A70     		strb	r2, [r3]
 492:../Drivers/BSP/Components/lis2de12/lis2de12.c ****         break;
 1732              		.loc 1 492 9
 1733 0092 0BE0     		b	.L104
 1734              	.L95:
 493:../Drivers/BSP/Components/lis2de12/lis2de12.c ****     case LIS2DE12_ODR_1kHz620_LP:
 494:../Drivers/BSP/Components/lis2de12/lis2de12.c ****         *val = LIS2DE12_ODR_1kHz620_LP;
 1735              		.loc 1 494 14
 1736 0094 7B68     		ldr	r3, [r7, #4]
 1737 0096 0822     		movs	r2, #8
 1738 0098 1A70     		strb	r2, [r3]
 495:../Drivers/BSP/Components/lis2de12/lis2de12.c ****         break;
 1739              		.loc 1 495 9
 1740 009a 07E0     		b	.L104
 1741              	.L93:
 496:../Drivers/BSP/Components/lis2de12/lis2de12.c ****     case LIS2DE12_ODR_5kHz376_LP_1kHz344_NM_HP:
 497:../Drivers/BSP/Components/lis2de12/lis2de12.c ****         *val = LIS2DE12_ODR_5kHz376_LP_1kHz344_NM_HP;
 1742              		.loc 1 497 14
 1743 009c 7B68     		ldr	r3, [r7, #4]
 1744 009e 0922     		movs	r2, #9
 1745 00a0 1A70     		strb	r2, [r3]
 498:../Drivers/BSP/Components/lis2de12/lis2de12.c ****         break;
 1746              		.loc 1 498 9
 1747 00a2 03E0     		b	.L104
 1748              	.L92:
 499:../Drivers/BSP/Components/lis2de12/lis2de12.c ****     default:
 500:../Drivers/BSP/Components/lis2de12/lis2de12.c ****         *val = LIS2DE12_POWER_DOWN;
 1749              		.loc 1 500 14
 1750 00a4 7B68     		ldr	r3, [r7, #4]
 1751 00a6 0022     		movs	r2, #0
 1752 00a8 1A70     		strb	r2, [r3]
 501:../Drivers/BSP/Components/lis2de12/lis2de12.c ****         break;
 1753              		.loc 1 501 9
 1754 00aa 00BF     		nop
 1755              	.L104:
 502:../Drivers/BSP/Components/lis2de12/lis2de12.c ****     }
 503:../Drivers/BSP/Components/lis2de12/lis2de12.c ****     return ret;
 1756              		.loc 1 503 12
 1757 00ac FB68     		ldr	r3, [r7, #12]
 504:../Drivers/BSP/Components/lis2de12/lis2de12.c **** }
 1758              		.loc 1 504 1
 1759 00ae 1846     		mov	r0, r3
 1760 00b0 1037     		adds	r7, r7, #16
 1761              	.LCFI119:
 1762              		.cfi_def_cfa_offset 8
 1763 00b2 BD46     		mov	sp, r7
 1764              	.LCFI120:
 1765              		.cfi_def_cfa_register 13
 1766              		@ sp needed
 1767 00b4 80BD     		pop	{r7, pc}
 1768              		.cfi_endproc
ARM GAS  /tmp/ccjphgoR.s 			page 40


 1769              	.LFE613:
 1771 00b6 00BF     		.section	.text.lis2de12_high_pass_on_outputs_set,"ax",%progbits
 1772              		.align	1
 1773              		.global	lis2de12_high_pass_on_outputs_set
 1774              		.syntax unified
 1775              		.thumb
 1776              		.thumb_func
 1777              		.fpu fpv4-sp-d16
 1779              	lis2de12_high_pass_on_outputs_set:
 1780              	.LFB614:
 505:../Drivers/BSP/Components/lis2de12/lis2de12.c **** 
 506:../Drivers/BSP/Components/lis2de12/lis2de12.c **** /**
 507:../Drivers/BSP/Components/lis2de12/lis2de12.c ****   * @brief   High pass data from internal filter sent to output register
 508:../Drivers/BSP/Components/lis2de12/lis2de12.c ****   *          and FIFO.
 509:../Drivers/BSP/Components/lis2de12/lis2de12.c ****   *
 510:../Drivers/BSP/Components/lis2de12/lis2de12.c **** 
 511:../Drivers/BSP/Components/lis2de12/lis2de12.c ****   * @param  val      change the values of fds in reg CTRL_REG2
 512:../Drivers/BSP/Components/lis2de12/lis2de12.c ****   * @retval          interface status (MANDATORY: return 0 -> no Error)
 513:../Drivers/BSP/Components/lis2de12/lis2de12.c ****   *
 514:../Drivers/BSP/Components/lis2de12/lis2de12.c ****   */
 515:../Drivers/BSP/Components/lis2de12/lis2de12.c **** int32_t lis2de12_high_pass_on_outputs_set( uint8_t val )
 516:../Drivers/BSP/Components/lis2de12/lis2de12.c **** {
 1781              		.loc 1 516 1
 1782              		.cfi_startproc
 1783              		@ args = 0, pretend = 0, frame = 16
 1784              		@ frame_needed = 1, uses_anonymous_args = 0
 1785 0000 80B5     		push	{r7, lr}
 1786              	.LCFI121:
 1787              		.cfi_def_cfa_offset 8
 1788              		.cfi_offset 7, -8
 1789              		.cfi_offset 14, -4
 1790 0002 84B0     		sub	sp, sp, #16
 1791              	.LCFI122:
 1792              		.cfi_def_cfa_offset 24
 1793 0004 00AF     		add	r7, sp, #0
 1794              	.LCFI123:
 1795              		.cfi_def_cfa_register 7
 1796 0006 0346     		mov	r3, r0
 1797 0008 FB71     		strb	r3, [r7, #7]
 517:../Drivers/BSP/Components/lis2de12/lis2de12.c ****     lis2de12_ctrl_reg2_t ctrl_reg2;
 518:../Drivers/BSP/Components/lis2de12/lis2de12.c ****     int32_t              ret;
 519:../Drivers/BSP/Components/lis2de12/lis2de12.c **** 
 520:../Drivers/BSP/Components/lis2de12/lis2de12.c ****     ret = lis2de12_read_reg( LIS2DE12_CTRL_REG2, ( uint8_t* ) &ctrl_reg2, 1 );
 1798              		.loc 1 520 11
 1799 000a 07F10803 		add	r3, r7, #8
 1800 000e 0122     		movs	r2, #1
 1801 0010 1946     		mov	r1, r3
 1802 0012 2120     		movs	r0, #33
 1803 0014 FFF7FEFF 		bl	lis2de12_read_reg
 1804 0018 F860     		str	r0, [r7, #12]
 521:../Drivers/BSP/Components/lis2de12/lis2de12.c ****     if( ret == 0 )
 1805              		.loc 1 521 7
 1806 001a FB68     		ldr	r3, [r7, #12]
 1807 001c 002B     		cmp	r3, #0
 1808 001e 0FD1     		bne	.L107
 522:../Drivers/BSP/Components/lis2de12/lis2de12.c ****     {
 523:../Drivers/BSP/Components/lis2de12/lis2de12.c ****         ctrl_reg2.fds = val;
ARM GAS  /tmp/ccjphgoR.s 			page 41


 1809              		.loc 1 523 23
 1810 0020 FB79     		ldrb	r3, [r7, #7]
 1811 0022 03F00103 		and	r3, r3, #1
 1812 0026 DAB2     		uxtb	r2, r3
 1813 0028 3B7A     		ldrb	r3, [r7, #8]
 1814 002a 62F3C303 		bfi	r3, r2, #3, #1
 1815 002e 3B72     		strb	r3, [r7, #8]
 524:../Drivers/BSP/Components/lis2de12/lis2de12.c ****         ret           = lis2de12_write_reg( LIS2DE12_CTRL_REG2, ( uint8_t* ) &ctrl_reg2, 1 );
 1816              		.loc 1 524 25
 1817 0030 07F10803 		add	r3, r7, #8
 1818 0034 0122     		movs	r2, #1
 1819 0036 1946     		mov	r1, r3
 1820 0038 2120     		movs	r0, #33
 1821 003a FFF7FEFF 		bl	lis2de12_write_reg
 1822 003e F860     		str	r0, [r7, #12]
 1823              	.L107:
 525:../Drivers/BSP/Components/lis2de12/lis2de12.c ****     }
 526:../Drivers/BSP/Components/lis2de12/lis2de12.c ****     return ret;
 1824              		.loc 1 526 12
 1825 0040 FB68     		ldr	r3, [r7, #12]
 527:../Drivers/BSP/Components/lis2de12/lis2de12.c **** }
 1826              		.loc 1 527 1
 1827 0042 1846     		mov	r0, r3
 1828 0044 1037     		adds	r7, r7, #16
 1829              	.LCFI124:
 1830              		.cfi_def_cfa_offset 8
 1831 0046 BD46     		mov	sp, r7
 1832              	.LCFI125:
 1833              		.cfi_def_cfa_register 13
 1834              		@ sp needed
 1835 0048 80BD     		pop	{r7, pc}
 1836              		.cfi_endproc
 1837              	.LFE614:
 1839              		.section	.text.lis2de12_high_pass_on_outputs_get,"ax",%progbits
 1840              		.align	1
 1841              		.global	lis2de12_high_pass_on_outputs_get
 1842              		.syntax unified
 1843              		.thumb
 1844              		.thumb_func
 1845              		.fpu fpv4-sp-d16
 1847              	lis2de12_high_pass_on_outputs_get:
 1848              	.LFB615:
 528:../Drivers/BSP/Components/lis2de12/lis2de12.c **** 
 529:../Drivers/BSP/Components/lis2de12/lis2de12.c **** /**
 530:../Drivers/BSP/Components/lis2de12/lis2de12.c ****   * @brief   High pass data from internal filter sent to output register
 531:../Drivers/BSP/Components/lis2de12/lis2de12.c ****   *          and FIFO.[get]
 532:../Drivers/BSP/Components/lis2de12/lis2de12.c ****   *
 533:../Drivers/BSP/Components/lis2de12/lis2de12.c **** 
 534:../Drivers/BSP/Components/lis2de12/lis2de12.c ****   * @param  val      change the values of fds in reg CTRL_REG2
 535:../Drivers/BSP/Components/lis2de12/lis2de12.c ****   * @retval          interface status (MANDATORY: return 0 -> no Error)
 536:../Drivers/BSP/Components/lis2de12/lis2de12.c ****   *
 537:../Drivers/BSP/Components/lis2de12/lis2de12.c ****   */
 538:../Drivers/BSP/Components/lis2de12/lis2de12.c **** int32_t lis2de12_high_pass_on_outputs_get( uint8_t* val )
 539:../Drivers/BSP/Components/lis2de12/lis2de12.c **** {
 1849              		.loc 1 539 1
 1850              		.cfi_startproc
 1851              		@ args = 0, pretend = 0, frame = 16
ARM GAS  /tmp/ccjphgoR.s 			page 42


 1852              		@ frame_needed = 1, uses_anonymous_args = 0
 1853 0000 80B5     		push	{r7, lr}
 1854              	.LCFI126:
 1855              		.cfi_def_cfa_offset 8
 1856              		.cfi_offset 7, -8
 1857              		.cfi_offset 14, -4
 1858 0002 84B0     		sub	sp, sp, #16
 1859              	.LCFI127:
 1860              		.cfi_def_cfa_offset 24
 1861 0004 00AF     		add	r7, sp, #0
 1862              	.LCFI128:
 1863              		.cfi_def_cfa_register 7
 1864 0006 7860     		str	r0, [r7, #4]
 540:../Drivers/BSP/Components/lis2de12/lis2de12.c ****     lis2de12_ctrl_reg2_t ctrl_reg2;
 541:../Drivers/BSP/Components/lis2de12/lis2de12.c ****     int32_t              ret;
 542:../Drivers/BSP/Components/lis2de12/lis2de12.c **** 
 543:../Drivers/BSP/Components/lis2de12/lis2de12.c ****     ret  = lis2de12_read_reg( LIS2DE12_CTRL_REG2, ( uint8_t* ) &ctrl_reg2, 1 );
 1865              		.loc 1 543 12
 1866 0008 07F10803 		add	r3, r7, #8
 1867 000c 0122     		movs	r2, #1
 1868 000e 1946     		mov	r1, r3
 1869 0010 2120     		movs	r0, #33
 1870 0012 FFF7FEFF 		bl	lis2de12_read_reg
 1871 0016 F860     		str	r0, [r7, #12]
 544:../Drivers/BSP/Components/lis2de12/lis2de12.c ****     *val = ( uint8_t ) ctrl_reg2.fds;
 1872              		.loc 1 544 33
 1873 0018 3B7A     		ldrb	r3, [r7, #8]
 1874 001a C3F3C003 		ubfx	r3, r3, #3, #1
 1875 001e DBB2     		uxtb	r3, r3
 1876              		.loc 1 544 12
 1877 0020 1A46     		mov	r2, r3
 1878              		.loc 1 544 10
 1879 0022 7B68     		ldr	r3, [r7, #4]
 1880 0024 1A70     		strb	r2, [r3]
 545:../Drivers/BSP/Components/lis2de12/lis2de12.c **** 
 546:../Drivers/BSP/Components/lis2de12/lis2de12.c ****     return ret;
 1881              		.loc 1 546 12
 1882 0026 FB68     		ldr	r3, [r7, #12]
 547:../Drivers/BSP/Components/lis2de12/lis2de12.c **** }
 1883              		.loc 1 547 1
 1884 0028 1846     		mov	r0, r3
 1885 002a 1037     		adds	r7, r7, #16
 1886              	.LCFI129:
 1887              		.cfi_def_cfa_offset 8
 1888 002c BD46     		mov	sp, r7
 1889              	.LCFI130:
 1890              		.cfi_def_cfa_register 13
 1891              		@ sp needed
 1892 002e 80BD     		pop	{r7, pc}
 1893              		.cfi_endproc
 1894              	.LFE615:
 1896              		.section	.text.lis2de12_high_pass_bandwidth_set,"ax",%progbits
 1897              		.align	1
 1898              		.global	lis2de12_high_pass_bandwidth_set
 1899              		.syntax unified
 1900              		.thumb
 1901              		.thumb_func
ARM GAS  /tmp/ccjphgoR.s 			page 43


 1902              		.fpu fpv4-sp-d16
 1904              	lis2de12_high_pass_bandwidth_set:
 1905              	.LFB616:
 548:../Drivers/BSP/Components/lis2de12/lis2de12.c **** 
 549:../Drivers/BSP/Components/lis2de12/lis2de12.c **** /**
 550:../Drivers/BSP/Components/lis2de12/lis2de12.c ****   * @brief   High-pass filter cutoff frequency selection.[set]
 551:../Drivers/BSP/Components/lis2de12/lis2de12.c ****   *
 552:../Drivers/BSP/Components/lis2de12/lis2de12.c ****   * HPCF[2:1]\ft @1Hz    @10Hz  @25Hz  @50Hz @100Hz @200Hz @400Hz @1kHz6 ft@5kHz
 553:../Drivers/BSP/Components/lis2de12/lis2de12.c ****   * AGGRESSIVE   0.02Hz  0.2Hz  0.5Hz  1Hz   2Hz    4Hz    8Hz    32Hz   100Hz
 554:../Drivers/BSP/Components/lis2de12/lis2de12.c ****   * STRONG       0.008Hz 0.08Hz 0.2Hz  0.5Hz 1Hz    2Hz    4Hz    16Hz   50Hz
 555:../Drivers/BSP/Components/lis2de12/lis2de12.c ****   * MEDIUM       0.004Hz 0.04Hz 0.1Hz  0.2Hz 0.5Hz  1Hz    2Hz    8Hz    25Hz
 556:../Drivers/BSP/Components/lis2de12/lis2de12.c ****   * LIGHT        0.002Hz 0.02Hz 0.05Hz 0.1Hz 0.2Hz  0.5Hz  1Hz    4Hz    12Hz
 557:../Drivers/BSP/Components/lis2de12/lis2de12.c ****   *
 558:../Drivers/BSP/Components/lis2de12/lis2de12.c **** 
 559:../Drivers/BSP/Components/lis2de12/lis2de12.c ****   * @param  val      change the values of hpcf in reg CTRL_REG2
 560:../Drivers/BSP/Components/lis2de12/lis2de12.c ****   * @retval          interface status (MANDATORY: return 0 -> no Error)
 561:../Drivers/BSP/Components/lis2de12/lis2de12.c ****   *
 562:../Drivers/BSP/Components/lis2de12/lis2de12.c ****   */
 563:../Drivers/BSP/Components/lis2de12/lis2de12.c **** int32_t lis2de12_high_pass_bandwidth_set( lis2de12_hpcf_t val )
 564:../Drivers/BSP/Components/lis2de12/lis2de12.c **** {
 1906              		.loc 1 564 1
 1907              		.cfi_startproc
 1908              		@ args = 0, pretend = 0, frame = 16
 1909              		@ frame_needed = 1, uses_anonymous_args = 0
 1910 0000 80B5     		push	{r7, lr}
 1911              	.LCFI131:
 1912              		.cfi_def_cfa_offset 8
 1913              		.cfi_offset 7, -8
 1914              		.cfi_offset 14, -4
 1915 0002 84B0     		sub	sp, sp, #16
 1916              	.LCFI132:
 1917              		.cfi_def_cfa_offset 24
 1918 0004 00AF     		add	r7, sp, #0
 1919              	.LCFI133:
 1920              		.cfi_def_cfa_register 7
 1921 0006 0346     		mov	r3, r0
 1922 0008 FB71     		strb	r3, [r7, #7]
 565:../Drivers/BSP/Components/lis2de12/lis2de12.c ****     lis2de12_ctrl_reg2_t ctrl_reg2;
 566:../Drivers/BSP/Components/lis2de12/lis2de12.c ****     int32_t              ret;
 567:../Drivers/BSP/Components/lis2de12/lis2de12.c **** 
 568:../Drivers/BSP/Components/lis2de12/lis2de12.c ****     ret = lis2de12_read_reg( LIS2DE12_CTRL_REG2, ( uint8_t* ) &ctrl_reg2, 1 );
 1923              		.loc 1 568 11
 1924 000a 07F10803 		add	r3, r7, #8
 1925 000e 0122     		movs	r2, #1
 1926 0010 1946     		mov	r1, r3
 1927 0012 2120     		movs	r0, #33
 1928 0014 FFF7FEFF 		bl	lis2de12_read_reg
 1929 0018 F860     		str	r0, [r7, #12]
 569:../Drivers/BSP/Components/lis2de12/lis2de12.c ****     if( ret == 0 )
 1930              		.loc 1 569 7
 1931 001a FB68     		ldr	r3, [r7, #12]
 1932 001c 002B     		cmp	r3, #0
 1933 001e 0FD1     		bne	.L112
 570:../Drivers/BSP/Components/lis2de12/lis2de12.c ****     {
 571:../Drivers/BSP/Components/lis2de12/lis2de12.c ****         ctrl_reg2.hpcf = ( uint8_t ) val;
 1934              		.loc 1 571 26
 1935 0020 FB79     		ldrb	r3, [r7, #7]
ARM GAS  /tmp/ccjphgoR.s 			page 44


 1936 0022 03F00303 		and	r3, r3, #3
 1937 0026 DAB2     		uxtb	r2, r3
 1938              		.loc 1 571 24
 1939 0028 3B7A     		ldrb	r3, [r7, #8]
 1940 002a 62F30513 		bfi	r3, r2, #4, #2
 1941 002e 3B72     		strb	r3, [r7, #8]
 572:../Drivers/BSP/Components/lis2de12/lis2de12.c ****         ret            = lis2de12_write_reg( LIS2DE12_CTRL_REG2, ( uint8_t* ) &ctrl_reg2, 1 );
 1942              		.loc 1 572 26
 1943 0030 07F10803 		add	r3, r7, #8
 1944 0034 0122     		movs	r2, #1
 1945 0036 1946     		mov	r1, r3
 1946 0038 2120     		movs	r0, #33
 1947 003a FFF7FEFF 		bl	lis2de12_write_reg
 1948 003e F860     		str	r0, [r7, #12]
 1949              	.L112:
 573:../Drivers/BSP/Components/lis2de12/lis2de12.c ****     }
 574:../Drivers/BSP/Components/lis2de12/lis2de12.c ****     return ret;
 1950              		.loc 1 574 12
 1951 0040 FB68     		ldr	r3, [r7, #12]
 575:../Drivers/BSP/Components/lis2de12/lis2de12.c **** }
 1952              		.loc 1 575 1
 1953 0042 1846     		mov	r0, r3
 1954 0044 1037     		adds	r7, r7, #16
 1955              	.LCFI134:
 1956              		.cfi_def_cfa_offset 8
 1957 0046 BD46     		mov	sp, r7
 1958              	.LCFI135:
 1959              		.cfi_def_cfa_register 13
 1960              		@ sp needed
 1961 0048 80BD     		pop	{r7, pc}
 1962              		.cfi_endproc
 1963              	.LFE616:
 1965              		.section	.text.lis2de12_high_pass_bandwidth_get,"ax",%progbits
 1966              		.align	1
 1967              		.global	lis2de12_high_pass_bandwidth_get
 1968              		.syntax unified
 1969              		.thumb
 1970              		.thumb_func
 1971              		.fpu fpv4-sp-d16
 1973              	lis2de12_high_pass_bandwidth_get:
 1974              	.LFB617:
 576:../Drivers/BSP/Components/lis2de12/lis2de12.c **** 
 577:../Drivers/BSP/Components/lis2de12/lis2de12.c **** /**
 578:../Drivers/BSP/Components/lis2de12/lis2de12.c ****   * @brief   High-pass filter cutoff frequency selection.[get]
 579:../Drivers/BSP/Components/lis2de12/lis2de12.c ****   *
 580:../Drivers/BSP/Components/lis2de12/lis2de12.c ****   * HPCF[2:1]\ft @1Hz    @10Hz  @25Hz  @50Hz @100Hz @200Hz @400Hz @1kHz6 ft@5kHz
 581:../Drivers/BSP/Components/lis2de12/lis2de12.c ****   * AGGRESSIVE   0.02Hz  0.2Hz  0.5Hz  1Hz   2Hz    4Hz    8Hz    32Hz   100Hz
 582:../Drivers/BSP/Components/lis2de12/lis2de12.c ****   * STRONG       0.008Hz 0.08Hz 0.2Hz  0.5Hz 1Hz    2Hz    4Hz    16Hz   50Hz
 583:../Drivers/BSP/Components/lis2de12/lis2de12.c ****   * MEDIUM       0.004Hz 0.04Hz 0.1Hz  0.2Hz 0.5Hz  1Hz    2Hz    8Hz    25Hz
 584:../Drivers/BSP/Components/lis2de12/lis2de12.c ****   * LIGHT        0.002Hz 0.02Hz 0.05Hz 0.1Hz 0.2Hz  0.5Hz  1Hz    4Hz    12Hz
 585:../Drivers/BSP/Components/lis2de12/lis2de12.c ****   *
 586:../Drivers/BSP/Components/lis2de12/lis2de12.c **** 
 587:../Drivers/BSP/Components/lis2de12/lis2de12.c ****   * @param  val      get the values of hpcf in reg CTRL_REG2
 588:../Drivers/BSP/Components/lis2de12/lis2de12.c ****   * @retval          interface status (MANDATORY: return 0 -> no Error)
 589:../Drivers/BSP/Components/lis2de12/lis2de12.c ****   *
 590:../Drivers/BSP/Components/lis2de12/lis2de12.c ****   */
 591:../Drivers/BSP/Components/lis2de12/lis2de12.c **** int32_t lis2de12_high_pass_bandwidth_get( lis2de12_hpcf_t* val )
ARM GAS  /tmp/ccjphgoR.s 			page 45


 592:../Drivers/BSP/Components/lis2de12/lis2de12.c **** {
 1975              		.loc 1 592 1
 1976              		.cfi_startproc
 1977              		@ args = 0, pretend = 0, frame = 16
 1978              		@ frame_needed = 1, uses_anonymous_args = 0
 1979 0000 80B5     		push	{r7, lr}
 1980              	.LCFI136:
 1981              		.cfi_def_cfa_offset 8
 1982              		.cfi_offset 7, -8
 1983              		.cfi_offset 14, -4
 1984 0002 84B0     		sub	sp, sp, #16
 1985              	.LCFI137:
 1986              		.cfi_def_cfa_offset 24
 1987 0004 00AF     		add	r7, sp, #0
 1988              	.LCFI138:
 1989              		.cfi_def_cfa_register 7
 1990 0006 7860     		str	r0, [r7, #4]
 593:../Drivers/BSP/Components/lis2de12/lis2de12.c ****     lis2de12_ctrl_reg2_t ctrl_reg2;
 594:../Drivers/BSP/Components/lis2de12/lis2de12.c ****     int32_t              ret;
 595:../Drivers/BSP/Components/lis2de12/lis2de12.c **** 
 596:../Drivers/BSP/Components/lis2de12/lis2de12.c ****     ret = lis2de12_read_reg( LIS2DE12_CTRL_REG2, ( uint8_t* ) &ctrl_reg2, 1 );
 1991              		.loc 1 596 11
 1992 0008 07F10803 		add	r3, r7, #8
 1993 000c 0122     		movs	r2, #1
 1994 000e 1946     		mov	r1, r3
 1995 0010 2120     		movs	r0, #33
 1996 0012 FFF7FEFF 		bl	lis2de12_read_reg
 1997 0016 F860     		str	r0, [r7, #12]
 597:../Drivers/BSP/Components/lis2de12/lis2de12.c ****     switch( ctrl_reg2.hpcf )
 1998              		.loc 1 597 22
 1999 0018 3B7A     		ldrb	r3, [r7, #8]
 2000 001a C3F30113 		ubfx	r3, r3, #4, #2
 2001 001e DBB2     		uxtb	r3, r3
 2002              		.loc 1 597 5
 2003 0020 032B     		cmp	r3, #3
 2004 0022 1BD8     		bhi	.L115
 2005 0024 01A2     		adr	r2, .L117
 2006 0026 52F823F0 		ldr	pc, [r2, r3, lsl #2]
 2007 002a 00BF     		.p2align 2
 2008              	.L117:
 2009 002c 3D000000 		.word	.L120+1
 2010 0030 45000000 		.word	.L119+1
 2011 0034 4D000000 		.word	.L118+1
 2012 0038 55000000 		.word	.L116+1
 2013              		.p2align 1
 2014              	.L120:
 598:../Drivers/BSP/Components/lis2de12/lis2de12.c ****     {
 599:../Drivers/BSP/Components/lis2de12/lis2de12.c ****     case LIS2DE12_AGGRESSIVE:
 600:../Drivers/BSP/Components/lis2de12/lis2de12.c ****         *val = LIS2DE12_AGGRESSIVE;
 2015              		.loc 1 600 14
 2016 003c 7B68     		ldr	r3, [r7, #4]
 2017 003e 0022     		movs	r2, #0
 2018 0040 1A70     		strb	r2, [r3]
 601:../Drivers/BSP/Components/lis2de12/lis2de12.c ****         break;
 2019              		.loc 1 601 9
 2020 0042 0FE0     		b	.L121
 2021              	.L119:
ARM GAS  /tmp/ccjphgoR.s 			page 46


 602:../Drivers/BSP/Components/lis2de12/lis2de12.c ****     case LIS2DE12_STRONG:
 603:../Drivers/BSP/Components/lis2de12/lis2de12.c ****         *val = LIS2DE12_STRONG;
 2022              		.loc 1 603 14
 2023 0044 7B68     		ldr	r3, [r7, #4]
 2024 0046 0122     		movs	r2, #1
 2025 0048 1A70     		strb	r2, [r3]
 604:../Drivers/BSP/Components/lis2de12/lis2de12.c ****         break;
 2026              		.loc 1 604 9
 2027 004a 0BE0     		b	.L121
 2028              	.L118:
 605:../Drivers/BSP/Components/lis2de12/lis2de12.c ****     case LIS2DE12_MEDIUM:
 606:../Drivers/BSP/Components/lis2de12/lis2de12.c ****         *val = LIS2DE12_MEDIUM;
 2029              		.loc 1 606 14
 2030 004c 7B68     		ldr	r3, [r7, #4]
 2031 004e 0222     		movs	r2, #2
 2032 0050 1A70     		strb	r2, [r3]
 607:../Drivers/BSP/Components/lis2de12/lis2de12.c ****         break;
 2033              		.loc 1 607 9
 2034 0052 07E0     		b	.L121
 2035              	.L116:
 608:../Drivers/BSP/Components/lis2de12/lis2de12.c ****     case LIS2DE12_LIGHT:
 609:../Drivers/BSP/Components/lis2de12/lis2de12.c ****         *val = LIS2DE12_LIGHT;
 2036              		.loc 1 609 14
 2037 0054 7B68     		ldr	r3, [r7, #4]
 2038 0056 0322     		movs	r2, #3
 2039 0058 1A70     		strb	r2, [r3]
 610:../Drivers/BSP/Components/lis2de12/lis2de12.c ****         break;
 2040              		.loc 1 610 9
 2041 005a 03E0     		b	.L121
 2042              	.L115:
 611:../Drivers/BSP/Components/lis2de12/lis2de12.c ****     default:
 612:../Drivers/BSP/Components/lis2de12/lis2de12.c ****         *val = LIS2DE12_LIGHT;
 2043              		.loc 1 612 14
 2044 005c 7B68     		ldr	r3, [r7, #4]
 2045 005e 0322     		movs	r2, #3
 2046 0060 1A70     		strb	r2, [r3]
 613:../Drivers/BSP/Components/lis2de12/lis2de12.c ****         break;
 2047              		.loc 1 613 9
 2048 0062 00BF     		nop
 2049              	.L121:
 614:../Drivers/BSP/Components/lis2de12/lis2de12.c ****     }
 615:../Drivers/BSP/Components/lis2de12/lis2de12.c ****     return ret;
 2050              		.loc 1 615 12
 2051 0064 FB68     		ldr	r3, [r7, #12]
 616:../Drivers/BSP/Components/lis2de12/lis2de12.c **** }
 2052              		.loc 1 616 1
 2053 0066 1846     		mov	r0, r3
 2054 0068 1037     		adds	r7, r7, #16
 2055              	.LCFI139:
 2056              		.cfi_def_cfa_offset 8
 2057 006a BD46     		mov	sp, r7
 2058              	.LCFI140:
 2059              		.cfi_def_cfa_register 13
 2060              		@ sp needed
 2061 006c 80BD     		pop	{r7, pc}
 2062              		.cfi_endproc
 2063              	.LFE617:
ARM GAS  /tmp/ccjphgoR.s 			page 47


 2065 006e 00BF     		.section	.text.lis2de12_high_pass_mode_set,"ax",%progbits
 2066              		.align	1
 2067              		.global	lis2de12_high_pass_mode_set
 2068              		.syntax unified
 2069              		.thumb
 2070              		.thumb_func
 2071              		.fpu fpv4-sp-d16
 2073              	lis2de12_high_pass_mode_set:
 2074              	.LFB618:
 617:../Drivers/BSP/Components/lis2de12/lis2de12.c **** 
 618:../Drivers/BSP/Components/lis2de12/lis2de12.c **** /**
 619:../Drivers/BSP/Components/lis2de12/lis2de12.c ****   * @brief  High-pass filter mode selection.[set]
 620:../Drivers/BSP/Components/lis2de12/lis2de12.c ****   *
 621:../Drivers/BSP/Components/lis2de12/lis2de12.c **** 
 622:../Drivers/BSP/Components/lis2de12/lis2de12.c ****   * @param  val      change the values of hpm in reg CTRL_REG2
 623:../Drivers/BSP/Components/lis2de12/lis2de12.c ****   * @retval          interface status (MANDATORY: return 0 -> no Error)
 624:../Drivers/BSP/Components/lis2de12/lis2de12.c ****   *
 625:../Drivers/BSP/Components/lis2de12/lis2de12.c ****   */
 626:../Drivers/BSP/Components/lis2de12/lis2de12.c **** int32_t lis2de12_high_pass_mode_set( lis2de12_hpm_t val )
 627:../Drivers/BSP/Components/lis2de12/lis2de12.c **** {
 2075              		.loc 1 627 1
 2076              		.cfi_startproc
 2077              		@ args = 0, pretend = 0, frame = 16
 2078              		@ frame_needed = 1, uses_anonymous_args = 0
 2079 0000 80B5     		push	{r7, lr}
 2080              	.LCFI141:
 2081              		.cfi_def_cfa_offset 8
 2082              		.cfi_offset 7, -8
 2083              		.cfi_offset 14, -4
 2084 0002 84B0     		sub	sp, sp, #16
 2085              	.LCFI142:
 2086              		.cfi_def_cfa_offset 24
 2087 0004 00AF     		add	r7, sp, #0
 2088              	.LCFI143:
 2089              		.cfi_def_cfa_register 7
 2090 0006 0346     		mov	r3, r0
 2091 0008 FB71     		strb	r3, [r7, #7]
 628:../Drivers/BSP/Components/lis2de12/lis2de12.c ****     lis2de12_ctrl_reg2_t ctrl_reg2;
 629:../Drivers/BSP/Components/lis2de12/lis2de12.c ****     int32_t              ret;
 630:../Drivers/BSP/Components/lis2de12/lis2de12.c **** 
 631:../Drivers/BSP/Components/lis2de12/lis2de12.c ****     ret = lis2de12_read_reg( LIS2DE12_CTRL_REG2, ( uint8_t* ) &ctrl_reg2, 1 );
 2092              		.loc 1 631 11
 2093 000a 07F10803 		add	r3, r7, #8
 2094 000e 0122     		movs	r2, #1
 2095 0010 1946     		mov	r1, r3
 2096 0012 2120     		movs	r0, #33
 2097 0014 FFF7FEFF 		bl	lis2de12_read_reg
 2098 0018 F860     		str	r0, [r7, #12]
 632:../Drivers/BSP/Components/lis2de12/lis2de12.c ****     if( ret == 0 )
 2099              		.loc 1 632 7
 2100 001a FB68     		ldr	r3, [r7, #12]
 2101 001c 002B     		cmp	r3, #0
 2102 001e 0FD1     		bne	.L124
 633:../Drivers/BSP/Components/lis2de12/lis2de12.c ****     {
 634:../Drivers/BSP/Components/lis2de12/lis2de12.c ****         ctrl_reg2.hpm = ( uint8_t ) val;
 2103              		.loc 1 634 25
 2104 0020 FB79     		ldrb	r3, [r7, #7]
ARM GAS  /tmp/ccjphgoR.s 			page 48


 2105 0022 03F00303 		and	r3, r3, #3
 2106 0026 DAB2     		uxtb	r2, r3
 2107              		.loc 1 634 23
 2108 0028 3B7A     		ldrb	r3, [r7, #8]
 2109 002a 62F38713 		bfi	r3, r2, #6, #2
 2110 002e 3B72     		strb	r3, [r7, #8]
 635:../Drivers/BSP/Components/lis2de12/lis2de12.c ****         ret           = lis2de12_write_reg( LIS2DE12_CTRL_REG2, ( uint8_t* ) &ctrl_reg2, 1 );
 2111              		.loc 1 635 25
 2112 0030 07F10803 		add	r3, r7, #8
 2113 0034 0122     		movs	r2, #1
 2114 0036 1946     		mov	r1, r3
 2115 0038 2120     		movs	r0, #33
 2116 003a FFF7FEFF 		bl	lis2de12_write_reg
 2117 003e F860     		str	r0, [r7, #12]
 2118              	.L124:
 636:../Drivers/BSP/Components/lis2de12/lis2de12.c ****     }
 637:../Drivers/BSP/Components/lis2de12/lis2de12.c ****     return ret;
 2119              		.loc 1 637 12
 2120 0040 FB68     		ldr	r3, [r7, #12]
 638:../Drivers/BSP/Components/lis2de12/lis2de12.c **** }
 2121              		.loc 1 638 1
 2122 0042 1846     		mov	r0, r3
 2123 0044 1037     		adds	r7, r7, #16
 2124              	.LCFI144:
 2125              		.cfi_def_cfa_offset 8
 2126 0046 BD46     		mov	sp, r7
 2127              	.LCFI145:
 2128              		.cfi_def_cfa_register 13
 2129              		@ sp needed
 2130 0048 80BD     		pop	{r7, pc}
 2131              		.cfi_endproc
 2132              	.LFE618:
 2134              		.section	.text.lis2de12_high_pass_mode_get,"ax",%progbits
 2135              		.align	1
 2136              		.global	lis2de12_high_pass_mode_get
 2137              		.syntax unified
 2138              		.thumb
 2139              		.thumb_func
 2140              		.fpu fpv4-sp-d16
 2142              	lis2de12_high_pass_mode_get:
 2143              	.LFB619:
 639:../Drivers/BSP/Components/lis2de12/lis2de12.c **** 
 640:../Drivers/BSP/Components/lis2de12/lis2de12.c **** /**
 641:../Drivers/BSP/Components/lis2de12/lis2de12.c ****   * @brief  High-pass filter mode selection.[get]
 642:../Drivers/BSP/Components/lis2de12/lis2de12.c ****   *
 643:../Drivers/BSP/Components/lis2de12/lis2de12.c **** 
 644:../Drivers/BSP/Components/lis2de12/lis2de12.c ****   * @param  val      get the values of hpm in reg CTRL_REG2
 645:../Drivers/BSP/Components/lis2de12/lis2de12.c ****   * @retval          interface status (MANDATORY: return 0 -> no Error)
 646:../Drivers/BSP/Components/lis2de12/lis2de12.c ****   *
 647:../Drivers/BSP/Components/lis2de12/lis2de12.c ****   */
 648:../Drivers/BSP/Components/lis2de12/lis2de12.c **** int32_t lis2de12_high_pass_mode_get( lis2de12_hpm_t* val )
 649:../Drivers/BSP/Components/lis2de12/lis2de12.c **** {
 2144              		.loc 1 649 1
 2145              		.cfi_startproc
 2146              		@ args = 0, pretend = 0, frame = 16
 2147              		@ frame_needed = 1, uses_anonymous_args = 0
 2148 0000 80B5     		push	{r7, lr}
ARM GAS  /tmp/ccjphgoR.s 			page 49


 2149              	.LCFI146:
 2150              		.cfi_def_cfa_offset 8
 2151              		.cfi_offset 7, -8
 2152              		.cfi_offset 14, -4
 2153 0002 84B0     		sub	sp, sp, #16
 2154              	.LCFI147:
 2155              		.cfi_def_cfa_offset 24
 2156 0004 00AF     		add	r7, sp, #0
 2157              	.LCFI148:
 2158              		.cfi_def_cfa_register 7
 2159 0006 7860     		str	r0, [r7, #4]
 650:../Drivers/BSP/Components/lis2de12/lis2de12.c ****     lis2de12_ctrl_reg2_t ctrl_reg2;
 651:../Drivers/BSP/Components/lis2de12/lis2de12.c ****     int32_t              ret;
 652:../Drivers/BSP/Components/lis2de12/lis2de12.c **** 
 653:../Drivers/BSP/Components/lis2de12/lis2de12.c ****     ret = lis2de12_read_reg( LIS2DE12_CTRL_REG2, ( uint8_t* ) &ctrl_reg2, 1 );
 2160              		.loc 1 653 11
 2161 0008 07F10803 		add	r3, r7, #8
 2162 000c 0122     		movs	r2, #1
 2163 000e 1946     		mov	r1, r3
 2164 0010 2120     		movs	r0, #33
 2165 0012 FFF7FEFF 		bl	lis2de12_read_reg
 2166 0016 F860     		str	r0, [r7, #12]
 654:../Drivers/BSP/Components/lis2de12/lis2de12.c ****     switch( ctrl_reg2.hpm )
 2167              		.loc 1 654 22
 2168 0018 3B7A     		ldrb	r3, [r7, #8]
 2169 001a C3F38113 		ubfx	r3, r3, #6, #2
 2170 001e DBB2     		uxtb	r3, r3
 2171              		.loc 1 654 5
 2172 0020 032B     		cmp	r3, #3
 2173 0022 1BD8     		bhi	.L127
 2174 0024 01A2     		adr	r2, .L129
 2175 0026 52F823F0 		ldr	pc, [r2, r3, lsl #2]
 2176 002a 00BF     		.p2align 2
 2177              	.L129:
 2178 002c 3D000000 		.word	.L132+1
 2179 0030 45000000 		.word	.L131+1
 2180 0034 4D000000 		.word	.L130+1
 2181 0038 55000000 		.word	.L128+1
 2182              		.p2align 1
 2183              	.L132:
 655:../Drivers/BSP/Components/lis2de12/lis2de12.c ****     {
 656:../Drivers/BSP/Components/lis2de12/lis2de12.c ****     case LIS2DE12_NORMAL_WITH_RST:
 657:../Drivers/BSP/Components/lis2de12/lis2de12.c ****         *val = LIS2DE12_NORMAL_WITH_RST;
 2184              		.loc 1 657 14
 2185 003c 7B68     		ldr	r3, [r7, #4]
 2186 003e 0022     		movs	r2, #0
 2187 0040 1A70     		strb	r2, [r3]
 658:../Drivers/BSP/Components/lis2de12/lis2de12.c ****         break;
 2188              		.loc 1 658 9
 2189 0042 0FE0     		b	.L133
 2190              	.L131:
 659:../Drivers/BSP/Components/lis2de12/lis2de12.c ****     case LIS2DE12_REFERENCE_MODE:
 660:../Drivers/BSP/Components/lis2de12/lis2de12.c ****         *val = LIS2DE12_REFERENCE_MODE;
 2191              		.loc 1 660 14
 2192 0044 7B68     		ldr	r3, [r7, #4]
 2193 0046 0122     		movs	r2, #1
 2194 0048 1A70     		strb	r2, [r3]
ARM GAS  /tmp/ccjphgoR.s 			page 50


 661:../Drivers/BSP/Components/lis2de12/lis2de12.c ****         break;
 2195              		.loc 1 661 9
 2196 004a 0BE0     		b	.L133
 2197              	.L130:
 662:../Drivers/BSP/Components/lis2de12/lis2de12.c ****     case LIS2DE12_NORMAL:
 663:../Drivers/BSP/Components/lis2de12/lis2de12.c ****         *val = LIS2DE12_NORMAL;
 2198              		.loc 1 663 14
 2199 004c 7B68     		ldr	r3, [r7, #4]
 2200 004e 0222     		movs	r2, #2
 2201 0050 1A70     		strb	r2, [r3]
 664:../Drivers/BSP/Components/lis2de12/lis2de12.c ****         break;
 2202              		.loc 1 664 9
 2203 0052 07E0     		b	.L133
 2204              	.L128:
 665:../Drivers/BSP/Components/lis2de12/lis2de12.c ****     case LIS2DE12_AUTORST_ON_INT:
 666:../Drivers/BSP/Components/lis2de12/lis2de12.c ****         *val = LIS2DE12_AUTORST_ON_INT;
 2205              		.loc 1 666 14
 2206 0054 7B68     		ldr	r3, [r7, #4]
 2207 0056 0322     		movs	r2, #3
 2208 0058 1A70     		strb	r2, [r3]
 667:../Drivers/BSP/Components/lis2de12/lis2de12.c ****         break;
 2209              		.loc 1 667 9
 2210 005a 03E0     		b	.L133
 2211              	.L127:
 668:../Drivers/BSP/Components/lis2de12/lis2de12.c ****     default:
 669:../Drivers/BSP/Components/lis2de12/lis2de12.c ****         *val = LIS2DE12_NORMAL_WITH_RST;
 2212              		.loc 1 669 14
 2213 005c 7B68     		ldr	r3, [r7, #4]
 2214 005e 0022     		movs	r2, #0
 2215 0060 1A70     		strb	r2, [r3]
 670:../Drivers/BSP/Components/lis2de12/lis2de12.c ****         break;
 2216              		.loc 1 670 9
 2217 0062 00BF     		nop
 2218              	.L133:
 671:../Drivers/BSP/Components/lis2de12/lis2de12.c ****     }
 672:../Drivers/BSP/Components/lis2de12/lis2de12.c ****     return ret;
 2219              		.loc 1 672 12
 2220 0064 FB68     		ldr	r3, [r7, #12]
 673:../Drivers/BSP/Components/lis2de12/lis2de12.c **** }
 2221              		.loc 1 673 1
 2222 0066 1846     		mov	r0, r3
 2223 0068 1037     		adds	r7, r7, #16
 2224              	.LCFI149:
 2225              		.cfi_def_cfa_offset 8
 2226 006a BD46     		mov	sp, r7
 2227              	.LCFI150:
 2228              		.cfi_def_cfa_register 13
 2229              		@ sp needed
 2230 006c 80BD     		pop	{r7, pc}
 2231              		.cfi_endproc
 2232              	.LFE619:
 2234 006e 00BF     		.section	.text.lis2de12_full_scale_set,"ax",%progbits
 2235              		.align	1
 2236              		.global	lis2de12_full_scale_set
 2237              		.syntax unified
 2238              		.thumb
 2239              		.thumb_func
ARM GAS  /tmp/ccjphgoR.s 			page 51


 2240              		.fpu fpv4-sp-d16
 2242              	lis2de12_full_scale_set:
 2243              	.LFB620:
 674:../Drivers/BSP/Components/lis2de12/lis2de12.c **** 
 675:../Drivers/BSP/Components/lis2de12/lis2de12.c **** /**
 676:../Drivers/BSP/Components/lis2de12/lis2de12.c ****   * @brief  Full-scale configuration.[set]
 677:../Drivers/BSP/Components/lis2de12/lis2de12.c ****   *
 678:../Drivers/BSP/Components/lis2de12/lis2de12.c **** 
 679:../Drivers/BSP/Components/lis2de12/lis2de12.c ****   * @param  val      change the values of fs in reg CTRL_REG4
 680:../Drivers/BSP/Components/lis2de12/lis2de12.c ****   * @retval          interface status (MANDATORY: return 0 -> no Error)
 681:../Drivers/BSP/Components/lis2de12/lis2de12.c ****   *
 682:../Drivers/BSP/Components/lis2de12/lis2de12.c ****   */
 683:../Drivers/BSP/Components/lis2de12/lis2de12.c **** int32_t lis2de12_full_scale_set( lis2de12_fs_t val )
 684:../Drivers/BSP/Components/lis2de12/lis2de12.c **** {
 2244              		.loc 1 684 1
 2245              		.cfi_startproc
 2246              		@ args = 0, pretend = 0, frame = 16
 2247              		@ frame_needed = 1, uses_anonymous_args = 0
 2248 0000 80B5     		push	{r7, lr}
 2249              	.LCFI151:
 2250              		.cfi_def_cfa_offset 8
 2251              		.cfi_offset 7, -8
 2252              		.cfi_offset 14, -4
 2253 0002 84B0     		sub	sp, sp, #16
 2254              	.LCFI152:
 2255              		.cfi_def_cfa_offset 24
 2256 0004 00AF     		add	r7, sp, #0
 2257              	.LCFI153:
 2258              		.cfi_def_cfa_register 7
 2259 0006 0346     		mov	r3, r0
 2260 0008 FB71     		strb	r3, [r7, #7]
 685:../Drivers/BSP/Components/lis2de12/lis2de12.c ****     lis2de12_ctrl_reg4_t ctrl_reg4;
 686:../Drivers/BSP/Components/lis2de12/lis2de12.c ****     int32_t              ret;
 687:../Drivers/BSP/Components/lis2de12/lis2de12.c **** 
 688:../Drivers/BSP/Components/lis2de12/lis2de12.c ****     ret = lis2de12_read_reg( LIS2DE12_CTRL_REG4, ( uint8_t* ) &ctrl_reg4, 1 );
 2261              		.loc 1 688 11
 2262 000a 07F10803 		add	r3, r7, #8
 2263 000e 0122     		movs	r2, #1
 2264 0010 1946     		mov	r1, r3
 2265 0012 2320     		movs	r0, #35
 2266 0014 FFF7FEFF 		bl	lis2de12_read_reg
 2267 0018 F860     		str	r0, [r7, #12]
 689:../Drivers/BSP/Components/lis2de12/lis2de12.c ****     if( ret == 0 )
 2268              		.loc 1 689 7
 2269 001a FB68     		ldr	r3, [r7, #12]
 2270 001c 002B     		cmp	r3, #0
 2271 001e 0FD1     		bne	.L136
 690:../Drivers/BSP/Components/lis2de12/lis2de12.c ****     {
 691:../Drivers/BSP/Components/lis2de12/lis2de12.c ****         ctrl_reg4.fs = ( uint8_t ) val;
 2272              		.loc 1 691 24
 2273 0020 FB79     		ldrb	r3, [r7, #7]
 2274 0022 03F00303 		and	r3, r3, #3
 2275 0026 DAB2     		uxtb	r2, r3
 2276              		.loc 1 691 22
 2277 0028 3B7A     		ldrb	r3, [r7, #8]
 2278 002a 62F30513 		bfi	r3, r2, #4, #2
 2279 002e 3B72     		strb	r3, [r7, #8]
ARM GAS  /tmp/ccjphgoR.s 			page 52


 692:../Drivers/BSP/Components/lis2de12/lis2de12.c ****         ret          = lis2de12_write_reg( LIS2DE12_CTRL_REG4, ( uint8_t* ) &ctrl_reg4, 1 );
 2280              		.loc 1 692 24
 2281 0030 07F10803 		add	r3, r7, #8
 2282 0034 0122     		movs	r2, #1
 2283 0036 1946     		mov	r1, r3
 2284 0038 2320     		movs	r0, #35
 2285 003a FFF7FEFF 		bl	lis2de12_write_reg
 2286 003e F860     		str	r0, [r7, #12]
 2287              	.L136:
 693:../Drivers/BSP/Components/lis2de12/lis2de12.c ****     }
 694:../Drivers/BSP/Components/lis2de12/lis2de12.c ****     return ret;
 2288              		.loc 1 694 12
 2289 0040 FB68     		ldr	r3, [r7, #12]
 695:../Drivers/BSP/Components/lis2de12/lis2de12.c **** }
 2290              		.loc 1 695 1
 2291 0042 1846     		mov	r0, r3
 2292 0044 1037     		adds	r7, r7, #16
 2293              	.LCFI154:
 2294              		.cfi_def_cfa_offset 8
 2295 0046 BD46     		mov	sp, r7
 2296              	.LCFI155:
 2297              		.cfi_def_cfa_register 13
 2298              		@ sp needed
 2299 0048 80BD     		pop	{r7, pc}
 2300              		.cfi_endproc
 2301              	.LFE620:
 2303              		.section	.text.lis2de12_full_scale_get,"ax",%progbits
 2304              		.align	1
 2305              		.global	lis2de12_full_scale_get
 2306              		.syntax unified
 2307              		.thumb
 2308              		.thumb_func
 2309              		.fpu fpv4-sp-d16
 2311              	lis2de12_full_scale_get:
 2312              	.LFB621:
 696:../Drivers/BSP/Components/lis2de12/lis2de12.c **** 
 697:../Drivers/BSP/Components/lis2de12/lis2de12.c **** /**
 698:../Drivers/BSP/Components/lis2de12/lis2de12.c ****   * @brief  Full-scale configuration.[get]
 699:../Drivers/BSP/Components/lis2de12/lis2de12.c ****   *
 700:../Drivers/BSP/Components/lis2de12/lis2de12.c **** 
 701:../Drivers/BSP/Components/lis2de12/lis2de12.c ****   * @param  val      get the values of fs in reg CTRL_REG4
 702:../Drivers/BSP/Components/lis2de12/lis2de12.c ****   * @retval          interface status (MANDATORY: return 0 -> no Error)
 703:../Drivers/BSP/Components/lis2de12/lis2de12.c ****   *
 704:../Drivers/BSP/Components/lis2de12/lis2de12.c ****   */
 705:../Drivers/BSP/Components/lis2de12/lis2de12.c **** int32_t lis2de12_full_scale_get( lis2de12_fs_t* val )
 706:../Drivers/BSP/Components/lis2de12/lis2de12.c **** {
 2313              		.loc 1 706 1
 2314              		.cfi_startproc
 2315              		@ args = 0, pretend = 0, frame = 16
 2316              		@ frame_needed = 1, uses_anonymous_args = 0
 2317 0000 80B5     		push	{r7, lr}
 2318              	.LCFI156:
 2319              		.cfi_def_cfa_offset 8
 2320              		.cfi_offset 7, -8
 2321              		.cfi_offset 14, -4
 2322 0002 84B0     		sub	sp, sp, #16
 2323              	.LCFI157:
ARM GAS  /tmp/ccjphgoR.s 			page 53


 2324              		.cfi_def_cfa_offset 24
 2325 0004 00AF     		add	r7, sp, #0
 2326              	.LCFI158:
 2327              		.cfi_def_cfa_register 7
 2328 0006 7860     		str	r0, [r7, #4]
 707:../Drivers/BSP/Components/lis2de12/lis2de12.c ****     lis2de12_ctrl_reg4_t ctrl_reg4;
 708:../Drivers/BSP/Components/lis2de12/lis2de12.c ****     int32_t              ret;
 709:../Drivers/BSP/Components/lis2de12/lis2de12.c **** 
 710:../Drivers/BSP/Components/lis2de12/lis2de12.c ****     ret = lis2de12_read_reg( LIS2DE12_CTRL_REG4, ( uint8_t* ) &ctrl_reg4, 1 );
 2329              		.loc 1 710 11
 2330 0008 07F10803 		add	r3, r7, #8
 2331 000c 0122     		movs	r2, #1
 2332 000e 1946     		mov	r1, r3
 2333 0010 2320     		movs	r0, #35
 2334 0012 FFF7FEFF 		bl	lis2de12_read_reg
 2335 0016 F860     		str	r0, [r7, #12]
 711:../Drivers/BSP/Components/lis2de12/lis2de12.c ****     switch( ctrl_reg4.fs )
 2336              		.loc 1 711 22
 2337 0018 3B7A     		ldrb	r3, [r7, #8]
 2338 001a C3F30113 		ubfx	r3, r3, #4, #2
 2339 001e DBB2     		uxtb	r3, r3
 2340              		.loc 1 711 5
 2341 0020 032B     		cmp	r3, #3
 2342 0022 1BD8     		bhi	.L139
 2343 0024 01A2     		adr	r2, .L141
 2344 0026 52F823F0 		ldr	pc, [r2, r3, lsl #2]
 2345 002a 00BF     		.p2align 2
 2346              	.L141:
 2347 002c 3D000000 		.word	.L144+1
 2348 0030 45000000 		.word	.L143+1
 2349 0034 4D000000 		.word	.L142+1
 2350 0038 55000000 		.word	.L140+1
 2351              		.p2align 1
 2352              	.L144:
 712:../Drivers/BSP/Components/lis2de12/lis2de12.c ****     {
 713:../Drivers/BSP/Components/lis2de12/lis2de12.c ****     case LIS2DE12_2g:
 714:../Drivers/BSP/Components/lis2de12/lis2de12.c ****         *val = LIS2DE12_2g;
 2353              		.loc 1 714 14
 2354 003c 7B68     		ldr	r3, [r7, #4]
 2355 003e 0022     		movs	r2, #0
 2356 0040 1A70     		strb	r2, [r3]
 715:../Drivers/BSP/Components/lis2de12/lis2de12.c ****         break;
 2357              		.loc 1 715 9
 2358 0042 0FE0     		b	.L145
 2359              	.L143:
 716:../Drivers/BSP/Components/lis2de12/lis2de12.c ****     case LIS2DE12_4g:
 717:../Drivers/BSP/Components/lis2de12/lis2de12.c ****         *val = LIS2DE12_4g;
 2360              		.loc 1 717 14
 2361 0044 7B68     		ldr	r3, [r7, #4]
 2362 0046 0122     		movs	r2, #1
 2363 0048 1A70     		strb	r2, [r3]
 718:../Drivers/BSP/Components/lis2de12/lis2de12.c ****         break;
 2364              		.loc 1 718 9
 2365 004a 0BE0     		b	.L145
 2366              	.L142:
 719:../Drivers/BSP/Components/lis2de12/lis2de12.c ****     case LIS2DE12_8g:
 720:../Drivers/BSP/Components/lis2de12/lis2de12.c ****         *val = LIS2DE12_8g;
ARM GAS  /tmp/ccjphgoR.s 			page 54


 2367              		.loc 1 720 14
 2368 004c 7B68     		ldr	r3, [r7, #4]
 2369 004e 0222     		movs	r2, #2
 2370 0050 1A70     		strb	r2, [r3]
 721:../Drivers/BSP/Components/lis2de12/lis2de12.c ****         break;
 2371              		.loc 1 721 9
 2372 0052 07E0     		b	.L145
 2373              	.L140:
 722:../Drivers/BSP/Components/lis2de12/lis2de12.c ****     case LIS2DE12_16g:
 723:../Drivers/BSP/Components/lis2de12/lis2de12.c ****         *val = LIS2DE12_16g;
 2374              		.loc 1 723 14
 2375 0054 7B68     		ldr	r3, [r7, #4]
 2376 0056 0322     		movs	r2, #3
 2377 0058 1A70     		strb	r2, [r3]
 724:../Drivers/BSP/Components/lis2de12/lis2de12.c ****         break;
 2378              		.loc 1 724 9
 2379 005a 03E0     		b	.L145
 2380              	.L139:
 725:../Drivers/BSP/Components/lis2de12/lis2de12.c ****     default:
 726:../Drivers/BSP/Components/lis2de12/lis2de12.c ****         *val = LIS2DE12_2g;
 2381              		.loc 1 726 14
 2382 005c 7B68     		ldr	r3, [r7, #4]
 2383 005e 0022     		movs	r2, #0
 2384 0060 1A70     		strb	r2, [r3]
 727:../Drivers/BSP/Components/lis2de12/lis2de12.c ****         break;
 2385              		.loc 1 727 9
 2386 0062 00BF     		nop
 2387              	.L145:
 728:../Drivers/BSP/Components/lis2de12/lis2de12.c ****     }
 729:../Drivers/BSP/Components/lis2de12/lis2de12.c ****     return ret;
 2388              		.loc 1 729 12
 2389 0064 FB68     		ldr	r3, [r7, #12]
 730:../Drivers/BSP/Components/lis2de12/lis2de12.c **** }
 2390              		.loc 1 730 1
 2391 0066 1846     		mov	r0, r3
 2392 0068 1037     		adds	r7, r7, #16
 2393              	.LCFI159:
 2394              		.cfi_def_cfa_offset 8
 2395 006a BD46     		mov	sp, r7
 2396              	.LCFI160:
 2397              		.cfi_def_cfa_register 13
 2398              		@ sp needed
 2399 006c 80BD     		pop	{r7, pc}
 2400              		.cfi_endproc
 2401              	.LFE621:
 2403 006e 00BF     		.section	.text.lis2de12_block_data_update_set,"ax",%progbits
 2404              		.align	1
 2405              		.global	lis2de12_block_data_update_set
 2406              		.syntax unified
 2407              		.thumb
 2408              		.thumb_func
 2409              		.fpu fpv4-sp-d16
 2411              	lis2de12_block_data_update_set:
 2412              	.LFB622:
 731:../Drivers/BSP/Components/lis2de12/lis2de12.c **** 
 732:../Drivers/BSP/Components/lis2de12/lis2de12.c **** /**
 733:../Drivers/BSP/Components/lis2de12/lis2de12.c ****   * @brief  Block Data Update.[set]
ARM GAS  /tmp/ccjphgoR.s 			page 55


 734:../Drivers/BSP/Components/lis2de12/lis2de12.c ****   *
 735:../Drivers/BSP/Components/lis2de12/lis2de12.c **** 
 736:../Drivers/BSP/Components/lis2de12/lis2de12.c ****   * @param  val      change the values of bdu in reg CTRL_REG4
 737:../Drivers/BSP/Components/lis2de12/lis2de12.c ****   * @retval          interface status (MANDATORY: return 0 -> no Error)
 738:../Drivers/BSP/Components/lis2de12/lis2de12.c ****   *
 739:../Drivers/BSP/Components/lis2de12/lis2de12.c ****   */
 740:../Drivers/BSP/Components/lis2de12/lis2de12.c **** int32_t lis2de12_block_data_update_set( uint8_t val )
 741:../Drivers/BSP/Components/lis2de12/lis2de12.c **** {
 2413              		.loc 1 741 1
 2414              		.cfi_startproc
 2415              		@ args = 0, pretend = 0, frame = 16
 2416              		@ frame_needed = 1, uses_anonymous_args = 0
 2417 0000 80B5     		push	{r7, lr}
 2418              	.LCFI161:
 2419              		.cfi_def_cfa_offset 8
 2420              		.cfi_offset 7, -8
 2421              		.cfi_offset 14, -4
 2422 0002 84B0     		sub	sp, sp, #16
 2423              	.LCFI162:
 2424              		.cfi_def_cfa_offset 24
 2425 0004 00AF     		add	r7, sp, #0
 2426              	.LCFI163:
 2427              		.cfi_def_cfa_register 7
 2428 0006 0346     		mov	r3, r0
 2429 0008 FB71     		strb	r3, [r7, #7]
 742:../Drivers/BSP/Components/lis2de12/lis2de12.c ****     lis2de12_ctrl_reg4_t ctrl_reg4;
 743:../Drivers/BSP/Components/lis2de12/lis2de12.c ****     int32_t              ret;
 744:../Drivers/BSP/Components/lis2de12/lis2de12.c **** 
 745:../Drivers/BSP/Components/lis2de12/lis2de12.c ****     ret = lis2de12_read_reg( LIS2DE12_CTRL_REG4, ( uint8_t* ) &ctrl_reg4, 1 );
 2430              		.loc 1 745 11
 2431 000a 07F10803 		add	r3, r7, #8
 2432 000e 0122     		movs	r2, #1
 2433 0010 1946     		mov	r1, r3
 2434 0012 2320     		movs	r0, #35
 2435 0014 FFF7FEFF 		bl	lis2de12_read_reg
 2436 0018 F860     		str	r0, [r7, #12]
 746:../Drivers/BSP/Components/lis2de12/lis2de12.c ****     if( ret == 0 )
 2437              		.loc 1 746 7
 2438 001a FB68     		ldr	r3, [r7, #12]
 2439 001c 002B     		cmp	r3, #0
 2440 001e 11D1     		bne	.L148
 747:../Drivers/BSP/Components/lis2de12/lis2de12.c ****     {
 748:../Drivers/BSP/Components/lis2de12/lis2de12.c ****         ctrl_reg4.bdu = !val;
 2441              		.loc 1 748 25
 2442 0020 FB79     		ldrb	r3, [r7, #7]	@ zero_extendqisi2
 2443 0022 002B     		cmp	r3, #0
 2444 0024 0CBF     		ite	eq
 2445 0026 0123     		moveq	r3, #1
 2446 0028 0023     		movne	r3, #0
 2447 002a DAB2     		uxtb	r2, r3
 2448              		.loc 1 748 23
 2449 002c 3B7A     		ldrb	r3, [r7, #8]
 2450 002e 62F3C713 		bfi	r3, r2, #7, #1
 2451 0032 3B72     		strb	r3, [r7, #8]
 749:../Drivers/BSP/Components/lis2de12/lis2de12.c ****         ret           = lis2de12_write_reg( LIS2DE12_CTRL_REG4, ( uint8_t* ) &ctrl_reg4, 1 );
 2452              		.loc 1 749 25
 2453 0034 07F10803 		add	r3, r7, #8
ARM GAS  /tmp/ccjphgoR.s 			page 56


 2454 0038 0122     		movs	r2, #1
 2455 003a 1946     		mov	r1, r3
 2456 003c 2320     		movs	r0, #35
 2457 003e FFF7FEFF 		bl	lis2de12_write_reg
 2458 0042 F860     		str	r0, [r7, #12]
 2459              	.L148:
 750:../Drivers/BSP/Components/lis2de12/lis2de12.c ****     }
 751:../Drivers/BSP/Components/lis2de12/lis2de12.c ****     return ret;
 2460              		.loc 1 751 12
 2461 0044 FB68     		ldr	r3, [r7, #12]
 752:../Drivers/BSP/Components/lis2de12/lis2de12.c **** }
 2462              		.loc 1 752 1
 2463 0046 1846     		mov	r0, r3
 2464 0048 1037     		adds	r7, r7, #16
 2465              	.LCFI164:
 2466              		.cfi_def_cfa_offset 8
 2467 004a BD46     		mov	sp, r7
 2468              	.LCFI165:
 2469              		.cfi_def_cfa_register 13
 2470              		@ sp needed
 2471 004c 80BD     		pop	{r7, pc}
 2472              		.cfi_endproc
 2473              	.LFE622:
 2475              		.section	.text.lis2de12_block_data_update_get,"ax",%progbits
 2476              		.align	1
 2477              		.global	lis2de12_block_data_update_get
 2478              		.syntax unified
 2479              		.thumb
 2480              		.thumb_func
 2481              		.fpu fpv4-sp-d16
 2483              	lis2de12_block_data_update_get:
 2484              	.LFB623:
 753:../Drivers/BSP/Components/lis2de12/lis2de12.c **** 
 754:../Drivers/BSP/Components/lis2de12/lis2de12.c **** /**
 755:../Drivers/BSP/Components/lis2de12/lis2de12.c ****   * @brief  Block Data Update.[get]
 756:../Drivers/BSP/Components/lis2de12/lis2de12.c ****   *
 757:../Drivers/BSP/Components/lis2de12/lis2de12.c **** 
 758:../Drivers/BSP/Components/lis2de12/lis2de12.c ****   * @param  val      change the values of bdu in reg CTRL_REG4
 759:../Drivers/BSP/Components/lis2de12/lis2de12.c ****   * @retval          interface status (MANDATORY: return 0 -> no Error)
 760:../Drivers/BSP/Components/lis2de12/lis2de12.c ****   *
 761:../Drivers/BSP/Components/lis2de12/lis2de12.c ****   */
 762:../Drivers/BSP/Components/lis2de12/lis2de12.c **** int32_t lis2de12_block_data_update_get( uint8_t* val )
 763:../Drivers/BSP/Components/lis2de12/lis2de12.c **** {
 2485              		.loc 1 763 1
 2486              		.cfi_startproc
 2487              		@ args = 0, pretend = 0, frame = 16
 2488              		@ frame_needed = 1, uses_anonymous_args = 0
 2489 0000 80B5     		push	{r7, lr}
 2490              	.LCFI166:
 2491              		.cfi_def_cfa_offset 8
 2492              		.cfi_offset 7, -8
 2493              		.cfi_offset 14, -4
 2494 0002 84B0     		sub	sp, sp, #16
 2495              	.LCFI167:
 2496              		.cfi_def_cfa_offset 24
 2497 0004 00AF     		add	r7, sp, #0
 2498              	.LCFI168:
ARM GAS  /tmp/ccjphgoR.s 			page 57


 2499              		.cfi_def_cfa_register 7
 2500 0006 7860     		str	r0, [r7, #4]
 764:../Drivers/BSP/Components/lis2de12/lis2de12.c ****     lis2de12_ctrl_reg4_t ctrl_reg4;
 765:../Drivers/BSP/Components/lis2de12/lis2de12.c ****     int32_t              ret;
 766:../Drivers/BSP/Components/lis2de12/lis2de12.c **** 
 767:../Drivers/BSP/Components/lis2de12/lis2de12.c ****     ret  = lis2de12_read_reg( LIS2DE12_CTRL_REG4, ( uint8_t* ) &ctrl_reg4, 1 );
 2501              		.loc 1 767 12
 2502 0008 07F10803 		add	r3, r7, #8
 2503 000c 0122     		movs	r2, #1
 2504 000e 1946     		mov	r1, r3
 2505 0010 2320     		movs	r0, #35
 2506 0012 FFF7FEFF 		bl	lis2de12_read_reg
 2507 0016 F860     		str	r0, [r7, #12]
 768:../Drivers/BSP/Components/lis2de12/lis2de12.c ****     *val = ( uint8_t ) ctrl_reg4.bdu;
 2508              		.loc 1 768 33
 2509 0018 3B7A     		ldrb	r3, [r7, #8]
 2510 001a C3F3C013 		ubfx	r3, r3, #7, #1
 2511 001e DBB2     		uxtb	r3, r3
 2512              		.loc 1 768 12
 2513 0020 1A46     		mov	r2, r3
 2514              		.loc 1 768 10
 2515 0022 7B68     		ldr	r3, [r7, #4]
 2516 0024 1A70     		strb	r2, [r3]
 769:../Drivers/BSP/Components/lis2de12/lis2de12.c **** 
 770:../Drivers/BSP/Components/lis2de12/lis2de12.c ****     return ret;
 2517              		.loc 1 770 12
 2518 0026 FB68     		ldr	r3, [r7, #12]
 771:../Drivers/BSP/Components/lis2de12/lis2de12.c **** }
 2519              		.loc 1 771 1
 2520 0028 1846     		mov	r0, r3
 2521 002a 1037     		adds	r7, r7, #16
 2522              	.LCFI169:
 2523              		.cfi_def_cfa_offset 8
 2524 002c BD46     		mov	sp, r7
 2525              	.LCFI170:
 2526              		.cfi_def_cfa_register 13
 2527              		@ sp needed
 2528 002e 80BD     		pop	{r7, pc}
 2529              		.cfi_endproc
 2530              	.LFE623:
 2532              		.section	.text.lis2de12_filter_reference_set,"ax",%progbits
 2533              		.align	1
 2534              		.global	lis2de12_filter_reference_set
 2535              		.syntax unified
 2536              		.thumb
 2537              		.thumb_func
 2538              		.fpu fpv4-sp-d16
 2540              	lis2de12_filter_reference_set:
 2541              	.LFB624:
 772:../Drivers/BSP/Components/lis2de12/lis2de12.c **** 
 773:../Drivers/BSP/Components/lis2de12/lis2de12.c **** /**
 774:../Drivers/BSP/Components/lis2de12/lis2de12.c ****   * @brief  Reference value for interrupt generation.[set]
 775:../Drivers/BSP/Components/lis2de12/lis2de12.c ****   *         LSB = ~16@2g / ~31@4g / ~63@8g / ~127@16g
 776:../Drivers/BSP/Components/lis2de12/lis2de12.c ****   *
 777:../Drivers/BSP/Components/lis2de12/lis2de12.c **** 
 778:../Drivers/BSP/Components/lis2de12/lis2de12.c ****   * @param  buff     buffer that contains data to write
 779:../Drivers/BSP/Components/lis2de12/lis2de12.c ****   * @retval          interface status (MANDATORY: return 0 -> no Error)
ARM GAS  /tmp/ccjphgoR.s 			page 58


 780:../Drivers/BSP/Components/lis2de12/lis2de12.c ****   *
 781:../Drivers/BSP/Components/lis2de12/lis2de12.c ****   */
 782:../Drivers/BSP/Components/lis2de12/lis2de12.c **** int32_t lis2de12_filter_reference_set( uint8_t* buff )
 783:../Drivers/BSP/Components/lis2de12/lis2de12.c **** {
 2542              		.loc 1 783 1
 2543              		.cfi_startproc
 2544              		@ args = 0, pretend = 0, frame = 16
 2545              		@ frame_needed = 1, uses_anonymous_args = 0
 2546 0000 80B5     		push	{r7, lr}
 2547              	.LCFI171:
 2548              		.cfi_def_cfa_offset 8
 2549              		.cfi_offset 7, -8
 2550              		.cfi_offset 14, -4
 2551 0002 84B0     		sub	sp, sp, #16
 2552              	.LCFI172:
 2553              		.cfi_def_cfa_offset 24
 2554 0004 00AF     		add	r7, sp, #0
 2555              	.LCFI173:
 2556              		.cfi_def_cfa_register 7
 2557 0006 7860     		str	r0, [r7, #4]
 784:../Drivers/BSP/Components/lis2de12/lis2de12.c ****     int32_t ret;
 785:../Drivers/BSP/Components/lis2de12/lis2de12.c ****     ret = lis2de12_write_reg( LIS2DE12_REFERENCE, buff, 1 );
 2558              		.loc 1 785 11
 2559 0008 0122     		movs	r2, #1
 2560 000a 7968     		ldr	r1, [r7, #4]
 2561 000c 2620     		movs	r0, #38
 2562 000e FFF7FEFF 		bl	lis2de12_write_reg
 2563 0012 F860     		str	r0, [r7, #12]
 786:../Drivers/BSP/Components/lis2de12/lis2de12.c ****     return ret;
 2564              		.loc 1 786 12
 2565 0014 FB68     		ldr	r3, [r7, #12]
 787:../Drivers/BSP/Components/lis2de12/lis2de12.c **** }
 2566              		.loc 1 787 1
 2567 0016 1846     		mov	r0, r3
 2568 0018 1037     		adds	r7, r7, #16
 2569              	.LCFI174:
 2570              		.cfi_def_cfa_offset 8
 2571 001a BD46     		mov	sp, r7
 2572              	.LCFI175:
 2573              		.cfi_def_cfa_register 13
 2574              		@ sp needed
 2575 001c 80BD     		pop	{r7, pc}
 2576              		.cfi_endproc
 2577              	.LFE624:
 2579              		.section	.text.lis2de12_filter_reference_get,"ax",%progbits
 2580              		.align	1
 2581              		.global	lis2de12_filter_reference_get
 2582              		.syntax unified
 2583              		.thumb
 2584              		.thumb_func
 2585              		.fpu fpv4-sp-d16
 2587              	lis2de12_filter_reference_get:
 2588              	.LFB625:
 788:../Drivers/BSP/Components/lis2de12/lis2de12.c **** 
 789:../Drivers/BSP/Components/lis2de12/lis2de12.c **** /**
 790:../Drivers/BSP/Components/lis2de12/lis2de12.c ****   * @brief  Reference value for interrupt generation.[get]
 791:../Drivers/BSP/Components/lis2de12/lis2de12.c ****   *         LSB = ~16@2g / ~31@4g / ~63@8g / ~127@16g
ARM GAS  /tmp/ccjphgoR.s 			page 59


 792:../Drivers/BSP/Components/lis2de12/lis2de12.c ****   *
 793:../Drivers/BSP/Components/lis2de12/lis2de12.c **** 
 794:../Drivers/BSP/Components/lis2de12/lis2de12.c ****   * @param  buff     buffer that stores data read
 795:../Drivers/BSP/Components/lis2de12/lis2de12.c ****   * @retval          interface status (MANDATORY: return 0 -> no Error)
 796:../Drivers/BSP/Components/lis2de12/lis2de12.c ****   *
 797:../Drivers/BSP/Components/lis2de12/lis2de12.c ****   */
 798:../Drivers/BSP/Components/lis2de12/lis2de12.c **** int32_t lis2de12_filter_reference_get( uint8_t* buff )
 799:../Drivers/BSP/Components/lis2de12/lis2de12.c **** {
 2589              		.loc 1 799 1
 2590              		.cfi_startproc
 2591              		@ args = 0, pretend = 0, frame = 16
 2592              		@ frame_needed = 1, uses_anonymous_args = 0
 2593 0000 80B5     		push	{r7, lr}
 2594              	.LCFI176:
 2595              		.cfi_def_cfa_offset 8
 2596              		.cfi_offset 7, -8
 2597              		.cfi_offset 14, -4
 2598 0002 84B0     		sub	sp, sp, #16
 2599              	.LCFI177:
 2600              		.cfi_def_cfa_offset 24
 2601 0004 00AF     		add	r7, sp, #0
 2602              	.LCFI178:
 2603              		.cfi_def_cfa_register 7
 2604 0006 7860     		str	r0, [r7, #4]
 800:../Drivers/BSP/Components/lis2de12/lis2de12.c ****     int32_t ret;
 801:../Drivers/BSP/Components/lis2de12/lis2de12.c ****     ret = lis2de12_read_reg( LIS2DE12_REFERENCE, buff, 1 );
 2605              		.loc 1 801 11
 2606 0008 0122     		movs	r2, #1
 2607 000a 7968     		ldr	r1, [r7, #4]
 2608 000c 2620     		movs	r0, #38
 2609 000e FFF7FEFF 		bl	lis2de12_read_reg
 2610 0012 F860     		str	r0, [r7, #12]
 802:../Drivers/BSP/Components/lis2de12/lis2de12.c ****     return ret;
 2611              		.loc 1 802 12
 2612 0014 FB68     		ldr	r3, [r7, #12]
 803:../Drivers/BSP/Components/lis2de12/lis2de12.c **** }
 2613              		.loc 1 803 1
 2614 0016 1846     		mov	r0, r3
 2615 0018 1037     		adds	r7, r7, #16
 2616              	.LCFI179:
 2617              		.cfi_def_cfa_offset 8
 2618 001a BD46     		mov	sp, r7
 2619              	.LCFI180:
 2620              		.cfi_def_cfa_register 13
 2621              		@ sp needed
 2622 001c 80BD     		pop	{r7, pc}
 2623              		.cfi_endproc
 2624              	.LFE625:
 2626              		.section	.text.lis2de12_xl_data_ready_get,"ax",%progbits
 2627              		.align	1
 2628              		.global	lis2de12_xl_data_ready_get
 2629              		.syntax unified
 2630              		.thumb
 2631              		.thumb_func
 2632              		.fpu fpv4-sp-d16
 2634              	lis2de12_xl_data_ready_get:
 2635              	.LFB626:
ARM GAS  /tmp/ccjphgoR.s 			page 60


 804:../Drivers/BSP/Components/lis2de12/lis2de12.c **** /**
 805:../Drivers/BSP/Components/lis2de12/lis2de12.c ****   * @brief  Acceleration set of data available.[get]
 806:../Drivers/BSP/Components/lis2de12/lis2de12.c ****   *
 807:../Drivers/BSP/Components/lis2de12/lis2de12.c **** 
 808:../Drivers/BSP/Components/lis2de12/lis2de12.c ****   * @param  val      change the values of zyxda in reg STATUS_REG
 809:../Drivers/BSP/Components/lis2de12/lis2de12.c ****   * @retval          interface status (MANDATORY: return 0 -> no Error)
 810:../Drivers/BSP/Components/lis2de12/lis2de12.c ****   *
 811:../Drivers/BSP/Components/lis2de12/lis2de12.c ****   */
 812:../Drivers/BSP/Components/lis2de12/lis2de12.c **** int32_t lis2de12_xl_data_ready_get( uint8_t* val )
 813:../Drivers/BSP/Components/lis2de12/lis2de12.c **** {
 2636              		.loc 1 813 1
 2637              		.cfi_startproc
 2638              		@ args = 0, pretend = 0, frame = 16
 2639              		@ frame_needed = 1, uses_anonymous_args = 0
 2640 0000 80B5     		push	{r7, lr}
 2641              	.LCFI181:
 2642              		.cfi_def_cfa_offset 8
 2643              		.cfi_offset 7, -8
 2644              		.cfi_offset 14, -4
 2645 0002 84B0     		sub	sp, sp, #16
 2646              	.LCFI182:
 2647              		.cfi_def_cfa_offset 24
 2648 0004 00AF     		add	r7, sp, #0
 2649              	.LCFI183:
 2650              		.cfi_def_cfa_register 7
 2651 0006 7860     		str	r0, [r7, #4]
 814:../Drivers/BSP/Components/lis2de12/lis2de12.c ****     lis2de12_status_reg_t status_reg;
 815:../Drivers/BSP/Components/lis2de12/lis2de12.c ****     int32_t               ret;
 816:../Drivers/BSP/Components/lis2de12/lis2de12.c **** 
 817:../Drivers/BSP/Components/lis2de12/lis2de12.c ****     ret  = lis2de12_read_reg( LIS2DE12_STATUS_REG, ( uint8_t* ) &status_reg, 1 );
 2652              		.loc 1 817 12
 2653 0008 07F10803 		add	r3, r7, #8
 2654 000c 0122     		movs	r2, #1
 2655 000e 1946     		mov	r1, r3
 2656 0010 2720     		movs	r0, #39
 2657 0012 FFF7FEFF 		bl	lis2de12_read_reg
 2658 0016 F860     		str	r0, [r7, #12]
 818:../Drivers/BSP/Components/lis2de12/lis2de12.c ****     *val = status_reg.zyxda;
 2659              		.loc 1 818 22
 2660 0018 3B7A     		ldrb	r3, [r7, #8]
 2661 001a C3F3C003 		ubfx	r3, r3, #3, #1
 2662 001e DBB2     		uxtb	r3, r3
 2663 0020 1A46     		mov	r2, r3
 2664              		.loc 1 818 10
 2665 0022 7B68     		ldr	r3, [r7, #4]
 2666 0024 1A70     		strb	r2, [r3]
 819:../Drivers/BSP/Components/lis2de12/lis2de12.c **** 
 820:../Drivers/BSP/Components/lis2de12/lis2de12.c ****     return ret;
 2667              		.loc 1 820 12
 2668 0026 FB68     		ldr	r3, [r7, #12]
 821:../Drivers/BSP/Components/lis2de12/lis2de12.c **** }
 2669              		.loc 1 821 1
 2670 0028 1846     		mov	r0, r3
 2671 002a 1037     		adds	r7, r7, #16
 2672              	.LCFI184:
 2673              		.cfi_def_cfa_offset 8
 2674 002c BD46     		mov	sp, r7
ARM GAS  /tmp/ccjphgoR.s 			page 61


 2675              	.LCFI185:
 2676              		.cfi_def_cfa_register 13
 2677              		@ sp needed
 2678 002e 80BD     		pop	{r7, pc}
 2679              		.cfi_endproc
 2680              	.LFE626:
 2682              		.section	.text.lis2de12_xl_data_ovr_get,"ax",%progbits
 2683              		.align	1
 2684              		.global	lis2de12_xl_data_ovr_get
 2685              		.syntax unified
 2686              		.thumb
 2687              		.thumb_func
 2688              		.fpu fpv4-sp-d16
 2690              	lis2de12_xl_data_ovr_get:
 2691              	.LFB627:
 822:../Drivers/BSP/Components/lis2de12/lis2de12.c **** /**
 823:../Drivers/BSP/Components/lis2de12/lis2de12.c ****   * @brief  Acceleration set of data overrun.[get]
 824:../Drivers/BSP/Components/lis2de12/lis2de12.c ****   *
 825:../Drivers/BSP/Components/lis2de12/lis2de12.c **** 
 826:../Drivers/BSP/Components/lis2de12/lis2de12.c ****   * @param  val      change the values of zyxor in reg STATUS_REG
 827:../Drivers/BSP/Components/lis2de12/lis2de12.c ****   * @retval          interface status (MANDATORY: return 0 -> no Error)
 828:../Drivers/BSP/Components/lis2de12/lis2de12.c ****   *
 829:../Drivers/BSP/Components/lis2de12/lis2de12.c ****   */
 830:../Drivers/BSP/Components/lis2de12/lis2de12.c **** int32_t lis2de12_xl_data_ovr_get( uint8_t* val )
 831:../Drivers/BSP/Components/lis2de12/lis2de12.c **** {
 2692              		.loc 1 831 1
 2693              		.cfi_startproc
 2694              		@ args = 0, pretend = 0, frame = 16
 2695              		@ frame_needed = 1, uses_anonymous_args = 0
 2696 0000 80B5     		push	{r7, lr}
 2697              	.LCFI186:
 2698              		.cfi_def_cfa_offset 8
 2699              		.cfi_offset 7, -8
 2700              		.cfi_offset 14, -4
 2701 0002 84B0     		sub	sp, sp, #16
 2702              	.LCFI187:
 2703              		.cfi_def_cfa_offset 24
 2704 0004 00AF     		add	r7, sp, #0
 2705              	.LCFI188:
 2706              		.cfi_def_cfa_register 7
 2707 0006 7860     		str	r0, [r7, #4]
 832:../Drivers/BSP/Components/lis2de12/lis2de12.c ****     lis2de12_status_reg_t status_reg;
 833:../Drivers/BSP/Components/lis2de12/lis2de12.c ****     int32_t               ret;
 834:../Drivers/BSP/Components/lis2de12/lis2de12.c **** 
 835:../Drivers/BSP/Components/lis2de12/lis2de12.c ****     ret  = lis2de12_read_reg( LIS2DE12_STATUS_REG, ( uint8_t* ) &status_reg, 1 );
 2708              		.loc 1 835 12
 2709 0008 07F10803 		add	r3, r7, #8
 2710 000c 0122     		movs	r2, #1
 2711 000e 1946     		mov	r1, r3
 2712 0010 2720     		movs	r0, #39
 2713 0012 FFF7FEFF 		bl	lis2de12_read_reg
 2714 0016 F860     		str	r0, [r7, #12]
 836:../Drivers/BSP/Components/lis2de12/lis2de12.c ****     *val = status_reg.zyxor;
 2715              		.loc 1 836 22
 2716 0018 3B7A     		ldrb	r3, [r7, #8]
 2717 001a C3F3C013 		ubfx	r3, r3, #7, #1
 2718 001e DBB2     		uxtb	r3, r3
ARM GAS  /tmp/ccjphgoR.s 			page 62


 2719 0020 1A46     		mov	r2, r3
 2720              		.loc 1 836 10
 2721 0022 7B68     		ldr	r3, [r7, #4]
 2722 0024 1A70     		strb	r2, [r3]
 837:../Drivers/BSP/Components/lis2de12/lis2de12.c **** 
 838:../Drivers/BSP/Components/lis2de12/lis2de12.c ****     return ret;
 2723              		.loc 1 838 12
 2724 0026 FB68     		ldr	r3, [r7, #12]
 839:../Drivers/BSP/Components/lis2de12/lis2de12.c **** }
 2725              		.loc 1 839 1
 2726 0028 1846     		mov	r0, r3
 2727 002a 1037     		adds	r7, r7, #16
 2728              	.LCFI189:
 2729              		.cfi_def_cfa_offset 8
 2730 002c BD46     		mov	sp, r7
 2731              	.LCFI190:
 2732              		.cfi_def_cfa_register 13
 2733              		@ sp needed
 2734 002e 80BD     		pop	{r7, pc}
 2735              		.cfi_endproc
 2736              	.LFE627:
 2738              		.section	.text.lis2de12_acceleration_raw_get,"ax",%progbits
 2739              		.align	1
 2740              		.global	lis2de12_acceleration_raw_get
 2741              		.syntax unified
 2742              		.thumb
 2743              		.thumb_func
 2744              		.fpu fpv4-sp-d16
 2746              	lis2de12_acceleration_raw_get:
 2747              	.LFB628:
 840:../Drivers/BSP/Components/lis2de12/lis2de12.c **** /**
 841:../Drivers/BSP/Components/lis2de12/lis2de12.c ****   * @brief  Acceleration output value.[get]
 842:../Drivers/BSP/Components/lis2de12/lis2de12.c ****   *
 843:../Drivers/BSP/Components/lis2de12/lis2de12.c **** 
 844:../Drivers/BSP/Components/lis2de12/lis2de12.c ****   * @param  buff     buffer that stores data read
 845:../Drivers/BSP/Components/lis2de12/lis2de12.c ****   * @retval          interface status (MANDATORY: return 0 -> no Error)
 846:../Drivers/BSP/Components/lis2de12/lis2de12.c ****   *
 847:../Drivers/BSP/Components/lis2de12/lis2de12.c ****   */
 848:../Drivers/BSP/Components/lis2de12/lis2de12.c **** int32_t lis2de12_acceleration_raw_get( uint8_t* buff )
 849:../Drivers/BSP/Components/lis2de12/lis2de12.c **** {
 2748              		.loc 1 849 1
 2749              		.cfi_startproc
 2750              		@ args = 0, pretend = 0, frame = 16
 2751              		@ frame_needed = 1, uses_anonymous_args = 0
 2752 0000 80B5     		push	{r7, lr}
 2753              	.LCFI191:
 2754              		.cfi_def_cfa_offset 8
 2755              		.cfi_offset 7, -8
 2756              		.cfi_offset 14, -4
 2757 0002 84B0     		sub	sp, sp, #16
 2758              	.LCFI192:
 2759              		.cfi_def_cfa_offset 24
 2760 0004 00AF     		add	r7, sp, #0
 2761              	.LCFI193:
 2762              		.cfi_def_cfa_register 7
 2763 0006 7860     		str	r0, [r7, #4]
 850:../Drivers/BSP/Components/lis2de12/lis2de12.c ****     int32_t ret;
ARM GAS  /tmp/ccjphgoR.s 			page 63


 851:../Drivers/BSP/Components/lis2de12/lis2de12.c ****     ret = lis2de12_read_reg( 0x08 | LIS2DE12_FIFO_READ_START, buff, 6 );
 2764              		.loc 1 851 11
 2765 0008 0622     		movs	r2, #6
 2766 000a 7968     		ldr	r1, [r7, #4]
 2767 000c 2820     		movs	r0, #40
 2768 000e FFF7FEFF 		bl	lis2de12_read_reg
 2769 0012 F860     		str	r0, [r7, #12]
 852:../Drivers/BSP/Components/lis2de12/lis2de12.c ****     return ret;
 2770              		.loc 1 852 12
 2771 0014 FB68     		ldr	r3, [r7, #12]
 853:../Drivers/BSP/Components/lis2de12/lis2de12.c **** }
 2772              		.loc 1 853 1
 2773 0016 1846     		mov	r0, r3
 2774 0018 1037     		adds	r7, r7, #16
 2775              	.LCFI194:
 2776              		.cfi_def_cfa_offset 8
 2777 001a BD46     		mov	sp, r7
 2778              	.LCFI195:
 2779              		.cfi_def_cfa_register 13
 2780              		@ sp needed
 2781 001c 80BD     		pop	{r7, pc}
 2782              		.cfi_endproc
 2783              	.LFE628:
 2785              		.section	.text.lis2de12_acceleration_raw_get_x,"ax",%progbits
 2786              		.align	1
 2787              		.global	lis2de12_acceleration_raw_get_x
 2788              		.syntax unified
 2789              		.thumb
 2790              		.thumb_func
 2791              		.fpu fpv4-sp-d16
 2793              	lis2de12_acceleration_raw_get_x:
 2794              	.LFB629:
 854:../Drivers/BSP/Components/lis2de12/lis2de12.c **** 
 855:../Drivers/BSP/Components/lis2de12/lis2de12.c **** /**
 856:../Drivers/BSP/Components/lis2de12/lis2de12.c ****   * @brief  Acceleration output x value.[get]
 857:../Drivers/BSP/Components/lis2de12/lis2de12.c ****   *
 858:../Drivers/BSP/Components/lis2de12/lis2de12.c **** 
 859:../Drivers/BSP/Components/lis2de12/lis2de12.c ****   * @param  buff     buffer that stores data read
 860:../Drivers/BSP/Components/lis2de12/lis2de12.c ****   * @retval          interface status (MANDATORY: return 0 -> no Error)
 861:../Drivers/BSP/Components/lis2de12/lis2de12.c ****   *
 862:../Drivers/BSP/Components/lis2de12/lis2de12.c ****   */
 863:../Drivers/BSP/Components/lis2de12/lis2de12.c **** int32_t lis2de12_acceleration_raw_get_x( uint8_t* buff )
 864:../Drivers/BSP/Components/lis2de12/lis2de12.c **** {
 2795              		.loc 1 864 1
 2796              		.cfi_startproc
 2797              		@ args = 0, pretend = 0, frame = 16
 2798              		@ frame_needed = 1, uses_anonymous_args = 0
 2799 0000 80B5     		push	{r7, lr}
 2800              	.LCFI196:
 2801              		.cfi_def_cfa_offset 8
 2802              		.cfi_offset 7, -8
 2803              		.cfi_offset 14, -4
 2804 0002 84B0     		sub	sp, sp, #16
 2805              	.LCFI197:
 2806              		.cfi_def_cfa_offset 24
 2807 0004 00AF     		add	r7, sp, #0
 2808              	.LCFI198:
ARM GAS  /tmp/ccjphgoR.s 			page 64


 2809              		.cfi_def_cfa_register 7
 2810 0006 7860     		str	r0, [r7, #4]
 865:../Drivers/BSP/Components/lis2de12/lis2de12.c ****     int32_t ret;
 866:../Drivers/BSP/Components/lis2de12/lis2de12.c ****     ret = lis2de12_read_reg( 0x08 | LIS2DE12_OUT_X_H, buff, 2 );
 2811              		.loc 1 866 11
 2812 0008 0222     		movs	r2, #2
 2813 000a 7968     		ldr	r1, [r7, #4]
 2814 000c 2920     		movs	r0, #41
 2815 000e FFF7FEFF 		bl	lis2de12_read_reg
 2816 0012 F860     		str	r0, [r7, #12]
 867:../Drivers/BSP/Components/lis2de12/lis2de12.c ****     return ret;
 2817              		.loc 1 867 12
 2818 0014 FB68     		ldr	r3, [r7, #12]
 868:../Drivers/BSP/Components/lis2de12/lis2de12.c **** }
 2819              		.loc 1 868 1
 2820 0016 1846     		mov	r0, r3
 2821 0018 1037     		adds	r7, r7, #16
 2822              	.LCFI199:
 2823              		.cfi_def_cfa_offset 8
 2824 001a BD46     		mov	sp, r7
 2825              	.LCFI200:
 2826              		.cfi_def_cfa_register 13
 2827              		@ sp needed
 2828 001c 80BD     		pop	{r7, pc}
 2829              		.cfi_endproc
 2830              	.LFE629:
 2832              		.section	.text.lis2de12_acceleration_raw_get_y,"ax",%progbits
 2833              		.align	1
 2834              		.global	lis2de12_acceleration_raw_get_y
 2835              		.syntax unified
 2836              		.thumb
 2837              		.thumb_func
 2838              		.fpu fpv4-sp-d16
 2840              	lis2de12_acceleration_raw_get_y:
 2841              	.LFB630:
 869:../Drivers/BSP/Components/lis2de12/lis2de12.c **** 
 870:../Drivers/BSP/Components/lis2de12/lis2de12.c **** /**
 871:../Drivers/BSP/Components/lis2de12/lis2de12.c ****   * @brief  Acceleration output y value.[get]
 872:../Drivers/BSP/Components/lis2de12/lis2de12.c ****   *
 873:../Drivers/BSP/Components/lis2de12/lis2de12.c **** 
 874:../Drivers/BSP/Components/lis2de12/lis2de12.c ****   * @param  buff     buffer that stores data read
 875:../Drivers/BSP/Components/lis2de12/lis2de12.c ****   * @retval          interface status (MANDATORY: return 0 -> no Error)
 876:../Drivers/BSP/Components/lis2de12/lis2de12.c ****   *
 877:../Drivers/BSP/Components/lis2de12/lis2de12.c ****   */
 878:../Drivers/BSP/Components/lis2de12/lis2de12.c **** int32_t lis2de12_acceleration_raw_get_y( uint8_t* buff )
 879:../Drivers/BSP/Components/lis2de12/lis2de12.c **** {
 2842              		.loc 1 879 1
 2843              		.cfi_startproc
 2844              		@ args = 0, pretend = 0, frame = 16
 2845              		@ frame_needed = 1, uses_anonymous_args = 0
 2846 0000 80B5     		push	{r7, lr}
 2847              	.LCFI201:
 2848              		.cfi_def_cfa_offset 8
 2849              		.cfi_offset 7, -8
 2850              		.cfi_offset 14, -4
 2851 0002 84B0     		sub	sp, sp, #16
 2852              	.LCFI202:
ARM GAS  /tmp/ccjphgoR.s 			page 65


 2853              		.cfi_def_cfa_offset 24
 2854 0004 00AF     		add	r7, sp, #0
 2855              	.LCFI203:
 2856              		.cfi_def_cfa_register 7
 2857 0006 7860     		str	r0, [r7, #4]
 880:../Drivers/BSP/Components/lis2de12/lis2de12.c ****     int32_t ret;
 881:../Drivers/BSP/Components/lis2de12/lis2de12.c ****     ret = lis2de12_read_reg( 0x08 | LIS2DE12_OUT_Y_H, buff, 2 );
 2858              		.loc 1 881 11
 2859 0008 0222     		movs	r2, #2
 2860 000a 7968     		ldr	r1, [r7, #4]
 2861 000c 2B20     		movs	r0, #43
 2862 000e FFF7FEFF 		bl	lis2de12_read_reg
 2863 0012 F860     		str	r0, [r7, #12]
 882:../Drivers/BSP/Components/lis2de12/lis2de12.c ****     return ret;
 2864              		.loc 1 882 12
 2865 0014 FB68     		ldr	r3, [r7, #12]
 883:../Drivers/BSP/Components/lis2de12/lis2de12.c **** }
 2866              		.loc 1 883 1
 2867 0016 1846     		mov	r0, r3
 2868 0018 1037     		adds	r7, r7, #16
 2869              	.LCFI204:
 2870              		.cfi_def_cfa_offset 8
 2871 001a BD46     		mov	sp, r7
 2872              	.LCFI205:
 2873              		.cfi_def_cfa_register 13
 2874              		@ sp needed
 2875 001c 80BD     		pop	{r7, pc}
 2876              		.cfi_endproc
 2877              	.LFE630:
 2879              		.section	.text.lis2de12_acceleration_raw_get_z,"ax",%progbits
 2880              		.align	1
 2881              		.global	lis2de12_acceleration_raw_get_z
 2882              		.syntax unified
 2883              		.thumb
 2884              		.thumb_func
 2885              		.fpu fpv4-sp-d16
 2887              	lis2de12_acceleration_raw_get_z:
 2888              	.LFB631:
 884:../Drivers/BSP/Components/lis2de12/lis2de12.c **** 
 885:../Drivers/BSP/Components/lis2de12/lis2de12.c **** /**
 886:../Drivers/BSP/Components/lis2de12/lis2de12.c ****   * @brief  Acceleration output z value.[get]
 887:../Drivers/BSP/Components/lis2de12/lis2de12.c ****   *
 888:../Drivers/BSP/Components/lis2de12/lis2de12.c **** 
 889:../Drivers/BSP/Components/lis2de12/lis2de12.c ****   * @param  buff     buffer that stores data read
 890:../Drivers/BSP/Components/lis2de12/lis2de12.c ****   * @retval          interface status (MANDATORY: return 0 -> no Error)
 891:../Drivers/BSP/Components/lis2de12/lis2de12.c ****   *
 892:../Drivers/BSP/Components/lis2de12/lis2de12.c ****   */
 893:../Drivers/BSP/Components/lis2de12/lis2de12.c **** int32_t lis2de12_acceleration_raw_get_z( uint8_t* buff )
 894:../Drivers/BSP/Components/lis2de12/lis2de12.c **** {
 2889              		.loc 1 894 1
 2890              		.cfi_startproc
 2891              		@ args = 0, pretend = 0, frame = 16
 2892              		@ frame_needed = 1, uses_anonymous_args = 0
 2893 0000 80B5     		push	{r7, lr}
 2894              	.LCFI206:
 2895              		.cfi_def_cfa_offset 8
 2896              		.cfi_offset 7, -8
ARM GAS  /tmp/ccjphgoR.s 			page 66


 2897              		.cfi_offset 14, -4
 2898 0002 84B0     		sub	sp, sp, #16
 2899              	.LCFI207:
 2900              		.cfi_def_cfa_offset 24
 2901 0004 00AF     		add	r7, sp, #0
 2902              	.LCFI208:
 2903              		.cfi_def_cfa_register 7
 2904 0006 7860     		str	r0, [r7, #4]
 895:../Drivers/BSP/Components/lis2de12/lis2de12.c ****     int32_t ret;
 896:../Drivers/BSP/Components/lis2de12/lis2de12.c ****     ret = lis2de12_read_reg( 0x08 | LIS2DE12_OUT_Z_H, buff, 2 );
 2905              		.loc 1 896 11
 2906 0008 0222     		movs	r2, #2
 2907 000a 7968     		ldr	r1, [r7, #4]
 2908 000c 2D20     		movs	r0, #45
 2909 000e FFF7FEFF 		bl	lis2de12_read_reg
 2910 0012 F860     		str	r0, [r7, #12]
 897:../Drivers/BSP/Components/lis2de12/lis2de12.c ****     return ret;
 2911              		.loc 1 897 12
 2912 0014 FB68     		ldr	r3, [r7, #12]
 898:../Drivers/BSP/Components/lis2de12/lis2de12.c **** }
 2913              		.loc 1 898 1
 2914 0016 1846     		mov	r0, r3
 2915 0018 1037     		adds	r7, r7, #16
 2916              	.LCFI209:
 2917              		.cfi_def_cfa_offset 8
 2918 001a BD46     		mov	sp, r7
 2919              	.LCFI210:
 2920              		.cfi_def_cfa_register 13
 2921              		@ sp needed
 2922 001c 80BD     		pop	{r7, pc}
 2923              		.cfi_endproc
 2924              	.LFE631:
 2926              		.section	.text.lis2de12_device_id_get,"ax",%progbits
 2927              		.align	1
 2928              		.global	lis2de12_device_id_get
 2929              		.syntax unified
 2930              		.thumb
 2931              		.thumb_func
 2932              		.fpu fpv4-sp-d16
 2934              	lis2de12_device_id_get:
 2935              	.LFB632:
 899:../Drivers/BSP/Components/lis2de12/lis2de12.c **** /**
 900:../Drivers/BSP/Components/lis2de12/lis2de12.c ****  * @}
 901:../Drivers/BSP/Components/lis2de12/lis2de12.c ****  *
 902:../Drivers/BSP/Components/lis2de12/lis2de12.c ****  */
 903:../Drivers/BSP/Components/lis2de12/lis2de12.c **** 
 904:../Drivers/BSP/Components/lis2de12/lis2de12.c **** /**
 905:../Drivers/BSP/Components/lis2de12/lis2de12.c ****  * @defgroup  LIS2DE12_Common
 906:../Drivers/BSP/Components/lis2de12/lis2de12.c ****  * @brief     This section group common usefull functions
 907:../Drivers/BSP/Components/lis2de12/lis2de12.c ****  * @{
 908:../Drivers/BSP/Components/lis2de12/lis2de12.c ****  *
 909:../Drivers/BSP/Components/lis2de12/lis2de12.c ****  */
 910:../Drivers/BSP/Components/lis2de12/lis2de12.c **** 
 911:../Drivers/BSP/Components/lis2de12/lis2de12.c **** /**
 912:../Drivers/BSP/Components/lis2de12/lis2de12.c ****   * @brief  DeviceWhoamI .[get]
 913:../Drivers/BSP/Components/lis2de12/lis2de12.c ****   *
 914:../Drivers/BSP/Components/lis2de12/lis2de12.c **** 
ARM GAS  /tmp/ccjphgoR.s 			page 67


 915:../Drivers/BSP/Components/lis2de12/lis2de12.c ****   * @param  buff     buffer that stores data read
 916:../Drivers/BSP/Components/lis2de12/lis2de12.c ****   * @retval          interface status (MANDATORY: return 0 -> no Error)
 917:../Drivers/BSP/Components/lis2de12/lis2de12.c ****   *
 918:../Drivers/BSP/Components/lis2de12/lis2de12.c ****   */
 919:../Drivers/BSP/Components/lis2de12/lis2de12.c **** int32_t lis2de12_device_id_get( uint8_t* buff )
 920:../Drivers/BSP/Components/lis2de12/lis2de12.c **** {
 2936              		.loc 1 920 1
 2937              		.cfi_startproc
 2938              		@ args = 0, pretend = 0, frame = 16
 2939              		@ frame_needed = 1, uses_anonymous_args = 0
 2940 0000 80B5     		push	{r7, lr}
 2941              	.LCFI211:
 2942              		.cfi_def_cfa_offset 8
 2943              		.cfi_offset 7, -8
 2944              		.cfi_offset 14, -4
 2945 0002 84B0     		sub	sp, sp, #16
 2946              	.LCFI212:
 2947              		.cfi_def_cfa_offset 24
 2948 0004 00AF     		add	r7, sp, #0
 2949              	.LCFI213:
 2950              		.cfi_def_cfa_register 7
 2951 0006 7860     		str	r0, [r7, #4]
 921:../Drivers/BSP/Components/lis2de12/lis2de12.c ****     int32_t ret;
 922:../Drivers/BSP/Components/lis2de12/lis2de12.c ****     ret = lis2de12_read_reg( LIS2DE12_WHO_AM_I, buff, 1 );
 2952              		.loc 1 922 11
 2953 0008 0122     		movs	r2, #1
 2954 000a 7968     		ldr	r1, [r7, #4]
 2955 000c 0F20     		movs	r0, #15
 2956 000e FFF7FEFF 		bl	lis2de12_read_reg
 2957 0012 F860     		str	r0, [r7, #12]
 923:../Drivers/BSP/Components/lis2de12/lis2de12.c ****     return ret;
 2958              		.loc 1 923 12
 2959 0014 FB68     		ldr	r3, [r7, #12]
 924:../Drivers/BSP/Components/lis2de12/lis2de12.c **** }
 2960              		.loc 1 924 1
 2961 0016 1846     		mov	r0, r3
 2962 0018 1037     		adds	r7, r7, #16
 2963              	.LCFI214:
 2964              		.cfi_def_cfa_offset 8
 2965 001a BD46     		mov	sp, r7
 2966              	.LCFI215:
 2967              		.cfi_def_cfa_register 13
 2968              		@ sp needed
 2969 001c 80BD     		pop	{r7, pc}
 2970              		.cfi_endproc
 2971              	.LFE632:
 2973              		.section	.text.lis2de12_self_test_set,"ax",%progbits
 2974              		.align	1
 2975              		.global	lis2de12_self_test_set
 2976              		.syntax unified
 2977              		.thumb
 2978              		.thumb_func
 2979              		.fpu fpv4-sp-d16
 2981              	lis2de12_self_test_set:
 2982              	.LFB633:
 925:../Drivers/BSP/Components/lis2de12/lis2de12.c **** /**
 926:../Drivers/BSP/Components/lis2de12/lis2de12.c ****   * @brief  Self Test.[set]
ARM GAS  /tmp/ccjphgoR.s 			page 68


 927:../Drivers/BSP/Components/lis2de12/lis2de12.c ****   *
 928:../Drivers/BSP/Components/lis2de12/lis2de12.c **** 
 929:../Drivers/BSP/Components/lis2de12/lis2de12.c ****   * @param  val      change the values of st in reg CTRL_REG4
 930:../Drivers/BSP/Components/lis2de12/lis2de12.c ****   * @retval          interface status (MANDATORY: return 0 -> no Error)
 931:../Drivers/BSP/Components/lis2de12/lis2de12.c ****   *
 932:../Drivers/BSP/Components/lis2de12/lis2de12.c ****   */
 933:../Drivers/BSP/Components/lis2de12/lis2de12.c **** int32_t lis2de12_self_test_set( lis2de12_st_t val )
 934:../Drivers/BSP/Components/lis2de12/lis2de12.c **** {
 2983              		.loc 1 934 1
 2984              		.cfi_startproc
 2985              		@ args = 0, pretend = 0, frame = 16
 2986              		@ frame_needed = 1, uses_anonymous_args = 0
 2987 0000 80B5     		push	{r7, lr}
 2988              	.LCFI216:
 2989              		.cfi_def_cfa_offset 8
 2990              		.cfi_offset 7, -8
 2991              		.cfi_offset 14, -4
 2992 0002 84B0     		sub	sp, sp, #16
 2993              	.LCFI217:
 2994              		.cfi_def_cfa_offset 24
 2995 0004 00AF     		add	r7, sp, #0
 2996              	.LCFI218:
 2997              		.cfi_def_cfa_register 7
 2998 0006 0346     		mov	r3, r0
 2999 0008 FB71     		strb	r3, [r7, #7]
 935:../Drivers/BSP/Components/lis2de12/lis2de12.c ****     lis2de12_ctrl_reg4_t ctrl_reg4;
 936:../Drivers/BSP/Components/lis2de12/lis2de12.c ****     int32_t              ret;
 937:../Drivers/BSP/Components/lis2de12/lis2de12.c **** 
 938:../Drivers/BSP/Components/lis2de12/lis2de12.c ****     ret = lis2de12_read_reg( LIS2DE12_CTRL_REG4, ( uint8_t* ) &ctrl_reg4, 1 );
 3000              		.loc 1 938 11
 3001 000a 07F10803 		add	r3, r7, #8
 3002 000e 0122     		movs	r2, #1
 3003 0010 1946     		mov	r1, r3
 3004 0012 2320     		movs	r0, #35
 3005 0014 FFF7FEFF 		bl	lis2de12_read_reg
 3006 0018 F860     		str	r0, [r7, #12]
 939:../Drivers/BSP/Components/lis2de12/lis2de12.c ****     if( ret == 0 )
 3007              		.loc 1 939 7
 3008 001a FB68     		ldr	r3, [r7, #12]
 3009 001c 002B     		cmp	r3, #0
 3010 001e 0FD1     		bne	.L171
 940:../Drivers/BSP/Components/lis2de12/lis2de12.c ****     {
 941:../Drivers/BSP/Components/lis2de12/lis2de12.c ****         ctrl_reg4.st = ( uint8_t ) val;
 3011              		.loc 1 941 24
 3012 0020 FB79     		ldrb	r3, [r7, #7]
 3013 0022 03F00303 		and	r3, r3, #3
 3014 0026 DAB2     		uxtb	r2, r3
 3015              		.loc 1 941 22
 3016 0028 3B7A     		ldrb	r3, [r7, #8]
 3017 002a 62F34203 		bfi	r3, r2, #1, #2
 3018 002e 3B72     		strb	r3, [r7, #8]
 942:../Drivers/BSP/Components/lis2de12/lis2de12.c ****         ret          = lis2de12_write_reg( LIS2DE12_CTRL_REG4, ( uint8_t* ) &ctrl_reg4, 1 );
 3019              		.loc 1 942 24
 3020 0030 07F10803 		add	r3, r7, #8
 3021 0034 0122     		movs	r2, #1
 3022 0036 1946     		mov	r1, r3
 3023 0038 2320     		movs	r0, #35
ARM GAS  /tmp/ccjphgoR.s 			page 69


 3024 003a FFF7FEFF 		bl	lis2de12_write_reg
 3025 003e F860     		str	r0, [r7, #12]
 3026              	.L171:
 943:../Drivers/BSP/Components/lis2de12/lis2de12.c ****     }
 944:../Drivers/BSP/Components/lis2de12/lis2de12.c ****     return ret;
 3027              		.loc 1 944 12
 3028 0040 FB68     		ldr	r3, [r7, #12]
 945:../Drivers/BSP/Components/lis2de12/lis2de12.c **** }
 3029              		.loc 1 945 1
 3030 0042 1846     		mov	r0, r3
 3031 0044 1037     		adds	r7, r7, #16
 3032              	.LCFI219:
 3033              		.cfi_def_cfa_offset 8
 3034 0046 BD46     		mov	sp, r7
 3035              	.LCFI220:
 3036              		.cfi_def_cfa_register 13
 3037              		@ sp needed
 3038 0048 80BD     		pop	{r7, pc}
 3039              		.cfi_endproc
 3040              	.LFE633:
 3042              		.section	.text.lis2de12_self_test_get,"ax",%progbits
 3043              		.align	1
 3044              		.global	lis2de12_self_test_get
 3045              		.syntax unified
 3046              		.thumb
 3047              		.thumb_func
 3048              		.fpu fpv4-sp-d16
 3050              	lis2de12_self_test_get:
 3051              	.LFB634:
 946:../Drivers/BSP/Components/lis2de12/lis2de12.c **** 
 947:../Drivers/BSP/Components/lis2de12/lis2de12.c **** /**
 948:../Drivers/BSP/Components/lis2de12/lis2de12.c ****   * @brief  Self Test.[get]
 949:../Drivers/BSP/Components/lis2de12/lis2de12.c ****   *
 950:../Drivers/BSP/Components/lis2de12/lis2de12.c **** 
 951:../Drivers/BSP/Components/lis2de12/lis2de12.c ****   * @param  val      Get the values of st in reg CTRL_REG4
 952:../Drivers/BSP/Components/lis2de12/lis2de12.c ****   * @retval          interface status (MANDATORY: return 0 -> no Error)
 953:../Drivers/BSP/Components/lis2de12/lis2de12.c ****   *
 954:../Drivers/BSP/Components/lis2de12/lis2de12.c ****   */
 955:../Drivers/BSP/Components/lis2de12/lis2de12.c **** int32_t lis2de12_self_test_get( lis2de12_st_t* val )
 956:../Drivers/BSP/Components/lis2de12/lis2de12.c **** {
 3052              		.loc 1 956 1
 3053              		.cfi_startproc
 3054              		@ args = 0, pretend = 0, frame = 16
 3055              		@ frame_needed = 1, uses_anonymous_args = 0
 3056 0000 80B5     		push	{r7, lr}
 3057              	.LCFI221:
 3058              		.cfi_def_cfa_offset 8
 3059              		.cfi_offset 7, -8
 3060              		.cfi_offset 14, -4
 3061 0002 84B0     		sub	sp, sp, #16
 3062              	.LCFI222:
 3063              		.cfi_def_cfa_offset 24
 3064 0004 00AF     		add	r7, sp, #0
 3065              	.LCFI223:
 3066              		.cfi_def_cfa_register 7
 3067 0006 7860     		str	r0, [r7, #4]
 957:../Drivers/BSP/Components/lis2de12/lis2de12.c ****     lis2de12_ctrl_reg4_t ctrl_reg4;
ARM GAS  /tmp/ccjphgoR.s 			page 70


 958:../Drivers/BSP/Components/lis2de12/lis2de12.c ****     int32_t              ret;
 959:../Drivers/BSP/Components/lis2de12/lis2de12.c **** 
 960:../Drivers/BSP/Components/lis2de12/lis2de12.c ****     ret = lis2de12_read_reg( LIS2DE12_CTRL_REG4, ( uint8_t* ) &ctrl_reg4, 1 );
 3068              		.loc 1 960 11
 3069 0008 07F10803 		add	r3, r7, #8
 3070 000c 0122     		movs	r2, #1
 3071 000e 1946     		mov	r1, r3
 3072 0010 2320     		movs	r0, #35
 3073 0012 FFF7FEFF 		bl	lis2de12_read_reg
 3074 0016 F860     		str	r0, [r7, #12]
 961:../Drivers/BSP/Components/lis2de12/lis2de12.c ****     switch( ctrl_reg4.st )
 3075              		.loc 1 961 22
 3076 0018 3B7A     		ldrb	r3, [r7, #8]
 3077 001a C3F34103 		ubfx	r3, r3, #1, #2
 3078 001e DBB2     		uxtb	r3, r3
 3079              		.loc 1 961 5
 3080 0020 022B     		cmp	r3, #2
 3081 0022 0ED0     		beq	.L174
 3082 0024 022B     		cmp	r3, #2
 3083 0026 10DC     		bgt	.L175
 3084 0028 002B     		cmp	r3, #0
 3085 002a 02D0     		beq	.L176
 3086 002c 012B     		cmp	r3, #1
 3087 002e 04D0     		beq	.L177
 3088 0030 0BE0     		b	.L175
 3089              	.L176:
 962:../Drivers/BSP/Components/lis2de12/lis2de12.c ****     {
 963:../Drivers/BSP/Components/lis2de12/lis2de12.c ****     case LIS2DE12_ST_DISABLE:
 964:../Drivers/BSP/Components/lis2de12/lis2de12.c ****         *val = LIS2DE12_ST_DISABLE;
 3090              		.loc 1 964 14
 3091 0032 7B68     		ldr	r3, [r7, #4]
 3092 0034 0022     		movs	r2, #0
 3093 0036 1A70     		strb	r2, [r3]
 965:../Drivers/BSP/Components/lis2de12/lis2de12.c ****         break;
 3094              		.loc 1 965 9
 3095 0038 0BE0     		b	.L178
 3096              	.L177:
 966:../Drivers/BSP/Components/lis2de12/lis2de12.c ****     case LIS2DE12_ST_POSITIVE:
 967:../Drivers/BSP/Components/lis2de12/lis2de12.c ****         *val = LIS2DE12_ST_POSITIVE;
 3097              		.loc 1 967 14
 3098 003a 7B68     		ldr	r3, [r7, #4]
 3099 003c 0122     		movs	r2, #1
 3100 003e 1A70     		strb	r2, [r3]
 968:../Drivers/BSP/Components/lis2de12/lis2de12.c ****         break;
 3101              		.loc 1 968 9
 3102 0040 07E0     		b	.L178
 3103              	.L174:
 969:../Drivers/BSP/Components/lis2de12/lis2de12.c ****     case LIS2DE12_ST_NEGATIVE:
 970:../Drivers/BSP/Components/lis2de12/lis2de12.c ****         *val = LIS2DE12_ST_NEGATIVE;
 3104              		.loc 1 970 14
 3105 0042 7B68     		ldr	r3, [r7, #4]
 3106 0044 0222     		movs	r2, #2
 3107 0046 1A70     		strb	r2, [r3]
 971:../Drivers/BSP/Components/lis2de12/lis2de12.c ****         break;
 3108              		.loc 1 971 9
 3109 0048 03E0     		b	.L178
 3110              	.L175:
ARM GAS  /tmp/ccjphgoR.s 			page 71


 972:../Drivers/BSP/Components/lis2de12/lis2de12.c ****     default:
 973:../Drivers/BSP/Components/lis2de12/lis2de12.c ****         *val = LIS2DE12_ST_DISABLE;
 3111              		.loc 1 973 14
 3112 004a 7B68     		ldr	r3, [r7, #4]
 3113 004c 0022     		movs	r2, #0
 3114 004e 1A70     		strb	r2, [r3]
 974:../Drivers/BSP/Components/lis2de12/lis2de12.c ****         break;
 3115              		.loc 1 974 9
 3116 0050 00BF     		nop
 3117              	.L178:
 975:../Drivers/BSP/Components/lis2de12/lis2de12.c ****     }
 976:../Drivers/BSP/Components/lis2de12/lis2de12.c ****     return ret;
 3118              		.loc 1 976 12
 3119 0052 FB68     		ldr	r3, [r7, #12]
 977:../Drivers/BSP/Components/lis2de12/lis2de12.c **** }
 3120              		.loc 1 977 1
 3121 0054 1846     		mov	r0, r3
 3122 0056 1037     		adds	r7, r7, #16
 3123              	.LCFI224:
 3124              		.cfi_def_cfa_offset 8
 3125 0058 BD46     		mov	sp, r7
 3126              	.LCFI225:
 3127              		.cfi_def_cfa_register 13
 3128              		@ sp needed
 3129 005a 80BD     		pop	{r7, pc}
 3130              		.cfi_endproc
 3131              	.LFE634:
 3133              		.section	.text.lis2de12_boot_set,"ax",%progbits
 3134              		.align	1
 3135              		.global	lis2de12_boot_set
 3136              		.syntax unified
 3137              		.thumb
 3138              		.thumb_func
 3139              		.fpu fpv4-sp-d16
 3141              	lis2de12_boot_set:
 3142              	.LFB635:
 978:../Drivers/BSP/Components/lis2de12/lis2de12.c **** 
 979:../Drivers/BSP/Components/lis2de12/lis2de12.c **** /**
 980:../Drivers/BSP/Components/lis2de12/lis2de12.c ****   * @brief  Reboot memory content. Reload the calibration parameters.[set]
 981:../Drivers/BSP/Components/lis2de12/lis2de12.c ****   *
 982:../Drivers/BSP/Components/lis2de12/lis2de12.c **** 
 983:../Drivers/BSP/Components/lis2de12/lis2de12.c ****   * @param  val      change the values of boot in reg CTRL_REG5
 984:../Drivers/BSP/Components/lis2de12/lis2de12.c ****   * @retval          interface status (MANDATORY: return 0 -> no Error)
 985:../Drivers/BSP/Components/lis2de12/lis2de12.c ****   *
 986:../Drivers/BSP/Components/lis2de12/lis2de12.c ****   */
 987:../Drivers/BSP/Components/lis2de12/lis2de12.c **** int32_t lis2de12_boot_set( uint8_t val )
 988:../Drivers/BSP/Components/lis2de12/lis2de12.c **** {
 3143              		.loc 1 988 1
 3144              		.cfi_startproc
 3145              		@ args = 0, pretend = 0, frame = 16
 3146              		@ frame_needed = 1, uses_anonymous_args = 0
 3147 0000 80B5     		push	{r7, lr}
 3148              	.LCFI226:
 3149              		.cfi_def_cfa_offset 8
 3150              		.cfi_offset 7, -8
 3151              		.cfi_offset 14, -4
 3152 0002 84B0     		sub	sp, sp, #16
ARM GAS  /tmp/ccjphgoR.s 			page 72


 3153              	.LCFI227:
 3154              		.cfi_def_cfa_offset 24
 3155 0004 00AF     		add	r7, sp, #0
 3156              	.LCFI228:
 3157              		.cfi_def_cfa_register 7
 3158 0006 0346     		mov	r3, r0
 3159 0008 FB71     		strb	r3, [r7, #7]
 989:../Drivers/BSP/Components/lis2de12/lis2de12.c ****     lis2de12_ctrl_reg5_t ctrl_reg5;
 990:../Drivers/BSP/Components/lis2de12/lis2de12.c ****     int32_t              ret;
 991:../Drivers/BSP/Components/lis2de12/lis2de12.c **** 
 992:../Drivers/BSP/Components/lis2de12/lis2de12.c ****     ret = lis2de12_read_reg( LIS2DE12_CTRL_REG5, ( uint8_t* ) &ctrl_reg5, 1 );
 3160              		.loc 1 992 11
 3161 000a 07F10803 		add	r3, r7, #8
 3162 000e 0122     		movs	r2, #1
 3163 0010 1946     		mov	r1, r3
 3164 0012 2420     		movs	r0, #36
 3165 0014 FFF7FEFF 		bl	lis2de12_read_reg
 3166 0018 F860     		str	r0, [r7, #12]
 993:../Drivers/BSP/Components/lis2de12/lis2de12.c ****     if( ret == 0 )
 3167              		.loc 1 993 7
 3168 001a FB68     		ldr	r3, [r7, #12]
 3169 001c 002B     		cmp	r3, #0
 3170 001e 0FD1     		bne	.L181
 994:../Drivers/BSP/Components/lis2de12/lis2de12.c ****     {
 995:../Drivers/BSP/Components/lis2de12/lis2de12.c ****         ctrl_reg5.boot = val;
 3171              		.loc 1 995 24
 3172 0020 FB79     		ldrb	r3, [r7, #7]
 3173 0022 03F00103 		and	r3, r3, #1
 3174 0026 DAB2     		uxtb	r2, r3
 3175 0028 3B7A     		ldrb	r3, [r7, #8]
 3176 002a 62F3C713 		bfi	r3, r2, #7, #1
 3177 002e 3B72     		strb	r3, [r7, #8]
 996:../Drivers/BSP/Components/lis2de12/lis2de12.c ****         ret            = lis2de12_write_reg( LIS2DE12_CTRL_REG5, ( uint8_t* ) &ctrl_reg5, 1 );
 3178              		.loc 1 996 26
 3179 0030 07F10803 		add	r3, r7, #8
 3180 0034 0122     		movs	r2, #1
 3181 0036 1946     		mov	r1, r3
 3182 0038 2420     		movs	r0, #36
 3183 003a FFF7FEFF 		bl	lis2de12_write_reg
 3184 003e F860     		str	r0, [r7, #12]
 3185              	.L181:
 997:../Drivers/BSP/Components/lis2de12/lis2de12.c ****     }
 998:../Drivers/BSP/Components/lis2de12/lis2de12.c ****     return ret;
 3186              		.loc 1 998 12
 3187 0040 FB68     		ldr	r3, [r7, #12]
 999:../Drivers/BSP/Components/lis2de12/lis2de12.c **** }
 3188              		.loc 1 999 1
 3189 0042 1846     		mov	r0, r3
 3190 0044 1037     		adds	r7, r7, #16
 3191              	.LCFI229:
 3192              		.cfi_def_cfa_offset 8
 3193 0046 BD46     		mov	sp, r7
 3194              	.LCFI230:
 3195              		.cfi_def_cfa_register 13
 3196              		@ sp needed
 3197 0048 80BD     		pop	{r7, pc}
 3198              		.cfi_endproc
ARM GAS  /tmp/ccjphgoR.s 			page 73


 3199              	.LFE635:
 3201              		.section	.text.lis2de12_boot_get,"ax",%progbits
 3202              		.align	1
 3203              		.global	lis2de12_boot_get
 3204              		.syntax unified
 3205              		.thumb
 3206              		.thumb_func
 3207              		.fpu fpv4-sp-d16
 3209              	lis2de12_boot_get:
 3210              	.LFB636:
1000:../Drivers/BSP/Components/lis2de12/lis2de12.c **** 
1001:../Drivers/BSP/Components/lis2de12/lis2de12.c **** /**
1002:../Drivers/BSP/Components/lis2de12/lis2de12.c ****   * @brief  Reboot memory content. Reload the calibration parameters.[get]
1003:../Drivers/BSP/Components/lis2de12/lis2de12.c ****   *
1004:../Drivers/BSP/Components/lis2de12/lis2de12.c **** 
1005:../Drivers/BSP/Components/lis2de12/lis2de12.c ****   * @param  val      change the values of boot in reg CTRL_REG5
1006:../Drivers/BSP/Components/lis2de12/lis2de12.c ****   * @retval          interface status (MANDATORY: return 0 -> no Error)
1007:../Drivers/BSP/Components/lis2de12/lis2de12.c ****   *
1008:../Drivers/BSP/Components/lis2de12/lis2de12.c ****   */
1009:../Drivers/BSP/Components/lis2de12/lis2de12.c **** int32_t lis2de12_boot_get( uint8_t* val )
1010:../Drivers/BSP/Components/lis2de12/lis2de12.c **** {
 3211              		.loc 1 1010 1
 3212              		.cfi_startproc
 3213              		@ args = 0, pretend = 0, frame = 16
 3214              		@ frame_needed = 1, uses_anonymous_args = 0
 3215 0000 80B5     		push	{r7, lr}
 3216              	.LCFI231:
 3217              		.cfi_def_cfa_offset 8
 3218              		.cfi_offset 7, -8
 3219              		.cfi_offset 14, -4
 3220 0002 84B0     		sub	sp, sp, #16
 3221              	.LCFI232:
 3222              		.cfi_def_cfa_offset 24
 3223 0004 00AF     		add	r7, sp, #0
 3224              	.LCFI233:
 3225              		.cfi_def_cfa_register 7
 3226 0006 7860     		str	r0, [r7, #4]
1011:../Drivers/BSP/Components/lis2de12/lis2de12.c ****     lis2de12_ctrl_reg5_t ctrl_reg5;
1012:../Drivers/BSP/Components/lis2de12/lis2de12.c ****     int32_t              ret;
1013:../Drivers/BSP/Components/lis2de12/lis2de12.c **** 
1014:../Drivers/BSP/Components/lis2de12/lis2de12.c ****     ret  = lis2de12_read_reg( LIS2DE12_CTRL_REG5, ( uint8_t* ) &ctrl_reg5, 1 );
 3227              		.loc 1 1014 12
 3228 0008 07F10803 		add	r3, r7, #8
 3229 000c 0122     		movs	r2, #1
 3230 000e 1946     		mov	r1, r3
 3231 0010 2420     		movs	r0, #36
 3232 0012 FFF7FEFF 		bl	lis2de12_read_reg
 3233 0016 F860     		str	r0, [r7, #12]
1015:../Drivers/BSP/Components/lis2de12/lis2de12.c ****     *val = ( uint8_t ) ctrl_reg5.boot;
 3234              		.loc 1 1015 33
 3235 0018 3B7A     		ldrb	r3, [r7, #8]
 3236 001a C3F3C013 		ubfx	r3, r3, #7, #1
 3237 001e DBB2     		uxtb	r3, r3
 3238              		.loc 1 1015 12
 3239 0020 1A46     		mov	r2, r3
 3240              		.loc 1 1015 10
 3241 0022 7B68     		ldr	r3, [r7, #4]
ARM GAS  /tmp/ccjphgoR.s 			page 74


 3242 0024 1A70     		strb	r2, [r3]
1016:../Drivers/BSP/Components/lis2de12/lis2de12.c **** 
1017:../Drivers/BSP/Components/lis2de12/lis2de12.c ****     return ret;
 3243              		.loc 1 1017 12
 3244 0026 FB68     		ldr	r3, [r7, #12]
1018:../Drivers/BSP/Components/lis2de12/lis2de12.c **** }
 3245              		.loc 1 1018 1
 3246 0028 1846     		mov	r0, r3
 3247 002a 1037     		adds	r7, r7, #16
 3248              	.LCFI234:
 3249              		.cfi_def_cfa_offset 8
 3250 002c BD46     		mov	sp, r7
 3251              	.LCFI235:
 3252              		.cfi_def_cfa_register 13
 3253              		@ sp needed
 3254 002e 80BD     		pop	{r7, pc}
 3255              		.cfi_endproc
 3256              	.LFE636:
 3258              		.section	.text.lis2de12_status_get,"ax",%progbits
 3259              		.align	1
 3260              		.global	lis2de12_status_get
 3261              		.syntax unified
 3262              		.thumb
 3263              		.thumb_func
 3264              		.fpu fpv4-sp-d16
 3266              	lis2de12_status_get:
 3267              	.LFB637:
1019:../Drivers/BSP/Components/lis2de12/lis2de12.c **** 
1020:../Drivers/BSP/Components/lis2de12/lis2de12.c **** /**
1021:../Drivers/BSP/Components/lis2de12/lis2de12.c ****   * @brief  Info about device status.[get]
1022:../Drivers/BSP/Components/lis2de12/lis2de12.c ****   *
1023:../Drivers/BSP/Components/lis2de12/lis2de12.c **** 
1024:../Drivers/BSP/Components/lis2de12/lis2de12.c ****   * @param  val      register STATUS_REG
1025:../Drivers/BSP/Components/lis2de12/lis2de12.c ****   * @retval          interface status (MANDATORY: return 0 -> no Error)
1026:../Drivers/BSP/Components/lis2de12/lis2de12.c ****   *
1027:../Drivers/BSP/Components/lis2de12/lis2de12.c ****   */
1028:../Drivers/BSP/Components/lis2de12/lis2de12.c **** int32_t lis2de12_status_get( lis2de12_status_reg_t* val )
1029:../Drivers/BSP/Components/lis2de12/lis2de12.c **** {
 3268              		.loc 1 1029 1
 3269              		.cfi_startproc
 3270              		@ args = 0, pretend = 0, frame = 16
 3271              		@ frame_needed = 1, uses_anonymous_args = 0
 3272 0000 80B5     		push	{r7, lr}
 3273              	.LCFI236:
 3274              		.cfi_def_cfa_offset 8
 3275              		.cfi_offset 7, -8
 3276              		.cfi_offset 14, -4
 3277 0002 84B0     		sub	sp, sp, #16
 3278              	.LCFI237:
 3279              		.cfi_def_cfa_offset 24
 3280 0004 00AF     		add	r7, sp, #0
 3281              	.LCFI238:
 3282              		.cfi_def_cfa_register 7
 3283 0006 7860     		str	r0, [r7, #4]
1030:../Drivers/BSP/Components/lis2de12/lis2de12.c ****     int32_t ret;
1031:../Drivers/BSP/Components/lis2de12/lis2de12.c ****     ret = lis2de12_read_reg( LIS2DE12_STATUS_REG, ( uint8_t* ) val, 1 );
 3284              		.loc 1 1031 11
ARM GAS  /tmp/ccjphgoR.s 			page 75


 3285 0008 0122     		movs	r2, #1
 3286 000a 7968     		ldr	r1, [r7, #4]
 3287 000c 2720     		movs	r0, #39
 3288 000e FFF7FEFF 		bl	lis2de12_read_reg
 3289 0012 F860     		str	r0, [r7, #12]
1032:../Drivers/BSP/Components/lis2de12/lis2de12.c ****     return ret;
 3290              		.loc 1 1032 12
 3291 0014 FB68     		ldr	r3, [r7, #12]
1033:../Drivers/BSP/Components/lis2de12/lis2de12.c **** }
 3292              		.loc 1 1033 1
 3293 0016 1846     		mov	r0, r3
 3294 0018 1037     		adds	r7, r7, #16
 3295              	.LCFI239:
 3296              		.cfi_def_cfa_offset 8
 3297 001a BD46     		mov	sp, r7
 3298              	.LCFI240:
 3299              		.cfi_def_cfa_register 13
 3300              		@ sp needed
 3301 001c 80BD     		pop	{r7, pc}
 3302              		.cfi_endproc
 3303              	.LFE637:
 3305              		.section	.text.lis2de12_int1_gen_conf_set,"ax",%progbits
 3306              		.align	1
 3307              		.global	lis2de12_int1_gen_conf_set
 3308              		.syntax unified
 3309              		.thumb
 3310              		.thumb_func
 3311              		.fpu fpv4-sp-d16
 3313              	lis2de12_int1_gen_conf_set:
 3314              	.LFB638:
1034:../Drivers/BSP/Components/lis2de12/lis2de12.c **** /**
1035:../Drivers/BSP/Components/lis2de12/lis2de12.c ****  * @}
1036:../Drivers/BSP/Components/lis2de12/lis2de12.c ****  *
1037:../Drivers/BSP/Components/lis2de12/lis2de12.c ****  */
1038:../Drivers/BSP/Components/lis2de12/lis2de12.c **** 
1039:../Drivers/BSP/Components/lis2de12/lis2de12.c **** /**
1040:../Drivers/BSP/Components/lis2de12/lis2de12.c ****  * @defgroup   LIS2DE12_Interrupts_generator_1
1041:../Drivers/BSP/Components/lis2de12/lis2de12.c ****  * @brief      This section group all the functions that manage the first
1042:../Drivers/BSP/Components/lis2de12/lis2de12.c ****  *             interrupts generator
1043:../Drivers/BSP/Components/lis2de12/lis2de12.c ****  * @{
1044:../Drivers/BSP/Components/lis2de12/lis2de12.c ****  *
1045:../Drivers/BSP/Components/lis2de12/lis2de12.c ****  */
1046:../Drivers/BSP/Components/lis2de12/lis2de12.c **** 
1047:../Drivers/BSP/Components/lis2de12/lis2de12.c **** /**
1048:../Drivers/BSP/Components/lis2de12/lis2de12.c ****   * @brief  Interrupt generator 1 configuration register.[set]
1049:../Drivers/BSP/Components/lis2de12/lis2de12.c ****   *
1050:../Drivers/BSP/Components/lis2de12/lis2de12.c **** 
1051:../Drivers/BSP/Components/lis2de12/lis2de12.c ****   * @param  val      register INT1_CFG
1052:../Drivers/BSP/Components/lis2de12/lis2de12.c ****   * @retval          interface status (MANDATORY: return 0 -> no Error)
1053:../Drivers/BSP/Components/lis2de12/lis2de12.c ****   *
1054:../Drivers/BSP/Components/lis2de12/lis2de12.c ****   */
1055:../Drivers/BSP/Components/lis2de12/lis2de12.c **** int32_t lis2de12_int1_gen_conf_set( lis2de12_int1_cfg_t* val )
1056:../Drivers/BSP/Components/lis2de12/lis2de12.c **** {
 3315              		.loc 1 1056 1
 3316              		.cfi_startproc
 3317              		@ args = 0, pretend = 0, frame = 16
 3318              		@ frame_needed = 1, uses_anonymous_args = 0
ARM GAS  /tmp/ccjphgoR.s 			page 76


 3319 0000 80B5     		push	{r7, lr}
 3320              	.LCFI241:
 3321              		.cfi_def_cfa_offset 8
 3322              		.cfi_offset 7, -8
 3323              		.cfi_offset 14, -4
 3324 0002 84B0     		sub	sp, sp, #16
 3325              	.LCFI242:
 3326              		.cfi_def_cfa_offset 24
 3327 0004 00AF     		add	r7, sp, #0
 3328              	.LCFI243:
 3329              		.cfi_def_cfa_register 7
 3330 0006 7860     		str	r0, [r7, #4]
1057:../Drivers/BSP/Components/lis2de12/lis2de12.c ****     int32_t ret;
1058:../Drivers/BSP/Components/lis2de12/lis2de12.c ****     ret = lis2de12_write_reg( LIS2DE12_INT1_CFG, ( uint8_t* ) val, 1 );
 3331              		.loc 1 1058 11
 3332 0008 0122     		movs	r2, #1
 3333 000a 7968     		ldr	r1, [r7, #4]
 3334 000c 3020     		movs	r0, #48
 3335 000e FFF7FEFF 		bl	lis2de12_write_reg
 3336 0012 F860     		str	r0, [r7, #12]
1059:../Drivers/BSP/Components/lis2de12/lis2de12.c ****     return ret;
 3337              		.loc 1 1059 12
 3338 0014 FB68     		ldr	r3, [r7, #12]
1060:../Drivers/BSP/Components/lis2de12/lis2de12.c **** }
 3339              		.loc 1 1060 1
 3340 0016 1846     		mov	r0, r3
 3341 0018 1037     		adds	r7, r7, #16
 3342              	.LCFI244:
 3343              		.cfi_def_cfa_offset 8
 3344 001a BD46     		mov	sp, r7
 3345              	.LCFI245:
 3346              		.cfi_def_cfa_register 13
 3347              		@ sp needed
 3348 001c 80BD     		pop	{r7, pc}
 3349              		.cfi_endproc
 3350              	.LFE638:
 3352              		.section	.text.lis2de12_int1_gen_conf_get,"ax",%progbits
 3353              		.align	1
 3354              		.global	lis2de12_int1_gen_conf_get
 3355              		.syntax unified
 3356              		.thumb
 3357              		.thumb_func
 3358              		.fpu fpv4-sp-d16
 3360              	lis2de12_int1_gen_conf_get:
 3361              	.LFB639:
1061:../Drivers/BSP/Components/lis2de12/lis2de12.c **** 
1062:../Drivers/BSP/Components/lis2de12/lis2de12.c **** /**
1063:../Drivers/BSP/Components/lis2de12/lis2de12.c ****   * @brief  Interrupt generator 1 configuration register.[get]
1064:../Drivers/BSP/Components/lis2de12/lis2de12.c ****   *
1065:../Drivers/BSP/Components/lis2de12/lis2de12.c **** 
1066:../Drivers/BSP/Components/lis2de12/lis2de12.c ****   * @param  val      register INT1_CFG
1067:../Drivers/BSP/Components/lis2de12/lis2de12.c ****   * @retval          interface status (MANDATORY: return 0 -> no Error)
1068:../Drivers/BSP/Components/lis2de12/lis2de12.c ****   *
1069:../Drivers/BSP/Components/lis2de12/lis2de12.c ****   */
1070:../Drivers/BSP/Components/lis2de12/lis2de12.c **** int32_t lis2de12_int1_gen_conf_get( lis2de12_int1_cfg_t* val )
1071:../Drivers/BSP/Components/lis2de12/lis2de12.c **** {
 3362              		.loc 1 1071 1
ARM GAS  /tmp/ccjphgoR.s 			page 77


 3363              		.cfi_startproc
 3364              		@ args = 0, pretend = 0, frame = 16
 3365              		@ frame_needed = 1, uses_anonymous_args = 0
 3366 0000 80B5     		push	{r7, lr}
 3367              	.LCFI246:
 3368              		.cfi_def_cfa_offset 8
 3369              		.cfi_offset 7, -8
 3370              		.cfi_offset 14, -4
 3371 0002 84B0     		sub	sp, sp, #16
 3372              	.LCFI247:
 3373              		.cfi_def_cfa_offset 24
 3374 0004 00AF     		add	r7, sp, #0
 3375              	.LCFI248:
 3376              		.cfi_def_cfa_register 7
 3377 0006 7860     		str	r0, [r7, #4]
1072:../Drivers/BSP/Components/lis2de12/lis2de12.c ****     int32_t ret;
1073:../Drivers/BSP/Components/lis2de12/lis2de12.c ****     ret = lis2de12_read_reg( LIS2DE12_INT1_CFG, ( uint8_t* ) val, 1 );
 3378              		.loc 1 1073 11
 3379 0008 0122     		movs	r2, #1
 3380 000a 7968     		ldr	r1, [r7, #4]
 3381 000c 3020     		movs	r0, #48
 3382 000e FFF7FEFF 		bl	lis2de12_read_reg
 3383 0012 F860     		str	r0, [r7, #12]
1074:../Drivers/BSP/Components/lis2de12/lis2de12.c ****     return ret;
 3384              		.loc 1 1074 12
 3385 0014 FB68     		ldr	r3, [r7, #12]
1075:../Drivers/BSP/Components/lis2de12/lis2de12.c **** }
 3386              		.loc 1 1075 1
 3387 0016 1846     		mov	r0, r3
 3388 0018 1037     		adds	r7, r7, #16
 3389              	.LCFI249:
 3390              		.cfi_def_cfa_offset 8
 3391 001a BD46     		mov	sp, r7
 3392              	.LCFI250:
 3393              		.cfi_def_cfa_register 13
 3394              		@ sp needed
 3395 001c 80BD     		pop	{r7, pc}
 3396              		.cfi_endproc
 3397              	.LFE639:
 3399              		.section	.text.lis2de12_int1_gen_source_get,"ax",%progbits
 3400              		.align	1
 3401              		.global	lis2de12_int1_gen_source_get
 3402              		.syntax unified
 3403              		.thumb
 3404              		.thumb_func
 3405              		.fpu fpv4-sp-d16
 3407              	lis2de12_int1_gen_source_get:
 3408              	.LFB640:
1076:../Drivers/BSP/Components/lis2de12/lis2de12.c **** 
1077:../Drivers/BSP/Components/lis2de12/lis2de12.c **** /**
1078:../Drivers/BSP/Components/lis2de12/lis2de12.c ****   * @brief  Interrupt generator 1 source register.[get]
1079:../Drivers/BSP/Components/lis2de12/lis2de12.c ****   *
1080:../Drivers/BSP/Components/lis2de12/lis2de12.c **** 
1081:../Drivers/BSP/Components/lis2de12/lis2de12.c ****   * @param  val      Registers INT1_SRC
1082:../Drivers/BSP/Components/lis2de12/lis2de12.c ****   * @retval          interface status (MANDATORY: return 0 -> no Error)
1083:../Drivers/BSP/Components/lis2de12/lis2de12.c ****   *
1084:../Drivers/BSP/Components/lis2de12/lis2de12.c ****   */
ARM GAS  /tmp/ccjphgoR.s 			page 78


1085:../Drivers/BSP/Components/lis2de12/lis2de12.c **** int32_t lis2de12_int1_gen_source_get( lis2de12_int1_src_t* val )
1086:../Drivers/BSP/Components/lis2de12/lis2de12.c **** {
 3409              		.loc 1 1086 1
 3410              		.cfi_startproc
 3411              		@ args = 0, pretend = 0, frame = 16
 3412              		@ frame_needed = 1, uses_anonymous_args = 0
 3413 0000 80B5     		push	{r7, lr}
 3414              	.LCFI251:
 3415              		.cfi_def_cfa_offset 8
 3416              		.cfi_offset 7, -8
 3417              		.cfi_offset 14, -4
 3418 0002 84B0     		sub	sp, sp, #16
 3419              	.LCFI252:
 3420              		.cfi_def_cfa_offset 24
 3421 0004 00AF     		add	r7, sp, #0
 3422              	.LCFI253:
 3423              		.cfi_def_cfa_register 7
 3424 0006 7860     		str	r0, [r7, #4]
1087:../Drivers/BSP/Components/lis2de12/lis2de12.c ****     int32_t ret;
1088:../Drivers/BSP/Components/lis2de12/lis2de12.c ****     ret = lis2de12_read_reg( LIS2DE12_INT1_SRC, ( uint8_t* ) val, 1 );
 3425              		.loc 1 1088 11
 3426 0008 0122     		movs	r2, #1
 3427 000a 7968     		ldr	r1, [r7, #4]
 3428 000c 3120     		movs	r0, #49
 3429 000e FFF7FEFF 		bl	lis2de12_read_reg
 3430 0012 F860     		str	r0, [r7, #12]
1089:../Drivers/BSP/Components/lis2de12/lis2de12.c ****     return ret;
 3431              		.loc 1 1089 12
 3432 0014 FB68     		ldr	r3, [r7, #12]
1090:../Drivers/BSP/Components/lis2de12/lis2de12.c **** }
 3433              		.loc 1 1090 1
 3434 0016 1846     		mov	r0, r3
 3435 0018 1037     		adds	r7, r7, #16
 3436              	.LCFI254:
 3437              		.cfi_def_cfa_offset 8
 3438 001a BD46     		mov	sp, r7
 3439              	.LCFI255:
 3440              		.cfi_def_cfa_register 13
 3441              		@ sp needed
 3442 001c 80BD     		pop	{r7, pc}
 3443              		.cfi_endproc
 3444              	.LFE640:
 3446              		.section	.text.lis2de12_int1_gen_threshold_set,"ax",%progbits
 3447              		.align	1
 3448              		.global	lis2de12_int1_gen_threshold_set
 3449              		.syntax unified
 3450              		.thumb
 3451              		.thumb_func
 3452              		.fpu fpv4-sp-d16
 3454              	lis2de12_int1_gen_threshold_set:
 3455              	.LFB641:
1091:../Drivers/BSP/Components/lis2de12/lis2de12.c **** /**
1092:../Drivers/BSP/Components/lis2de12/lis2de12.c ****   * @brief  User-defined threshold value for xl interrupt event on
1093:../Drivers/BSP/Components/lis2de12/lis2de12.c ****   *         generator 1.[set]
1094:../Drivers/BSP/Components/lis2de12/lis2de12.c ****   *         LSb = 16mg@2g / 32mg@4g / 62mg@8g / 186mg@16g
1095:../Drivers/BSP/Components/lis2de12/lis2de12.c ****   *
1096:../Drivers/BSP/Components/lis2de12/lis2de12.c **** 
ARM GAS  /tmp/ccjphgoR.s 			page 79


1097:../Drivers/BSP/Components/lis2de12/lis2de12.c ****   * @param  val      change the values of ths in reg INT1_THS
1098:../Drivers/BSP/Components/lis2de12/lis2de12.c ****   * @retval          interface status (MANDATORY: return 0 -> no Error)
1099:../Drivers/BSP/Components/lis2de12/lis2de12.c ****   *
1100:../Drivers/BSP/Components/lis2de12/lis2de12.c ****   */
1101:../Drivers/BSP/Components/lis2de12/lis2de12.c **** int32_t lis2de12_int1_gen_threshold_set( uint8_t val )
1102:../Drivers/BSP/Components/lis2de12/lis2de12.c **** {
 3456              		.loc 1 1102 1
 3457              		.cfi_startproc
 3458              		@ args = 0, pretend = 0, frame = 16
 3459              		@ frame_needed = 1, uses_anonymous_args = 0
 3460 0000 80B5     		push	{r7, lr}
 3461              	.LCFI256:
 3462              		.cfi_def_cfa_offset 8
 3463              		.cfi_offset 7, -8
 3464              		.cfi_offset 14, -4
 3465 0002 84B0     		sub	sp, sp, #16
 3466              	.LCFI257:
 3467              		.cfi_def_cfa_offset 24
 3468 0004 00AF     		add	r7, sp, #0
 3469              	.LCFI258:
 3470              		.cfi_def_cfa_register 7
 3471 0006 0346     		mov	r3, r0
 3472 0008 FB71     		strb	r3, [r7, #7]
1103:../Drivers/BSP/Components/lis2de12/lis2de12.c ****     lis2de12_int1_ths_t int1_ths;
1104:../Drivers/BSP/Components/lis2de12/lis2de12.c ****     int32_t             ret;
1105:../Drivers/BSP/Components/lis2de12/lis2de12.c **** 
1106:../Drivers/BSP/Components/lis2de12/lis2de12.c ****     ret = lis2de12_read_reg( LIS2DE12_INT1_THS, ( uint8_t* ) &int1_ths, 1 );
 3473              		.loc 1 1106 11
 3474 000a 07F10803 		add	r3, r7, #8
 3475 000e 0122     		movs	r2, #1
 3476 0010 1946     		mov	r1, r3
 3477 0012 3220     		movs	r0, #50
 3478 0014 FFF7FEFF 		bl	lis2de12_read_reg
 3479 0018 F860     		str	r0, [r7, #12]
1107:../Drivers/BSP/Components/lis2de12/lis2de12.c ****     if( ret == 0 )
 3480              		.loc 1 1107 7
 3481 001a FB68     		ldr	r3, [r7, #12]
 3482 001c 002B     		cmp	r3, #0
 3483 001e 0FD1     		bne	.L194
1108:../Drivers/BSP/Components/lis2de12/lis2de12.c ****     {
1109:../Drivers/BSP/Components/lis2de12/lis2de12.c ****         int1_ths.ths = val;
 3484              		.loc 1 1109 22
 3485 0020 FB79     		ldrb	r3, [r7, #7]
 3486 0022 03F07F03 		and	r3, r3, #127
 3487 0026 DAB2     		uxtb	r2, r3
 3488 0028 3B7A     		ldrb	r3, [r7, #8]
 3489 002a 62F30603 		bfi	r3, r2, #0, #7
 3490 002e 3B72     		strb	r3, [r7, #8]
1110:../Drivers/BSP/Components/lis2de12/lis2de12.c ****         ret          = lis2de12_write_reg( LIS2DE12_INT1_THS, ( uint8_t* ) &int1_ths, 1 );
 3491              		.loc 1 1110 24
 3492 0030 07F10803 		add	r3, r7, #8
 3493 0034 0122     		movs	r2, #1
 3494 0036 1946     		mov	r1, r3
 3495 0038 3220     		movs	r0, #50
 3496 003a FFF7FEFF 		bl	lis2de12_write_reg
 3497 003e F860     		str	r0, [r7, #12]
 3498              	.L194:
ARM GAS  /tmp/ccjphgoR.s 			page 80


1111:../Drivers/BSP/Components/lis2de12/lis2de12.c ****     }
1112:../Drivers/BSP/Components/lis2de12/lis2de12.c ****     return ret;
 3499              		.loc 1 1112 12
 3500 0040 FB68     		ldr	r3, [r7, #12]
1113:../Drivers/BSP/Components/lis2de12/lis2de12.c **** }
 3501              		.loc 1 1113 1
 3502 0042 1846     		mov	r0, r3
 3503 0044 1037     		adds	r7, r7, #16
 3504              	.LCFI259:
 3505              		.cfi_def_cfa_offset 8
 3506 0046 BD46     		mov	sp, r7
 3507              	.LCFI260:
 3508              		.cfi_def_cfa_register 13
 3509              		@ sp needed
 3510 0048 80BD     		pop	{r7, pc}
 3511              		.cfi_endproc
 3512              	.LFE641:
 3514              		.section	.text.lis2de12_int1_gen_threshold_get,"ax",%progbits
 3515              		.align	1
 3516              		.global	lis2de12_int1_gen_threshold_get
 3517              		.syntax unified
 3518              		.thumb
 3519              		.thumb_func
 3520              		.fpu fpv4-sp-d16
 3522              	lis2de12_int1_gen_threshold_get:
 3523              	.LFB642:
1114:../Drivers/BSP/Components/lis2de12/lis2de12.c **** 
1115:../Drivers/BSP/Components/lis2de12/lis2de12.c **** /**
1116:../Drivers/BSP/Components/lis2de12/lis2de12.c ****   * @brief  User-defined threshold value for xl interrupt event on
1117:../Drivers/BSP/Components/lis2de12/lis2de12.c ****   *         generator 1.[get]
1118:../Drivers/BSP/Components/lis2de12/lis2de12.c ****   *         LSb = 16mg@2g / 32mg@4g / 62mg@8g / 186mg@16g
1119:../Drivers/BSP/Components/lis2de12/lis2de12.c ****   *
1120:../Drivers/BSP/Components/lis2de12/lis2de12.c **** 
1121:../Drivers/BSP/Components/lis2de12/lis2de12.c ****   * @param  val      change the values of ths in reg INT1_THS
1122:../Drivers/BSP/Components/lis2de12/lis2de12.c ****   * @retval          interface status (MANDATORY: return 0 -> no Error)
1123:../Drivers/BSP/Components/lis2de12/lis2de12.c ****   *
1124:../Drivers/BSP/Components/lis2de12/lis2de12.c ****   */
1125:../Drivers/BSP/Components/lis2de12/lis2de12.c **** int32_t lis2de12_int1_gen_threshold_get( uint8_t* val )
1126:../Drivers/BSP/Components/lis2de12/lis2de12.c **** {
 3524              		.loc 1 1126 1
 3525              		.cfi_startproc
 3526              		@ args = 0, pretend = 0, frame = 16
 3527              		@ frame_needed = 1, uses_anonymous_args = 0
 3528 0000 80B5     		push	{r7, lr}
 3529              	.LCFI261:
 3530              		.cfi_def_cfa_offset 8
 3531              		.cfi_offset 7, -8
 3532              		.cfi_offset 14, -4
 3533 0002 84B0     		sub	sp, sp, #16
 3534              	.LCFI262:
 3535              		.cfi_def_cfa_offset 24
 3536 0004 00AF     		add	r7, sp, #0
 3537              	.LCFI263:
 3538              		.cfi_def_cfa_register 7
 3539 0006 7860     		str	r0, [r7, #4]
1127:../Drivers/BSP/Components/lis2de12/lis2de12.c ****     lis2de12_int1_ths_t int1_ths;
1128:../Drivers/BSP/Components/lis2de12/lis2de12.c ****     int32_t             ret;
ARM GAS  /tmp/ccjphgoR.s 			page 81


1129:../Drivers/BSP/Components/lis2de12/lis2de12.c **** 
1130:../Drivers/BSP/Components/lis2de12/lis2de12.c ****     ret  = lis2de12_read_reg( LIS2DE12_INT1_THS, ( uint8_t* ) &int1_ths, 1 );
 3540              		.loc 1 1130 12
 3541 0008 07F10803 		add	r3, r7, #8
 3542 000c 0122     		movs	r2, #1
 3543 000e 1946     		mov	r1, r3
 3544 0010 3220     		movs	r0, #50
 3545 0012 FFF7FEFF 		bl	lis2de12_read_reg
 3546 0016 F860     		str	r0, [r7, #12]
1131:../Drivers/BSP/Components/lis2de12/lis2de12.c ****     *val = ( uint8_t ) int1_ths.ths;
 3547              		.loc 1 1131 32
 3548 0018 3B7A     		ldrb	r3, [r7, #8]
 3549 001a C3F30603 		ubfx	r3, r3, #0, #7
 3550 001e DBB2     		uxtb	r3, r3
 3551              		.loc 1 1131 12
 3552 0020 1A46     		mov	r2, r3
 3553              		.loc 1 1131 10
 3554 0022 7B68     		ldr	r3, [r7, #4]
 3555 0024 1A70     		strb	r2, [r3]
1132:../Drivers/BSP/Components/lis2de12/lis2de12.c **** 
1133:../Drivers/BSP/Components/lis2de12/lis2de12.c ****     return ret;
 3556              		.loc 1 1133 12
 3557 0026 FB68     		ldr	r3, [r7, #12]
1134:../Drivers/BSP/Components/lis2de12/lis2de12.c **** }
 3558              		.loc 1 1134 1
 3559 0028 1846     		mov	r0, r3
 3560 002a 1037     		adds	r7, r7, #16
 3561              	.LCFI264:
 3562              		.cfi_def_cfa_offset 8
 3563 002c BD46     		mov	sp, r7
 3564              	.LCFI265:
 3565              		.cfi_def_cfa_register 13
 3566              		@ sp needed
 3567 002e 80BD     		pop	{r7, pc}
 3568              		.cfi_endproc
 3569              	.LFE642:
 3571              		.section	.text.lis2de12_int1_gen_duration_set,"ax",%progbits
 3572              		.align	1
 3573              		.global	lis2de12_int1_gen_duration_set
 3574              		.syntax unified
 3575              		.thumb
 3576              		.thumb_func
 3577              		.fpu fpv4-sp-d16
 3579              	lis2de12_int1_gen_duration_set:
 3580              	.LFB643:
1135:../Drivers/BSP/Components/lis2de12/lis2de12.c **** 
1136:../Drivers/BSP/Components/lis2de12/lis2de12.c **** /**
1137:../Drivers/BSP/Components/lis2de12/lis2de12.c ****   * @brief  The minimum duration (LSb = 1/ODR) of the Interrupt 1 event to be
1138:../Drivers/BSP/Components/lis2de12/lis2de12.c ****   *         recognized.[set]
1139:../Drivers/BSP/Components/lis2de12/lis2de12.c ****   *
1140:../Drivers/BSP/Components/lis2de12/lis2de12.c **** 
1141:../Drivers/BSP/Components/lis2de12/lis2de12.c ****   * @param  val      change the values of d in reg INT1_DURATION
1142:../Drivers/BSP/Components/lis2de12/lis2de12.c ****   * @retval          interface status (MANDATORY: return 0 -> no Error)
1143:../Drivers/BSP/Components/lis2de12/lis2de12.c ****   *
1144:../Drivers/BSP/Components/lis2de12/lis2de12.c ****   */
1145:../Drivers/BSP/Components/lis2de12/lis2de12.c **** int32_t lis2de12_int1_gen_duration_set( uint8_t val )
1146:../Drivers/BSP/Components/lis2de12/lis2de12.c **** {
ARM GAS  /tmp/ccjphgoR.s 			page 82


 3581              		.loc 1 1146 1
 3582              		.cfi_startproc
 3583              		@ args = 0, pretend = 0, frame = 16
 3584              		@ frame_needed = 1, uses_anonymous_args = 0
 3585 0000 80B5     		push	{r7, lr}
 3586              	.LCFI266:
 3587              		.cfi_def_cfa_offset 8
 3588              		.cfi_offset 7, -8
 3589              		.cfi_offset 14, -4
 3590 0002 84B0     		sub	sp, sp, #16
 3591              	.LCFI267:
 3592              		.cfi_def_cfa_offset 24
 3593 0004 00AF     		add	r7, sp, #0
 3594              	.LCFI268:
 3595              		.cfi_def_cfa_register 7
 3596 0006 0346     		mov	r3, r0
 3597 0008 FB71     		strb	r3, [r7, #7]
1147:../Drivers/BSP/Components/lis2de12/lis2de12.c ****     lis2de12_int1_duration_t int1_duration;
1148:../Drivers/BSP/Components/lis2de12/lis2de12.c ****     int32_t                  ret;
1149:../Drivers/BSP/Components/lis2de12/lis2de12.c **** 
1150:../Drivers/BSP/Components/lis2de12/lis2de12.c ****     ret = lis2de12_read_reg( LIS2DE12_INT1_DURATION, ( uint8_t* ) &int1_duration, 1 );
 3598              		.loc 1 1150 11
 3599 000a 07F10803 		add	r3, r7, #8
 3600 000e 0122     		movs	r2, #1
 3601 0010 1946     		mov	r1, r3
 3602 0012 3320     		movs	r0, #51
 3603 0014 FFF7FEFF 		bl	lis2de12_read_reg
 3604 0018 F860     		str	r0, [r7, #12]
1151:../Drivers/BSP/Components/lis2de12/lis2de12.c ****     if( ret == 0 )
 3605              		.loc 1 1151 7
 3606 001a FB68     		ldr	r3, [r7, #12]
 3607 001c 002B     		cmp	r3, #0
 3608 001e 0FD1     		bne	.L199
1152:../Drivers/BSP/Components/lis2de12/lis2de12.c ****     {
1153:../Drivers/BSP/Components/lis2de12/lis2de12.c ****         int1_duration.d = val;
 3609              		.loc 1 1153 25
 3610 0020 FB79     		ldrb	r3, [r7, #7]
 3611 0022 03F07F03 		and	r3, r3, #127
 3612 0026 DAB2     		uxtb	r2, r3
 3613 0028 3B7A     		ldrb	r3, [r7, #8]
 3614 002a 62F30603 		bfi	r3, r2, #0, #7
 3615 002e 3B72     		strb	r3, [r7, #8]
1154:../Drivers/BSP/Components/lis2de12/lis2de12.c ****         ret             = lis2de12_write_reg( LIS2DE12_INT1_DURATION, ( uint8_t* ) &int1_duration, 
 3616              		.loc 1 1154 27
 3617 0030 07F10803 		add	r3, r7, #8
 3618 0034 0122     		movs	r2, #1
 3619 0036 1946     		mov	r1, r3
 3620 0038 3320     		movs	r0, #51
 3621 003a FFF7FEFF 		bl	lis2de12_write_reg
 3622 003e F860     		str	r0, [r7, #12]
 3623              	.L199:
1155:../Drivers/BSP/Components/lis2de12/lis2de12.c ****     }
1156:../Drivers/BSP/Components/lis2de12/lis2de12.c ****     return ret;
 3624              		.loc 1 1156 12
 3625 0040 FB68     		ldr	r3, [r7, #12]
1157:../Drivers/BSP/Components/lis2de12/lis2de12.c **** }
 3626              		.loc 1 1157 1
ARM GAS  /tmp/ccjphgoR.s 			page 83


 3627 0042 1846     		mov	r0, r3
 3628 0044 1037     		adds	r7, r7, #16
 3629              	.LCFI269:
 3630              		.cfi_def_cfa_offset 8
 3631 0046 BD46     		mov	sp, r7
 3632              	.LCFI270:
 3633              		.cfi_def_cfa_register 13
 3634              		@ sp needed
 3635 0048 80BD     		pop	{r7, pc}
 3636              		.cfi_endproc
 3637              	.LFE643:
 3639              		.section	.text.lis2de12_int1_gen_duration_get,"ax",%progbits
 3640              		.align	1
 3641              		.global	lis2de12_int1_gen_duration_get
 3642              		.syntax unified
 3643              		.thumb
 3644              		.thumb_func
 3645              		.fpu fpv4-sp-d16
 3647              	lis2de12_int1_gen_duration_get:
 3648              	.LFB644:
1158:../Drivers/BSP/Components/lis2de12/lis2de12.c **** 
1159:../Drivers/BSP/Components/lis2de12/lis2de12.c **** /**
1160:../Drivers/BSP/Components/lis2de12/lis2de12.c ****   * @brief  The minimum duration (LSb = 1/ODR) of the Interrupt 1 event to be
1161:../Drivers/BSP/Components/lis2de12/lis2de12.c ****   *         recognized.[get]
1162:../Drivers/BSP/Components/lis2de12/lis2de12.c ****   *
1163:../Drivers/BSP/Components/lis2de12/lis2de12.c **** 
1164:../Drivers/BSP/Components/lis2de12/lis2de12.c ****   * @param  val      change the values of d in reg INT1_DURATION
1165:../Drivers/BSP/Components/lis2de12/lis2de12.c ****   * @retval          interface status (MANDATORY: return 0 -> no Error)
1166:../Drivers/BSP/Components/lis2de12/lis2de12.c ****   *
1167:../Drivers/BSP/Components/lis2de12/lis2de12.c ****   */
1168:../Drivers/BSP/Components/lis2de12/lis2de12.c **** int32_t lis2de12_int1_gen_duration_get( uint8_t* val )
1169:../Drivers/BSP/Components/lis2de12/lis2de12.c **** {
 3649              		.loc 1 1169 1
 3650              		.cfi_startproc
 3651              		@ args = 0, pretend = 0, frame = 16
 3652              		@ frame_needed = 1, uses_anonymous_args = 0
 3653 0000 80B5     		push	{r7, lr}
 3654              	.LCFI271:
 3655              		.cfi_def_cfa_offset 8
 3656              		.cfi_offset 7, -8
 3657              		.cfi_offset 14, -4
 3658 0002 84B0     		sub	sp, sp, #16
 3659              	.LCFI272:
 3660              		.cfi_def_cfa_offset 24
 3661 0004 00AF     		add	r7, sp, #0
 3662              	.LCFI273:
 3663              		.cfi_def_cfa_register 7
 3664 0006 7860     		str	r0, [r7, #4]
1170:../Drivers/BSP/Components/lis2de12/lis2de12.c ****     lis2de12_int1_duration_t int1_duration;
1171:../Drivers/BSP/Components/lis2de12/lis2de12.c ****     int32_t                  ret;
1172:../Drivers/BSP/Components/lis2de12/lis2de12.c **** 
1173:../Drivers/BSP/Components/lis2de12/lis2de12.c ****     ret  = lis2de12_read_reg( LIS2DE12_INT1_DURATION, ( uint8_t* ) &int1_duration, 1 );
 3665              		.loc 1 1173 12
 3666 0008 07F10803 		add	r3, r7, #8
 3667 000c 0122     		movs	r2, #1
 3668 000e 1946     		mov	r1, r3
 3669 0010 3320     		movs	r0, #51
ARM GAS  /tmp/ccjphgoR.s 			page 84


 3670 0012 FFF7FEFF 		bl	lis2de12_read_reg
 3671 0016 F860     		str	r0, [r7, #12]
1174:../Drivers/BSP/Components/lis2de12/lis2de12.c ****     *val = ( uint8_t ) int1_duration.d;
 3672              		.loc 1 1174 37
 3673 0018 3B7A     		ldrb	r3, [r7, #8]
 3674 001a C3F30603 		ubfx	r3, r3, #0, #7
 3675 001e DBB2     		uxtb	r3, r3
 3676              		.loc 1 1174 12
 3677 0020 1A46     		mov	r2, r3
 3678              		.loc 1 1174 10
 3679 0022 7B68     		ldr	r3, [r7, #4]
 3680 0024 1A70     		strb	r2, [r3]
1175:../Drivers/BSP/Components/lis2de12/lis2de12.c **** 
1176:../Drivers/BSP/Components/lis2de12/lis2de12.c ****     return ret;
 3681              		.loc 1 1176 12
 3682 0026 FB68     		ldr	r3, [r7, #12]
1177:../Drivers/BSP/Components/lis2de12/lis2de12.c **** }
 3683              		.loc 1 1177 1
 3684 0028 1846     		mov	r0, r3
 3685 002a 1037     		adds	r7, r7, #16
 3686              	.LCFI274:
 3687              		.cfi_def_cfa_offset 8
 3688 002c BD46     		mov	sp, r7
 3689              	.LCFI275:
 3690              		.cfi_def_cfa_register 13
 3691              		@ sp needed
 3692 002e 80BD     		pop	{r7, pc}
 3693              		.cfi_endproc
 3694              	.LFE644:
 3696              		.section	.text.lis2de12_int2_gen_conf_set,"ax",%progbits
 3697              		.align	1
 3698              		.global	lis2de12_int2_gen_conf_set
 3699              		.syntax unified
 3700              		.thumb
 3701              		.thumb_func
 3702              		.fpu fpv4-sp-d16
 3704              	lis2de12_int2_gen_conf_set:
 3705              	.LFB645:
1178:../Drivers/BSP/Components/lis2de12/lis2de12.c **** 
1179:../Drivers/BSP/Components/lis2de12/lis2de12.c **** /**
1180:../Drivers/BSP/Components/lis2de12/lis2de12.c ****  * @}
1181:../Drivers/BSP/Components/lis2de12/lis2de12.c ****  *
1182:../Drivers/BSP/Components/lis2de12/lis2de12.c ****  */
1183:../Drivers/BSP/Components/lis2de12/lis2de12.c **** 
1184:../Drivers/BSP/Components/lis2de12/lis2de12.c **** /**
1185:../Drivers/BSP/Components/lis2de12/lis2de12.c ****  * @defgroup   LIS2DE12_Interrupts_generator_2
1186:../Drivers/BSP/Components/lis2de12/lis2de12.c ****  * @brief      This section group all the functions that manage the second
1187:../Drivers/BSP/Components/lis2de12/lis2de12.c ****  *             interrupts generator
1188:../Drivers/BSP/Components/lis2de12/lis2de12.c ****  * @{
1189:../Drivers/BSP/Components/lis2de12/lis2de12.c ****  *
1190:../Drivers/BSP/Components/lis2de12/lis2de12.c ****  */
1191:../Drivers/BSP/Components/lis2de12/lis2de12.c **** 
1192:../Drivers/BSP/Components/lis2de12/lis2de12.c **** /**
1193:../Drivers/BSP/Components/lis2de12/lis2de12.c ****   * @brief  Interrupt generator 2 configuration register.[set]
1194:../Drivers/BSP/Components/lis2de12/lis2de12.c ****   *
1195:../Drivers/BSP/Components/lis2de12/lis2de12.c **** 
1196:../Drivers/BSP/Components/lis2de12/lis2de12.c ****   * @param  val      registers INT2_CFG
ARM GAS  /tmp/ccjphgoR.s 			page 85


1197:../Drivers/BSP/Components/lis2de12/lis2de12.c ****   * @retval          interface status (MANDATORY: return 0 -> no Error)
1198:../Drivers/BSP/Components/lis2de12/lis2de12.c ****   *
1199:../Drivers/BSP/Components/lis2de12/lis2de12.c ****   */
1200:../Drivers/BSP/Components/lis2de12/lis2de12.c **** int32_t lis2de12_int2_gen_conf_set( lis2de12_int2_cfg_t* val )
1201:../Drivers/BSP/Components/lis2de12/lis2de12.c **** {
 3706              		.loc 1 1201 1
 3707              		.cfi_startproc
 3708              		@ args = 0, pretend = 0, frame = 16
 3709              		@ frame_needed = 1, uses_anonymous_args = 0
 3710 0000 80B5     		push	{r7, lr}
 3711              	.LCFI276:
 3712              		.cfi_def_cfa_offset 8
 3713              		.cfi_offset 7, -8
 3714              		.cfi_offset 14, -4
 3715 0002 84B0     		sub	sp, sp, #16
 3716              	.LCFI277:
 3717              		.cfi_def_cfa_offset 24
 3718 0004 00AF     		add	r7, sp, #0
 3719              	.LCFI278:
 3720              		.cfi_def_cfa_register 7
 3721 0006 7860     		str	r0, [r7, #4]
1202:../Drivers/BSP/Components/lis2de12/lis2de12.c ****     int32_t ret;
1203:../Drivers/BSP/Components/lis2de12/lis2de12.c ****     ret = lis2de12_write_reg( LIS2DE12_INT2_CFG, ( uint8_t* ) val, 1 );
 3722              		.loc 1 1203 11
 3723 0008 0122     		movs	r2, #1
 3724 000a 7968     		ldr	r1, [r7, #4]
 3725 000c 3420     		movs	r0, #52
 3726 000e FFF7FEFF 		bl	lis2de12_write_reg
 3727 0012 F860     		str	r0, [r7, #12]
1204:../Drivers/BSP/Components/lis2de12/lis2de12.c ****     return ret;
 3728              		.loc 1 1204 12
 3729 0014 FB68     		ldr	r3, [r7, #12]
1205:../Drivers/BSP/Components/lis2de12/lis2de12.c **** }
 3730              		.loc 1 1205 1
 3731 0016 1846     		mov	r0, r3
 3732 0018 1037     		adds	r7, r7, #16
 3733              	.LCFI279:
 3734              		.cfi_def_cfa_offset 8
 3735 001a BD46     		mov	sp, r7
 3736              	.LCFI280:
 3737              		.cfi_def_cfa_register 13
 3738              		@ sp needed
 3739 001c 80BD     		pop	{r7, pc}
 3740              		.cfi_endproc
 3741              	.LFE645:
 3743              		.section	.text.lis2de12_int2_gen_conf_get,"ax",%progbits
 3744              		.align	1
 3745              		.global	lis2de12_int2_gen_conf_get
 3746              		.syntax unified
 3747              		.thumb
 3748              		.thumb_func
 3749              		.fpu fpv4-sp-d16
 3751              	lis2de12_int2_gen_conf_get:
 3752              	.LFB646:
1206:../Drivers/BSP/Components/lis2de12/lis2de12.c **** 
1207:../Drivers/BSP/Components/lis2de12/lis2de12.c **** /**
1208:../Drivers/BSP/Components/lis2de12/lis2de12.c ****   * @brief  Interrupt generator 2 configuration register.[get]
ARM GAS  /tmp/ccjphgoR.s 			page 86


1209:../Drivers/BSP/Components/lis2de12/lis2de12.c ****   *
1210:../Drivers/BSP/Components/lis2de12/lis2de12.c **** 
1211:../Drivers/BSP/Components/lis2de12/lis2de12.c ****   * @param  val      registers INT2_CFG
1212:../Drivers/BSP/Components/lis2de12/lis2de12.c ****   * @retval          interface status (MANDATORY: return 0 -> no Error)
1213:../Drivers/BSP/Components/lis2de12/lis2de12.c ****   *
1214:../Drivers/BSP/Components/lis2de12/lis2de12.c ****   */
1215:../Drivers/BSP/Components/lis2de12/lis2de12.c **** int32_t lis2de12_int2_gen_conf_get( lis2de12_int2_cfg_t* val )
1216:../Drivers/BSP/Components/lis2de12/lis2de12.c **** {
 3753              		.loc 1 1216 1
 3754              		.cfi_startproc
 3755              		@ args = 0, pretend = 0, frame = 16
 3756              		@ frame_needed = 1, uses_anonymous_args = 0
 3757 0000 80B5     		push	{r7, lr}
 3758              	.LCFI281:
 3759              		.cfi_def_cfa_offset 8
 3760              		.cfi_offset 7, -8
 3761              		.cfi_offset 14, -4
 3762 0002 84B0     		sub	sp, sp, #16
 3763              	.LCFI282:
 3764              		.cfi_def_cfa_offset 24
 3765 0004 00AF     		add	r7, sp, #0
 3766              	.LCFI283:
 3767              		.cfi_def_cfa_register 7
 3768 0006 7860     		str	r0, [r7, #4]
1217:../Drivers/BSP/Components/lis2de12/lis2de12.c ****     int32_t ret;
1218:../Drivers/BSP/Components/lis2de12/lis2de12.c ****     ret = lis2de12_read_reg( LIS2DE12_INT2_CFG, ( uint8_t* ) val, 1 );
 3769              		.loc 1 1218 11
 3770 0008 0122     		movs	r2, #1
 3771 000a 7968     		ldr	r1, [r7, #4]
 3772 000c 3420     		movs	r0, #52
 3773 000e FFF7FEFF 		bl	lis2de12_read_reg
 3774 0012 F860     		str	r0, [r7, #12]
1219:../Drivers/BSP/Components/lis2de12/lis2de12.c ****     return ret;
 3775              		.loc 1 1219 12
 3776 0014 FB68     		ldr	r3, [r7, #12]
1220:../Drivers/BSP/Components/lis2de12/lis2de12.c **** }
 3777              		.loc 1 1220 1
 3778 0016 1846     		mov	r0, r3
 3779 0018 1037     		adds	r7, r7, #16
 3780              	.LCFI284:
 3781              		.cfi_def_cfa_offset 8
 3782 001a BD46     		mov	sp, r7
 3783              	.LCFI285:
 3784              		.cfi_def_cfa_register 13
 3785              		@ sp needed
 3786 001c 80BD     		pop	{r7, pc}
 3787              		.cfi_endproc
 3788              	.LFE646:
 3790              		.section	.text.lis2de12_int2_gen_source_get,"ax",%progbits
 3791              		.align	1
 3792              		.global	lis2de12_int2_gen_source_get
 3793              		.syntax unified
 3794              		.thumb
 3795              		.thumb_func
 3796              		.fpu fpv4-sp-d16
 3798              	lis2de12_int2_gen_source_get:
 3799              	.LFB647:
ARM GAS  /tmp/ccjphgoR.s 			page 87


1221:../Drivers/BSP/Components/lis2de12/lis2de12.c **** /**
1222:../Drivers/BSP/Components/lis2de12/lis2de12.c ****   * @brief  Interrupt generator 2 source register.[get]
1223:../Drivers/BSP/Components/lis2de12/lis2de12.c ****   *
1224:../Drivers/BSP/Components/lis2de12/lis2de12.c **** 
1225:../Drivers/BSP/Components/lis2de12/lis2de12.c ****   * @param  val      registers INT2_SRC
1226:../Drivers/BSP/Components/lis2de12/lis2de12.c ****   * @retval          interface status (MANDATORY: return 0 -> no Error)
1227:../Drivers/BSP/Components/lis2de12/lis2de12.c ****   *
1228:../Drivers/BSP/Components/lis2de12/lis2de12.c ****   */
1229:../Drivers/BSP/Components/lis2de12/lis2de12.c **** int32_t lis2de12_int2_gen_source_get( lis2de12_int2_src_t* val )
1230:../Drivers/BSP/Components/lis2de12/lis2de12.c **** {
 3800              		.loc 1 1230 1
 3801              		.cfi_startproc
 3802              		@ args = 0, pretend = 0, frame = 16
 3803              		@ frame_needed = 1, uses_anonymous_args = 0
 3804 0000 80B5     		push	{r7, lr}
 3805              	.LCFI286:
 3806              		.cfi_def_cfa_offset 8
 3807              		.cfi_offset 7, -8
 3808              		.cfi_offset 14, -4
 3809 0002 84B0     		sub	sp, sp, #16
 3810              	.LCFI287:
 3811              		.cfi_def_cfa_offset 24
 3812 0004 00AF     		add	r7, sp, #0
 3813              	.LCFI288:
 3814              		.cfi_def_cfa_register 7
 3815 0006 7860     		str	r0, [r7, #4]
1231:../Drivers/BSP/Components/lis2de12/lis2de12.c ****     int32_t ret;
1232:../Drivers/BSP/Components/lis2de12/lis2de12.c ****     ret = lis2de12_read_reg( LIS2DE12_INT2_SRC, ( uint8_t* ) val, 1 );
 3816              		.loc 1 1232 11
 3817 0008 0122     		movs	r2, #1
 3818 000a 7968     		ldr	r1, [r7, #4]
 3819 000c 3520     		movs	r0, #53
 3820 000e FFF7FEFF 		bl	lis2de12_read_reg
 3821 0012 F860     		str	r0, [r7, #12]
1233:../Drivers/BSP/Components/lis2de12/lis2de12.c ****     return ret;
 3822              		.loc 1 1233 12
 3823 0014 FB68     		ldr	r3, [r7, #12]
1234:../Drivers/BSP/Components/lis2de12/lis2de12.c **** }
 3824              		.loc 1 1234 1
 3825 0016 1846     		mov	r0, r3
 3826 0018 1037     		adds	r7, r7, #16
 3827              	.LCFI289:
 3828              		.cfi_def_cfa_offset 8
 3829 001a BD46     		mov	sp, r7
 3830              	.LCFI290:
 3831              		.cfi_def_cfa_register 13
 3832              		@ sp needed
 3833 001c 80BD     		pop	{r7, pc}
 3834              		.cfi_endproc
 3835              	.LFE647:
 3837              		.section	.text.lis2de12_int2_gen_threshold_set,"ax",%progbits
 3838              		.align	1
 3839              		.global	lis2de12_int2_gen_threshold_set
 3840              		.syntax unified
 3841              		.thumb
 3842              		.thumb_func
 3843              		.fpu fpv4-sp-d16
ARM GAS  /tmp/ccjphgoR.s 			page 88


 3845              	lis2de12_int2_gen_threshold_set:
 3846              	.LFB648:
1235:../Drivers/BSP/Components/lis2de12/lis2de12.c **** /**
1236:../Drivers/BSP/Components/lis2de12/lis2de12.c ****   * @brief   User-defined threshold value for xl interrupt event on
1237:../Drivers/BSP/Components/lis2de12/lis2de12.c ****   *          generator 2.[set]
1238:../Drivers/BSP/Components/lis2de12/lis2de12.c ****   *          LSb = 16mg@2g / 32mg@4g / 62mg@8g / 186mg@16g
1239:../Drivers/BSP/Components/lis2de12/lis2de12.c ****   *
1240:../Drivers/BSP/Components/lis2de12/lis2de12.c **** 
1241:../Drivers/BSP/Components/lis2de12/lis2de12.c ****   * @param  val      change the values of ths in reg INT2_THS
1242:../Drivers/BSP/Components/lis2de12/lis2de12.c ****   * @retval          interface status (MANDATORY: return 0 -> no Error)
1243:../Drivers/BSP/Components/lis2de12/lis2de12.c ****   *
1244:../Drivers/BSP/Components/lis2de12/lis2de12.c ****   */
1245:../Drivers/BSP/Components/lis2de12/lis2de12.c **** int32_t lis2de12_int2_gen_threshold_set( uint8_t val )
1246:../Drivers/BSP/Components/lis2de12/lis2de12.c **** {
 3847              		.loc 1 1246 1
 3848              		.cfi_startproc
 3849              		@ args = 0, pretend = 0, frame = 16
 3850              		@ frame_needed = 1, uses_anonymous_args = 0
 3851 0000 80B5     		push	{r7, lr}
 3852              	.LCFI291:
 3853              		.cfi_def_cfa_offset 8
 3854              		.cfi_offset 7, -8
 3855              		.cfi_offset 14, -4
 3856 0002 84B0     		sub	sp, sp, #16
 3857              	.LCFI292:
 3858              		.cfi_def_cfa_offset 24
 3859 0004 00AF     		add	r7, sp, #0
 3860              	.LCFI293:
 3861              		.cfi_def_cfa_register 7
 3862 0006 0346     		mov	r3, r0
 3863 0008 FB71     		strb	r3, [r7, #7]
1247:../Drivers/BSP/Components/lis2de12/lis2de12.c ****     lis2de12_int2_ths_t int2_ths;
1248:../Drivers/BSP/Components/lis2de12/lis2de12.c ****     int32_t             ret;
1249:../Drivers/BSP/Components/lis2de12/lis2de12.c **** 
1250:../Drivers/BSP/Components/lis2de12/lis2de12.c ****     ret = lis2de12_read_reg( LIS2DE12_INT2_THS, ( uint8_t* ) &int2_ths, 1 );
 3864              		.loc 1 1250 11
 3865 000a 07F10803 		add	r3, r7, #8
 3866 000e 0122     		movs	r2, #1
 3867 0010 1946     		mov	r1, r3
 3868 0012 3620     		movs	r0, #54
 3869 0014 FFF7FEFF 		bl	lis2de12_read_reg
 3870 0018 F860     		str	r0, [r7, #12]
1251:../Drivers/BSP/Components/lis2de12/lis2de12.c ****     if( ret == 0 )
 3871              		.loc 1 1251 7
 3872 001a FB68     		ldr	r3, [r7, #12]
 3873 001c 002B     		cmp	r3, #0
 3874 001e 0FD1     		bne	.L210
1252:../Drivers/BSP/Components/lis2de12/lis2de12.c ****     {
1253:../Drivers/BSP/Components/lis2de12/lis2de12.c ****         int2_ths.ths = val;
 3875              		.loc 1 1253 22
 3876 0020 FB79     		ldrb	r3, [r7, #7]
 3877 0022 03F07F03 		and	r3, r3, #127
 3878 0026 DAB2     		uxtb	r2, r3
 3879 0028 3B7A     		ldrb	r3, [r7, #8]
 3880 002a 62F30603 		bfi	r3, r2, #0, #7
 3881 002e 3B72     		strb	r3, [r7, #8]
1254:../Drivers/BSP/Components/lis2de12/lis2de12.c ****         ret          = lis2de12_write_reg( LIS2DE12_INT2_THS, ( uint8_t* ) &int2_ths, 1 );
ARM GAS  /tmp/ccjphgoR.s 			page 89


 3882              		.loc 1 1254 24
 3883 0030 07F10803 		add	r3, r7, #8
 3884 0034 0122     		movs	r2, #1
 3885 0036 1946     		mov	r1, r3
 3886 0038 3620     		movs	r0, #54
 3887 003a FFF7FEFF 		bl	lis2de12_write_reg
 3888 003e F860     		str	r0, [r7, #12]
 3889              	.L210:
1255:../Drivers/BSP/Components/lis2de12/lis2de12.c ****     }
1256:../Drivers/BSP/Components/lis2de12/lis2de12.c ****     return ret;
 3890              		.loc 1 1256 12
 3891 0040 FB68     		ldr	r3, [r7, #12]
1257:../Drivers/BSP/Components/lis2de12/lis2de12.c **** }
 3892              		.loc 1 1257 1
 3893 0042 1846     		mov	r0, r3
 3894 0044 1037     		adds	r7, r7, #16
 3895              	.LCFI294:
 3896              		.cfi_def_cfa_offset 8
 3897 0046 BD46     		mov	sp, r7
 3898              	.LCFI295:
 3899              		.cfi_def_cfa_register 13
 3900              		@ sp needed
 3901 0048 80BD     		pop	{r7, pc}
 3902              		.cfi_endproc
 3903              	.LFE648:
 3905              		.section	.text.lis2de12_int2_gen_threshold_get,"ax",%progbits
 3906              		.align	1
 3907              		.global	lis2de12_int2_gen_threshold_get
 3908              		.syntax unified
 3909              		.thumb
 3910              		.thumb_func
 3911              		.fpu fpv4-sp-d16
