ARM GAS  /tmp/ccjphgoR.s 			page 1


   1              		.cpu cortex-m4
   2              		.eabi_attribute 27, 1
   3              		.eabi_attribute 28, 1
   4              		.eabi_attribute 20, 1
   5              		.eabi_attribute 21, 1
   6              		.eabi_attribute 23, 3
   7              		.eabi_attribute 24, 1
   8              		.eabi_attribute 25, 1
   9              		.eabi_attribute 26, 1
  10              		.eabi_attribute 30, 6
  11              		.eabi_attribute 34, 1
  12              		.eabi_attribute 18, 4
  13              		.file	"lis2de12.c"
  14              		.text
  15              	.Ltext0:
  16              		.cfi_sections	.debug_frame
  17              		.section	.bss.accelerometer_irq1_state,"aw",%nobits
  20              	accelerometer_irq1_state:
  21 0000 00       		.space	1
  22              		.section	.bss.who_am_i,"aw",%nobits
  25              	who_am_i:
  26 0000 00       		.space	1
  27              		.global	data_raw_acceleration
  28              		.section	.bss.data_raw_acceleration,"aw",%nobits
  29              		.align	2
  32              	data_raw_acceleration:
  33 0000 00000000 		.space	6
  33      0000
  34              		.global	acceleration_mg
  35              		.section	.bss.acceleration_mg,"aw",%nobits
  36              		.align	2
  39              	acceleration_mg:
  40 0000 00000000 		.space	12
  40      00000000 
  40      00000000 
  41              		.section	.data.lis2de12_int1,"aw"
  42              		.align	2
  45              	lis2de12_int1:
  46 0000 0900     		.short	9
  47 0002 0000     		.space	2
  48 0004 00000000 		.word	0
  49 0008 00000000 		.word	lis2de12_int1_irq_handler
  50              		.section	.text.accelerometer_init,"ax",%progbits
  51              		.align	1
  52              		.global	accelerometer_init
  53              		.arch armv7e-m
  54              		.syntax unified
  55              		.thumb
  56              		.thumb_func
  57              		.fpu fpv4-sp-d16
  59              	accelerometer_init:
  60              	.LFB590:
  61              		.file 1 "../Drivers/BSP/Components/lis2de12/lis2de12.c"
   1:../Drivers/BSP/Components/lis2de12/lis2de12.c **** /*
   2:../Drivers/BSP/Components/lis2de12/lis2de12.c ****  ******************************************************************************
   3:../Drivers/BSP/Components/lis2de12/lis2de12.c ****  * @file    lis2de12_reg.c
   4:../Drivers/BSP/Components/lis2de12/lis2de12.c ****  * @author  Sensors Software Solution Team
ARM GAS  /tmp/ccjphgoR.s 			page 2


   5:../Drivers/BSP/Components/lis2de12/lis2de12.c ****  * @brief   LIS2DE12 driver file
   6:../Drivers/BSP/Components/lis2de12/lis2de12.c ****  ******************************************************************************
   7:../Drivers/BSP/Components/lis2de12/lis2de12.c ****  * @attention
   8:../Drivers/BSP/Components/lis2de12/lis2de12.c ****  *
   9:../Drivers/BSP/Components/lis2de12/lis2de12.c ****  * <h2><center>&copy; COPYRIGHT(c) 2018 STMicroelectronics</center></h2>
  10:../Drivers/BSP/Components/lis2de12/lis2de12.c ****  *
  11:../Drivers/BSP/Components/lis2de12/lis2de12.c ****  * Redistribution and use in source and binary forms, with or without
  12:../Drivers/BSP/Components/lis2de12/lis2de12.c ****  * modification, are permitted provided that the following conditions
  13:../Drivers/BSP/Components/lis2de12/lis2de12.c ****  * are met:
  14:../Drivers/BSP/Components/lis2de12/lis2de12.c ****  *   1. Redistributions of source code must retain the above copyright notice,
  15:../Drivers/BSP/Components/lis2de12/lis2de12.c ****  *      this list of conditions and the following disclaimer.
  16:../Drivers/BSP/Components/lis2de12/lis2de12.c ****  *   2. Redistributions in binary form must reproduce the above copyright
  17:../Drivers/BSP/Components/lis2de12/lis2de12.c ****  *      notice, this list of conditions and the following disclaimer in the
  18:../Drivers/BSP/Components/lis2de12/lis2de12.c ****  *      documentation and/or other materials provided with the distribution.
  19:../Drivers/BSP/Components/lis2de12/lis2de12.c ****  *   3. Neither the name of STMicroelectronics nor the names of its
  20:../Drivers/BSP/Components/lis2de12/lis2de12.c ****  *      contributors may be used to endorse or promote products derived from
  21:../Drivers/BSP/Components/lis2de12/lis2de12.c ****  *      this software without specific prior written permission.
  22:../Drivers/BSP/Components/lis2de12/lis2de12.c ****  *
  23:../Drivers/BSP/Components/lis2de12/lis2de12.c ****  * THIS SOFTWARE IS PROVIDED BY THE COPYRIGHT HOLDERS AND CONTRIBUTORS "AS IS"
  24:../Drivers/BSP/Components/lis2de12/lis2de12.c ****  * AND ANY EXPRESS OR IMPLIED WARRANTIES, INCLUDING, BUT NOT LIMITED TO, THE
  25:../Drivers/BSP/Components/lis2de12/lis2de12.c ****  * IMPLIED WARRANTIES OF MERCHANTABILITY AND FITNESS FOR A PARTICULAR PURPOSE
  26:../Drivers/BSP/Components/lis2de12/lis2de12.c ****  * ARE DISCLAIMED. IN NO EVENT SHALL THE COPYRIGHT HOLDER OR CONTRIBUTORS BE
  27:../Drivers/BSP/Components/lis2de12/lis2de12.c ****  * LIABLE FOR ANY DIRECT, INDIRECT, INCIDENTAL, SPECIAL, EXEMPLARY, OR
  28:../Drivers/BSP/Components/lis2de12/lis2de12.c ****  * CONSEQUENTIAL DAMAGES (INCLUDING, BUT NOT LIMITED TO, PROCUREMENT OF
  29:../Drivers/BSP/Components/lis2de12/lis2de12.c ****  * SUBSTITUTE GOODS OR SERVICES; LOSS OF USE, DATA, OR PROFITS; OR BUSINESS
  30:../Drivers/BSP/Components/lis2de12/lis2de12.c ****  * INTERRUPTION) HOWEVER CAUSED AND ON ANY THEORY OF LIABILITY, WHETHER IN
  31:../Drivers/BSP/Components/lis2de12/lis2de12.c ****  * CONTRACT, STRICT LIABILITY, OR TORT (INCLUDING NEGLIGENCE OR OTHERWISE)
  32:../Drivers/BSP/Components/lis2de12/lis2de12.c ****  * ARISING IN ANY WAY OUT OF THE USE OF THIS SOFTWARE, EVEN IF ADVISED OF THE
  33:../Drivers/BSP/Components/lis2de12/lis2de12.c ****  * POSSIBILITY OF SUCH DAMAGE.
  34:../Drivers/BSP/Components/lis2de12/lis2de12.c ****  *
  35:../Drivers/BSP/Components/lis2de12/lis2de12.c ****  */
  36:../Drivers/BSP/Components/lis2de12/lis2de12.c **** #include "lis2de12.h"
  37:../Drivers/BSP/Components/lis2de12/lis2de12.c **** #include "lr1110_modem_board.h"
  38:../Drivers/BSP/Components/lis2de12/lis2de12.c **** 
  39:../Drivers/BSP/Components/lis2de12/lis2de12.c **** /***************************************************************************\
  40:../Drivers/BSP/Components/lis2de12/lis2de12.c ****  * RAM data
  41:../Drivers/BSP/Components/lis2de12/lis2de12.c **** \***************************************************************************/
  42:../Drivers/BSP/Components/lis2de12/lis2de12.c **** 
  43:../Drivers/BSP/Components/lis2de12/lis2de12.c **** // The I2C instance of the LIS2DE12.
  44:../Drivers/BSP/Components/lis2de12/lis2de12.c **** extern hal_i2c_t i2c1_instance;
  45:../Drivers/BSP/Components/lis2de12/lis2de12.c **** 
  46:../Drivers/BSP/Components/lis2de12/lis2de12.c **** static bool accelerometer_irq1_state = false;
  47:../Drivers/BSP/Components/lis2de12/lis2de12.c **** 
  48:../Drivers/BSP/Components/lis2de12/lis2de12.c **** static uint8_t who_am_i;
  49:../Drivers/BSP/Components/lis2de12/lis2de12.c **** axis3bit16_t   data_raw_acceleration;
  50:../Drivers/BSP/Components/lis2de12/lis2de12.c **** float          acceleration_mg[3];
  51:../Drivers/BSP/Components/lis2de12/lis2de12.c **** 
  52:../Drivers/BSP/Components/lis2de12/lis2de12.c **** static void accelerometer_irq1_init( void );
  53:../Drivers/BSP/Components/lis2de12/lis2de12.c **** 
  54:../Drivers/BSP/Components/lis2de12/lis2de12.c **** /*!
  55:../Drivers/BSP/Components/lis2de12/lis2de12.c ****  * @brief INT1 interrupt callback
  56:../Drivers/BSP/Components/lis2de12/lis2de12.c ****  */
  57:../Drivers/BSP/Components/lis2de12/lis2de12.c **** void lis2de12_int1_irq_handler( void* obj );
  58:../Drivers/BSP/Components/lis2de12/lis2de12.c **** 
  59:../Drivers/BSP/Components/lis2de12/lis2de12.c **** /*!
  60:../Drivers/BSP/Components/lis2de12/lis2de12.c ****  * Hardware IRQ INT1 callback initialization
  61:../Drivers/BSP/Components/lis2de12/lis2de12.c ****  */
ARM GAS  /tmp/ccjphgoR.s 			page 3


  62:../Drivers/BSP/Components/lis2de12/lis2de12.c **** static hal_gpio_irq_t lis2de12_int1 = {
  63:../Drivers/BSP/Components/lis2de12/lis2de12.c ****     .pin      = ACC_INT1,
  64:../Drivers/BSP/Components/lis2de12/lis2de12.c ****     .callback = lis2de12_int1_irq_handler,
  65:../Drivers/BSP/Components/lis2de12/lis2de12.c ****     .context  = NULL,
  66:../Drivers/BSP/Components/lis2de12/lis2de12.c **** };
  67:../Drivers/BSP/Components/lis2de12/lis2de12.c **** 
  68:../Drivers/BSP/Components/lis2de12/lis2de12.c **** /**
  69:../Drivers/BSP/Components/lis2de12/lis2de12.c ****  * @defgroup  LIS2DE12
  70:../Drivers/BSP/Components/lis2de12/lis2de12.c ****  * @brief     This file provides a set of functions needed to drive the
  71:../Drivers/BSP/Components/lis2de12/lis2de12.c ****  *            lis2de12 enanced inertial module.
  72:../Drivers/BSP/Components/lis2de12/lis2de12.c ****  * @{
  73:../Drivers/BSP/Components/lis2de12/lis2de12.c ****  *
  74:../Drivers/BSP/Components/lis2de12/lis2de12.c ****  */
  75:../Drivers/BSP/Components/lis2de12/lis2de12.c **** 
  76:../Drivers/BSP/Components/lis2de12/lis2de12.c **** /**
  77:../Drivers/BSP/Components/lis2de12/lis2de12.c ****  * @defgroup  LIS2DE12_Interfaces_Functions
  78:../Drivers/BSP/Components/lis2de12/lis2de12.c ****  * @brief     This section provide a set of functions used to read and
  79:../Drivers/BSP/Components/lis2de12/lis2de12.c ****  *            write a generic register of the device.
  80:../Drivers/BSP/Components/lis2de12/lis2de12.c ****  *            MANDATORY: return 0 -> no Error.
  81:../Drivers/BSP/Components/lis2de12/lis2de12.c ****  * @{
  82:../Drivers/BSP/Components/lis2de12/lis2de12.c ****  *
  83:../Drivers/BSP/Components/lis2de12/lis2de12.c ****  */
  84:../Drivers/BSP/Components/lis2de12/lis2de12.c **** 
  85:../Drivers/BSP/Components/lis2de12/lis2de12.c **** /*!
  86:../Drivers/BSP/Components/lis2de12/lis2de12.c ****  * @brief Initializes the hardware and variables associated with the lis2de12.
  87:../Drivers/BSP/Components/lis2de12/lis2de12.c ****  *
  88:../Drivers/BSP/Components/lis2de12/lis2de12.c ****  * @param [in]  irq_active      Interupt MASK to activate int1 or not
  89:../Drivers/BSP/Components/lis2de12/lis2de12.c ****  * @returns      Status        SUCCESS(1) or FAIL(0)
  90:../Drivers/BSP/Components/lis2de12/lis2de12.c ****  */
  91:../Drivers/BSP/Components/lis2de12/lis2de12.c **** uint8_t accelerometer_init( uint8_t irq_active )
  92:../Drivers/BSP/Components/lis2de12/lis2de12.c **** {
  62              		.loc 1 92 1
  63              		.cfi_startproc
  64              		@ args = 0, pretend = 0, frame = 24
  65              		@ frame_needed = 1, uses_anonymous_args = 0
  66 0000 80B5     		push	{r7, lr}
  67              	.LCFI0:
  68              		.cfi_def_cfa_offset 8
  69              		.cfi_offset 7, -8
  70              		.cfi_offset 14, -4
  71 0002 86B0     		sub	sp, sp, #24
  72              	.LCFI1:
  73              		.cfi_def_cfa_offset 32
  74 0004 00AF     		add	r7, sp, #0
  75              	.LCFI2:
  76              		.cfi_def_cfa_register 7
  77 0006 0346     		mov	r3, r0
  78 0008 FB71     		strb	r3, [r7, #7]
  93:../Drivers/BSP/Components/lis2de12/lis2de12.c ****     int                  i = 0;
  79              		.loc 1 93 26
  80 000a 0023     		movs	r3, #0
  81 000c 7B61     		str	r3, [r7, #20]
  94:../Drivers/BSP/Components/lis2de12/lis2de12.c ****     lis2de12_int1_cfg_t  lis2de12_int1_cfg;
  95:../Drivers/BSP/Components/lis2de12/lis2de12.c ****     lis2de12_ctrl_reg1_t ctrl_reg1;
  96:../Drivers/BSP/Components/lis2de12/lis2de12.c ****     lis2de12_ctrl_reg3_t ctrl_reg3;
  97:../Drivers/BSP/Components/lis2de12/lis2de12.c **** 
  98:../Drivers/BSP/Components/lis2de12/lis2de12.c ****     /* Check device ID */
ARM GAS  /tmp/ccjphgoR.s 			page 4


  99:../Drivers/BSP/Components/lis2de12/lis2de12.c ****     while( ( i <= 5 ) && ( who_am_i != LIS2DE12_ID ) )
  82              		.loc 1 99 10
  83 000e 0EE0     		b	.L2
  84              	.L6:
 100:../Drivers/BSP/Components/lis2de12/lis2de12.c ****     {
 101:../Drivers/BSP/Components/lis2de12/lis2de12.c ****         lis2de12_device_id_get( &who_am_i );
  85              		.loc 1 101 9
  86 0010 4648     		ldr	r0, .L9
  87 0012 FFF7FEFF 		bl	lis2de12_device_id_get
 102:../Drivers/BSP/Components/lis2de12/lis2de12.c ****         if( who_am_i != LIS2DE12_ID )
  88              		.loc 1 102 22
  89 0016 454B     		ldr	r3, .L9
  90 0018 1B78     		ldrb	r3, [r3]	@ zero_extendqisi2
  91              		.loc 1 102 11
  92 001a 332B     		cmp	r3, #51
  93 001c 04D0     		beq	.L3
 103:../Drivers/BSP/Components/lis2de12/lis2de12.c ****         {
 104:../Drivers/BSP/Components/lis2de12/lis2de12.c ****             if( i == 5 )
  94              		.loc 1 104 15
  95 001e 7B69     		ldr	r3, [r7, #20]
  96 0020 052B     		cmp	r3, #5
  97 0022 01D1     		bne	.L3
 105:../Drivers/BSP/Components/lis2de12/lis2de12.c ****             {
 106:../Drivers/BSP/Components/lis2de12/lis2de12.c ****                 return 0;
  98              		.loc 1 106 24
  99 0024 0023     		movs	r3, #0
 100 0026 7DE0     		b	.L8
 101              	.L3:
 107:../Drivers/BSP/Components/lis2de12/lis2de12.c ****             }
 108:../Drivers/BSP/Components/lis2de12/lis2de12.c ****         }
 109:../Drivers/BSP/Components/lis2de12/lis2de12.c ****         i++;
 102              		.loc 1 109 10
 103 0028 7B69     		ldr	r3, [r7, #20]
 104 002a 0133     		adds	r3, r3, #1
 105 002c 7B61     		str	r3, [r7, #20]
 106              	.L2:
  99:../Drivers/BSP/Components/lis2de12/lis2de12.c ****     {
 107              		.loc 1 99 10
 108 002e 7B69     		ldr	r3, [r7, #20]
 109 0030 052B     		cmp	r3, #5
 110 0032 03DC     		bgt	.L5
  99:../Drivers/BSP/Components/lis2de12/lis2de12.c ****     {
 111              		.loc 1 99 37 discriminator 1
 112 0034 3D4B     		ldr	r3, .L9
 113 0036 1B78     		ldrb	r3, [r3]	@ zero_extendqisi2
  99:../Drivers/BSP/Components/lis2de12/lis2de12.c ****     {
 114              		.loc 1 99 23 discriminator 1
 115 0038 332B     		cmp	r3, #51
 116 003a E9D1     		bne	.L6
 117              	.L5:
 110:../Drivers/BSP/Components/lis2de12/lis2de12.c ****     }
 111:../Drivers/BSP/Components/lis2de12/lis2de12.c **** 
 112:../Drivers/BSP/Components/lis2de12/lis2de12.c ****     /* Set Output Data Rate to 10Hz */
 113:../Drivers/BSP/Components/lis2de12/lis2de12.c ****     lis2de12_data_rate_set( LIS2DE12_ODR_10Hz );
 118              		.loc 1 113 5
 119 003c 0220     		movs	r0, #2
 120 003e FFF7FEFF 		bl	lis2de12_data_rate_set
ARM GAS  /tmp/ccjphgoR.s 			page 5


 114:../Drivers/BSP/Components/lis2de12/lis2de12.c **** 
 115:../Drivers/BSP/Components/lis2de12/lis2de12.c ****     /* Enable Block Data Update */
 116:../Drivers/BSP/Components/lis2de12/lis2de12.c ****     lis2de12_block_data_update_set( PROPERTY_ENABLE );
 121              		.loc 1 116 5
 122 0042 0120     		movs	r0, #1
 123 0044 FFF7FEFF 		bl	lis2de12_block_data_update_set
 117:../Drivers/BSP/Components/lis2de12/lis2de12.c **** 
 118:../Drivers/BSP/Components/lis2de12/lis2de12.c ****     /* Enable bypass mode */
 119:../Drivers/BSP/Components/lis2de12/lis2de12.c ****     lis2de12_fifo_mode_set( LIS2DE12_BYPASS_MODE );
 124              		.loc 1 119 5
 125 0048 0020     		movs	r0, #0
 126 004a FFF7FEFF 		bl	lis2de12_fifo_mode_set
 120:../Drivers/BSP/Components/lis2de12/lis2de12.c **** 
 121:../Drivers/BSP/Components/lis2de12/lis2de12.c ****     /* Set full scale to 2g */
 122:../Drivers/BSP/Components/lis2de12/lis2de12.c ****     lis2de12_full_scale_set( LIS2DE12_2g );
 127              		.loc 1 122 5
 128 004e 0020     		movs	r0, #0
 129 0050 FFF7FEFF 		bl	lis2de12_full_scale_set
 123:../Drivers/BSP/Components/lis2de12/lis2de12.c **** 
 124:../Drivers/BSP/Components/lis2de12/lis2de12.c ****     /* Motion detection setup */
 125:../Drivers/BSP/Components/lis2de12/lis2de12.c ****     lis2de12_read_reg( LIS2DE12_CTRL_REG1, ( uint8_t* ) &ctrl_reg1, 1 );
 130              		.loc 1 125 5
 131 0054 07F10C03 		add	r3, r7, #12
 132 0058 0122     		movs	r2, #1
 133 005a 1946     		mov	r1, r3
 134 005c 2020     		movs	r0, #32
 135 005e FFF7FEFF 		bl	lis2de12_read_reg
 126:../Drivers/BSP/Components/lis2de12/lis2de12.c ****     ctrl_reg1.xen  = 1;
 136              		.loc 1 126 20
 137 0062 3B7B     		ldrb	r3, [r7, #12]
 138 0064 43F00103 		orr	r3, r3, #1
 139 0068 3B73     		strb	r3, [r7, #12]
 127:../Drivers/BSP/Components/lis2de12/lis2de12.c ****     ctrl_reg1.yen  = 1;
 140              		.loc 1 127 20
 141 006a 3B7B     		ldrb	r3, [r7, #12]
 142 006c 43F00203 		orr	r3, r3, #2
 143 0070 3B73     		strb	r3, [r7, #12]
 128:../Drivers/BSP/Components/lis2de12/lis2de12.c ****     ctrl_reg1.zen  = 1;
 144              		.loc 1 128 20
 145 0072 3B7B     		ldrb	r3, [r7, #12]
 146 0074 43F00403 		orr	r3, r3, #4
 147 0078 3B73     		strb	r3, [r7, #12]
 129:../Drivers/BSP/Components/lis2de12/lis2de12.c ****     ctrl_reg1.lpen = 1;
 148              		.loc 1 129 20
 149 007a 3B7B     		ldrb	r3, [r7, #12]
 150 007c 43F00803 		orr	r3, r3, #8
 151 0080 3B73     		strb	r3, [r7, #12]
 130:../Drivers/BSP/Components/lis2de12/lis2de12.c ****     lis2de12_write_reg( LIS2DE12_CTRL_REG1, ( uint8_t* ) &ctrl_reg1, 1 );
 152              		.loc 1 130 5
 153 0082 07F10C03 		add	r3, r7, #12
 154 0086 0122     		movs	r2, #1
 155 0088 1946     		mov	r1, r3
 156 008a 2020     		movs	r0, #32
 157 008c FFF7FEFF 		bl	lis2de12_write_reg
 131:../Drivers/BSP/Components/lis2de12/lis2de12.c **** 
 132:../Drivers/BSP/Components/lis2de12/lis2de12.c ****     lis2de12_high_pass_int_conf_set( LIS2DE12_ON_INT1_GEN );
 158              		.loc 1 132 5
ARM GAS  /tmp/ccjphgoR.s 			page 6


 159 0090 0120     		movs	r0, #1
 160 0092 FFF7FEFF 		bl	lis2de12_high_pass_int_conf_set
 133:../Drivers/BSP/Components/lis2de12/lis2de12.c **** 
 134:../Drivers/BSP/Components/lis2de12/lis2de12.c ****     ctrl_reg3.i1_zyxda    = 0;
 161              		.loc 1 134 27
 162 0096 3B7A     		ldrb	r3, [r7, #8]
 163 0098 6FF30413 		bfc	r3, #4, #1
 164 009c 3B72     		strb	r3, [r7, #8]
 135:../Drivers/BSP/Components/lis2de12/lis2de12.c ****     ctrl_reg3.i1_ia1      = 1;
 165              		.loc 1 135 27
 166 009e 3B7A     		ldrb	r3, [r7, #8]
 167 00a0 43F04003 		orr	r3, r3, #64
 168 00a4 3B72     		strb	r3, [r7, #8]
 136:../Drivers/BSP/Components/lis2de12/lis2de12.c ****     ctrl_reg3.i1_ia2      = 0;
 169              		.loc 1 136 27
 170 00a6 3B7A     		ldrb	r3, [r7, #8]
 171 00a8 6FF34513 		bfc	r3, #5, #1
 172 00ac 3B72     		strb	r3, [r7, #8]
 137:../Drivers/BSP/Components/lis2de12/lis2de12.c ****     ctrl_reg3.i1_click    = 0;
 173              		.loc 1 137 27
 174 00ae 3B7A     		ldrb	r3, [r7, #8]
 175 00b0 6FF3C713 		bfc	r3, #7, #1
 176 00b4 3B72     		strb	r3, [r7, #8]
 138:../Drivers/BSP/Components/lis2de12/lis2de12.c ****     ctrl_reg3.i1_overrun  = 0;
 177              		.loc 1 138 27
 178 00b6 3B7A     		ldrb	r3, [r7, #8]
 179 00b8 6FF34103 		bfc	r3, #1, #1
 180 00bc 3B72     		strb	r3, [r7, #8]
 139:../Drivers/BSP/Components/lis2de12/lis2de12.c ****     ctrl_reg3.i1_wtm      = 0;
 181              		.loc 1 139 27
 182 00be 3B7A     		ldrb	r3, [r7, #8]
 183 00c0 6FF38203 		bfc	r3, #2, #1
 184 00c4 3B72     		strb	r3, [r7, #8]
 140:../Drivers/BSP/Components/lis2de12/lis2de12.c ****     ctrl_reg3.not_used_01 = 0;
 185              		.loc 1 140 27
 186 00c6 3B7A     		ldrb	r3, [r7, #8]
 187 00c8 6FF30003 		bfc	r3, #0, #1
 188 00cc 3B72     		strb	r3, [r7, #8]
 141:../Drivers/BSP/Components/lis2de12/lis2de12.c ****     ctrl_reg3.not_used_02 = 0;
 189              		.loc 1 141 27
 190 00ce 3B7A     		ldrb	r3, [r7, #8]
 191 00d0 6FF3C303 		bfc	r3, #3, #1
 192 00d4 3B72     		strb	r3, [r7, #8]
 142:../Drivers/BSP/Components/lis2de12/lis2de12.c ****     lis2de12_pin_int1_config_set( &ctrl_reg3 );
 193              		.loc 1 142 5
 194 00d6 07F10803 		add	r3, r7, #8
 195 00da 1846     		mov	r0, r3
 196 00dc FFF7FEFF 		bl	lis2de12_pin_int1_config_set
 143:../Drivers/BSP/Components/lis2de12/lis2de12.c **** 
 144:../Drivers/BSP/Components/lis2de12/lis2de12.c ****     lis2de12_int1_pin_notification_mode_set( LIS2DE12_INT1_LATCHED );
 197              		.loc 1 144 5
 198 00e0 0120     		movs	r0, #1
 199 00e2 FFF7FEFF 		bl	lis2de12_int1_pin_notification_mode_set
 145:../Drivers/BSP/Components/lis2de12/lis2de12.c **** 
 146:../Drivers/BSP/Components/lis2de12/lis2de12.c ****     lis2de12_int1_cfg.xhie = 1;
 200              		.loc 1 146 28
 201 00e6 3B7C     		ldrb	r3, [r7, #16]
ARM GAS  /tmp/ccjphgoR.s 			page 7


 202 00e8 43F00203 		orr	r3, r3, #2
 203 00ec 3B74     		strb	r3, [r7, #16]
 147:../Drivers/BSP/Components/lis2de12/lis2de12.c ****     lis2de12_int1_cfg.yhie = 1;
 204              		.loc 1 147 28
 205 00ee 3B7C     		ldrb	r3, [r7, #16]
 206 00f0 43F00803 		orr	r3, r3, #8
 207 00f4 3B74     		strb	r3, [r7, #16]
 148:../Drivers/BSP/Components/lis2de12/lis2de12.c ****     lis2de12_int1_cfg.zhie = 1;
 208              		.loc 1 148 28
 209 00f6 3B7C     		ldrb	r3, [r7, #16]
 210 00f8 43F02003 		orr	r3, r3, #32
 211 00fc 3B74     		strb	r3, [r7, #16]
 149:../Drivers/BSP/Components/lis2de12/lis2de12.c ****     lis2de12_int1_gen_conf_set( &lis2de12_int1_cfg );
 212              		.loc 1 149 5
 213 00fe 07F11003 		add	r3, r7, #16
 214 0102 1846     		mov	r0, r3
 215 0104 FFF7FEFF 		bl	lis2de12_int1_gen_conf_set
 150:../Drivers/BSP/Components/lis2de12/lis2de12.c **** 
 151:../Drivers/BSP/Components/lis2de12/lis2de12.c ****     lis2de12_int1_gen_threshold_set( 4 );
 216              		.loc 1 151 5
 217 0108 0420     		movs	r0, #4
 218 010a FFF7FEFF 		bl	lis2de12_int1_gen_threshold_set
 152:../Drivers/BSP/Components/lis2de12/lis2de12.c **** 
 153:../Drivers/BSP/Components/lis2de12/lis2de12.c ****     lis2de12_int1_gen_duration_set( 3 );
 219              		.loc 1 153 5
 220 010e 0320     		movs	r0, #3
 221 0110 FFF7FEFF 		bl	lis2de12_int1_gen_duration_set
 154:../Drivers/BSP/Components/lis2de12/lis2de12.c **** 
 155:../Drivers/BSP/Components/lis2de12/lis2de12.c ****     if( irq_active & 0x01 )
 222              		.loc 1 155 20
 223 0114 FB79     		ldrb	r3, [r7, #7]	@ zero_extendqisi2
 224 0116 03F00103 		and	r3, r3, #1
 225              		.loc 1 155 7
 226 011a 002B     		cmp	r3, #0
 227 011c 01D0     		beq	.L7
 156:../Drivers/BSP/Components/lis2de12/lis2de12.c ****     {
 157:../Drivers/BSP/Components/lis2de12/lis2de12.c ****         accelerometer_irq1_init( );
 228              		.loc 1 157 9
 229 011e FFF7FEFF 		bl	accelerometer_irq1_init
 230              	.L7:
 158:../Drivers/BSP/Components/lis2de12/lis2de12.c ****     }
 159:../Drivers/BSP/Components/lis2de12/lis2de12.c **** 
 160:../Drivers/BSP/Components/lis2de12/lis2de12.c ****     return SUCCESS;
 231              		.loc 1 160 12
 232 0122 0023     		movs	r3, #0
 233              	.L8:
 161:../Drivers/BSP/Components/lis2de12/lis2de12.c **** }
 234              		.loc 1 161 1 discriminator 1
 235 0124 1846     		mov	r0, r3
 236 0126 1837     		adds	r7, r7, #24
 237              	.LCFI3:
 238              		.cfi_def_cfa_offset 8
 239 0128 BD46     		mov	sp, r7
 240              	.LCFI4:
 241              		.cfi_def_cfa_register 13
 242              		@ sp needed
 243 012a 80BD     		pop	{r7, pc}
ARM GAS  /tmp/ccjphgoR.s 			page 8


 244              	.L10:
 245              		.align	2
 246              	.L9:
 247 012c 00000000 		.word	who_am_i
 248              		.cfi_endproc
 249              	.LFE590:
 251              		.section	.text.is_accelerometer_detected_moved,"ax",%progbits
 252              		.align	1
 253              		.global	is_accelerometer_detected_moved
 254              		.syntax unified
 255              		.thumb
 256              		.thumb_func
 257              		.fpu fpv4-sp-d16
 259              	is_accelerometer_detected_moved:
 260              	.LFB591:
 162:../Drivers/BSP/Components/lis2de12/lis2de12.c **** 
 163:../Drivers/BSP/Components/lis2de12/lis2de12.c **** uint8_t is_accelerometer_detected_moved( void )
 164:../Drivers/BSP/Components/lis2de12/lis2de12.c **** {
 261              		.loc 1 164 1
 262              		.cfi_startproc
 263              		@ args = 0, pretend = 0, frame = 8
 264              		@ frame_needed = 1, uses_anonymous_args = 0
 265 0000 80B5     		push	{r7, lr}
 266              	.LCFI5:
 267              		.cfi_def_cfa_offset 8
 268              		.cfi_offset 7, -8
 269              		.cfi_offset 14, -4
 270 0002 82B0     		sub	sp, sp, #8
 271              	.LCFI6:
 272              		.cfi_def_cfa_offset 16
 273 0004 00AF     		add	r7, sp, #0
 274              	.LCFI7:
 275              		.cfi_def_cfa_register 7
 165:../Drivers/BSP/Components/lis2de12/lis2de12.c ****     lis2de12_int1_src_t int1_gen_source;
 166:../Drivers/BSP/Components/lis2de12/lis2de12.c **** 
 167:../Drivers/BSP/Components/lis2de12/lis2de12.c ****     lis2de12_int1_gen_source_get( &int1_gen_source );
 276              		.loc 1 167 5
 277 0006 3B1D     		adds	r3, r7, #4
 278 0008 1846     		mov	r0, r3
 279 000a FFF7FEFF 		bl	lis2de12_int1_gen_source_get
 168:../Drivers/BSP/Components/lis2de12/lis2de12.c **** 
 169:../Drivers/BSP/Components/lis2de12/lis2de12.c ****     if( ( int1_gen_source.xh == 1 ) || ( int1_gen_source.yh == 1 ) || ( int1_gen_source.zh == 1 ) )
 280              		.loc 1 169 30
 281 000e 3B79     		ldrb	r3, [r7, #4]	@ zero_extendqisi2
 282 0010 03F00203 		and	r3, r3, #2
 283 0014 DBB2     		uxtb	r3, r3
 284              		.loc 1 169 7
 285 0016 002B     		cmp	r3, #0
 286 0018 0BD1     		bne	.L12
 287              		.loc 1 169 61 discriminator 1
 288 001a 3B79     		ldrb	r3, [r7, #4]	@ zero_extendqisi2
 289 001c 03F00803 		and	r3, r3, #8
 290 0020 DBB2     		uxtb	r3, r3
 291              		.loc 1 169 37 discriminator 1
 292 0022 002B     		cmp	r3, #0
 293 0024 05D1     		bne	.L12
 294              		.loc 1 169 92 discriminator 2
ARM GAS  /tmp/ccjphgoR.s 			page 9


 295 0026 3B79     		ldrb	r3, [r7, #4]	@ zero_extendqisi2
 296 0028 03F02003 		and	r3, r3, #32
 297 002c DBB2     		uxtb	r3, r3
 298              		.loc 1 169 68 discriminator 2
 299 002e 002B     		cmp	r3, #0
 300 0030 04D0     		beq	.L13
 301              	.L12:
 170:../Drivers/BSP/Components/lis2de12/lis2de12.c ****     {
 171:../Drivers/BSP/Components/lis2de12/lis2de12.c ****         accelerometer_irq1_state = false;
 302              		.loc 1 171 34
 303 0032 054B     		ldr	r3, .L16
 304 0034 0022     		movs	r2, #0
 305 0036 1A70     		strb	r2, [r3]
 172:../Drivers/BSP/Components/lis2de12/lis2de12.c **** 
 173:../Drivers/BSP/Components/lis2de12/lis2de12.c ****         return 1;
 306              		.loc 1 173 16
 307 0038 0123     		movs	r3, #1
 308 003a 00E0     		b	.L15
 309              	.L13:
 174:../Drivers/BSP/Components/lis2de12/lis2de12.c ****     }
 175:../Drivers/BSP/Components/lis2de12/lis2de12.c ****     return 0;
 310              		.loc 1 175 12
 311 003c 0023     		movs	r3, #0
 312              	.L15:
 176:../Drivers/BSP/Components/lis2de12/lis2de12.c **** }
 313              		.loc 1 176 1 discriminator 1
 314 003e 1846     		mov	r0, r3
 315 0040 0837     		adds	r7, r7, #8
 316              	.LCFI8:
 317              		.cfi_def_cfa_offset 8
 318 0042 BD46     		mov	sp, r7
 319              	.LCFI9:
 320              		.cfi_def_cfa_register 13
 321              		@ sp needed
 322 0044 80BD     		pop	{r7, pc}
 323              	.L17:
 324 0046 00BF     		.align	2
 325              	.L16:
 326 0048 00000000 		.word	accelerometer_irq1_state
 327              		.cfi_endproc
 328              	.LFE591:
 330              		.section	.text.get_accelerometer_irq1_state,"ax",%progbits
 331              		.align	1
 332              		.global	get_accelerometer_irq1_state
 333              		.syntax unified
 334              		.thumb
 335              		.thumb_func
 336              		.fpu fpv4-sp-d16
 338              	get_accelerometer_irq1_state:
 339              	.LFB592:
 177:../Drivers/BSP/Components/lis2de12/lis2de12.c **** 
 178:../Drivers/BSP/Components/lis2de12/lis2de12.c **** /*!
 179:../Drivers/BSP/Components/lis2de12/lis2de12.c ****  * @brief Get the accelerometer IRQ state
 180:../Drivers/BSP/Components/lis2de12/lis2de12.c ****  */
 181:../Drivers/BSP/Components/lis2de12/lis2de12.c **** bool get_accelerometer_irq1_state( void ) { return accelerometer_irq1_state; }
 340              		.loc 1 181 43
 341              		.cfi_startproc
ARM GAS  /tmp/ccjphgoR.s 			page 10


 342              		@ args = 0, pretend = 0, frame = 0
 343              		@ frame_needed = 1, uses_anonymous_args = 0
 344              		@ link register save eliminated.
 345 0000 80B4     		push	{r7}
 346              	.LCFI10:
 347              		.cfi_def_cfa_offset 4
 348              		.cfi_offset 7, -4
 349 0002 00AF     		add	r7, sp, #0
 350              	.LCFI11:
 351              		.cfi_def_cfa_register 7
 352              		.loc 1 181 52
 353 0004 034B     		ldr	r3, .L20
 354 0006 1B78     		ldrb	r3, [r3]	@ zero_extendqisi2
 355              		.loc 1 181 78
 356 0008 1846     		mov	r0, r3
 357 000a BD46     		mov	sp, r7
 358              	.LCFI12:
 359              		.cfi_def_cfa_register 13
 360              		@ sp needed
 361 000c 5DF8047B 		ldr	r7, [sp], #4
 362              	.LCFI13:
 363              		.cfi_restore 7
 364              		.cfi_def_cfa_offset 0
 365 0010 7047     		bx	lr
 366              	.L21:
 367 0012 00BF     		.align	2
 368              	.L20:
 369 0014 00000000 		.word	accelerometer_irq1_state
 370              		.cfi_endproc
 371              	.LFE592:
 373              		.section	.text.is_accelerometer_double_tap_detected,"ax",%progbits
 374              		.align	1
 375              		.global	is_accelerometer_double_tap_detected
 376              		.syntax unified
 377              		.thumb
 378              		.thumb_func
 379              		.fpu fpv4-sp-d16
 381              	is_accelerometer_double_tap_detected:
 382              	.LFB593:
 182:../Drivers/BSP/Components/lis2de12/lis2de12.c **** 
 183:../Drivers/BSP/Components/lis2de12/lis2de12.c **** uint8_t is_accelerometer_double_tap_detected( void )
 184:../Drivers/BSP/Components/lis2de12/lis2de12.c **** {
 383              		.loc 1 184 1
 384              		.cfi_startproc
 385              		@ args = 0, pretend = 0, frame = 8
 386              		@ frame_needed = 1, uses_anonymous_args = 0
 387 0000 80B5     		push	{r7, lr}
 388              	.LCFI14:
 389              		.cfi_def_cfa_offset 8
 390              		.cfi_offset 7, -8
 391              		.cfi_offset 14, -4
 392 0002 82B0     		sub	sp, sp, #8
 393              	.LCFI15:
 394              		.cfi_def_cfa_offset 16
 395 0004 00AF     		add	r7, sp, #0
 396              	.LCFI16:
 397              		.cfi_def_cfa_register 7
ARM GAS  /tmp/ccjphgoR.s 			page 11


 185:../Drivers/BSP/Components/lis2de12/lis2de12.c ****     lis2de12_click_src_t click_src;
 186:../Drivers/BSP/Components/lis2de12/lis2de12.c **** 
 187:../Drivers/BSP/Components/lis2de12/lis2de12.c ****     lis2de12_tap_source_get( &click_src );
 398              		.loc 1 187 5
 399 0006 3B1D     		adds	r3, r7, #4
 400 0008 1846     		mov	r0, r3
 401 000a FFF7FEFF 		bl	lis2de12_tap_source_get
 188:../Drivers/BSP/Components/lis2de12/lis2de12.c **** 
 189:../Drivers/BSP/Components/lis2de12/lis2de12.c ****     if( ( click_src.dclick == 1 ) || ( click_src.ia == 1 ) || ( click_src.z == 1 ) )
 402              		.loc 1 189 28
 403 000e 3B79     		ldrb	r3, [r7, #4]	@ zero_extendqisi2
 404 0010 03F02003 		and	r3, r3, #32
 405 0014 DBB2     		uxtb	r3, r3
 406              		.loc 1 189 7
 407 0016 002B     		cmp	r3, #0
 408 0018 0BD1     		bne	.L23
 409              		.loc 1 189 53 discriminator 1
 410 001a 3B79     		ldrb	r3, [r7, #4]	@ zero_extendqisi2
 411 001c 03F04003 		and	r3, r3, #64
 412 0020 DBB2     		uxtb	r3, r3
 413              		.loc 1 189 35 discriminator 1
 414 0022 002B     		cmp	r3, #0
 415 0024 05D1     		bne	.L23
 416              		.loc 1 189 77 discriminator 2
 417 0026 3B79     		ldrb	r3, [r7, #4]	@ zero_extendqisi2
 418 0028 03F00403 		and	r3, r3, #4
 419 002c DBB2     		uxtb	r3, r3
 420              		.loc 1 189 60 discriminator 2
 421 002e 002B     		cmp	r3, #0
 422 0030 01D0     		beq	.L24
 423              	.L23:
 190:../Drivers/BSP/Components/lis2de12/lis2de12.c ****     {
 191:../Drivers/BSP/Components/lis2de12/lis2de12.c ****         return 1;
 424              		.loc 1 191 16
 425 0032 0123     		movs	r3, #1
 426 0034 00E0     		b	.L26
 427              	.L24:
 192:../Drivers/BSP/Components/lis2de12/lis2de12.c ****     }
 193:../Drivers/BSP/Components/lis2de12/lis2de12.c ****     return 0;
 428              		.loc 1 193 12
 429 0036 0023     		movs	r3, #0
 430              	.L26:
 194:../Drivers/BSP/Components/lis2de12/lis2de12.c **** }
 431              		.loc 1 194 1 discriminator 1
 432 0038 1846     		mov	r0, r3
 433 003a 0837     		adds	r7, r7, #8
 434              	.LCFI17:
 435              		.cfi_def_cfa_offset 8
 436 003c BD46     		mov	sp, r7
 437              	.LCFI18:
 438              		.cfi_def_cfa_register 13
 439              		@ sp needed
 440 003e 80BD     		pop	{r7, pc}
 441              		.cfi_endproc
 442              	.LFE593:
 444              		.section	.text.acc_read_raw_data,"ax",%progbits
 445              		.align	1
ARM GAS  /tmp/ccjphgoR.s 			page 12


 446              		.global	acc_read_raw_data
 447              		.syntax unified
 448              		.thumb
 449              		.thumb_func
 450              		.fpu fpv4-sp-d16
 452              	acc_read_raw_data:
 453              	.LFB594:
 195:../Drivers/BSP/Components/lis2de12/lis2de12.c **** 
 196:../Drivers/BSP/Components/lis2de12/lis2de12.c **** void acc_read_raw_data( void )
 197:../Drivers/BSP/Components/lis2de12/lis2de12.c **** {
 454              		.loc 1 197 1
 455              		.cfi_startproc
 456              		@ args = 0, pretend = 0, frame = 8
 457              		@ frame_needed = 1, uses_anonymous_args = 0
 458 0000 80B5     		push	{r7, lr}
 459              	.LCFI19:
 460              		.cfi_def_cfa_offset 8
 461              		.cfi_offset 7, -8
 462              		.cfi_offset 14, -4
 463 0002 82B0     		sub	sp, sp, #8
 464              	.LCFI20:
 465              		.cfi_def_cfa_offset 16
 466 0004 00AF     		add	r7, sp, #0
 467              	.LCFI21:
 468              		.cfi_def_cfa_register 7
 198:../Drivers/BSP/Components/lis2de12/lis2de12.c ****     lis2de12_reg_t reg;
 199:../Drivers/BSP/Components/lis2de12/lis2de12.c ****     bool           data_read = false;
 469              		.loc 1 199 20
 470 0006 0023     		movs	r3, #0
 471 0008 FB71     		strb	r3, [r7, #7]
 200:../Drivers/BSP/Components/lis2de12/lis2de12.c **** 
 201:../Drivers/BSP/Components/lis2de12/lis2de12.c ****     while( data_read == false )
 472              		.loc 1 201 10
 473 000a 3CE0     		b	.L28
 474              	.L29:
 202:../Drivers/BSP/Components/lis2de12/lis2de12.c ****     {
 203:../Drivers/BSP/Components/lis2de12/lis2de12.c ****         lis2de12_xl_data_ready_get( &reg.byte );
 475              		.loc 1 203 9
 476 000c 3B1D     		adds	r3, r7, #4
 477 000e 1846     		mov	r0, r3
 478 0010 FFF7FEFF 		bl	lis2de12_xl_data_ready_get
 204:../Drivers/BSP/Components/lis2de12/lis2de12.c ****         if( reg.byte )
 479              		.loc 1 204 16
 480 0014 3B79     		ldrb	r3, [r7, #4]	@ zero_extendqisi2
 481              		.loc 1 204 11
 482 0016 002B     		cmp	r3, #0
 483 0018 35D0     		beq	.L28
 205:../Drivers/BSP/Components/lis2de12/lis2de12.c ****         {
 206:../Drivers/BSP/Components/lis2de12/lis2de12.c ****             /* Read accelerometer data */
 207:../Drivers/BSP/Components/lis2de12/lis2de12.c ****             memset( data_raw_acceleration.u8bit, 0x00, 3 * sizeof( int16_t ) );
 484              		.loc 1 207 13
 485 001a 0622     		movs	r2, #6
 486 001c 0021     		movs	r1, #0
 487 001e 1F48     		ldr	r0, .L30
 488 0020 FFF7FEFF 		bl	memset
 208:../Drivers/BSP/Components/lis2de12/lis2de12.c ****             lis2de12_acceleration_raw_get( data_raw_acceleration.u8bit );
 489              		.loc 1 208 13
ARM GAS  /tmp/ccjphgoR.s 			page 13


 490 0024 1D48     		ldr	r0, .L30
 491 0026 FFF7FEFF 		bl	lis2de12_acceleration_raw_get
 209:../Drivers/BSP/Components/lis2de12/lis2de12.c **** 
 210:../Drivers/BSP/Components/lis2de12/lis2de12.c ****             lis2de12_acceleration_raw_get_x( data_raw_acceleration.u8bit );
 492              		.loc 1 210 13
 493 002a 1C48     		ldr	r0, .L30
 494 002c FFF7FEFF 		bl	lis2de12_acceleration_raw_get_x
 211:../Drivers/BSP/Components/lis2de12/lis2de12.c ****             lis2de12_acceleration_raw_get_y( data_raw_acceleration.u8bit + 2 );
 495              		.loc 1 211 13
 496 0030 1B4B     		ldr	r3, .L30+4
 497 0032 1846     		mov	r0, r3
 498 0034 FFF7FEFF 		bl	lis2de12_acceleration_raw_get_y
 212:../Drivers/BSP/Components/lis2de12/lis2de12.c ****             lis2de12_acceleration_raw_get_z( data_raw_acceleration.u8bit + 4 );
 499              		.loc 1 212 13
 500 0038 1A4B     		ldr	r3, .L30+8
 501 003a 1846     		mov	r0, r3
 502 003c FFF7FEFF 		bl	lis2de12_acceleration_raw_get_z
 213:../Drivers/BSP/Components/lis2de12/lis2de12.c **** 
 214:../Drivers/BSP/Components/lis2de12/lis2de12.c ****             acceleration_mg[0] = lis2de12_from_fs2_to_mg( data_raw_acceleration.i16bit[0] );
 503              		.loc 1 214 34
 504 0040 164B     		ldr	r3, .L30
 505 0042 B3F90030 		ldrsh	r3, [r3]
 506 0046 1846     		mov	r0, r3
 507 0048 FFF7FEFF 		bl	lis2de12_from_fs2_to_mg
 508 004c F0EE407A 		vmov.f32	s15, s0
 509              		.loc 1 214 32
 510 0050 154B     		ldr	r3, .L30+12
 511 0052 C3ED007A 		vstr.32	s15, [r3]
 215:../Drivers/BSP/Components/lis2de12/lis2de12.c ****             acceleration_mg[1] = lis2de12_from_fs2_to_mg( data_raw_acceleration.i16bit[1] );
 512              		.loc 1 215 34
 513 0056 114B     		ldr	r3, .L30
 514 0058 B3F90230 		ldrsh	r3, [r3, #2]
 515 005c 1846     		mov	r0, r3
 516 005e FFF7FEFF 		bl	lis2de12_from_fs2_to_mg
 517 0062 F0EE407A 		vmov.f32	s15, s0
 518              		.loc 1 215 32
 519 0066 104B     		ldr	r3, .L30+12
 520 0068 C3ED017A 		vstr.32	s15, [r3, #4]
 216:../Drivers/BSP/Components/lis2de12/lis2de12.c ****             acceleration_mg[2] = lis2de12_from_fs2_to_mg( data_raw_acceleration.i16bit[2] );
 521              		.loc 1 216 34
 522 006c 0B4B     		ldr	r3, .L30
 523 006e B3F90430 		ldrsh	r3, [r3, #4]
 524 0072 1846     		mov	r0, r3
 525 0074 FFF7FEFF 		bl	lis2de12_from_fs2_to_mg
 526 0078 F0EE407A 		vmov.f32	s15, s0
 527              		.loc 1 216 32
 528 007c 0A4B     		ldr	r3, .L30+12
 529 007e C3ED027A 		vstr.32	s15, [r3, #8]
 217:../Drivers/BSP/Components/lis2de12/lis2de12.c **** 
 218:../Drivers/BSP/Components/lis2de12/lis2de12.c ****             data_read = true;
 530              		.loc 1 218 23
 531 0082 0123     		movs	r3, #1
 532 0084 FB71     		strb	r3, [r7, #7]
 533              	.L28:
 201:../Drivers/BSP/Components/lis2de12/lis2de12.c ****     {
 534              		.loc 1 201 22
 535 0086 FB79     		ldrb	r3, [r7, #7]
ARM GAS  /tmp/ccjphgoR.s 			page 14


 536 0088 83F00103 		eor	r3, r3, #1
 537 008c DBB2     		uxtb	r3, r3
 201:../Drivers/BSP/Components/lis2de12/lis2de12.c ****     {
 538              		.loc 1 201 10
 539 008e 002B     		cmp	r3, #0
 540 0090 BCD1     		bne	.L29
 219:../Drivers/BSP/Components/lis2de12/lis2de12.c ****         }
 220:../Drivers/BSP/Components/lis2de12/lis2de12.c ****     }
 221:../Drivers/BSP/Components/lis2de12/lis2de12.c **** }
 541              		.loc 1 221 1
 542 0092 00BF     		nop
 543 0094 00BF     		nop
 544 0096 0837     		adds	r7, r7, #8
 545              	.LCFI22:
 546              		.cfi_def_cfa_offset 8
 547 0098 BD46     		mov	sp, r7
 548              	.LCFI23:
 549              		.cfi_def_cfa_register 13
 550              		@ sp needed
 551 009a 80BD     		pop	{r7, pc}
 552              	.L31:
 553              		.align	2
 554              	.L30:
 555 009c 00000000 		.word	data_raw_acceleration
 556 00a0 02000000 		.word	data_raw_acceleration+2
 557 00a4 04000000 		.word	data_raw_acceleration+4
 558 00a8 00000000 		.word	acceleration_mg
 559              		.cfi_endproc
 560              	.LFE594:
 562              		.section	.text.acc_get_raw_x,"ax",%progbits
 563              		.align	1
 564              		.global	acc_get_raw_x
 565              		.syntax unified
 566              		.thumb
 567              		.thumb_func
 568              		.fpu fpv4-sp-d16
 570              	acc_get_raw_x:
 571              	.LFB595:
 222:../Drivers/BSP/Components/lis2de12/lis2de12.c **** 
 223:../Drivers/BSP/Components/lis2de12/lis2de12.c **** int16_t acc_get_raw_x( void ) { return acceleration_mg[0]; }
 572              		.loc 1 223 31
 573              		.cfi_startproc
 574              		@ args = 0, pretend = 0, frame = 0
 575              		@ frame_needed = 1, uses_anonymous_args = 0
 576              		@ link register save eliminated.
 577 0000 80B4     		push	{r7}
 578              	.LCFI24:
 579              		.cfi_def_cfa_offset 4
 580              		.cfi_offset 7, -4
 581 0002 00AF     		add	r7, sp, #0
 582              	.LCFI25:
 583              		.cfi_def_cfa_register 7
 584              		.loc 1 223 55
 585 0004 064B     		ldr	r3, .L34
 586 0006 D3ED007A 		vldr.32	s15, [r3]
 587 000a FDEEE77A 		vcvt.s32.f32	s15, s15
 588 000e 17EE903A 		vmov	r3, s15	@ int
ARM GAS  /tmp/ccjphgoR.s 			page 15


 589 0012 1BB2     		sxth	r3, r3
 590              		.loc 1 223 60
 591 0014 1846     		mov	r0, r3
 592 0016 BD46     		mov	sp, r7
 593              	.LCFI26:
 594              		.cfi_def_cfa_register 13
 595              		@ sp needed
 596 0018 5DF8047B 		ldr	r7, [sp], #4
 597              	.LCFI27:
 598              		.cfi_restore 7
 599              		.cfi_def_cfa_offset 0
 600 001c 7047     		bx	lr
 601              	.L35:
 602 001e 00BF     		.align	2
 603              	.L34:
 604 0020 00000000 		.word	acceleration_mg
 605              		.cfi_endproc
 606              	.LFE595:
 608              		.section	.text.acc_get_raw_y,"ax",%progbits
 609              		.align	1
 610              		.global	acc_get_raw_y
 611              		.syntax unified
 612              		.thumb
 613              		.thumb_func
 614              		.fpu fpv4-sp-d16
 616              	acc_get_raw_y:
 617              	.LFB596:
 224:../Drivers/BSP/Components/lis2de12/lis2de12.c **** 
 225:../Drivers/BSP/Components/lis2de12/lis2de12.c **** int16_t acc_get_raw_y( void ) { return acceleration_mg[1]; }
 618              		.loc 1 225 31
 619              		.cfi_startproc
 620              		@ args = 0, pretend = 0, frame = 0
 621              		@ frame_needed = 1, uses_anonymous_args = 0
 622              		@ link register save eliminated.
 623 0000 80B4     		push	{r7}
 624              	.LCFI28:
 625              		.cfi_def_cfa_offset 4
 626              		.cfi_offset 7, -4
 627 0002 00AF     		add	r7, sp, #0
 628              	.LCFI29:
 629              		.cfi_def_cfa_register 7
 630              		.loc 1 225 55
 631 0004 064B     		ldr	r3, .L38
 632 0006 D3ED017A 		vldr.32	s15, [r3, #4]
 633 000a FDEEE77A 		vcvt.s32.f32	s15, s15
 634 000e 17EE903A 		vmov	r3, s15	@ int
 635 0012 1BB2     		sxth	r3, r3
 636              		.loc 1 225 60
 637 0014 1846     		mov	r0, r3
 638 0016 BD46     		mov	sp, r7
 639              	.LCFI30:
 640              		.cfi_def_cfa_register 13
 641              		@ sp needed
 642 0018 5DF8047B 		ldr	r7, [sp], #4
 643              	.LCFI31:
 644              		.cfi_restore 7
 645              		.cfi_def_cfa_offset 0
ARM GAS  /tmp/ccjphgoR.s 			page 16


 646 001c 7047     		bx	lr
 647              	.L39:
 648 001e 00BF     		.align	2
 649              	.L38:
 650 0020 00000000 		.word	acceleration_mg
 651              		.cfi_endproc
 652              	.LFE596:
 654              		.section	.text.acc_get_raw_z,"ax",%progbits
 655              		.align	1
 656              		.global	acc_get_raw_z
 657              		.syntax unified
 658              		.thumb
 659              		.thumb_func
 660              		.fpu fpv4-sp-d16
 662              	acc_get_raw_z:
 663              	.LFB597:
 226:../Drivers/BSP/Components/lis2de12/lis2de12.c **** 
 227:../Drivers/BSP/Components/lis2de12/lis2de12.c **** int16_t acc_get_raw_z( void ) { return acceleration_mg[2]; }
 664              		.loc 1 227 31
 665              		.cfi_startproc
 666              		@ args = 0, pretend = 0, frame = 0
 667              		@ frame_needed = 1, uses_anonymous_args = 0
 668              		@ link register save eliminated.
 669 0000 80B4     		push	{r7}
 670              	.LCFI32:
 671              		.cfi_def_cfa_offset 4
 672              		.cfi_offset 7, -4
 673 0002 00AF     		add	r7, sp, #0
 674              	.LCFI33:
 675              		.cfi_def_cfa_register 7
 676              		.loc 1 227 55
 677 0004 064B     		ldr	r3, .L42
 678 0006 D3ED027A 		vldr.32	s15, [r3, #8]
 679 000a FDEEE77A 		vcvt.s32.f32	s15, s15
 680 000e 17EE903A 		vmov	r3, s15	@ int
 681 0012 1BB2     		sxth	r3, r3
 682              		.loc 1 227 60
 683 0014 1846     		mov	r0, r3
 684 0016 BD46     		mov	sp, r7
 685              	.LCFI34:
 686              		.cfi_def_cfa_register 13
 687              		@ sp needed
 688 0018 5DF8047B 		ldr	r7, [sp], #4
 689              	.LCFI35:
 690              		.cfi_restore 7
 691              		.cfi_def_cfa_offset 0
 692 001c 7047     		bx	lr
 693              	.L43:
 694 001e 00BF     		.align	2
 695              	.L42:
 696 0020 00000000 		.word	acceleration_mg
 697              		.cfi_endproc
 698              	.LFE597:
 700              		.section	.text.acc_get_temperature,"ax",%progbits
 701              		.align	1
 702              		.global	acc_get_temperature
 703              		.syntax unified
ARM GAS  /tmp/ccjphgoR.s 			page 17


 704              		.thumb
 705              		.thumb_func
 706              		.fpu fpv4-sp-d16
 708              	acc_get_temperature:
 709              	.LFB598:
 228:../Drivers/BSP/Components/lis2de12/lis2de12.c **** 
 229:../Drivers/BSP/Components/lis2de12/lis2de12.c **** int16_t acc_get_temperature( void )
 230:../Drivers/BSP/Components/lis2de12/lis2de12.c **** {
 710              		.loc 1 230 1
 711              		.cfi_startproc
 712              		@ args = 0, pretend = 0, frame = 8
 713              		@ frame_needed = 1, uses_anonymous_args = 0
 714 0000 80B5     		push	{r7, lr}
 715              	.LCFI36:
 716              		.cfi_def_cfa_offset 8
 717              		.cfi_offset 7, -8
 718              		.cfi_offset 14, -4
 719 0002 82B0     		sub	sp, sp, #8
 720              	.LCFI37:
 721              		.cfi_def_cfa_offset 16
 722 0004 00AF     		add	r7, sp, #0
 723              	.LCFI38:
 724              		.cfi_def_cfa_register 7
 231:../Drivers/BSP/Components/lis2de12/lis2de12.c ****     uint16_t temperature;
 232:../Drivers/BSP/Components/lis2de12/lis2de12.c ****     uint8_t  is_ready = 0;
 725              		.loc 1 232 14
 726 0006 0023     		movs	r3, #0
 727 0008 7B71     		strb	r3, [r7, #5]
 233:../Drivers/BSP/Components/lis2de12/lis2de12.c **** 
 234:../Drivers/BSP/Components/lis2de12/lis2de12.c ****     lis2de12_temp_data_ready_get( &is_ready );
 728              		.loc 1 234 5
 729 000a 7B1D     		adds	r3, r7, #5
 730 000c 1846     		mov	r0, r3
 731 000e FFF7FEFF 		bl	lis2de12_temp_data_ready_get
 235:../Drivers/BSP/Components/lis2de12/lis2de12.c **** 
 236:../Drivers/BSP/Components/lis2de12/lis2de12.c ****     lis2de12_temperature_raw_get( &temperature );
 732              		.loc 1 236 5
 733 0012 BB1D     		adds	r3, r7, #6
 734 0014 1846     		mov	r0, r3
 735 0016 FFF7FEFF 		bl	lis2de12_temperature_raw_get
 237:../Drivers/BSP/Components/lis2de12/lis2de12.c **** 
 238:../Drivers/BSP/Components/lis2de12/lis2de12.c ****     /* Build the raw tmp */
 239:../Drivers/BSP/Components/lis2de12/lis2de12.c ****     return ( int16_t ) temperature;
 736              		.loc 1 239 12
 737 001a FB88     		ldrh	r3, [r7, #6]
 738 001c 1BB2     		sxth	r3, r3
 240:../Drivers/BSP/Components/lis2de12/lis2de12.c **** }
 739              		.loc 1 240 1
 740 001e 1846     		mov	r0, r3
 741 0020 0837     		adds	r7, r7, #8
 742              	.LCFI39:
 743              		.cfi_def_cfa_offset 8
 744 0022 BD46     		mov	sp, r7
 745              	.LCFI40:
 746              		.cfi_def_cfa_register 13
 747              		@ sp needed
 748 0024 80BD     		pop	{r7, pc}
ARM GAS  /tmp/ccjphgoR.s 			page 18


 749              		.cfi_endproc
 750              	.LFE598:
 752              		.section	.text.lis2de12_read_reg,"ax",%progbits
 753              		.align	1
 754              		.global	lis2de12_read_reg
 755              		.syntax unified
 756              		.thumb
 757              		.thumb_func
 758              		.fpu fpv4-sp-d16
 760              	lis2de12_read_reg:
 761              	.LFB599:
 241:../Drivers/BSP/Components/lis2de12/lis2de12.c **** 
 242:../Drivers/BSP/Components/lis2de12/lis2de12.c **** /**
 243:../Drivers/BSP/Components/lis2de12/lis2de12.c ****  * @brief  Read generic device register
 244:../Drivers/BSP/Components/lis2de12/lis2de12.c ****  *
 245:../Drivers/BSP/Components/lis2de12/lis2de12.c ****  * @param  reg   register to read
 246:../Drivers/BSP/Components/lis2de12/lis2de12.c ****  * @param  data  pointer to buffer that store the data read(ptr)
 247:../Drivers/BSP/Components/lis2de12/lis2de12.c ****  * @param  len   number of consecutive register to read
 248:../Drivers/BSP/Components/lis2de12/lis2de12.c ****  * @retval          interface status (MANDATORY: return 0 -> no Error)
 249:../Drivers/BSP/Components/lis2de12/lis2de12.c ****  *
 250:../Drivers/BSP/Components/lis2de12/lis2de12.c ****  */
 251:../Drivers/BSP/Components/lis2de12/lis2de12.c **** int32_t lis2de12_read_reg( uint8_t reg, uint8_t* data, uint16_t len )
 252:../Drivers/BSP/Components/lis2de12/lis2de12.c **** {
 762              		.loc 1 252 1
 763              		.cfi_startproc
 764              		@ args = 0, pretend = 0, frame = 16
 765              		@ frame_needed = 1, uses_anonymous_args = 0
 766 0000 80B5     		push	{r7, lr}
 767              	.LCFI41:
 768              		.cfi_def_cfa_offset 8
 769              		.cfi_offset 7, -8
 770              		.cfi_offset 14, -4
 771 0002 86B0     		sub	sp, sp, #24
 772              	.LCFI42:
 773              		.cfi_def_cfa_offset 32
 774 0004 02AF     		add	r7, sp, #8
 775              	.LCFI43:
 776              		.cfi_def_cfa 7, 24
 777 0006 0346     		mov	r3, r0
 778 0008 3960     		str	r1, [r7]
 779 000a FB71     		strb	r3, [r7, #7]
 780 000c 1346     		mov	r3, r2	@ movhi
 781 000e BB80     		strh	r3, [r7, #4]	@ movhi
 253:../Drivers/BSP/Components/lis2de12/lis2de12.c ****     int32_t ret;
 254:../Drivers/BSP/Components/lis2de12/lis2de12.c ****     ret = hal_i2c_read_buffer( 1, LIS2DE12_I2C_ADD_H, reg, data, len );
 782              		.loc 1 254 11
 783 0010 FB79     		ldrb	r3, [r7, #7]	@ zero_extendqisi2
 784 0012 9AB2     		uxth	r2, r3
 785 0014 BB88     		ldrh	r3, [r7, #4]
 786 0016 0093     		str	r3, [sp]
 787 0018 3B68     		ldr	r3, [r7]
 788 001a 3321     		movs	r1, #51
 789 001c 0120     		movs	r0, #1
 790 001e FFF7FEFF 		bl	hal_i2c_read_buffer
 791 0022 0346     		mov	r3, r0
 792              		.loc 1 254 9
 793 0024 FB60     		str	r3, [r7, #12]
ARM GAS  /tmp/ccjphgoR.s 			page 19


 255:../Drivers/BSP/Components/lis2de12/lis2de12.c ****     return !ret;
 794              		.loc 1 255 12
 795 0026 FB68     		ldr	r3, [r7, #12]
 796 0028 002B     		cmp	r3, #0
 797 002a 0CBF     		ite	eq
 798 002c 0123     		moveq	r3, #1
 799 002e 0023     		movne	r3, #0
 800 0030 DBB2     		uxtb	r3, r3
 256:../Drivers/BSP/Components/lis2de12/lis2de12.c **** }
 801              		.loc 1 256 1
 802 0032 1846     		mov	r0, r3
 803 0034 1037     		adds	r7, r7, #16
 804              	.LCFI44:
 805              		.cfi_def_cfa_offset 8
 806 0036 BD46     		mov	sp, r7
 807              	.LCFI45:
 808              		.cfi_def_cfa_register 13
 809              		@ sp needed
 810 0038 80BD     		pop	{r7, pc}
 811              		.cfi_endproc
 812              	.LFE599:
 814              		.section	.text.lis2de12_write_reg,"ax",%progbits
 815              		.align	1
 816              		.global	lis2de12_write_reg
 817              		.syntax unified
 818              		.thumb
 819              		.thumb_func
 820              		.fpu fpv4-sp-d16
 822              	lis2de12_write_reg:
 823              	.LFB600:
 257:../Drivers/BSP/Components/lis2de12/lis2de12.c **** 
 258:../Drivers/BSP/Components/lis2de12/lis2de12.c **** /**
 259:../Drivers/BSP/Components/lis2de12/lis2de12.c ****  * @brief  Write generic device register
 260:../Drivers/BSP/Components/lis2de12/lis2de12.c ****  *
 261:../Drivers/BSP/Components/lis2de12/lis2de12.c ****  * @param  reg   register to write
 262:../Drivers/BSP/Components/lis2de12/lis2de12.c ****  * @param  data  pointer to data to write in register reg(ptr)
 263:../Drivers/BSP/Components/lis2de12/lis2de12.c ****  * @param  len   number of consecutive register to write
 264:../Drivers/BSP/Components/lis2de12/lis2de12.c ****  * @retval          interface status (MANDATORY: return 0 -> no Error)
 265:../Drivers/BSP/Components/lis2de12/lis2de12.c ****  *
 266:../Drivers/BSP/Components/lis2de12/lis2de12.c ****  */
 267:../Drivers/BSP/Components/lis2de12/lis2de12.c **** int32_t lis2de12_write_reg( uint8_t reg, uint8_t* data, uint16_t len )
 268:../Drivers/BSP/Components/lis2de12/lis2de12.c **** {
 824              		.loc 1 268 1
 825              		.cfi_startproc
 826              		@ args = 0, pretend = 0, frame = 16
 827              		@ frame_needed = 1, uses_anonymous_args = 0
 828 0000 80B5     		push	{r7, lr}
 829              	.LCFI46:
 830              		.cfi_def_cfa_offset 8
 831              		.cfi_offset 7, -8
 832              		.cfi_offset 14, -4
 833 0002 86B0     		sub	sp, sp, #24
 834              	.LCFI47:
 835              		.cfi_def_cfa_offset 32
 836 0004 02AF     		add	r7, sp, #8
 837              	.LCFI48:
 838              		.cfi_def_cfa 7, 24
ARM GAS  /tmp/ccjphgoR.s 			page 20


 839 0006 0346     		mov	r3, r0
 840 0008 3960     		str	r1, [r7]
 841 000a FB71     		strb	r3, [r7, #7]
 842 000c 1346     		mov	r3, r2	@ movhi
 843 000e BB80     		strh	r3, [r7, #4]	@ movhi
 269:../Drivers/BSP/Components/lis2de12/lis2de12.c ****     int32_t ret;
 270:../Drivers/BSP/Components/lis2de12/lis2de12.c ****     ret = hal_i2c_write_buffer( 1, LIS2DE12_I2C_ADD_H, reg, data, len );
 844              		.loc 1 270 11
 845 0010 FB79     		ldrb	r3, [r7, #7]	@ zero_extendqisi2
 846 0012 9AB2     		uxth	r2, r3
 847 0014 BB88     		ldrh	r3, [r7, #4]
 848 0016 0093     		str	r3, [sp]
 849 0018 3B68     		ldr	r3, [r7]
 850 001a 3321     		movs	r1, #51
 851 001c 0120     		movs	r0, #1
 852 001e FFF7FEFF 		bl	hal_i2c_write_buffer
 853 0022 0346     		mov	r3, r0
 854              		.loc 1 270 9
 855 0024 FB60     		str	r3, [r7, #12]
 271:../Drivers/BSP/Components/lis2de12/lis2de12.c ****     return !ret;
 856              		.loc 1 271 12
 857 0026 FB68     		ldr	r3, [r7, #12]
 858 0028 002B     		cmp	r3, #0
 859 002a 0CBF     		ite	eq
 860 002c 0123     		moveq	r3, #1
 861 002e 0023     		movne	r3, #0
 862 0030 DBB2     		uxtb	r3, r3
 272:../Drivers/BSP/Components/lis2de12/lis2de12.c **** }
 863              		.loc 1 272 1
 864 0032 1846     		mov	r0, r3
 865 0034 1037     		adds	r7, r7, #16
 866              	.LCFI49:
 867              		.cfi_def_cfa_offset 8
 868 0036 BD46     		mov	sp, r7
 869              	.LCFI50:
 870              		.cfi_def_cfa_register 13
 871              		@ sp needed
 872 0038 80BD     		pop	{r7, pc}
 873              		.cfi_endproc
 874              	.LFE600:
 876              		.section	.text.lis2de12_from_fs2_to_mg,"ax",%progbits
 877              		.align	1
 878              		.global	lis2de12_from_fs2_to_mg
 879              		.syntax unified
 880              		.thumb
 881              		.thumb_func
 882              		.fpu fpv4-sp-d16
 884              	lis2de12_from_fs2_to_mg:
 885              	.LFB601:
 273:../Drivers/BSP/Components/lis2de12/lis2de12.c **** 
 274:../Drivers/BSP/Components/lis2de12/lis2de12.c **** /**
 275:../Drivers/BSP/Components/lis2de12/lis2de12.c ****  * @}
 276:../Drivers/BSP/Components/lis2de12/lis2de12.c ****  *
 277:../Drivers/BSP/Components/lis2de12/lis2de12.c ****  */
 278:../Drivers/BSP/Components/lis2de12/lis2de12.c **** 
 279:../Drivers/BSP/Components/lis2de12/lis2de12.c **** /**
 280:../Drivers/BSP/Components/lis2de12/lis2de12.c ****  * @defgroup    LIS2DE12_Sensitivity
ARM GAS  /tmp/ccjphgoR.s 			page 21


 281:../Drivers/BSP/Components/lis2de12/lis2de12.c ****  * @brief       These functions convert raw-data into engineering units.
 282:../Drivers/BSP/Components/lis2de12/lis2de12.c ****  * @{
 283:../Drivers/BSP/Components/lis2de12/lis2de12.c ****  *
 284:../Drivers/BSP/Components/lis2de12/lis2de12.c ****  */
 285:../Drivers/BSP/Components/lis2de12/lis2de12.c **** 
 286:../Drivers/BSP/Components/lis2de12/lis2de12.c **** float_t lis2de12_from_fs2_to_mg( int16_t lsb ) { return ( ( float_t ) lsb / 256.0f ) * 16.0f; }
 886              		.loc 1 286 48
 887              		.cfi_startproc
 888              		@ args = 0, pretend = 0, frame = 8
 889              		@ frame_needed = 1, uses_anonymous_args = 0
 890              		@ link register save eliminated.
 891 0000 80B4     		push	{r7}
 892              	.LCFI51:
 893              		.cfi_def_cfa_offset 4
 894              		.cfi_offset 7, -4
 895 0002 83B0     		sub	sp, sp, #12
 896              	.LCFI52:
 897              		.cfi_def_cfa_offset 16
 898 0004 00AF     		add	r7, sp, #0
 899              	.LCFI53:
 900              		.cfi_def_cfa_register 7
 901 0006 0346     		mov	r3, r0
 902 0008 FB80     		strh	r3, [r7, #6]	@ movhi
 903              		.loc 1 286 59
 904 000a B7F90630 		ldrsh	r3, [r7, #6]
 905 000e 07EE903A 		vmov	s15, r3	@ int
 906 0012 B8EEE77A 		vcvt.f32.s32	s14, s15
 907              		.loc 1 286 75
 908 0016 DFED076A 		vldr.32	s13, .L52
 909 001a C7EE267A 		vdiv.f32	s15, s14, s13
 910              		.loc 1 286 86
 911 001e B3EE007A 		vmov.f32	s14, #1.6e+1
 912 0022 67EE877A 		vmul.f32	s15, s15, s14
 913              		.loc 1 286 95
 914 0026 B0EE670A 		vmov.f32	s0, s15
 915 002a 0C37     		adds	r7, r7, #12
 916              	.LCFI54:
 917              		.cfi_def_cfa_offset 4
 918 002c BD46     		mov	sp, r7
 919              	.LCFI55:
 920              		.cfi_def_cfa_register 13
 921              		@ sp needed
 922 002e 5DF8047B 		ldr	r7, [sp], #4
 923              	.LCFI56:
 924              		.cfi_restore 7
 925              		.cfi_def_cfa_offset 0
 926 0032 7047     		bx	lr
 927              	.L53:
 928              		.align	2
 929              	.L52:
 930 0034 00008043 		.word	1132462080
 931              		.cfi_endproc
 932              	.LFE601:
 934              		.section	.text.lis2de12_from_fs4_to_mg,"ax",%progbits
 935              		.align	1
 936              		.global	lis2de12_from_fs4_to_mg
 937              		.syntax unified
ARM GAS  /tmp/ccjphgoR.s 			page 22


 938              		.thumb
 939              		.thumb_func
 940              		.fpu fpv4-sp-d16
 942              	lis2de12_from_fs4_to_mg:
 943              	.LFB602:
 287:../Drivers/BSP/Components/lis2de12/lis2de12.c **** 
 288:../Drivers/BSP/Components/lis2de12/lis2de12.c **** float_t lis2de12_from_fs4_to_mg( int16_t lsb ) { return ( ( float_t ) lsb / 256.0f ) * 32.0f; }
 944              		.loc 1 288 48
 945              		.cfi_startproc
 946              		@ args = 0, pretend = 0, frame = 8
 947              		@ frame_needed = 1, uses_anonymous_args = 0
 948              		@ link register save eliminated.
 949 0000 80B4     		push	{r7}
 950              	.LCFI57:
 951              		.cfi_def_cfa_offset 4
 952              		.cfi_offset 7, -4
 953 0002 83B0     		sub	sp, sp, #12
 954              	.LCFI58:
 955              		.cfi_def_cfa_offset 16
 956 0004 00AF     		add	r7, sp, #0
 957              	.LCFI59:
 958              		.cfi_def_cfa_register 7
 959 0006 0346     		mov	r3, r0
 960 0008 FB80     		strh	r3, [r7, #6]	@ movhi
 961              		.loc 1 288 59
 962 000a B7F90630 		ldrsh	r3, [r7, #6]
 963 000e 07EE903A 		vmov	s15, r3	@ int
 964 0012 B8EEE77A 		vcvt.f32.s32	s14, s15
 965              		.loc 1 288 75
 966 0016 DFED076A 		vldr.32	s13, .L56
 967 001a C7EE267A 		vdiv.f32	s15, s14, s13
 968              		.loc 1 288 86
 969 001e 9FED067A 		vldr.32	s14, .L56+4
 970 0022 67EE877A 		vmul.f32	s15, s15, s14
 971              		.loc 1 288 95
 972 0026 B0EE670A 		vmov.f32	s0, s15
 973 002a 0C37     		adds	r7, r7, #12
 974              	.LCFI60:
 975              		.cfi_def_cfa_offset 4
 976 002c BD46     		mov	sp, r7
 977              	.LCFI61:
 978              		.cfi_def_cfa_register 13
 979              		@ sp needed
 980 002e 5DF8047B 		ldr	r7, [sp], #4
 981              	.LCFI62:
 982              		.cfi_restore 7
 983              		.cfi_def_cfa_offset 0
 984 0032 7047     		bx	lr
 985              	.L57:
 986              		.align	2
 987              	.L56:
 988 0034 00008043 		.word	1132462080
 989 0038 00000042 		.word	1107296256
 990              		.cfi_endproc
 991              	.LFE602:
 993              		.section	.text.lis2de12_from_fs8_to_mg,"ax",%progbits
 994              		.align	1
ARM GAS  /tmp/ccjphgoR.s 			page 23


 995              		.global	lis2de12_from_fs8_to_mg
 996              		.syntax unified
 997              		.thumb
 998              		.thumb_func
 999              		.fpu fpv4-sp-d16
 1001              	lis2de12_from_fs8_to_mg:
 1002              	.LFB603:
 289:../Drivers/BSP/Components/lis2de12/lis2de12.c **** 
 290:../Drivers/BSP/Components/lis2de12/lis2de12.c **** float_t lis2de12_from_fs8_to_mg( int16_t lsb ) { return ( ( float_t ) lsb / 256.0f ) * 64.0f; }
 1003              		.loc 1 290 48
 1004              		.cfi_startproc
 1005              		@ args = 0, pretend = 0, frame = 8
 1006              		@ frame_needed = 1, uses_anonymous_args = 0
 1007              		@ link register save eliminated.
 1008 0000 80B4     		push	{r7}
 1009              	.LCFI63:
 1010              		.cfi_def_cfa_offset 4
 1011              		.cfi_offset 7, -4
 1012 0002 83B0     		sub	sp, sp, #12
 1013              	.LCFI64:
 1014              		.cfi_def_cfa_offset 16
 1015 0004 00AF     		add	r7, sp, #0
 1016              	.LCFI65:
 1017              		.cfi_def_cfa_register 7
 1018 0006 0346     		mov	r3, r0
 1019 0008 FB80     		strh	r3, [r7, #6]	@ movhi
 1020              		.loc 1 290 59
 1021 000a B7F90630 		ldrsh	r3, [r7, #6]
 1022 000e 07EE903A 		vmov	s15, r3	@ int
 1023 0012 B8EEE77A 		vcvt.f32.s32	s14, s15
 1024              		.loc 1 290 75
 1025 0016 DFED076A 		vldr.32	s13, .L60
 1026 001a C7EE267A 		vdiv.f32	s15, s14, s13
 1027              		.loc 1 290 86
 1028 001e 9FED067A 		vldr.32	s14, .L60+4
 1029 0022 67EE877A 		vmul.f32	s15, s15, s14
 1030              		.loc 1 290 95
 1031 0026 B0EE670A 		vmov.f32	s0, s15
 1032 002a 0C37     		adds	r7, r7, #12
 1033              	.LCFI66:
 1034              		.cfi_def_cfa_offset 4
 1035 002c BD46     		mov	sp, r7
 1036              	.LCFI67:
 1037              		.cfi_def_cfa_register 13
 1038              		@ sp needed
 1039 002e 5DF8047B 		ldr	r7, [sp], #4
 1040              	.LCFI68:
 1041              		.cfi_restore 7
 1042              		.cfi_def_cfa_offset 0
 1043 0032 7047     		bx	lr
 1044              	.L61:
 1045              		.align	2
 1046              	.L60:
 1047 0034 00008043 		.word	1132462080
 1048 0038 00008042 		.word	1115684864
 1049              		.cfi_endproc
 1050              	.LFE603:
ARM GAS  /tmp/ccjphgoR.s 			page 24


 1052              		.section	.text.lis2de12_from_fs16_to_mg,"ax",%progbits
 1053              		.align	1
 1054              		.global	lis2de12_from_fs16_to_mg
 1055              		.syntax unified
 1056              		.thumb
 1057              		.thumb_func
 1058              		.fpu fpv4-sp-d16
 1060              	lis2de12_from_fs16_to_mg:
 1061              	.LFB604:
 291:../Drivers/BSP/Components/lis2de12/lis2de12.c **** 
 292:../Drivers/BSP/Components/lis2de12/lis2de12.c **** float_t lis2de12_from_fs16_to_mg( int16_t lsb ) { return ( ( float_t ) lsb / 256.0f ) * 192.0f; }
 1062              		.loc 1 292 49
 1063              		.cfi_startproc
 1064              		@ args = 0, pretend = 0, frame = 8
 1065              		@ frame_needed = 1, uses_anonymous_args = 0
 1066              		@ link register save eliminated.
 1067 0000 80B4     		push	{r7}
 1068              	.LCFI69:
 1069              		.cfi_def_cfa_offset 4
 1070              		.cfi_offset 7, -4
 1071 0002 83B0     		sub	sp, sp, #12
 1072              	.LCFI70:
 1073              		.cfi_def_cfa_offset 16
 1074 0004 00AF     		add	r7, sp, #0
 1075              	.LCFI71:
 1076              		.cfi_def_cfa_register 7
 1077 0006 0346     		mov	r3, r0
 1078 0008 FB80     		strh	r3, [r7, #6]	@ movhi
 1079              		.loc 1 292 60
 1080 000a B7F90630 		ldrsh	r3, [r7, #6]
 1081 000e 07EE903A 		vmov	s15, r3	@ int
 1082 0012 B8EEE77A 		vcvt.f32.s32	s14, s15
 1083              		.loc 1 292 76
 1084 0016 DFED076A 		vldr.32	s13, .L64
 1085 001a C7EE267A 		vdiv.f32	s15, s14, s13
 1086              		.loc 1 292 87
 1087 001e 9FED067A 		vldr.32	s14, .L64+4
 1088 0022 67EE877A 		vmul.f32	s15, s15, s14
 1089              		.loc 1 292 97
 1090 0026 B0EE670A 		vmov.f32	s0, s15
 1091 002a 0C37     		adds	r7, r7, #12
 1092              	.LCFI72:
 1093              		.cfi_def_cfa_offset 4
 1094 002c BD46     		mov	sp, r7
 1095              	.LCFI73:
 1096              		.cfi_def_cfa_register 13
 1097              		@ sp needed
 1098 002e 5DF8047B 		ldr	r7, [sp], #4
 1099              	.LCFI74:
 1100              		.cfi_restore 7
 1101              		.cfi_def_cfa_offset 0
 1102 0032 7047     		bx	lr
 1103              	.L65:
 1104              		.align	2
 1105              	.L64:
 1106 0034 00008043 		.word	1132462080
 1107 0038 00004043 		.word	1128267776
ARM GAS  /tmp/ccjphgoR.s 			page 25


 1108              		.cfi_endproc
 1109              	.LFE604:
 1111              		.section	.text.lis2de12_from_lsb_to_celsius,"ax",%progbits
 1112              		.align	1
 1113              		.global	lis2de12_from_lsb_to_celsius
 1114              		.syntax unified
 1115              		.thumb
 1116              		.thumb_func
 1117              		.fpu fpv4-sp-d16
 1119              	lis2de12_from_lsb_to_celsius:
 1120              	.LFB605:
 293:../Drivers/BSP/Components/lis2de12/lis2de12.c **** 
 294:../Drivers/BSP/Components/lis2de12/lis2de12.c **** float_t lis2de12_from_lsb_to_celsius( int16_t lsb ) { return ( ( ( float_t ) lsb / 256.0f ) * 1.0f 
 1121              		.loc 1 294 53
 1122              		.cfi_startproc
 1123              		@ args = 0, pretend = 0, frame = 8
 1124              		@ frame_needed = 1, uses_anonymous_args = 0
 1125              		@ link register save eliminated.
 1126 0000 80B4     		push	{r7}
 1127              	.LCFI75:
 1128              		.cfi_def_cfa_offset 4
 1129              		.cfi_offset 7, -4
 1130 0002 83B0     		sub	sp, sp, #12
 1131              	.LCFI76:
 1132              		.cfi_def_cfa_offset 16
 1133 0004 00AF     		add	r7, sp, #0
 1134              	.LCFI77:
 1135              		.cfi_def_cfa_register 7
 1136 0006 0346     		mov	r3, r0
 1137 0008 FB80     		strh	r3, [r7, #6]	@ movhi
 1138              		.loc 1 294 66
 1139 000a B7F90630 		ldrsh	r3, [r7, #6]
 1140 000e 07EE903A 		vmov	s15, r3	@ int
 1141 0012 B8EEE77A 		vcvt.f32.s32	s14, s15
 1142              		.loc 1 294 93
 1143 0016 DFED076A 		vldr.32	s13, .L68
 1144 001a C7EE267A 		vdiv.f32	s15, s14, s13
 1145              		.loc 1 294 102
 1146 001e B3EE097A 		vmov.f32	s14, #2.5e+1
 1147 0022 77EE877A 		vadd.f32	s15, s15, s14
 1148              		.loc 1 294 111
 1149 0026 B0EE670A 		vmov.f32	s0, s15
 1150 002a 0C37     		adds	r7, r7, #12
 1151              	.LCFI78:
 1152              		.cfi_def_cfa_offset 4
 1153 002c BD46     		mov	sp, r7
 1154              	.LCFI79:
 1155              		.cfi_def_cfa_register 13
 1156              		@ sp needed
 1157 002e 5DF8047B 		ldr	r7, [sp], #4
 1158              	.LCFI80:
 1159              		.cfi_restore 7
 1160              		.cfi_def_cfa_offset 0
 1161 0032 7047     		bx	lr
 1162              	.L69:
 1163              		.align	2
 1164              	.L68:
ARM GAS  /tmp/ccjphgoR.s 			page 26


 1165 0034 00008043 		.word	1132462080
 1166              		.cfi_endproc
 1167              	.LFE605:
 1169              		.section	.text.lis2de12_temp_status_reg_get,"ax",%progbits
 1170              		.align	1
 1171              		.global	lis2de12_temp_status_reg_get
 1172              		.syntax unified
 1173              		.thumb
 1174              		.thumb_func
 1175              		.fpu fpv4-sp-d16
 1177              	lis2de12_temp_status_reg_get:
 1178              	.LFB606:
 295:../Drivers/BSP/Components/lis2de12/lis2de12.c **** 
 296:../Drivers/BSP/Components/lis2de12/lis2de12.c **** /**
 297:../Drivers/BSP/Components/lis2de12/lis2de12.c ****  * @}
 298:../Drivers/BSP/Components/lis2de12/lis2de12.c ****  *
 299:../Drivers/BSP/Components/lis2de12/lis2de12.c ****  */
 300:../Drivers/BSP/Components/lis2de12/lis2de12.c **** 
 301:../Drivers/BSP/Components/lis2de12/lis2de12.c **** /**
 302:../Drivers/BSP/Components/lis2de12/lis2de12.c ****  * @defgroup  LIS2DE12_Data_generation
 303:../Drivers/BSP/Components/lis2de12/lis2de12.c ****  * @brief     This section group all the functions concerning data generation.
 304:../Drivers/BSP/Components/lis2de12/lis2de12.c ****  * @{
 305:../Drivers/BSP/Components/lis2de12/lis2de12.c ****  *
 306:../Drivers/BSP/Components/lis2de12/lis2de12.c ****  */
 307:../Drivers/BSP/Components/lis2de12/lis2de12.c **** 
 308:../Drivers/BSP/Components/lis2de12/lis2de12.c **** /**
 309:../Drivers/BSP/Components/lis2de12/lis2de12.c ****   * @brief  Temperature status register.[get]
 310:../Drivers/BSP/Components/lis2de12/lis2de12.c ****   *
 311:../Drivers/BSP/Components/lis2de12/lis2de12.c **** 
 312:../Drivers/BSP/Components/lis2de12/lis2de12.c ****   * @param  buff     buffer that stores data read
 313:../Drivers/BSP/Components/lis2de12/lis2de12.c ****   * @retval          interface status (MANDATORY: return 0 -> no Error)
 314:../Drivers/BSP/Components/lis2de12/lis2de12.c ****   *
 315:../Drivers/BSP/Components/lis2de12/lis2de12.c ****   */
 316:../Drivers/BSP/Components/lis2de12/lis2de12.c **** int32_t lis2de12_temp_status_reg_get( uint8_t* buff )
 317:../Drivers/BSP/Components/lis2de12/lis2de12.c **** {
 1179              		.loc 1 317 1
 1180              		.cfi_startproc
 1181              		@ args = 0, pretend = 0, frame = 16
 1182              		@ frame_needed = 1, uses_anonymous_args = 0
 1183 0000 80B5     		push	{r7, lr}
 1184              	.LCFI81:
 1185              		.cfi_def_cfa_offset 8
 1186              		.cfi_offset 7, -8
 1187              		.cfi_offset 14, -4
 1188 0002 84B0     		sub	sp, sp, #16
 1189              	.LCFI82:
 1190              		.cfi_def_cfa_offset 24
 1191 0004 00AF     		add	r7, sp, #0
 1192              	.LCFI83:
 1193              		.cfi_def_cfa_register 7
 1194 0006 7860     		str	r0, [r7, #4]
 318:../Drivers/BSP/Components/lis2de12/lis2de12.c ****     int32_t ret;
 319:../Drivers/BSP/Components/lis2de12/lis2de12.c ****     ret = lis2de12_read_reg( LIS2DE12_STATUS_REG_AUX, buff, 1 );
 1195              		.loc 1 319 11
 1196 0008 0122     		movs	r2, #1
 1197 000a 7968     		ldr	r1, [r7, #4]
 1198 000c 0720     		movs	r0, #7
ARM GAS  /tmp/ccjphgoR.s 			page 27


 1199 000e FFF7FEFF 		bl	lis2de12_read_reg
 1200 0012 F860     		str	r0, [r7, #12]
 320:../Drivers/BSP/Components/lis2de12/lis2de12.c ****     return ret;
 1201              		.loc 1 320 12
 1202 0014 FB68     		ldr	r3, [r7, #12]
 321:../Drivers/BSP/Components/lis2de12/lis2de12.c **** }
 1203              		.loc 1 321 1
 1204 0016 1846     		mov	r0, r3
 1205 0018 1037     		adds	r7, r7, #16
 1206              	.LCFI84:
 1207              		.cfi_def_cfa_offset 8
 1208 001a BD46     		mov	sp, r7
 1209              	.LCFI85:
 1210              		.cfi_def_cfa_register 13
 1211              		@ sp needed
 1212 001c 80BD     		pop	{r7, pc}
 1213              		.cfi_endproc
 1214              	.LFE606:
 1216              		.section	.text.lis2de12_temp_data_ready_get,"ax",%progbits
 1217              		.align	1
 1218              		.global	lis2de12_temp_data_ready_get
 1219              		.syntax unified
 1220              		.thumb
 1221              		.thumb_func
 1222              		.fpu fpv4-sp-d16
 1224              	lis2de12_temp_data_ready_get:
 1225              	.LFB607:
 322:../Drivers/BSP/Components/lis2de12/lis2de12.c **** /**
 323:../Drivers/BSP/Components/lis2de12/lis2de12.c ****   * @brief  Temperature data available.[get]
 324:../Drivers/BSP/Components/lis2de12/lis2de12.c ****   *
 325:../Drivers/BSP/Components/lis2de12/lis2de12.c **** 
 326:../Drivers/BSP/Components/lis2de12/lis2de12.c ****   * @param  val      change the values of tda in reg STATUS_REG_AUX
 327:../Drivers/BSP/Components/lis2de12/lis2de12.c ****   * @retval          interface status (MANDATORY: return 0 -> no Error)
 328:../Drivers/BSP/Components/lis2de12/lis2de12.c ****   *
 329:../Drivers/BSP/Components/lis2de12/lis2de12.c ****   */
 330:../Drivers/BSP/Components/lis2de12/lis2de12.c **** int32_t lis2de12_temp_data_ready_get( uint8_t* val )
 331:../Drivers/BSP/Components/lis2de12/lis2de12.c **** {
 1226              		.loc 1 331 1
 1227              		.cfi_startproc
 1228              		@ args = 0, pretend = 0, frame = 16
 1229              		@ frame_needed = 1, uses_anonymous_args = 0
 1230 0000 80B5     		push	{r7, lr}
 1231              	.LCFI86:
 1232              		.cfi_def_cfa_offset 8
 1233              		.cfi_offset 7, -8
 1234              		.cfi_offset 14, -4
 1235 0002 84B0     		sub	sp, sp, #16
 1236              	.LCFI87:
 1237              		.cfi_def_cfa_offset 24
 1238 0004 00AF     		add	r7, sp, #0
 1239              	.LCFI88:
 1240              		.cfi_def_cfa_register 7
 1241 0006 7860     		str	r0, [r7, #4]
 332:../Drivers/BSP/Components/lis2de12/lis2de12.c ****     lis2de12_status_reg_aux_t status_reg_aux;
 333:../Drivers/BSP/Components/lis2de12/lis2de12.c ****     int32_t                   ret;
 334:../Drivers/BSP/Components/lis2de12/lis2de12.c **** 
 335:../Drivers/BSP/Components/lis2de12/lis2de12.c ****     ret  = lis2de12_read_reg( LIS2DE12_STATUS_REG_AUX, ( uint8_t* ) &status_reg_aux, 1 );
ARM GAS  /tmp/ccjphgoR.s 			page 28


 1242              		.loc 1 335 12
 1243 0008 07F10803 		add	r3, r7, #8
 1244 000c 0122     		movs	r2, #1
 1245 000e 1946     		mov	r1, r3
 1246 0010 0720     		movs	r0, #7
 1247 0012 FFF7FEFF 		bl	lis2de12_read_reg
 1248 0016 F860     		str	r0, [r7, #12]
 336:../Drivers/BSP/Components/lis2de12/lis2de12.c ****     *val = status_reg_aux.tda;
 1249              		.loc 1 336 26
 1250 0018 3B7A     		ldrb	r3, [r7, #8]
 1251 001a C3F38003 		ubfx	r3, r3, #2, #1
 1252 001e DBB2     		uxtb	r3, r3
 1253 0020 1A46     		mov	r2, r3
 1254              		.loc 1 336 10
 1255 0022 7B68     		ldr	r3, [r7, #4]
 1256 0024 1A70     		strb	r2, [r3]
 337:../Drivers/BSP/Components/lis2de12/lis2de12.c **** 
 338:../Drivers/BSP/Components/lis2de12/lis2de12.c ****     return ret;
 1257              		.loc 1 338 12
 1258 0026 FB68     		ldr	r3, [r7, #12]
 339:../Drivers/BSP/Components/lis2de12/lis2de12.c **** }
 1259              		.loc 1 339 1
 1260 0028 1846     		mov	r0, r3
 1261 002a 1037     		adds	r7, r7, #16
 1262              	.LCFI89:
 1263              		.cfi_def_cfa_offset 8
 1264 002c BD46     		mov	sp, r7
 1265              	.LCFI90:
 1266              		.cfi_def_cfa_register 13
 1267              		@ sp needed
 1268 002e 80BD     		pop	{r7, pc}
 1269              		.cfi_endproc
 1270              	.LFE607:
 1272              		.section	.text.lis2de12_temp_data_ovr_get,"ax",%progbits
 1273              		.align	1
 1274              		.global	lis2de12_temp_data_ovr_get
 1275              		.syntax unified
 1276              		.thumb
 1277              		.thumb_func
 1278              		.fpu fpv4-sp-d16
 1280              	lis2de12_temp_data_ovr_get:
 1281              	.LFB608:
 340:../Drivers/BSP/Components/lis2de12/lis2de12.c **** /**
 341:../Drivers/BSP/Components/lis2de12/lis2de12.c ****   * @brief  Temperature data overrun.[get]
 342:../Drivers/BSP/Components/lis2de12/lis2de12.c ****   *
 343:../Drivers/BSP/Components/lis2de12/lis2de12.c **** 
 344:../Drivers/BSP/Components/lis2de12/lis2de12.c ****   * @param  val      change the values of tor in reg STATUS_REG_AUX
 345:../Drivers/BSP/Components/lis2de12/lis2de12.c ****   * @retval          interface status (MANDATORY: return 0 -> no Error)
 346:../Drivers/BSP/Components/lis2de12/lis2de12.c ****   *
 347:../Drivers/BSP/Components/lis2de12/lis2de12.c ****   */
 348:../Drivers/BSP/Components/lis2de12/lis2de12.c **** int32_t lis2de12_temp_data_ovr_get( uint8_t* val )
 349:../Drivers/BSP/Components/lis2de12/lis2de12.c **** {
 1282              		.loc 1 349 1
 1283              		.cfi_startproc
 1284              		@ args = 0, pretend = 0, frame = 16
 1285              		@ frame_needed = 1, uses_anonymous_args = 0
 1286 0000 80B5     		push	{r7, lr}
ARM GAS  /tmp/ccjphgoR.s 			page 29


 1287              	.LCFI91:
 1288              		.cfi_def_cfa_offset 8
 1289              		.cfi_offset 7, -8
 1290              		.cfi_offset 14, -4
 1291 0002 84B0     		sub	sp, sp, #16
 1292              	.LCFI92:
 1293              		.cfi_def_cfa_offset 24
 1294 0004 00AF     		add	r7, sp, #0
 1295              	.LCFI93:
 1296              		.cfi_def_cfa_register 7
 1297 0006 7860     		str	r0, [r7, #4]
 350:../Drivers/BSP/Components/lis2de12/lis2de12.c ****     lis2de12_status_reg_aux_t status_reg_aux;
 351:../Drivers/BSP/Components/lis2de12/lis2de12.c ****     int32_t                   ret;
 352:../Drivers/BSP/Components/lis2de12/lis2de12.c **** 
 353:../Drivers/BSP/Components/lis2de12/lis2de12.c ****     ret  = lis2de12_read_reg( LIS2DE12_STATUS_REG_AUX, ( uint8_t* ) &status_reg_aux, 1 );
 1298              		.loc 1 353 12
 1299 0008 07F10803 		add	r3, r7, #8
 1300 000c 0122     		movs	r2, #1
 1301 000e 1946     		mov	r1, r3
 1302 0010 0720     		movs	r0, #7
 1303 0012 FFF7FEFF 		bl	lis2de12_read_reg
 1304 0016 F860     		str	r0, [r7, #12]
 354:../Drivers/BSP/Components/lis2de12/lis2de12.c ****     *val = status_reg_aux.tor;
 1305              		.loc 1 354 26
 1306 0018 3B7A     		ldrb	r3, [r7, #8]
 1307 001a C3F38013 		ubfx	r3, r3, #6, #1
 1308 001e DBB2     		uxtb	r3, r3
 1309 0020 1A46     		mov	r2, r3
 1310              		.loc 1 354 10
 1311 0022 7B68     		ldr	r3, [r7, #4]
 1312 0024 1A70     		strb	r2, [r3]
 355:../Drivers/BSP/Components/lis2de12/lis2de12.c **** 
 356:../Drivers/BSP/Components/lis2de12/lis2de12.c ****     return ret;
 1313              		.loc 1 356 12
 1314 0026 FB68     		ldr	r3, [r7, #12]
 357:../Drivers/BSP/Components/lis2de12/lis2de12.c **** }
 1315              		.loc 1 357 1
 1316 0028 1846     		mov	r0, r3
 1317 002a 1037     		adds	r7, r7, #16
 1318              	.LCFI94:
 1319              		.cfi_def_cfa_offset 8
 1320 002c BD46     		mov	sp, r7
 1321              	.LCFI95:
 1322              		.cfi_def_cfa_register 13
 1323              		@ sp needed
 1324 002e 80BD     		pop	{r7, pc}
 1325              		.cfi_endproc
 1326              	.LFE608:
 1328              		.section	.text.lis2de12_temperature_raw_get,"ax",%progbits
 1329              		.align	1
 1330              		.global	lis2de12_temperature_raw_get
 1331              		.syntax unified
 1332              		.thumb
 1333              		.thumb_func
 1334              		.fpu fpv4-sp-d16
 1336              	lis2de12_temperature_raw_get:
 1337              	.LFB609:
ARM GAS  /tmp/ccjphgoR.s 			page 30


 358:../Drivers/BSP/Components/lis2de12/lis2de12.c **** /**
 359:../Drivers/BSP/Components/lis2de12/lis2de12.c ****   * @brief  Temperature output value.[get]
 360:../Drivers/BSP/Components/lis2de12/lis2de12.c ****   *
 361:../Drivers/BSP/Components/lis2de12/lis2de12.c **** 
 362:../Drivers/BSP/Components/lis2de12/lis2de12.c ****   * @param  buff     buffer that stores data read
 363:../Drivers/BSP/Components/lis2de12/lis2de12.c ****   * @retval          interface status (MANDATORY: return 0 -> no Error)
 364:../Drivers/BSP/Components/lis2de12/lis2de12.c ****   *
 365:../Drivers/BSP/Components/lis2de12/lis2de12.c ****   */
 366:../Drivers/BSP/Components/lis2de12/lis2de12.c **** int32_t lis2de12_temperature_raw_get( uint16_t* raw_temp )
 367:../Drivers/BSP/Components/lis2de12/lis2de12.c **** {
 1338              		.loc 1 367 1
 1339              		.cfi_startproc
 1340              		@ args = 0, pretend = 0, frame = 16
 1341              		@ frame_needed = 1, uses_anonymous_args = 0
 1342 0000 80B5     		push	{r7, lr}
 1343              	.LCFI96:
 1344              		.cfi_def_cfa_offset 8
 1345              		.cfi_offset 7, -8
 1346              		.cfi_offset 14, -4
 1347 0002 84B0     		sub	sp, sp, #16
 1348              	.LCFI97:
 1349              		.cfi_def_cfa_offset 24
 1350 0004 00AF     		add	r7, sp, #0
 1351              	.LCFI98:
 1352              		.cfi_def_cfa_register 7
 1353 0006 7860     		str	r0, [r7, #4]
 368:../Drivers/BSP/Components/lis2de12/lis2de12.c ****     int32_t ret;
 369:../Drivers/BSP/Components/lis2de12/lis2de12.c ****     uint8_t buf_tmp;
 370:../Drivers/BSP/Components/lis2de12/lis2de12.c **** 
 371:../Drivers/BSP/Components/lis2de12/lis2de12.c ****     ret       = lis2de12_read_reg( LIS2DE12_OUT_TEMP_L, &buf_tmp, 1 );
 1354              		.loc 1 371 17
 1355 0008 07F10B03 		add	r3, r7, #11
 1356 000c 0122     		movs	r2, #1
 1357 000e 1946     		mov	r1, r3
 1358 0010 0C20     		movs	r0, #12
 1359 0012 FFF7FEFF 		bl	lis2de12_read_reg
 1360 0016 F860     		str	r0, [r7, #12]
 372:../Drivers/BSP/Components/lis2de12/lis2de12.c ****     *raw_temp = buf_tmp;
 1361              		.loc 1 372 15
 1362 0018 FB7A     		ldrb	r3, [r7, #11]	@ zero_extendqisi2
 1363 001a 9AB2     		uxth	r2, r3
 1364 001c 7B68     		ldr	r3, [r7, #4]
 1365 001e 1A80     		strh	r2, [r3]	@ movhi
 373:../Drivers/BSP/Components/lis2de12/lis2de12.c **** 
 374:../Drivers/BSP/Components/lis2de12/lis2de12.c ****     ret = lis2de12_read_reg( LIS2DE12_OUT_TEMP_H, &buf_tmp, 1 );
 1366              		.loc 1 374 11
 1367 0020 07F10B03 		add	r3, r7, #11
 1368 0024 0122     		movs	r2, #1
 1369 0026 1946     		mov	r1, r3
 1370 0028 0D20     		movs	r0, #13
 1371 002a FFF7FEFF 		bl	lis2de12_read_reg
 1372 002e F860     		str	r0, [r7, #12]
 375:../Drivers/BSP/Components/lis2de12/lis2de12.c ****     *raw_temp += buf_tmp << 8;
 1373              		.loc 1 375 15
 1374 0030 7B68     		ldr	r3, [r7, #4]
 1375 0032 1A88     		ldrh	r2, [r3]
 1376              		.loc 1 375 26
ARM GAS  /tmp/ccjphgoR.s 			page 31


 1377 0034 FB7A     		ldrb	r3, [r7, #11]	@ zero_extendqisi2
 1378 0036 9BB2     		uxth	r3, r3
 1379 0038 1B02     		lsls	r3, r3, #8
 1380 003a 9BB2     		uxth	r3, r3
 1381              		.loc 1 375 15
 1382 003c 1344     		add	r3, r3, r2
 1383 003e 9AB2     		uxth	r2, r3
 1384 0040 7B68     		ldr	r3, [r7, #4]
 1385 0042 1A80     		strh	r2, [r3]	@ movhi
 376:../Drivers/BSP/Components/lis2de12/lis2de12.c **** 
 377:../Drivers/BSP/Components/lis2de12/lis2de12.c ****     return ret;
 1386              		.loc 1 377 12
 1387 0044 FB68     		ldr	r3, [r7, #12]
 378:../Drivers/BSP/Components/lis2de12/lis2de12.c **** }
 1388              		.loc 1 378 1
 1389 0046 1846     		mov	r0, r3
 1390 0048 1037     		adds	r7, r7, #16
 1391              	.LCFI99:
 1392              		.cfi_def_cfa_offset 8
 1393 004a BD46     		mov	sp, r7
 1394              	.LCFI100:
 1395              		.cfi_def_cfa_register 13
 1396              		@ sp needed
 1397 004c 80BD     		pop	{r7, pc}
 1398              		.cfi_endproc
 1399              	.LFE609:
 1401              		.section	.text.lis2de12_temperature_meas_set,"ax",%progbits
 1402              		.align	1
 1403              		.global	lis2de12_temperature_meas_set
 1404              		.syntax unified
 1405              		.thumb
 1406              		.thumb_func
 1407              		.fpu fpv4-sp-d16
 1409              	lis2de12_temperature_meas_set:
 1410              	.LFB610:
 379:../Drivers/BSP/Components/lis2de12/lis2de12.c **** /**
 380:../Drivers/BSP/Components/lis2de12/lis2de12.c ****   * @brief  Temperature sensor enable.[set]
 381:../Drivers/BSP/Components/lis2de12/lis2de12.c ****   *
 382:../Drivers/BSP/Components/lis2de12/lis2de12.c **** 
 383:../Drivers/BSP/Components/lis2de12/lis2de12.c ****   * @param  val      change the values of temp_en in reg TEMP_CFG_REG
 384:../Drivers/BSP/Components/lis2de12/lis2de12.c ****   * @retval          interface status (MANDATORY: return 0 -> no Error)
 385:../Drivers/BSP/Components/lis2de12/lis2de12.c ****   *
 386:../Drivers/BSP/Components/lis2de12/lis2de12.c ****   */
 387:../Drivers/BSP/Components/lis2de12/lis2de12.c **** int32_t lis2de12_temperature_meas_set( lis2de12_temp_en_t val )
 388:../Drivers/BSP/Components/lis2de12/lis2de12.c **** {
 1411              		.loc 1 388 1
 1412              		.cfi_startproc
 1413              		@ args = 0, pretend = 0, frame = 16
 1414              		@ frame_needed = 1, uses_anonymous_args = 0
 1415 0000 80B5     		push	{r7, lr}
 1416              	.LCFI101:
 1417              		.cfi_def_cfa_offset 8
 1418              		.cfi_offset 7, -8
 1419              		.cfi_offset 14, -4
 1420 0002 84B0     		sub	sp, sp, #16
 1421              	.LCFI102:
 1422              		.cfi_def_cfa_offset 24
ARM GAS  /tmp/ccjphgoR.s 			page 32


 1423 0004 00AF     		add	r7, sp, #0
 1424              	.LCFI103:
 1425              		.cfi_def_cfa_register 7
 1426 0006 0346     		mov	r3, r0
 1427 0008 FB71     		strb	r3, [r7, #7]
 389:../Drivers/BSP/Components/lis2de12/lis2de12.c ****     lis2de12_temp_cfg_reg_t temp_cfg_reg;
 390:../Drivers/BSP/Components/lis2de12/lis2de12.c ****     int32_t                 ret;
 391:../Drivers/BSP/Components/lis2de12/lis2de12.c **** 
 392:../Drivers/BSP/Components/lis2de12/lis2de12.c ****     ret = lis2de12_read_reg( LIS2DE12_TEMP_CFG_REG, ( uint8_t* ) &temp_cfg_reg, 1 );
 1428              		.loc 1 392 11
 1429 000a 07F10803 		add	r3, r7, #8
 1430 000e 0122     		movs	r2, #1
 1431 0010 1946     		mov	r1, r3
 1432 0012 1F20     		movs	r0, #31
 1433 0014 FFF7FEFF 		bl	lis2de12_read_reg
 1434 0018 F860     		str	r0, [r7, #12]
 393:../Drivers/BSP/Components/lis2de12/lis2de12.c ****     if( ret == 0 )
 1435              		.loc 1 393 7
 1436 001a FB68     		ldr	r3, [r7, #12]
 1437 001c 002B     		cmp	r3, #0
 1438 001e 0FD1     		bne	.L79
 394:../Drivers/BSP/Components/lis2de12/lis2de12.c ****     {
 395:../Drivers/BSP/Components/lis2de12/lis2de12.c ****         temp_cfg_reg.temp_en = ( uint8_t ) val;
 1439              		.loc 1 395 32
 1440 0020 FB79     		ldrb	r3, [r7, #7]
 1441 0022 03F00303 		and	r3, r3, #3
 1442 0026 DAB2     		uxtb	r2, r3
 1443              		.loc 1 395 30
 1444 0028 3B7A     		ldrb	r3, [r7, #8]
 1445 002a 62F38713 		bfi	r3, r2, #6, #2
 1446 002e 3B72     		strb	r3, [r7, #8]
 396:../Drivers/BSP/Components/lis2de12/lis2de12.c ****         ret                  = lis2de12_write_reg( LIS2DE12_TEMP_CFG_REG, ( uint8_t* ) &temp_cfg_re
 1447              		.loc 1 396 32
 1448 0030 07F10803 		add	r3, r7, #8
 1449 0034 0122     		movs	r2, #1
 1450 0036 1946     		mov	r1, r3
 1451 0038 1F20     		movs	r0, #31
 1452 003a FFF7FEFF 		bl	lis2de12_write_reg
 1453 003e F860     		str	r0, [r7, #12]
 1454              	.L79:
 397:../Drivers/BSP/Components/lis2de12/lis2de12.c ****     }
 398:../Drivers/BSP/Components/lis2de12/lis2de12.c ****     return ret;
 1455              		.loc 1 398 12
 1456 0040 FB68     		ldr	r3, [r7, #12]
 399:../Drivers/BSP/Components/lis2de12/lis2de12.c **** }
 1457              		.loc 1 399 1
 1458 0042 1846     		mov	r0, r3
 1459 0044 1037     		adds	r7, r7, #16
 1460              	.LCFI104:
 1461              		.cfi_def_cfa_offset 8
 1462 0046 BD46     		mov	sp, r7
 1463              	.LCFI105:
 1464              		.cfi_def_cfa_register 13
 1465              		@ sp needed
 1466 0048 80BD     		pop	{r7, pc}
 1467              		.cfi_endproc
 1468              	.LFE610:
ARM GAS  /tmp/ccjphgoR.s 			page 33


 1470              		.section	.text.lis2de12_temperature_meas_get,"ax",%progbits
 1471              		.align	1
 1472              		.global	lis2de12_temperature_meas_get
 1473              		.syntax unified
 1474              		.thumb
 1475              		.thumb_func
 1476              		.fpu fpv4-sp-d16
 1478              	lis2de12_temperature_meas_get:
 1479              	.LFB611:
 400:../Drivers/BSP/Components/lis2de12/lis2de12.c **** 
 401:../Drivers/BSP/Components/lis2de12/lis2de12.c **** /**
 402:../Drivers/BSP/Components/lis2de12/lis2de12.c ****   * @brief  Temperature sensor enable.[get]
 403:../Drivers/BSP/Components/lis2de12/lis2de12.c ****   *
 404:../Drivers/BSP/Components/lis2de12/lis2de12.c **** 
 405:../Drivers/BSP/Components/lis2de12/lis2de12.c ****   * @param  val      get the values of temp_en in reg TEMP_CFG_REG
 406:../Drivers/BSP/Components/lis2de12/lis2de12.c ****   * @retval          interface status (MANDATORY: return 0 -> no Error)
 407:../Drivers/BSP/Components/lis2de12/lis2de12.c ****   *
 408:../Drivers/BSP/Components/lis2de12/lis2de12.c ****   */
 409:../Drivers/BSP/Components/lis2de12/lis2de12.c **** int32_t lis2de12_temperature_meas_get( lis2de12_temp_en_t* val )
 410:../Drivers/BSP/Components/lis2de12/lis2de12.c **** {
 1480              		.loc 1 410 1
 1481              		.cfi_startproc
 1482              		@ args = 0, pretend = 0, frame = 16
 1483              		@ frame_needed = 1, uses_anonymous_args = 0
 1484 0000 80B5     		push	{r7, lr}
 1485              	.LCFI106:
 1486              		.cfi_def_cfa_offset 8
 1487              		.cfi_offset 7, -8
 1488              		.cfi_offset 14, -4
 1489 0002 84B0     		sub	sp, sp, #16
 1490              	.LCFI107:
 1491              		.cfi_def_cfa_offset 24
 1492 0004 00AF     		add	r7, sp, #0
 1493              	.LCFI108:
 1494              		.cfi_def_cfa_register 7
 1495 0006 7860     		str	r0, [r7, #4]
 411:../Drivers/BSP/Components/lis2de12/lis2de12.c ****     lis2de12_temp_cfg_reg_t temp_cfg_reg;
 412:../Drivers/BSP/Components/lis2de12/lis2de12.c ****     int32_t                 ret;
 413:../Drivers/BSP/Components/lis2de12/lis2de12.c **** 
 414:../Drivers/BSP/Components/lis2de12/lis2de12.c ****     ret = lis2de12_read_reg( LIS2DE12_TEMP_CFG_REG, ( uint8_t* ) &temp_cfg_reg, 1 );
 1496              		.loc 1 414 11
 1497 0008 07F10803 		add	r3, r7, #8
 1498 000c 0122     		movs	r2, #1
 1499 000e 1946     		mov	r1, r3
 1500 0010 1F20     		movs	r0, #31
 1501 0012 FFF7FEFF 		bl	lis2de12_read_reg
 1502 0016 F860     		str	r0, [r7, #12]
 415:../Drivers/BSP/Components/lis2de12/lis2de12.c ****     switch( temp_cfg_reg.temp_en )
 1503              		.loc 1 415 25
 1504 0018 3B7A     		ldrb	r3, [r7, #8]
 1505 001a C3F38113 		ubfx	r3, r3, #6, #2
 1506 001e DBB2     		uxtb	r3, r3
 1507              		.loc 1 415 5
 1508 0020 002B     		cmp	r3, #0
 1509 0022 02D0     		beq	.L82
 1510 0024 032B     		cmp	r3, #3
 1511 0026 04D0     		beq	.L83
ARM GAS  /tmp/ccjphgoR.s 			page 34


 1512 0028 07E0     		b	.L87
 1513              	.L82:
 416:../Drivers/BSP/Components/lis2de12/lis2de12.c ****     {
 417:../Drivers/BSP/Components/lis2de12/lis2de12.c ****     case LIS2DE12_TEMP_DISABLE:
 418:../Drivers/BSP/Components/lis2de12/lis2de12.c ****         *val = LIS2DE12_TEMP_DISABLE;
 1514              		.loc 1 418 14
 1515 002a 7B68     		ldr	r3, [r7, #4]
 1516 002c 0022     		movs	r2, #0
 1517 002e 1A70     		strb	r2, [r3]
 419:../Drivers/BSP/Components/lis2de12/lis2de12.c ****         break;
 1518              		.loc 1 419 9
 1519 0030 07E0     		b	.L85
 1520              	.L83:
 420:../Drivers/BSP/Components/lis2de12/lis2de12.c ****     case LIS2DE12_TEMP_ENABLE:
 421:../Drivers/BSP/Components/lis2de12/lis2de12.c ****         *val = LIS2DE12_TEMP_ENABLE;
 1521              		.loc 1 421 14
 1522 0032 7B68     		ldr	r3, [r7, #4]
 1523 0034 0322     		movs	r2, #3
 1524 0036 1A70     		strb	r2, [r3]
 422:../Drivers/BSP/Components/lis2de12/lis2de12.c ****         break;
 1525              		.loc 1 422 9
 1526 0038 03E0     		b	.L85
 1527              	.L87:
 423:../Drivers/BSP/Components/lis2de12/lis2de12.c ****     default:
 424:../Drivers/BSP/Components/lis2de12/lis2de12.c ****         *val = LIS2DE12_TEMP_DISABLE;
 1528              		.loc 1 424 14
 1529 003a 7B68     		ldr	r3, [r7, #4]
 1530 003c 0022     		movs	r2, #0
 1531 003e 1A70     		strb	r2, [r3]
 425:../Drivers/BSP/Components/lis2de12/lis2de12.c ****         break;
 1532              		.loc 1 425 9
 1533 0040 00BF     		nop
 1534              	.L85:
 426:../Drivers/BSP/Components/lis2de12/lis2de12.c ****     }
 427:../Drivers/BSP/Components/lis2de12/lis2de12.c ****     return ret;
 1535              		.loc 1 427 12
 1536 0042 FB68     		ldr	r3, [r7, #12]
 428:../Drivers/BSP/Components/lis2de12/lis2de12.c **** }
 1537              		.loc 1 428 1
 1538 0044 1846     		mov	r0, r3
 1539 0046 1037     		adds	r7, r7, #16
 1540              	.LCFI109:
 1541              		.cfi_def_cfa_offset 8
 1542 0048 BD46     		mov	sp, r7
 1543              	.LCFI110:
 1544              		.cfi_def_cfa_register 13
 1545              		@ sp needed
 1546 004a 80BD     		pop	{r7, pc}
 1547              		.cfi_endproc
 1548              	.LFE611:
 1550              		.section	.text.lis2de12_data_rate_set,"ax",%progbits
 1551              		.align	1
 1552              		.global	lis2de12_data_rate_set
 1553              		.syntax unified
 1554              		.thumb
 1555              		.thumb_func
 1556              		.fpu fpv4-sp-d16
ARM GAS  /tmp/ccjphgoR.s 			page 35


 1558              	lis2de12_data_rate_set:
 1559              	.LFB612:
 429:../Drivers/BSP/Components/lis2de12/lis2de12.c **** 
 430:../Drivers/BSP/Components/lis2de12/lis2de12.c **** /**
 431:../Drivers/BSP/Components/lis2de12/lis2de12.c ****   * @brief  Output data rate selection.[set]
 432:../Drivers/BSP/Components/lis2de12/lis2de12.c ****   *
 433:../Drivers/BSP/Components/lis2de12/lis2de12.c **** 
 434:../Drivers/BSP/Components/lis2de12/lis2de12.c ****   * @param  val      change the values of odr in reg CTRL_REG1
 435:../Drivers/BSP/Components/lis2de12/lis2de12.c ****   * @retval          interface status (MANDATORY: return 0 -> no Error)
 436:../Drivers/BSP/Components/lis2de12/lis2de12.c ****   *
 437:../Drivers/BSP/Components/lis2de12/lis2de12.c ****   */
 438:../Drivers/BSP/Components/lis2de12/lis2de12.c **** int32_t lis2de12_data_rate_set( lis2de12_odr_t val )
 439:../Drivers/BSP/Components/lis2de12/lis2de12.c **** {
 1560              		.loc 1 439 1
 1561              		.cfi_startproc
 1562              		@ args = 0, pretend = 0, frame = 16
 1563              		@ frame_needed = 1, uses_anonymous_args = 0
 1564 0000 80B5     		push	{r7, lr}
 1565              	.LCFI111:
 1566              		.cfi_def_cfa_offset 8
 1567              		.cfi_offset 7, -8
 1568              		.cfi_offset 14, -4
 1569 0002 84B0     		sub	sp, sp, #16
 1570              	.LCFI112:
 1571              		.cfi_def_cfa_offset 24
 1572 0004 00AF     		add	r7, sp, #0
 1573              	.LCFI113:
 1574              		.cfi_def_cfa_register 7
 1575 0006 0346     		mov	r3, r0
 1576 0008 FB71     		strb	r3, [r7, #7]
 440:../Drivers/BSP/Components/lis2de12/lis2de12.c ****     lis2de12_ctrl_reg1_t ctrl_reg1;
 441:../Drivers/BSP/Components/lis2de12/lis2de12.c ****     int32_t              ret;
 442:../Drivers/BSP/Components/lis2de12/lis2de12.c **** 
 443:../Drivers/BSP/Components/lis2de12/lis2de12.c ****     ret = lis2de12_read_reg( LIS2DE12_CTRL_REG1, ( uint8_t* ) &ctrl_reg1, 1 );
 1577              		.loc 1 443 11
 1578 000a 07F10803 		add	r3, r7, #8
 1579 000e 0122     		movs	r2, #1
 1580 0010 1946     		mov	r1, r3
 1581 0012 2020     		movs	r0, #32
 1582 0014 FFF7FEFF 		bl	lis2de12_read_reg
 1583 0018 F860     		str	r0, [r7, #12]
 444:../Drivers/BSP/Components/lis2de12/lis2de12.c ****     if( ret == 0 )
 1584              		.loc 1 444 7
 1585 001a FB68     		ldr	r3, [r7, #12]
 1586 001c 002B     		cmp	r3, #0
 1587 001e 13D1     		bne	.L89
 445:../Drivers/BSP/Components/lis2de12/lis2de12.c ****     {
 446:../Drivers/BSP/Components/lis2de12/lis2de12.c ****         ctrl_reg1.lpen = PROPERTY_ENABLE;
 1588              		.loc 1 446 24
 1589 0020 3B7A     		ldrb	r3, [r7, #8]
 1590 0022 43F00803 		orr	r3, r3, #8
 1591 0026 3B72     		strb	r3, [r7, #8]
 447:../Drivers/BSP/Components/lis2de12/lis2de12.c ****         ctrl_reg1.odr  = ( uint8_t ) val;
 1592              		.loc 1 447 26
 1593 0028 FB79     		ldrb	r3, [r7, #7]
 1594 002a 03F00F03 		and	r3, r3, #15
 1595 002e DAB2     		uxtb	r2, r3
ARM GAS  /tmp/ccjphgoR.s 			page 36


 1596              		.loc 1 447 24
 1597 0030 3B7A     		ldrb	r3, [r7, #8]
 1598 0032 62F30713 		bfi	r3, r2, #4, #4
 1599 0036 3B72     		strb	r3, [r7, #8]
 448:../Drivers/BSP/Components/lis2de12/lis2de12.c ****         ret            = lis2de12_write_reg( LIS2DE12_CTRL_REG1, ( uint8_t* ) &ctrl_reg1, 1 );
 1600              		.loc 1 448 26
 1601 0038 07F10803 		add	r3, r7, #8
 1602 003c 0122     		movs	r2, #1
 1603 003e 1946     		mov	r1, r3
 1604 0040 2020     		movs	r0, #32
 1605 0042 FFF7FEFF 		bl	lis2de12_write_reg
 1606 0046 F860     		str	r0, [r7, #12]
 1607              	.L89:
 449:../Drivers/BSP/Components/lis2de12/lis2de12.c ****     }
 450:../Drivers/BSP/Components/lis2de12/lis2de12.c ****     return ret;
 1608              		.loc 1 450 12
 1609 0048 FB68     		ldr	r3, [r7, #12]
 451:../Drivers/BSP/Components/lis2de12/lis2de12.c **** }
 1610              		.loc 1 451 1
 1611 004a 1846     		mov	r0, r3
 1612 004c 1037     		adds	r7, r7, #16
 1613              	.LCFI114:
 1614              		.cfi_def_cfa_offset 8
 1615 004e BD46     		mov	sp, r7
 1616              	.LCFI115:
 1617              		.cfi_def_cfa_register 13
 1618              		@ sp needed
 1619 0050 80BD     		pop	{r7, pc}
 1620              		.cfi_endproc
 1621              	.LFE612:
 1623              		.section	.text.lis2de12_data_rate_get,"ax",%progbits
 1624              		.align	1
 1625              		.global	lis2de12_data_rate_get
 1626              		.syntax unified
 1627              		.thumb
 1628              		.thumb_func
 1629              		.fpu fpv4-sp-d16
 1631              	lis2de12_data_rate_get:
 1632              	.LFB613:
 452:../Drivers/BSP/Components/lis2de12/lis2de12.c **** 
 453:../Drivers/BSP/Components/lis2de12/lis2de12.c **** /**
 454:../Drivers/BSP/Components/lis2de12/lis2de12.c ****   * @brief  Output data rate selection.[get]
 455:../Drivers/BSP/Components/lis2de12/lis2de12.c ****   *
 456:../Drivers/BSP/Components/lis2de12/lis2de12.c **** 
 457:../Drivers/BSP/Components/lis2de12/lis2de12.c ****   * @param  val      get the values of odr in reg CTRL_REG1
 458:../Drivers/BSP/Components/lis2de12/lis2de12.c ****   * @retval          interface status (MANDATORY: return 0 -> no Error)
 459:../Drivers/BSP/Components/lis2de12/lis2de12.c ****   *
 460:../Drivers/BSP/Components/lis2de12/lis2de12.c ****   */
 461:../Drivers/BSP/Components/lis2de12/lis2de12.c **** int32_t lis2de12_data_rate_get( lis2de12_odr_t* val )
 462:../Drivers/BSP/Components/lis2de12/lis2de12.c **** {
 1633              		.loc 1 462 1
 1634              		.cfi_startproc
 1635              		@ args = 0, pretend = 0, frame = 16
 1636              		@ frame_needed = 1, uses_anonymous_args = 0
 1637 0000 80B5     		push	{r7, lr}
 1638              	.LCFI116:
 1639              		.cfi_def_cfa_offset 8
ARM GAS  /tmp/ccjphgoR.s 			page 37


 1640              		.cfi_offset 7, -8
 1641              		.cfi_offset 14, -4
 1642 0002 84B0     		sub	sp, sp, #16
 1643              	.LCFI117:
 1644              		.cfi_def_cfa_offset 24
 1645 0004 00AF     		add	r7, sp, #0
 1646              	.LCFI118:
 1647              		.cfi_def_cfa_register 7
 1648 0006 7860     		str	r0, [r7, #4]
 463:../Drivers/BSP/Components/lis2de12/lis2de12.c ****     lis2de12_ctrl_reg1_t ctrl_reg1;
 464:../Drivers/BSP/Components/lis2de12/lis2de12.c ****     int32_t              ret;
 465:../Drivers/BSP/Components/lis2de12/lis2de12.c **** 
 466:../Drivers/BSP/Components/lis2de12/lis2de12.c ****     ret = lis2de12_read_reg( LIS2DE12_CTRL_REG1, ( uint8_t* ) &ctrl_reg1, 1 );
 1649              		.loc 1 466 11
 1650 0008 07F10803 		add	r3, r7, #8
 1651 000c 0122     		movs	r2, #1
 1652 000e 1946     		mov	r1, r3
 1653 0010 2020     		movs	r0, #32
 1654 0012 FFF7FEFF 		bl	lis2de12_read_reg
 1655 0016 F860     		str	r0, [r7, #12]
 467:../Drivers/BSP/Components/lis2de12/lis2de12.c ****     switch( ctrl_reg1.odr )
 1656              		.loc 1 467 22
 1657 0018 3B7A     		ldrb	r3, [r7, #8]
 1658 001a C3F30313 		ubfx	r3, r3, #4, #4
 1659 001e DBB2     		uxtb	r3, r3
 1660              		.loc 1 467 5
 1661 0020 092B     		cmp	r3, #9
 1662 0022 3FD8     		bhi	.L92
 1663 0024 01A2     		adr	r2, .L94
 1664 0026 52F823F0 		ldr	pc, [r2, r3, lsl #2]
 1665 002a 00BF     		.p2align 2
 1666              	.L94:
 1667 002c 55000000 		.word	.L103+1
 1668 0030 5D000000 		.word	.L102+1
 1669 0034 65000000 		.word	.L101+1
 1670 0038 6D000000 		.word	.L100+1
 1671 003c 75000000 		.word	.L99+1
 1672 0040 7D000000 		.word	.L98+1
 1673 0044 85000000 		.word	.L97+1
 1674 0048 8D000000 		.word	.L96+1
 1675 004c 95000000 		.word	.L95+1
 1676 0050 9D000000 		.word	.L93+1
 1677              		.p2align 1
 1678              	.L103:
 468:../Drivers/BSP/Components/lis2de12/lis2de12.c ****     {
 469:../Drivers/BSP/Components/lis2de12/lis2de12.c ****     case LIS2DE12_POWER_DOWN:
 470:../Drivers/BSP/Components/lis2de12/lis2de12.c ****         *val = LIS2DE12_POWER_DOWN;
 1679              		.loc 1 470 14
 1680 0054 7B68     		ldr	r3, [r7, #4]
 1681 0056 0022     		movs	r2, #0
 1682 0058 1A70     		strb	r2, [r3]
 471:../Drivers/BSP/Components/lis2de12/lis2de12.c ****         break;
 1683              		.loc 1 471 9
 1684 005a 27E0     		b	.L104
 1685              	.L102:
 472:../Drivers/BSP/Components/lis2de12/lis2de12.c ****     case LIS2DE12_ODR_1Hz:
 473:../Drivers/BSP/Components/lis2de12/lis2de12.c ****         *val = LIS2DE12_ODR_1Hz;
ARM GAS  /tmp/ccjphgoR.s 			page 38


 1686              		.loc 1 473 14
 1687 005c 7B68     		ldr	r3, [r7, #4]
 1688 005e 0122     		movs	r2, #1
 1689 0060 1A70     		strb	r2, [r3]
 474:../Drivers/BSP/Components/lis2de12/lis2de12.c ****         break;
 1690              		.loc 1 474 9
 1691 0062 23E0     		b	.L104
 1692              	.L101:
 475:../Drivers/BSP/Components/lis2de12/lis2de12.c ****     case LIS2DE12_ODR_10Hz:
 476:../Drivers/BSP/Components/lis2de12/lis2de12.c ****         *val = LIS2DE12_ODR_10Hz;
 1693              		.loc 1 476 14
 1694 0064 7B68     		ldr	r3, [r7, #4]
 1695 0066 0222     		movs	r2, #2
 1696 0068 1A70     		strb	r2, [r3]
 477:../Drivers/BSP/Components/lis2de12/lis2de12.c ****         break;
 1697              		.loc 1 477 9
 1698 006a 1FE0     		b	.L104
 1699              	.L100:
 478:../Drivers/BSP/Components/lis2de12/lis2de12.c ****     case LIS2DE12_ODR_25Hz:
 479:../Drivers/BSP/Components/lis2de12/lis2de12.c ****         *val = LIS2DE12_ODR_25Hz;
 1700              		.loc 1 479 14
 1701 006c 7B68     		ldr	r3, [r7, #4]
 1702 006e 0322     		movs	r2, #3
 1703 0070 1A70     		strb	r2, [r3]
 480:../Drivers/BSP/Components/lis2de12/lis2de12.c ****         break;
 1704              		.loc 1 480 9
 1705 0072 1BE0     		b	.L104
 1706              	.L99:
 481:../Drivers/BSP/Components/lis2de12/lis2de12.c ****     case LIS2DE12_ODR_50Hz:
 482:../Drivers/BSP/Components/lis2de12/lis2de12.c ****         *val = LIS2DE12_ODR_50Hz;
 1707              		.loc 1 482 14
 1708 0074 7B68     		ldr	r3, [r7, #4]
 1709 0076 0422     		movs	r2, #4
 1710 0078 1A70     		strb	r2, [r3]
 483:../Drivers/BSP/Components/lis2de12/lis2de12.c ****         break;
 1711              		.loc 1 483 9
 1712 007a 17E0     		b	.L104
 1713              	.L98:
 484:../Drivers/BSP/Components/lis2de12/lis2de12.c ****     case LIS2DE12_ODR_100Hz:
 485:../Drivers/BSP/Components/lis2de12/lis2de12.c ****         *val = LIS2DE12_ODR_100Hz;
 1714              		.loc 1 485 14
 1715 007c 7B68     		ldr	r3, [r7, #4]
 1716 007e 0522     		movs	r2, #5
 1717 0080 1A70     		strb	r2, [r3]
 486:../Drivers/BSP/Components/lis2de12/lis2de12.c ****         break;
 1718              		.loc 1 486 9
 1719 0082 13E0     		b	.L104
 1720              	.L97:
 487:../Drivers/BSP/Components/lis2de12/lis2de12.c ****     case LIS2DE12_ODR_200Hz:
 488:../Drivers/BSP/Components/lis2de12/lis2de12.c ****         *val = LIS2DE12_ODR_200Hz;
 1721              		.loc 1 488 14
 1722 0084 7B68     		ldr	r3, [r7, #4]
 1723 0086 0622     		movs	r2, #6
 1724 0088 1A70     		strb	r2, [r3]
 489:../Drivers/BSP/Components/lis2de12/lis2de12.c ****         break;
 1725              		.loc 1 489 9
 1726 008a 0FE0     		b	.L104
ARM GAS  /tmp/ccjphgoR.s 			page 39


 1727              	.L96:
 490:../Drivers/BSP/Components/lis2de12/lis2de12.c ****     case LIS2DE12_ODR_400Hz:
 491:../Drivers/BSP/Components/lis2de12/lis2de12.c ****         *val = LIS2DE12_ODR_400Hz;
 1728              		.loc 1 491 14
 1729 008c 7B68     		ldr	r3, [r7, #4]
 1730 008e 0722     		movs	r2, #7
 1731 0090 1A70     		strb	r2, [r3]
 492:../Drivers/BSP/Components/lis2de12/lis2de12.c ****         break;
 1732              		.loc 1 492 9
 1733 0092 0BE0     		b	.L104
 1734              	.L95:
 493:../Drivers/BSP/Components/lis2de12/lis2de12.c ****     case LIS2DE12_ODR_1kHz620_LP:
 494:../Drivers/BSP/Components/lis2de12/lis2de12.c ****         *val = LIS2DE12_ODR_1kHz620_LP;
 1735              		.loc 1 494 14
 1736 0094 7B68     		ldr	r3, [r7, #4]
 1737 0096 0822     		movs	r2, #8
 1738 0098 1A70     		strb	r2, [r3]
 495:../Drivers/BSP/Components/lis2de12/lis2de12.c ****         break;
 1739              		.loc 1 495 9
 1740 009a 07E0     		b	.L104
 1741              	.L93:
 496:../Drivers/BSP/Components/lis2de12/lis2de12.c ****     case LIS2DE12_ODR_5kHz376_LP_1kHz344_NM_HP:
 497:../Drivers/BSP/Components/lis2de12/lis2de12.c ****         *val = LIS2DE12_ODR_5kHz376_LP_1kHz344_NM_HP;
 1742              		.loc 1 497 14
 1743 009c 7B68     		ldr	r3, [r7, #4]
 1744 009e 0922     		movs	r2, #9
 1745 00a0 1A70     		strb	r2, [r3]
 498:../Drivers/BSP/Components/lis2de12/lis2de12.c ****         break;
 1746              		.loc 1 498 9
 1747 00a2 03E0     		b	.L104
 1748              	.L92:
 499:../Drivers/BSP/Components/lis2de12/lis2de12.c ****     default:
 500:../Drivers/BSP/Components/lis2de12/lis2de12.c ****         *val = LIS2DE12_POWER_DOWN;
 1749              		.loc 1 500 14
 1750 00a4 7B68     		ldr	r3, [r7, #4]
 1751 00a6 0022     		movs	r2, #0
 1752 00a8 1A70     		strb	r2, [r3]
 501:../Drivers/BSP/Components/lis2de12/lis2de12.c ****         break;
 1753              		.loc 1 501 9
 1754 00aa 00BF     		nop
 1755              	.L104:
 502:../Drivers/BSP/Components/lis2de12/lis2de12.c ****     }
 503:../Drivers/BSP/Components/lis2de12/lis2de12.c ****     return ret;
 1756              		.loc 1 503 12
 1757 00ac FB68     		ldr	r3, [r7, #12]
 504:../Drivers/BSP/Components/lis2de12/lis2de12.c **** }
 1758              		.loc 1 504 1
 1759 00ae 1846     		mov	r0, r3
 1760 00b0 1037     		adds	r7, r7, #16
 1761              	.LCFI119:
 1762              		.cfi_def_cfa_offset 8
 1763 00b2 BD46     		mov	sp, r7
 1764              	.LCFI120:
 1765              		.cfi_def_cfa_register 13
 1766              		@ sp needed
 1767 00b4 80BD     		pop	{r7, pc}
 1768              		.cfi_endproc
ARM GAS  /tmp/ccjphgoR.s 			page 40


 1769              	.LFE613:
 1771 00b6 00BF     		.section	.text.lis2de12_high_pass_on_outputs_set,"ax",%progbits
 1772              		.align	1
 1773              		.global	lis2de12_high_pass_on_outputs_set
 1774              		.syntax unified
 1775              		.thumb
 1776              		.thumb_func
 1777              		.fpu fpv4-sp-d16
 1779              	lis2de12_high_pass_on_outputs_set:
 1780              	.LFB614:
 505:../Drivers/BSP/Components/lis2de12/lis2de12.c **** 
 506:../Drivers/BSP/Components/lis2de12/lis2de12.c **** /**
 507:../Drivers/BSP/Components/lis2de12/lis2de12.c ****   * @brief   High pass data from internal filter sent to output register
 508:../Drivers/BSP/Components/lis2de12/lis2de12.c ****   *          and FIFO.
 509:../Drivers/BSP/Components/lis2de12/lis2de12.c ****   *
 510:../Drivers/BSP/Components/lis2de12/lis2de12.c **** 
 511:../Drivers/BSP/Components/lis2de12/lis2de12.c ****   * @param  val      change the values of fds in reg CTRL_REG2
 512:../Drivers/BSP/Components/lis2de12/lis2de12.c ****   * @retval          interface status (MANDATORY: return 0 -> no Error)
 513:../Drivers/BSP/Components/lis2de12/lis2de12.c ****   *
 514:../Drivers/BSP/Components/lis2de12/lis2de12.c ****   */
 515:../Drivers/BSP/Components/lis2de12/lis2de12.c **** int32_t lis2de12_high_pass_on_outputs_set( uint8_t val )
 516:../Drivers/BSP/Components/lis2de12/lis2de12.c **** {
 1781              		.loc 1 516 1
 1782              		.cfi_startproc
 1783              		@ args = 0, pretend = 0, frame = 16
 1784              		@ frame_needed = 1, uses_anonymous_args = 0
 1785 0000 80B5     		push	{r7, lr}
 1786              	.LCFI121:
 1787              		.cfi_def_cfa_offset 8
 1788              		.cfi_offset 7, -8
 1789              		.cfi_offset 14, -4
 1790 0002 84B0     		sub	sp, sp, #16
 1791              	.LCFI122:
 1792              		.cfi_def_cfa_offset 24
 1793 0004 00AF     		add	r7, sp, #0
 1794              	.LCFI123:
 1795              		.cfi_def_cfa_register 7
 1796 0006 0346     		mov	r3, r0
 1797 0008 FB71     		strb	r3, [r7, #7]
 517:../Drivers/BSP/Components/lis2de12/lis2de12.c ****     lis2de12_ctrl_reg2_t ctrl_reg2;
 518:../Drivers/BSP/Components/lis2de12/lis2de12.c ****     int32_t              ret;
 519:../Drivers/BSP/Components/lis2de12/lis2de12.c **** 
 520:../Drivers/BSP/Components/lis2de12/lis2de12.c ****     ret = lis2de12_read_reg( LIS2DE12_CTRL_REG2, ( uint8_t* ) &ctrl_reg2, 1 );
 1798              		.loc 1 520 11
 1799 000a 07F10803 		add	r3, r7, #8
 1800 000e 0122     		movs	r2, #1
 1801 0010 1946     		mov	r1, r3
 1802 0012 2120     		movs	r0, #33
 1803 0014 FFF7FEFF 		bl	lis2de12_read_reg
 1804 0018 F860     		str	r0, [r7, #12]
 521:../Drivers/BSP/Components/lis2de12/lis2de12.c ****     if( ret == 0 )
 1805              		.loc 1 521 7
 1806 001a FB68     		ldr	r3, [r7, #12]
 1807 001c 002B     		cmp	r3, #0
 1808 001e 0FD1     		bne	.L107
 522:../Drivers/BSP/Components/lis2de12/lis2de12.c ****     {
 523:../Drivers/BSP/Components/lis2de12/lis2de12.c ****         ctrl_reg2.fds = val;
ARM GAS  /tmp/ccjphgoR.s 			page 41


 1809              		.loc 1 523 23
 1810 0020 FB79     		ldrb	r3, [r7, #7]
 1811 0022 03F00103 		and	r3, r3, #1
 1812 0026 DAB2     		uxtb	r2, r3
 1813 0028 3B7A     		ldrb	r3, [r7, #8]
 1814 002a 62F3C303 		bfi	r3, r2, #3, #1
 1815 002e 3B72     		strb	r3, [r7, #8]
 524:../Drivers/BSP/Components/lis2de12/lis2de12.c ****         ret           = lis2de12_write_reg( LIS2DE12_CTRL_REG2, ( uint8_t* ) &ctrl_reg2, 1 );
 1816              		.loc 1 524 25
 1817 0030 07F10803 		add	r3, r7, #8
 1818 0034 0122     		movs	r2, #1
 1819 0036 1946     		mov	r1, r3
 1820 0038 2120     		movs	r0, #33
 1821 003a FFF7FEFF 		bl	lis2de12_write_reg
 1822 003e F860     		str	r0, [r7, #12]
 1823              	.L107:
 525:../Drivers/BSP/Components/lis2de12/lis2de12.c ****     }
 526:../Drivers/BSP/Components/lis2de12/lis2de12.c ****     return ret;
 1824              		.loc 1 526 12
 1825 0040 FB68     		ldr	r3, [r7, #12]
 527:../Drivers/BSP/Components/lis2de12/lis2de12.c **** }
 1826              		.loc 1 527 1
 1827 0042 1846     		mov	r0, r3
 1828 0044 1037     		adds	r7, r7, #16
 1829              	.LCFI124:
 1830              		.cfi_def_cfa_offset 8
 1831 0046 BD46     		mov	sp, r7
 1832              	.LCFI125:
 1833              		.cfi_def_cfa_register 13
 1834              		@ sp needed
 1835 0048 80BD     		pop	{r7, pc}
 1836              		.cfi_endproc
 1837              	.LFE614:
 1839              		.section	.text.lis2de12_high_pass_on_outputs_get,"ax",%progbits
 1840              		.align	1
 1841              		.global	lis2de12_high_pass_on_outputs_get
 1842              		.syntax unified
 1843              		.thumb
 1844              		.thumb_func
 1845              		.fpu fpv4-sp-d16
 1847              	lis2de12_high_pass_on_outputs_get:
 1848              	.LFB615:
 528:../Drivers/BSP/Components/lis2de12/lis2de12.c **** 
 529:../Drivers/BSP/Components/lis2de12/lis2de12.c **** /**
 530:../Drivers/BSP/Components/lis2de12/lis2de12.c ****   * @brief   High pass data from internal filter sent to output register
 531:../Drivers/BSP/Components/lis2de12/lis2de12.c ****   *          and FIFO.[get]
 532:../Drivers/BSP/Components/lis2de12/lis2de12.c ****   *
 533:../Drivers/BSP/Components/lis2de12/lis2de12.c **** 
 534:../Drivers/BSP/Components/lis2de12/lis2de12.c ****   * @param  val      change the values of fds in reg CTRL_REG2
 535:../Drivers/BSP/Components/lis2de12/lis2de12.c ****   * @retval          interface status (MANDATORY: return 0 -> no Error)
 536:../Drivers/BSP/Components/lis2de12/lis2de12.c ****   *
 537:../Drivers/BSP/Components/lis2de12/lis2de12.c ****   */
 538:../Drivers/BSP/Components/lis2de12/lis2de12.c **** int32_t lis2de12_high_pass_on_outputs_get( uint8_t* val )
 539:../Drivers/BSP/Components/lis2de12/lis2de12.c **** {
 1849              		.loc 1 539 1
 1850              		.cfi_startproc
 1851              		@ args = 0, pretend = 0, frame = 16
ARM GAS  /tmp/ccjphgoR.s 			page 42


 1852              		@ frame_needed = 1, uses_anonymous_args = 0
 1853 0000 80B5     		push	{r7, lr}
 1854              	.LCFI126:
 1855              		.cfi_def_cfa_offset 8
 1856              		.cfi_offset 7, -8
 1857              		.cfi_offset 14, -4
 1858 0002 84B0     		sub	sp, sp, #16
 1859              	.LCFI127:
 1860              		.cfi_def_cfa_offset 24
 1861 0004 00AF     		add	r7, sp, #0
 1862              	.LCFI128:
 1863              		.cfi_def_cfa_register 7
 1864 0006 7860     		str	r0, [r7, #4]
 540:../Drivers/BSP/Components/lis2de12/lis2de12.c ****     lis2de12_ctrl_reg2_t ctrl_reg2;
 541:../Drivers/BSP/Components/lis2de12/lis2de12.c ****     int32_t              ret;
 542:../Drivers/BSP/Components/lis2de12/lis2de12.c **** 
 543:../Drivers/BSP/Components/lis2de12/lis2de12.c ****     ret  = lis2de12_read_reg( LIS2DE12_CTRL_REG2, ( uint8_t* ) &ctrl_reg2, 1 );
 1865              		.loc 1 543 12
 1866 0008 07F10803 		add	r3, r7, #8
 1867 000c 0122     		movs	r2, #1
 1868 000e 1946     		mov	r1, r3
 1869 0010 2120     		movs	r0, #33
 1870 0012 FFF7FEFF 		bl	lis2de12_read_reg
 1871 0016 F860     		str	r0, [r7, #12]
 544:../Drivers/BSP/Components/lis2de12/lis2de12.c ****     *val = ( uint8_t ) ctrl_reg2.fds;
 1872              		.loc 1 544 33
 1873 0018 3B7A     		ldrb	r3, [r7, #8]
 1874 001a C3F3C003 		ubfx	r3, r3, #3, #1
 1875 001e DBB2     		uxtb	r3, r3
 1876              		.loc 1 544 12
 1877 0020 1A46     		mov	r2, r3
 1878              		.loc 1 544 10
 1879 0022 7B68     		ldr	r3, [r7, #4]
 1880 0024 1A70     		strb	r2, [r3]
 545:../Drivers/BSP/Components/lis2de12/lis2de12.c **** 
 546:../Drivers/BSP/Components/lis2de12/lis2de12.c ****     return ret;
 1881              		.loc 1 546 12
 1882 0026 FB68     		ldr	r3, [r7, #12]
 547:../Drivers/BSP/Components/lis2de12/lis2de12.c **** }
 1883              		.loc 1 547 1
 1884 0028 1846     		mov	r0, r3
 1885 002a 1037     		adds	r7, r7, #16
 1886              	.LCFI129:
 1887              		.cfi_def_cfa_offset 8
 1888 002c BD46     		mov	sp, r7
 1889              	.LCFI130:
 1890              		.cfi_def_cfa_register 13
 1891              		@ sp needed
 1892 002e 80BD     		pop	{r7, pc}
 1893              		.cfi_endproc
 1894              	.LFE615:
 1896              		.section	.text.lis2de12_high_pass_bandwidth_set,"ax",%progbits
 1897              		.align	1
 1898              		.global	lis2de12_high_pass_bandwidth_set
 1899              		.syntax unified
 1900              		.thumb
 1901              		.thumb_func
ARM GAS  /tmp/ccjphgoR.s 			page 43


 1902              		.fpu fpv4-sp-d16
 1904              	lis2de12_high_pass_bandwidth_set:
 1905              	.LFB616:
 548:../Drivers/BSP/Components/lis2de12/lis2de12.c **** 
 549:../Drivers/BSP/Components/lis2de12/lis2de12.c **** /**
 550:../Drivers/BSP/Components/lis2de12/lis2de12.c ****   * @brief   High-pass filter cutoff frequency selection.[set]
 551:../Drivers/BSP/Components/lis2de12/lis2de12.c ****   *
 552:../Drivers/BSP/Components/lis2de12/lis2de12.c ****   * HPCF[2:1]\ft @1Hz    @10Hz  @25Hz  @50Hz @100Hz @200Hz @400Hz @1kHz6 ft@5kHz
 553:../Drivers/BSP/Components/lis2de12/lis2de12.c ****   * AGGRESSIVE   0.02Hz  0.2Hz  0.5Hz  1Hz   2Hz    4Hz    8Hz    32Hz   100Hz
 554:../Drivers/BSP/Components/lis2de12/lis2de12.c ****   * STRONG       0.008Hz 0.08Hz 0.2Hz  0.5Hz 1Hz    2Hz    4Hz    16Hz   50Hz
 555:../Drivers/BSP/Components/lis2de12/lis2de12.c ****   * MEDIUM       0.004Hz 0.04Hz 0.1Hz  0.2Hz 0.5Hz  1Hz    2Hz    8Hz    25Hz
 556:../Drivers/BSP/Components/lis2de12/lis2de12.c ****   * LIGHT        0.002Hz 0.02Hz 0.05Hz 0.1Hz 0.2Hz  0.5Hz  1Hz    4Hz    12Hz
 557:../Drivers/BSP/Components/lis2de12/lis2de12.c ****   *
 558:../Drivers/BSP/Components/lis2de12/lis2de12.c **** 
 559:../Drivers/BSP/Components/lis2de12/lis2de12.c ****   * @param  val      change the values of hpcf in reg CTRL_REG2
 560:../Drivers/BSP/Components/lis2de12/lis2de12.c ****   * @retval          interface status (MANDATORY: return 0 -> no Error)
 561:../Drivers/BSP/Components/lis2de12/lis2de12.c ****   *
 562:../Drivers/BSP/Components/lis2de12/lis2de12.c ****   */
 563:../Drivers/BSP/Components/lis2de12/lis2de12.c **** int32_t lis2de12_high_pass_bandwidth_set( lis2de12_hpcf_t val )
 564:../Drivers/BSP/Components/lis2de12/lis2de12.c **** {
 1906              		.loc 1 564 1
 1907              		.cfi_startproc
 1908              		@ args = 0, pretend = 0, frame = 16
 1909              		@ frame_needed = 1, uses_anonymous_args = 0
 1910 0000 80B5     		push	{r7, lr}
 1911              	.LCFI131:
 1912              		.cfi_def_cfa_offset 8
 1913              		.cfi_offset 7, -8
 1914              		.cfi_offset 14, -4
 1915 0002 84B0     		sub	sp, sp, #16
 1916              	.LCFI132:
 1917              		.cfi_def_cfa_offset 24
 1918 0004 00AF     		add	r7, sp, #0
 1919              	.LCFI133:
 1920              		.cfi_def_cfa_register 7
 1921 0006 0346     		mov	r3, r0
 1922 0008 FB71     		strb	r3, [r7, #7]
 565:../Drivers/BSP/Components/lis2de12/lis2de12.c ****     lis2de12_ctrl_reg2_t ctrl_reg2;
 566:../Drivers/BSP/Components/lis2de12/lis2de12.c ****     int32_t              ret;
 567:../Drivers/BSP/Components/lis2de12/lis2de12.c **** 
 568:../Drivers/BSP/Components/lis2de12/lis2de12.c ****     ret = lis2de12_read_reg( LIS2DE12_CTRL_REG2, ( uint8_t* ) &ctrl_reg2, 1 );
 1923              		.loc 1 568 11
 1924 000a 07F10803 		add	r3, r7, #8
 1925 000e 0122     		movs	r2, #1
 1926 0010 1946     		mov	r1, r3
 1927 0012 2120     		movs	r0, #33
 1928 0014 FFF7FEFF 		bl	lis2de12_read_reg
 1929 0018 F860     		str	r0, [r7, #12]
 569:../Drivers/BSP/Components/lis2de12/lis2de12.c ****     if( ret == 0 )
 1930              		.loc 1 569 7
 1931 001a FB68     		ldr	r3, [r7, #12]
 1932 001c 002B     		cmp	r3, #0
 1933 001e 0FD1     		bne	.L112
 570:../Drivers/BSP/Components/lis2de12/lis2de12.c ****     {
 571:../Drivers/BSP/Components/lis2de12/lis2de12.c ****         ctrl_reg2.hpcf = ( uint8_t ) val;
 1934              		.loc 1 571 26
 1935 0020 FB79     		ldrb	r3, [r7, #7]
ARM GAS  /tmp/ccjphgoR.s 			page 44


 1936 0022 03F00303 		and	r3, r3, #3
 1937 0026 DAB2     		uxtb	r2, r3
 1938              		.loc 1 571 24
 1939 0028 3B7A     		ldrb	r3, [r7, #8]
 1940 002a 62F30513 		bfi	r3, r2, #4, #2
 1941 002e 3B72     		strb	r3, [r7, #8]
 572:../Drivers/BSP/Components/lis2de12/lis2de12.c ****         ret            = lis2de12_write_reg( LIS2DE12_CTRL_REG2, ( uint8_t* ) &ctrl_reg2, 1 );
 1942              		.loc 1 572 26
 1943 0030 07F10803 		add	r3, r7, #8
 1944 0034 0122     		movs	r2, #1
 1945 0036 1946     		mov	r1, r3
 1946 0038 2120     		movs	r0, #33
 1947 003a FFF7FEFF 		bl	lis2de12_write_reg
 1948 003e F860     		str	r0, [r7, #12]
 1949              	.L112:
 573:../Drivers/BSP/Components/lis2de12/lis2de12.c ****     }
 574:../Drivers/BSP/Components/lis2de12/lis2de12.c ****     return ret;
 1950              		.loc 1 574 12
 1951 0040 FB68     		ldr	r3, [r7, #12]
 575:../Drivers/BSP/Components/lis2de12/lis2de12.c **** }
 1952              		.loc 1 575 1
 1953 0042 1846     		mov	r0, r3
 1954 0044 1037     		adds	r7, r7, #16
 1955              	.LCFI134:
 1956              		.cfi_def_cfa_offset 8
 1957 0046 BD46     		mov	sp, r7
 1958              	.LCFI135:
 1959              		.cfi_def_cfa_register 13
 1960              		@ sp needed
 1961 0048 80BD     		pop	{r7, pc}
 1962              		.cfi_endproc
 1963              	.LFE616:
 1965              		.section	.text.lis2de12_high_pass_bandwidth_get,"ax",%progbits
 1966              		.align	1
 1967              		.global	lis2de12_high_pass_bandwidth_get
 1968              		.syntax unified
 1969              		.thumb
 1970              		.thumb_func
 1971              		.fpu fpv4-sp-d16
 1973              	lis2de12_high_pass_bandwidth_get:
 1974              	.LFB617:
 576:../Drivers/BSP/Components/lis2de12/lis2de12.c **** 
 577:../Drivers/BSP/Components/lis2de12/lis2de12.c **** /**
 578:../Drivers/BSP/Components/lis2de12/lis2de12.c ****   * @brief   High-pass filter cutoff frequency selection.[get]
 579:../Drivers/BSP/Components/lis2de12/lis2de12.c ****   *
 580:../Drivers/BSP/Components/lis2de12/lis2de12.c ****   * HPCF[2:1]\ft @1Hz    @10Hz  @25Hz  @50Hz @100Hz @200Hz @400Hz @1kHz6 ft@5kHz
 581:../Drivers/BSP/Components/lis2de12/lis2de12.c ****   * AGGRESSIVE   0.02Hz  0.2Hz  0.5Hz  1Hz   2Hz    4Hz    8Hz    32Hz   100Hz
 582:../Drivers/BSP/Components/lis2de12/lis2de12.c ****   * STRONG       0.008Hz 0.08Hz 0.2Hz  0.5Hz 1Hz    2Hz    4Hz    16Hz   50Hz
 583:../Drivers/BSP/Components/lis2de12/lis2de12.c ****   * MEDIUM       0.004Hz 0.04Hz 0.1Hz  0.2Hz 0.5Hz  1Hz    2Hz    8Hz    25Hz
 584:../Drivers/BSP/Components/lis2de12/lis2de12.c ****   * LIGHT        0.002Hz 0.02Hz 0.05Hz 0.1Hz 0.2Hz  0.5Hz  1Hz    4Hz    12Hz
 585:../Drivers/BSP/Components/lis2de12/lis2de12.c ****   *
 586:../Drivers/BSP/Components/lis2de12/lis2de12.c **** 
 587:../Drivers/BSP/Components/lis2de12/lis2de12.c ****   * @param  val      get the values of hpcf in reg CTRL_REG2
 588:../Drivers/BSP/Components/lis2de12/lis2de12.c ****   * @retval          interface status (MANDATORY: return 0 -> no Error)
 589:../Drivers/BSP/Components/lis2de12/lis2de12.c ****   *
 590:../Drivers/BSP/Components/lis2de12/lis2de12.c ****   */
 591:../Drivers/BSP/Components/lis2de12/lis2de12.c **** int32_t lis2de12_high_pass_bandwidth_get( lis2de12_hpcf_t* val )
ARM GAS  /tmp/ccjphgoR.s 			page 45


 592:../Drivers/BSP/Components/lis2de12/lis2de12.c **** {
 1975              		.loc 1 592 1
 1976              		.cfi_startproc
 1977              		@ args = 0, pretend = 0, frame = 16
 1978              		@ frame_needed = 1, uses_anonymous_args = 0
 1979 0000 80B5     		push	{r7, lr}
 1980              	.LCFI136:
 1981              		.cfi_def_cfa_offset 8
 1982              		.cfi_offset 7, -8
 1983              		.cfi_offset 14, -4
 1984 0002 84B0     		sub	sp, sp, #16
 1985              	.LCFI137:
 1986              		.cfi_def_cfa_offset 24
 1987 0004 00AF     		add	r7, sp, #0
 1988              	.LCFI138:
 1989              		.cfi_def_cfa_register 7
 1990 0006 7860     		str	r0, [r7, #4]
 593:../Drivers/BSP/Components/lis2de12/lis2de12.c ****     lis2de12_ctrl_reg2_t ctrl_reg2;
 594:../Drivers/BSP/Components/lis2de12/lis2de12.c ****     int32_t              ret;
 595:../Drivers/BSP/Components/lis2de12/lis2de12.c **** 
 596:../Drivers/BSP/Components/lis2de12/lis2de12.c ****     ret = lis2de12_read_reg( LIS2DE12_CTRL_REG2, ( uint8_t* ) &ctrl_reg2, 1 );
 1991              		.loc 1 596 11
 1992 0008 07F10803 		add	r3, r7, #8
 1993 000c 0122     		movs	r2, #1
 1994 000e 1946     		mov	r1, r3
 1995 0010 2120     		movs	r0, #33
 1996 0012 FFF7FEFF 		bl	lis2de12_read_reg
 1997 0016 F860     		str	r0, [r7, #12]
 597:../Drivers/BSP/Components/lis2de12/lis2de12.c ****     switch( ctrl_reg2.hpcf )
 1998              		.loc 1 597 22
 1999 0018 3B7A     		ldrb	r3, [r7, #8]
 2000 001a C3F30113 		ubfx	r3, r3, #4, #2
 2001 001e DBB2     		uxtb	r3, r3
 2002              		.loc 1 597 5
 2003 0020 032B     		cmp	r3, #3
 2004 0022 1BD8     		bhi	.L115
 2005 0024 01A2     		adr	r2, .L117
 2006 0026 52F823F0 		ldr	pc, [r2, r3, lsl #2]
 2007 002a 00BF     		.p2align 2
 2008              	.L117:
 2009 002c 3D000000 		.word	.L120+1
 2010 0030 45000000 		.word	.L119+1
 2011 0034 4D000000 		.word	.L118+1
 2012 0038 55000000 		.word	.L116+1
 2013              		.p2align 1
 2014              	.L120:
 598:../Drivers/BSP/Components/lis2de12/lis2de12.c ****     {
 599:../Drivers/BSP/Components/lis2de12/lis2de12.c ****     case LIS2DE12_AGGRESSIVE:
 600:../Drivers/BSP/Components/lis2de12/lis2de12.c ****         *val = LIS2DE12_AGGRESSIVE;
 2015              		.loc 1 600 14
 2016 003c 7B68     		ldr	r3, [r7, #4]
 2017 003e 0022     		movs	r2, #0
 2018 0040 1A70     		strb	r2, [r3]
 601:../Drivers/BSP/Components/lis2de12/lis2de12.c ****         break;
 2019              		.loc 1 601 9
 2020 0042 0FE0     		b	.L121
 2021              	.L119:
ARM GAS  /tmp/ccjphgoR.s 			page 46


 602:../Drivers/BSP/Components/lis2de12/lis2de12.c ****     case LIS2DE12_STRONG:
 603:../Drivers/BSP/Components/lis2de12/lis2de12.c ****         *val = LIS2DE12_STRONG;
 2022              		.loc 1 603 14
 2023 0044 7B68     		ldr	r3, [r7, #4]
 2024 0046 0122     		movs	r2, #1
 2025 0048 1A70     		strb	r2, [r3]
 604:../Drivers/BSP/Components/lis2de12/lis2de12.c ****         break;
 2026              		.loc 1 604 9
 2027 004a 0BE0     		b	.L121
 2028              	.L118:
 605:../Drivers/BSP/Components/lis2de12/lis2de12.c ****     case LIS2DE12_MEDIUM:
 606:../Drivers/BSP/Components/lis2de12/lis2de12.c ****         *val = LIS2DE12_MEDIUM;
 2029              		.loc 1 606 14
 2030 004c 7B68     		ldr	r3, [r7, #4]
 2031 004e 0222     		movs	r2, #2
 2032 0050 1A70     		strb	r2, [r3]
 607:../Drivers/BSP/Components/lis2de12/lis2de12.c ****         break;
 2033              		.loc 1 607 9
 2034 0052 07E0     		b	.L121
 2035              	.L116:
 608:../Drivers/BSP/Components/lis2de12/lis2de12.c ****     case LIS2DE12_LIGHT:
 609:../Drivers/BSP/Components/lis2de12/lis2de12.c ****         *val = LIS2DE12_LIGHT;
 2036              		.loc 1 609 14
 2037 0054 7B68     		ldr	r3, [r7, #4]
 2038 0056 0322     		movs	r2, #3
 2039 0058 1A70     		strb	r2, [r3]
 610:../Drivers/BSP/Components/lis2de12/lis2de12.c ****         break;
 2040              		.loc 1 610 9
 2041 005a 03E0     		b	.L121
 2042              	.L115:
 611:../Drivers/BSP/Components/lis2de12/lis2de12.c ****     default:
 612:../Drivers/BSP/Components/lis2de12/lis2de12.c ****         *val = LIS2DE12_LIGHT;
 2043              		.loc 1 612 14
 2044 005c 7B68     		ldr	r3, [r7, #4]
 2045 005e 0322     		movs	r2, #3
 2046 0060 1A70     		strb	r2, [r3]
 613:../Drivers/BSP/Components/lis2de12/lis2de12.c ****         break;
 2047              		.loc 1 613 9
 2048 0062 00BF     		nop
 2049              	.L121:
 614:../Drivers/BSP/Components/lis2de12/lis2de12.c ****     }
 615:../Drivers/BSP/Components/lis2de12/lis2de12.c ****     return ret;
 2050              		.loc 1 615 12
 2051 0064 FB68     		ldr	r3, [r7, #12]
 616:../Drivers/BSP/Components/lis2de12/lis2de12.c **** }
 2052              		.loc 1 616 1
 2053 0066 1846     		mov	r0, r3
 2054 0068 1037     		adds	r7, r7, #16
 2055              	.LCFI139:
 2056              		.cfi_def_cfa_offset 8
 2057 006a BD46     		mov	sp, r7
 2058              	.LCFI140:
 2059              		.cfi_def_cfa_register 13
 2060              		@ sp needed
 2061 006c 80BD     		pop	{r7, pc}
 2062              		.cfi_endproc
 2063              	.LFE617:
ARM GAS  /tmp/ccjphgoR.s 			page 47


 2065 006e 00BF     		.section	.text.lis2de12_high_pass_mode_set,"ax",%progbits
 2066              		.align	1
 2067              		.global	lis2de12_high_pass_mode_set
 2068              		.syntax unified
 2069              		.thumb
 2070              		.thumb_func
 2071              		.fpu fpv4-sp-d16
 2073              	lis2de12_high_pass_mode_set:
 2074              	.LFB618:
 617:../Drivers/BSP/Components/lis2de12/lis2de12.c **** 
 618:../Drivers/BSP/Components/lis2de12/lis2de12.c **** /**
 619:../Drivers/BSP/Components/lis2de12/lis2de12.c ****   * @brief  High-pass filter mode selection.[set]
 620:../Drivers/BSP/Components/lis2de12/lis2de12.c ****   *
 621:../Drivers/BSP/Components/lis2de12/lis2de12.c **** 
 622:../Drivers/BSP/Components/lis2de12/lis2de12.c ****   * @param  val      change the values of hpm in reg CTRL_REG2
 623:../Drivers/BSP/Components/lis2de12/lis2de12.c ****   * @retval          interface status (MANDATORY: return 0 -> no Error)
 624:../Drivers/BSP/Components/lis2de12/lis2de12.c ****   *
 625:../Drivers/BSP/Components/lis2de12/lis2de12.c ****   */
 626:../Drivers/BSP/Components/lis2de12/lis2de12.c **** int32_t lis2de12_high_pass_mode_set( lis2de12_hpm_t val )
 627:../Drivers/BSP/Components/lis2de12/lis2de12.c **** {
 2075              		.loc 1 627 1
 2076              		.cfi_startproc
 2077              		@ args = 0, pretend = 0, frame = 16
 2078              		@ frame_needed = 1, uses_anonymous_args = 0
 2079 0000 80B5     		push	{r7, lr}
 2080              	.LCFI141:
 2081              		.cfi_def_cfa_offset 8
 2082              		.cfi_offset 7, -8
 2083              		.cfi_offset 14, -4
 2084 0002 84B0     		sub	sp, sp, #16
 2085              	.LCFI142:
 2086              		.cfi_def_cfa_offset 24
 2087 0004 00AF     		add	r7, sp, #0
 2088              	.LCFI143:
 2089              		.cfi_def_cfa_register 7
 2090 0006 0346     		mov	r3, r0
 2091 0008 FB71     		strb	r3, [r7, #7]
 628:../Drivers/BSP/Components/lis2de12/lis2de12.c ****     lis2de12_ctrl_reg2_t ctrl_reg2;
 629:../Drivers/BSP/Components/lis2de12/lis2de12.c ****     int32_t              ret;
 630:../Drivers/BSP/Components/lis2de12/lis2de12.c **** 
 631:../Drivers/BSP/Components/lis2de12/lis2de12.c ****     ret = lis2de12_read_reg( LIS2DE12_CTRL_REG2, ( uint8_t* ) &ctrl_reg2, 1 );
 2092              		.loc 1 631 11
 2093 000a 07F10803 		add	r3, r7, #8
 2094 000e 0122     		movs	r2, #1
 2095 0010 1946     		mov	r1, r3
 2096 0012 2120     		movs	r0, #33
 2097 0014 FFF7FEFF 		bl	lis2de12_read_reg
 2098 0018 F860     		str	r0, [r7, #12]
 632:../Drivers/BSP/Components/lis2de12/lis2de12.c ****     if( ret == 0 )
 2099              		.loc 1 632 7
 2100 001a FB68     		ldr	r3, [r7, #12]
 2101 001c 002B     		cmp	r3, #0
 2102 001e 0FD1     		bne	.L124
 633:../Drivers/BSP/Components/lis2de12/lis2de12.c ****     {
 634:../Drivers/BSP/Components/lis2de12/lis2de12.c ****         ctrl_reg2.hpm = ( uint8_t ) val;
 2103              		.loc 1 634 25
 2104 0020 FB79     		ldrb	r3, [r7, #7]
ARM GAS  /tmp/ccjphgoR.s 			page 48


 2105 0022 03F00303 		and	r3, r3, #3
 2106 0026 DAB2     		uxtb	r2, r3
 2107              		.loc 1 634 23
 2108 0028 3B7A     		ldrb	r3, [r7, #8]
 2109 002a 62F38713 		bfi	r3, r2, #6, #2
 2110 002e 3B72     		strb	r3, [r7, #8]
 635:../Drivers/BSP/Components/lis2de12/lis2de12.c ****         ret           = lis2de12_write_reg( LIS2DE12_CTRL_REG2, ( uint8_t* ) &ctrl_reg2, 1 );
 2111              		.loc 1 635 25
 2112 0030 07F10803 		add	r3, r7, #8
 2113 0034 0122     		movs	r2, #1
 2114 0036 1946     		mov	r1, r3
 2115 0038 2120     		movs	r0, #33
 2116 003a FFF7FEFF 		bl	lis2de12_write_reg
 2117 003e F860     		str	r0, [r7, #12]
 2118              	.L124:
 636:../Drivers/BSP/Components/lis2de12/lis2de12.c ****     }
 637:../Drivers/BSP/Components/lis2de12/lis2de12.c ****     return ret;
 2119              		.loc 1 637 12
 2120 0040 FB68     		ldr	r3, [r7, #12]
 638:../Drivers/BSP/Components/lis2de12/lis2de12.c **** }
 2121              		.loc 1 638 1
 2122 0042 1846     		mov	r0, r3
 2123 0044 1037     		adds	r7, r7, #16
 2124              	.LCFI144:
 2125              		.cfi_def_cfa_offset 8
 2126 0046 BD46     		mov	sp, r7
 2127              	.LCFI145:
 2128              		.cfi_def_cfa_register 13
 2129              		@ sp needed
 2130 0048 80BD     		pop	{r7, pc}
 2131              		.cfi_endproc
 2132              	.LFE618:
 2134              		.section	.text.lis2de12_high_pass_mode_get,"ax",%progbits
 2135              		.align	1
 2136              		.global	lis2de12_high_pass_mode_get
 2137              		.syntax unified
 2138              		.thumb
 2139              		.thumb_func
 2140              		.fpu fpv4-sp-d16
 2142              	lis2de12_high_pass_mode_get:
 2143              	.LFB619:
 639:../Drivers/BSP/Components/lis2de12/lis2de12.c **** 
 640:../Drivers/BSP/Components/lis2de12/lis2de12.c **** /**
 641:../Drivers/BSP/Components/lis2de12/lis2de12.c ****   * @brief  High-pass filter mode selection.[get]
 642:../Drivers/BSP/Components/lis2de12/lis2de12.c ****   *
 643:../Drivers/BSP/Components/lis2de12/lis2de12.c **** 
 644:../Drivers/BSP/Components/lis2de12/lis2de12.c ****   * @param  val      get the values of hpm in reg CTRL_REG2
 645:../Drivers/BSP/Components/lis2de12/lis2de12.c ****   * @retval          interface status (MANDATORY: return 0 -> no Error)
 646:../Drivers/BSP/Components/lis2de12/lis2de12.c ****   *
 647:../Drivers/BSP/Components/lis2de12/lis2de12.c ****   */
 648:../Drivers/BSP/Components/lis2de12/lis2de12.c **** int32_t lis2de12_high_pass_mode_get( lis2de12_hpm_t* val )
 649:../Drivers/BSP/Components/lis2de12/lis2de12.c **** {
 2144              		.loc 1 649 1
 2145              		.cfi_startproc
 2146              		@ args = 0, pretend = 0, frame = 16
 2147              		@ frame_needed = 1, uses_anonymous_args = 0
 2148 0000 80B5     		push	{r7, lr}
ARM GAS  /tmp/ccjphgoR.s 			page 49


 2149              	.LCFI146:
 2150              		.cfi_def_cfa_offset 8
 2151              		.cfi_offset 7, -8
 2152              		.cfi_offset 14, -4
 2153 0002 84B0     		sub	sp, sp, #16
 2154              	.LCFI147:
 2155              		.cfi_def_cfa_offset 24
 2156 0004 00AF     		add	r7, sp, #0
 2157              	.LCFI148:
 2158              		.cfi_def_cfa_register 7
 2159 0006 7860     		str	r0, [r7, #4]
 650:../Drivers/BSP/Components/lis2de12/lis2de12.c ****     lis2de12_ctrl_reg2_t ctrl_reg2;
 651:../Drivers/BSP/Components/lis2de12/lis2de12.c ****     int32_t              ret;
 652:../Drivers/BSP/Components/lis2de12/lis2de12.c **** 
 653:../Drivers/BSP/Components/lis2de12/lis2de12.c ****     ret = lis2de12_read_reg( LIS2DE12_CTRL_REG2, ( uint8_t* ) &ctrl_reg2, 1 );
 2160              		.loc 1 653 11
 2161 0008 07F10803 		add	r3, r7, #8
 2162 000c 0122     		movs	r2, #1
 2163 000e 1946     		mov	r1, r3
 2164 0010 2120     		movs	r0, #33
 2165 0012 FFF7FEFF 		bl	lis2de12_read_reg
 2166 0016 F860     		str	r0, [r7, #12]
 654:../Drivers/BSP/Components/lis2de12/lis2de12.c ****     switch( ctrl_reg2.hpm )
 2167              		.loc 1 654 22
 2168 0018 3B7A     		ldrb	r3, [r7, #8]
 2169 001a C3F38113 		ubfx	r3, r3, #6, #2
 2170 001e DBB2     		uxtb	r3, r3
 2171              		.loc 1 654 5
 2172 0020 032B     		cmp	r3, #3
 2173 0022 1BD8     		bhi	.L127
 2174 0024 01A2     		adr	r2, .L129
 2175 0026 52F823F0 		ldr	pc, [r2, r3, lsl #2]
 2176 002a 00BF     		.p2align 2
 2177              	.L129:
 2178 002c 3D000000 		.word	.L132+1
 2179 0030 45000000 		.word	.L131+1
 2180 0034 4D000000 		.word	.L130+1
 2181 0038 55000000 		.word	.L128+1
 2182              		.p2align 1
 2183              	.L132:
 655:../Drivers/BSP/Components/lis2de12/lis2de12.c ****     {
 656:../Drivers/BSP/Components/lis2de12/lis2de12.c ****     case LIS2DE12_NORMAL_WITH_RST:
 657:../Drivers/BSP/Components/lis2de12/lis2de12.c ****         *val = LIS2DE12_NORMAL_WITH_RST;
 2184              		.loc 1 657 14
 2185 003c 7B68     		ldr	r3, [r7, #4]
 2186 003e 0022     		movs	r2, #0
 2187 0040 1A70     		strb	r2, [r3]
 658:../Drivers/BSP/Components/lis2de12/lis2de12.c ****         break;
 2188              		.loc 1 658 9
 2189 0042 0FE0     		b	.L133
 2190              	.L131:
 659:../Drivers/BSP/Components/lis2de12/lis2de12.c ****     case LIS2DE12_REFERENCE_MODE:
 660:../Drivers/BSP/Components/lis2de12/lis2de12.c ****         *val = LIS2DE12_REFERENCE_MODE;
 2191              		.loc 1 660 14
 2192 0044 7B68     		ldr	r3, [r7, #4]
 2193 0046 0122     		movs	r2, #1
 2194 0048 1A70     		strb	r2, [r3]
ARM GAS  /tmp/ccjphgoR.s 			page 50


 661:../Drivers/BSP/Components/lis2de12/lis2de12.c ****         break;
 2195              		.loc 1 661 9
 2196 004a 0BE0     		b	.L133
 2197              	.L130:
 662:../Drivers/BSP/Components/lis2de12/lis2de12.c ****     case LIS2DE12_NORMAL:
 663:../Drivers/BSP/Components/lis2de12/lis2de12.c ****         *val = LIS2DE12_NORMAL;
 2198              		.loc 1 663 14
 2199 004c 7B68     		ldr	r3, [r7, #4]
 2200 004e 0222     		movs	r2, #2
 2201 0050 1A70     		strb	r2, [r3]
 664:../Drivers/BSP/Components/lis2de12/lis2de12.c ****         break;
 2202              		.loc 1 664 9
 2203 0052 07E0     		b	.L133
 2204              	.L128:
 665:../Drivers/BSP/Components/lis2de12/lis2de12.c ****     case LIS2DE12_AUTORST_ON_INT:
 666:../Drivers/BSP/Components/lis2de12/lis2de12.c ****         *val = LIS2DE12_AUTORST_ON_INT;
 2205              		.loc 1 666 14
 2206 0054 7B68     		ldr	r3, [r7, #4]
 2207 0056 0322     		movs	r2, #3
 2208 0058 1A70     		strb	r2, [r3]
 667:../Drivers/BSP/Components/lis2de12/lis2de12.c ****         break;
 2209              		.loc 1 667 9
 2210 005a 03E0     		b	.L133
 2211              	.L127:
 668:../Drivers/BSP/Components/lis2de12/lis2de12.c ****     default:
 669:../Drivers/BSP/Components/lis2de12/lis2de12.c ****         *val = LIS2DE12_NORMAL_WITH_RST;
 2212              		.loc 1 669 14
 2213 005c 7B68     		ldr	r3, [r7, #4]
 2214 005e 0022     		movs	r2, #0
 2215 0060 1A70     		strb	r2, [r3]
 670:../Drivers/BSP/Components/lis2de12/lis2de12.c ****         break;
 2216              		.loc 1 670 9
 2217 0062 00BF     		nop
 2218              	.L133:
 671:../Drivers/BSP/Components/lis2de12/lis2de12.c ****     }
 672:../Drivers/BSP/Components/lis2de12/lis2de12.c ****     return ret;
 2219              		.loc 1 672 12
 2220 0064 FB68     		ldr	r3, [r7, #12]
 673:../Drivers/BSP/Components/lis2de12/lis2de12.c **** }
 2221              		.loc 1 673 1
 2222 0066 1846     		mov	r0, r3
 2223 0068 1037     		adds	r7, r7, #16
 2224              	.LCFI149:
 2225              		.cfi_def_cfa_offset 8
 2226 006a BD46     		mov	sp, r7
 2227              	.LCFI150:
 2228              		.cfi_def_cfa_register 13
 2229              		@ sp needed
 2230 006c 80BD     		pop	{r7, pc}
 2231              		.cfi_endproc
 2232              	.LFE619:
 2234 006e 00BF     		.section	.text.lis2de12_full_scale_set,"ax",%progbits
 2235              		.align	1
 2236              		.global	lis2de12_full_scale_set
 2237              		.syntax unified
 2238              		.thumb
 2239              		.thumb_func
ARM GAS  /tmp/ccjphgoR.s 			page 51


 2240              		.fpu fpv4-sp-d16
 2242              	lis2de12_full_scale_set:
 2243              	.LFB620:
 674:../Drivers/BSP/Components/lis2de12/lis2de12.c **** 
 675:../Drivers/BSP/Components/lis2de12/lis2de12.c **** /**
 676:../Drivers/BSP/Components/lis2de12/lis2de12.c ****   * @brief  Full-scale configuration.[set]
 677:../Drivers/BSP/Components/lis2de12/lis2de12.c ****   *
 678:../Drivers/BSP/Components/lis2de12/lis2de12.c **** 
 679:../Drivers/BSP/Components/lis2de12/lis2de12.c ****   * @param  val      change the values of fs in reg CTRL_REG4
 680:../Drivers/BSP/Components/lis2de12/lis2de12.c ****   * @retval          interface status (MANDATORY: return 0 -> no Error)
 681:../Drivers/BSP/Components/lis2de12/lis2de12.c ****   *
 682:../Drivers/BSP/Components/lis2de12/lis2de12.c ****   */
 683:../Drivers/BSP/Components/lis2de12/lis2de12.c **** int32_t lis2de12_full_scale_set( lis2de12_fs_t val )
 684:../Drivers/BSP/Components/lis2de12/lis2de12.c **** {
 2244              		.loc 1 684 1
 2245              		.cfi_startproc
 2246              		@ args = 0, pretend = 0, frame = 16
 2247              		@ frame_needed = 1, uses_anonymous_args = 0
 2248 0000 80B5     		push	{r7, lr}
 2249              	.LCFI151:
 2250              		.cfi_def_cfa_offset 8
 2251              		.cfi_offset 7, -8
 2252              		.cfi_offset 14, -4
 2253 0002 84B0     		sub	sp, sp, #16
 2254              	.LCFI152:
 2255              		.cfi_def_cfa_offset 24
 2256 0004 00AF     		add	r7, sp, #0
 2257              	.LCFI153:
 2258              		.cfi_def_cfa_register 7
 2259 0006 0346     		mov	r3, r0
 2260 0008 FB71     		strb	r3, [r7, #7]
 685:../Drivers/BSP/Components/lis2de12/lis2de12.c ****     lis2de12_ctrl_reg4_t ctrl_reg4;
 686:../Drivers/BSP/Components/lis2de12/lis2de12.c ****     int32_t              ret;
 687:../Drivers/BSP/Components/lis2de12/lis2de12.c **** 
 688:../Drivers/BSP/Components/lis2de12/lis2de12.c ****     ret = lis2de12_read_reg( LIS2DE12_CTRL_REG4, ( uint8_t* ) &ctrl_reg4, 1 );
 2261              		.loc 1 688 11
 2262 000a 07F10803 		add	r3, r7, #8
 2263 000e 0122     		movs	r2, #1
 2264 0010 1946     		mov	r1, r3
 2265 0012 2320     		movs	r0, #35
 2266 0014 FFF7FEFF 		bl	lis2de12_read_reg
 2267 0018 F860     		str	r0, [r7, #12]
 689:../Drivers/BSP/Components/lis2de12/lis2de12.c ****     if( ret == 0 )
 2268              		.loc 1 689 7
 2269 001a FB68     		ldr	r3, [r7, #12]
 2270 001c 002B     		cmp	r3, #0
 2271 001e 0FD1     		bne	.L136
 690:../Drivers/BSP/Components/lis2de12/lis2de12.c ****     {
 691:../Drivers/BSP/Components/lis2de12/lis2de12.c ****         ctrl_reg4.fs = ( uint8_t ) val;
 2272              		.loc 1 691 24
 2273 0020 FB79     		ldrb	r3, [r7, #7]
 2274 0022 03F00303 		and	r3, r3, #3
 2275 0026 DAB2     		uxtb	r2, r3
 2276              		.loc 1 691 22
 2277 0028 3B7A     		ldrb	r3, [r7, #8]
 2278 002a 62F30513 		bfi	r3, r2, #4, #2
 2279 002e 3B72     		strb	r3, [r7, #8]
ARM GAS  /tmp/ccjphgoR.s 			page 52


 692:../Drivers/BSP/Components/lis2de12/lis2de12.c ****         ret          = lis2de12_write_reg( LIS2DE12_CTRL_REG4, ( uint8_t* ) &ctrl_reg4, 1 );
 2280              		.loc 1 692 24
 2281 0030 07F10803 		add	r3, r7, #8
 2282 0034 0122     		movs	r2, #1
 2283 0036 1946     		mov	r1, r3
 2284 0038 2320     		movs	r0, #35
 2285 003a FFF7FEFF 		bl	lis2de12_write_reg
 2286 003e F860     		str	r0, [r7, #12]
 2287              	.L136:
 693:../Drivers/BSP/Components/lis2de12/lis2de12.c ****     }
 694:../Drivers/BSP/Components/lis2de12/lis2de12.c ****     return ret;
 2288              		.loc 1 694 12
 2289 0040 FB68     		ldr	r3, [r7, #12]
 695:../Drivers/BSP/Components/lis2de12/lis2de12.c **** }
 2290              		.loc 1 695 1
 2291 0042 1846     		mov	r0, r3
 2292 0044 1037     		adds	r7, r7, #16
 2293              	.LCFI154:
 2294              		.cfi_def_cfa_offset 8
 2295 0046 BD46     		mov	sp, r7
 2296              	.LCFI155:
 2297              		.cfi_def_cfa_register 13
 2298              		@ sp needed
 2299 0048 80BD     		pop	{r7, pc}
 2300              		.cfi_endproc
 2301              	.LFE620:
 2303              		.section	.text.lis2de12_full_scale_get,"ax",%progbits
 2304              		.align	1
 2305              		.global	lis2de12_full_scale_get
 2306              		.syntax unified
 2307              		.thumb
 2308              		.thumb_func
 2309              		.fpu fpv4-sp-d16
 2311              	lis2de12_full_scale_get:
 2312              	.LFB621:
 696:../Drivers/BSP/Components/lis2de12/lis2de12.c **** 
 697:../Drivers/BSP/Components/lis2de12/lis2de12.c **** /**
 698:../Drivers/BSP/Components/lis2de12/lis2de12.c ****   * @brief  Full-scale configuration.[get]
 699:../Drivers/BSP/Components/lis2de12/lis2de12.c ****   *
 700:../Drivers/BSP/Components/lis2de12/lis2de12.c **** 
 701:../Drivers/BSP/Components/lis2de12/lis2de12.c ****   * @param  val      get the values of fs in reg CTRL_REG4
 702:../Drivers/BSP/Components/lis2de12/lis2de12.c ****   * @retval          interface status (MANDATORY: return 0 -> no Error)
 703:../Drivers/BSP/Components/lis2de12/lis2de12.c ****   *
 704:../Drivers/BSP/Components/lis2de12/lis2de12.c ****   */
 705:../Drivers/BSP/Components/lis2de12/lis2de12.c **** int32_t lis2de12_full_scale_get( lis2de12_fs_t* val )
 706:../Drivers/BSP/Components/lis2de12/lis2de12.c **** {
 2313              		.loc 1 706 1
 2314              		.cfi_startproc
 2315              		@ args = 0, pretend = 0, frame = 16
 2316              		@ frame_needed = 1, uses_anonymous_args = 0
 2317 0000 80B5     		push	{r7, lr}
 2318              	.LCFI156:
 2319              		.cfi_def_cfa_offset 8
 2320              		.cfi_offset 7, -8
 2321              		.cfi_offset 14, -4
 2322 0002 84B0     		sub	sp, sp, #16
 2323              	.LCFI157:
ARM GAS  /tmp/ccjphgoR.s 			page 53


 2324              		.cfi_def_cfa_offset 24
 2325 0004 00AF     		add	r7, sp, #0
 2326              	.LCFI158:
 2327              		.cfi_def_cfa_register 7
 2328 0006 7860     		str	r0, [r7, #4]
 707:../Drivers/BSP/Components/lis2de12/lis2de12.c ****     lis2de12_ctrl_reg4_t ctrl_reg4;
 708:../Drivers/BSP/Components/lis2de12/lis2de12.c ****     int32_t              ret;
 709:../Drivers/BSP/Components/lis2de12/lis2de12.c **** 
 710:../Drivers/BSP/Components/lis2de12/lis2de12.c ****     ret = lis2de12_read_reg( LIS2DE12_CTRL_REG4, ( uint8_t* ) &ctrl_reg4, 1 );
 2329              		.loc 1 710 11
 2330 0008 07F10803 		add	r3, r7, #8
 2331 000c 0122     		movs	r2, #1
 2332 000e 1946     		mov	r1, r3
 2333 0010 2320     		movs	r0, #35
 2334 0012 FFF7FEFF 		bl	lis2de12_read_reg
 2335 0016 F860     		str	r0, [r7, #12]
 711:../Drivers/BSP/Components/lis2de12/lis2de12.c ****     switch( ctrl_reg4.fs )
 2336              		.loc 1 711 22
 2337 0018 3B7A     		ldrb	r3, [r7, #8]
 2338 001a C3F30113 		ubfx	r3, r3, #4, #2
 2339 001e DBB2     		uxtb	r3, r3
 2340              		.loc 1 711 5
 2341 0020 032B     		cmp	r3, #3
 2342 0022 1BD8     		bhi	.L139
 2343 0024 01A2     		adr	r2, .L141
 2344 0026 52F823F0 		ldr	pc, [r2, r3, lsl #2]
 2345 002a 00BF     		.p2align 2
 2346              	.L141:
 2347 002c 3D000000 		.word	.L144+1
 2348 0030 45000000 		.word	.L143+1
 2349 0034 4D000000 		.word	.L142+1
 2350 0038 55000000 		.word	.L140+1
 2351              		.p2align 1
 2352              	.L144:
 712:../Drivers/BSP/Components/lis2de12/lis2de12.c ****     {
 713:../Drivers/BSP/Components/lis2de12/lis2de12.c ****     case LIS2DE12_2g:
 714:../Drivers/BSP/Components/lis2de12/lis2de12.c ****         *val = LIS2DE12_2g;
 2353              		.loc 1 714 14
 2354 003c 7B68     		ldr	r3, [r7, #4]
 2355 003e 0022     		movs	r2, #0
 2356 0040 1A70     		strb	r2, [r3]
 715:../Drivers/BSP/Components/lis2de12/lis2de12.c ****         break;
 2357              		.loc 1 715 9
 2358 0042 0FE0     		b	.L145
 2359              	.L143:
 716:../Drivers/BSP/Components/lis2de12/lis2de12.c ****     case LIS2DE12_4g:
 717:../Drivers/BSP/Components/lis2de12/lis2de12.c ****         *val = LIS2DE12_4g;
 2360              		.loc 1 717 14
 2361 0044 7B68     		ldr	r3, [r7, #4]
 2362 0046 0122     		movs	r2, #1
 2363 0048 1A70     		strb	r2, [r3]
 718:../Drivers/BSP/Components/lis2de12/lis2de12.c ****         break;
 2364              		.loc 1 718 9
 2365 004a 0BE0     		b	.L145
 2366              	.L142:
 719:../Drivers/BSP/Components/lis2de12/lis2de12.c ****     case LIS2DE12_8g:
 720:../Drivers/BSP/Components/lis2de12/lis2de12.c ****         *val = LIS2DE12_8g;
ARM GAS  /tmp/ccjphgoR.s 			page 54


 2367              		.loc 1 720 14
 2368 004c 7B68     		ldr	r3, [r7, #4]
 2369 004e 0222     		movs	r2, #2
 2370 0050 1A70     		strb	r2, [r3]
 721:../Drivers/BSP/Components/lis2de12/lis2de12.c ****         break;
 2371              		.loc 1 721 9
 2372 0052 07E0     		b	.L145
 2373              	.L140:
 722:../Drivers/BSP/Components/lis2de12/lis2de12.c ****     case LIS2DE12_16g:
 723:../Drivers/BSP/Components/lis2de12/lis2de12.c ****         *val = LIS2DE12_16g;
 2374              		.loc 1 723 14
 2375 0054 7B68     		ldr	r3, [r7, #4]
 2376 0056 0322     		movs	r2, #3
 2377 0058 1A70     		strb	r2, [r3]
 724:../Drivers/BSP/Components/lis2de12/lis2de12.c ****         break;
 2378              		.loc 1 724 9
 2379 005a 03E0     		b	.L145
 2380              	.L139:
 725:../Drivers/BSP/Components/lis2de12/lis2de12.c ****     default:
 726:../Drivers/BSP/Components/lis2de12/lis2de12.c ****         *val = LIS2DE12_2g;
 2381              		.loc 1 726 14
 2382 005c 7B68     		ldr	r3, [r7, #4]
 2383 005e 0022     		movs	r2, #0
 2384 0060 1A70     		strb	r2, [r3]
 727:../Drivers/BSP/Components/lis2de12/lis2de12.c ****         break;
 2385              		.loc 1 727 9
 2386 0062 00BF     		nop
 2387              	.L145:
 728:../Drivers/BSP/Components/lis2de12/lis2de12.c ****     }
 729:../Drivers/BSP/Components/lis2de12/lis2de12.c ****     return ret;
 2388              		.loc 1 729 12
 2389 0064 FB68     		ldr	r3, [r7, #12]
 730:../Drivers/BSP/Components/lis2de12/lis2de12.c **** }
 2390              		.loc 1 730 1
 2391 0066 1846     		mov	r0, r3
 2392 0068 1037     		adds	r7, r7, #16
 2393              	.LCFI159:
 2394              		.cfi_def_cfa_offset 8
 2395 006a BD46     		mov	sp, r7
 2396              	.LCFI160:
 2397              		.cfi_def_cfa_register 13
 2398              		@ sp needed
 2399 006c 80BD     		pop	{r7, pc}
 2400              		.cfi_endproc
 2401              	.LFE621:
 2403 006e 00BF     		.section	.text.lis2de12_block_data_update_set,"ax",%progbits
 2404              		.align	1
 2405              		.global	lis2de12_block_data_update_set
 2406              		.syntax unified
 2407              		.thumb
 2408              		.thumb_func
 2409              		.fpu fpv4-sp-d16
 2411              	lis2de12_block_data_update_set:
 2412              	.LFB622:
 731:../Drivers/BSP/Components/lis2de12/lis2de12.c **** 
 732:../Drivers/BSP/Components/lis2de12/lis2de12.c **** /**
 733:../Drivers/BSP/Components/lis2de12/lis2de12.c ****   * @brief  Block Data Update.[set]
ARM GAS  /tmp/ccjphgoR.s 			page 55


 734:../Drivers/BSP/Components/lis2de12/lis2de12.c ****   *
 735:../Drivers/BSP/Components/lis2de12/lis2de12.c **** 
 736:../Drivers/BSP/Components/lis2de12/lis2de12.c ****   * @param  val      change the values of bdu in reg CTRL_REG4
 737:../Drivers/BSP/Components/lis2de12/lis2de12.c ****   * @retval          interface status (MANDATORY: return 0 -> no Error)
 738:../Drivers/BSP/Components/lis2de12/lis2de12.c ****   *
 739:../Drivers/BSP/Components/lis2de12/lis2de12.c ****   */
 740:../Drivers/BSP/Components/lis2de12/lis2de12.c **** int32_t lis2de12_block_data_update_set( uint8_t val )
 741:../Drivers/BSP/Components/lis2de12/lis2de12.c **** {
 2413              		.loc 1 741 1
 2414              		.cfi_startproc
 2415              		@ args = 0, pretend = 0, frame = 16
 2416              		@ frame_needed = 1, uses_anonymous_args = 0
 2417 0000 80B5     		push	{r7, lr}
 2418              	.LCFI161:
 2419              		.cfi_def_cfa_offset 8
 2420              		.cfi_offset 7, -8
 2421              		.cfi_offset 14, -4
 2422 0002 84B0     		sub	sp, sp, #16
 2423              	.LCFI162:
 2424              		.cfi_def_cfa_offset 24
 2425 0004 00AF     		add	r7, sp, #0
 2426              	.LCFI163:
 2427              		.cfi_def_cfa_register 7
 2428 0006 0346     		mov	r3, r0
 2429 0008 FB71     		strb	r3, [r7, #7]
 742:../Drivers/BSP/Components/lis2de12/lis2de12.c ****     lis2de12_ctrl_reg4_t ctrl_reg4;
 743:../Drivers/BSP/Components/lis2de12/lis2de12.c ****     int32_t              ret;
 744:../Drivers/BSP/Components/lis2de12/lis2de12.c **** 
 745:../Drivers/BSP/Components/lis2de12/lis2de12.c ****     ret = lis2de12_read_reg( LIS2DE12_CTRL_REG4, ( uint8_t* ) &ctrl_reg4, 1 );
 2430              		.loc 1 745 11
 2431 000a 07F10803 		add	r3, r7, #8
 2432 000e 0122     		movs	r2, #1
 2433 0010 1946     		mov	r1, r3
 2434 0012 2320     		movs	r0, #35
 2435 0014 FFF7FEFF 		bl	lis2de12_read_reg
 2436 0018 F860     		str	r0, [r7, #12]
 746:../Drivers/BSP/Components/lis2de12/lis2de12.c ****     if( ret == 0 )
 2437              		.loc 1 746 7
 2438 001a FB68     		ldr	r3, [r7, #12]
 2439 001c 002B     		cmp	r3, #0
 2440 001e 11D1     		bne	.L148
 747:../Drivers/BSP/Components/lis2de12/lis2de12.c ****     {
 748:../Drivers/BSP/Components/lis2de12/lis2de12.c ****         ctrl_reg4.bdu = !val;
 2441              		.loc 1 748 25
 2442 0020 FB79     		ldrb	r3, [r7, #7]	@ zero_extendqisi2
 2443 0022 002B     		cmp	r3, #0
 2444 0024 0CBF     		ite	eq
 2445 0026 0123     		moveq	r3, #1
 2446 0028 0023     		movne	r3, #0
 2447 002a DAB2     		uxtb	r2, r3
 2448              		.loc 1 748 23
 2449 002c 3B7A     		ldrb	r3, [r7, #8]
 2450 002e 62F3C713 		bfi	r3, r2, #7, #1
 2451 0032 3B72     		strb	r3, [r7, #8]
 749:../Drivers/BSP/Components/lis2de12/lis2de12.c ****         ret           = lis2de12_write_reg( LIS2DE12_CTRL_REG4, ( uint8_t* ) &ctrl_reg4, 1 );
 2452              		.loc 1 749 25
 2453 0034 07F10803 		add	r3, r7, #8
ARM GAS  /tmp/ccjphgoR.s 			page 56


 2454 0038 0122     		movs	r2, #1
 2455 003a 1946     		mov	r1, r3
 2456 003c 2320     		movs	r0, #35
 2457 003e FFF7FEFF 		bl	lis2de12_write_reg
 2458 0042 F860     		str	r0, [r7, #12]
 2459              	.L148:
 750:../Drivers/BSP/Components/lis2de12/lis2de12.c ****     }
 751:../Drivers/BSP/Components/lis2de12/lis2de12.c ****     return ret;
 2460              		.loc 1 751 12
 2461 0044 FB68     		ldr	r3, [r7, #12]
 752:../Drivers/BSP/Components/lis2de12/lis2de12.c **** }
 2462              		.loc 1 752 1
 2463 0046 1846     		mov	r0, r3
 2464 0048 1037     		adds	r7, r7, #16
 2465              	.LCFI164:
 2466              		.cfi_def_cfa_offset 8
 2467 004a BD46     		mov	sp, r7
 2468              	.LCFI165:
 2469              		.cfi_def_cfa_register 13
 2470              		@ sp needed
 2471 004c 80BD     		pop	{r7, pc}
 2472              		.cfi_endproc
 2473              	.LFE622:
 2475              		.section	.text.lis2de12_block_data_update_get,"ax",%progbits
 2476              		.align	1
 2477              		.global	lis2de12_block_data_update_get
 2478              		.syntax unified
 2479              		.thumb
 2480              		.thumb_func
 2481              		.fpu fpv4-sp-d16
 2483              	lis2de12_block_data_update_get:
 2484              	.LFB623:
 753:../Drivers/BSP/Components/lis2de12/lis2de12.c **** 
 754:../Drivers/BSP/Components/lis2de12/lis2de12.c **** /**
 755:../Drivers/BSP/Components/lis2de12/lis2de12.c ****   * @brief  Block Data Update.[get]
 756:../Drivers/BSP/Components/lis2de12/lis2de12.c ****   *
 757:../Drivers/BSP/Components/lis2de12/lis2de12.c **** 
 758:../Drivers/BSP/Components/lis2de12/lis2de12.c ****   * @param  val      change the values of bdu in reg CTRL_REG4
 759:../Drivers/BSP/Components/lis2de12/lis2de12.c ****   * @retval          interface status (MANDATORY: return 0 -> no Error)
 760:../Drivers/BSP/Components/lis2de12/lis2de12.c ****   *
 761:../Drivers/BSP/Components/lis2de12/lis2de12.c ****   */
 762:../Drivers/BSP/Components/lis2de12/lis2de12.c **** int32_t lis2de12_block_data_update_get( uint8_t* val )
 763:../Drivers/BSP/Components/lis2de12/lis2de12.c **** {
 2485              		.loc 1 763 1
 2486              		.cfi_startproc
 2487              		@ args = 0, pretend = 0, frame = 16
 2488              		@ frame_needed = 1, uses_anonymous_args = 0
 2489 0000 80B5     		push	{r7, lr}
 2490              	.LCFI166:
 2491              		.cfi_def_cfa_offset 8
 2492              		.cfi_offset 7, -8
 2493              		.cfi_offset 14, -4
 2494 0002 84B0     		sub	sp, sp, #16
 2495              	.LCFI167:
 2496              		.cfi_def_cfa_offset 24
 2497 0004 00AF     		add	r7, sp, #0
 2498              	.LCFI168:
ARM GAS  /tmp/ccjphgoR.s 			page 57


 2499              		.cfi_def_cfa_register 7
 2500 0006 7860     		str	r0, [r7, #4]
 764:../Drivers/BSP/Components/lis2de12/lis2de12.c ****     lis2de12_ctrl_reg4_t ctrl_reg4;
 765:../Drivers/BSP/Components/lis2de12/lis2de12.c ****     int32_t              ret;
 766:../Drivers/BSP/Components/lis2de12/lis2de12.c **** 
 767:../Drivers/BSP/Components/lis2de12/lis2de12.c ****     ret  = lis2de12_read_reg( LIS2DE12_CTRL_REG4, ( uint8_t* ) &ctrl_reg4, 1 );
 2501              		.loc 1 767 12
 2502 0008 07F10803 		add	r3, r7, #8
 2503 000c 0122     		movs	r2, #1
 2504 000e 1946     		mov	r1, r3
 2505 0010 2320     		movs	r0, #35
 2506 0012 FFF7FEFF 		bl	lis2de12_read_reg
 2507 0016 F860     		str	r0, [r7, #12]
 768:../Drivers/BSP/Components/lis2de12/lis2de12.c ****     *val = ( uint8_t ) ctrl_reg4.bdu;
 2508              		.loc 1 768 33
 2509 0018 3B7A     		ldrb	r3, [r7, #8]
 2510 001a C3F3C013 		ubfx	r3, r3, #7, #1
 2511 001e DBB2     		uxtb	r3, r3
 2512              		.loc 1 768 12
 2513 0020 1A46     		mov	r2, r3
 2514              		.loc 1 768 10
 2515 0022 7B68     		ldr	r3, [r7, #4]
 2516 0024 1A70     		strb	r2, [r3]
 769:../Drivers/BSP/Components/lis2de12/lis2de12.c **** 
 770:../Drivers/BSP/Components/lis2de12/lis2de12.c ****     return ret;
 2517              		.loc 1 770 12
 2518 0026 FB68     		ldr	r3, [r7, #12]
 771:../Drivers/BSP/Components/lis2de12/lis2de12.c **** }
 2519              		.loc 1 771 1
 2520 0028 1846     		mov	r0, r3
 2521 002a 1037     		adds	r7, r7, #16
 2522              	.LCFI169:
 2523              		.cfi_def_cfa_offset 8
 2524 002c BD46     		mov	sp, r7
 2525              	.LCFI170:
 2526              		.cfi_def_cfa_register 13
 2527              		@ sp needed
 2528 002e 80BD     		pop	{r7, pc}
 2529              		.cfi_endproc
 2530              	.LFE623:
 2532              		.section	.text.lis2de12_filter_reference_set,"ax",%progbits
 2533              		.align	1
 2534              		.global	lis2de12_filter_reference_set
 2535              		.syntax unified
 2536              		.thumb
 2537              		.thumb_func
 2538              		.fpu fpv4-sp-d16
 2540              	lis2de12_filter_reference_set:
 2541              	.LFB624:
 772:../Drivers/BSP/Components/lis2de12/lis2de12.c **** 
 773:../Drivers/BSP/Components/lis2de12/lis2de12.c **** /**
 774:../Drivers/BSP/Components/lis2de12/lis2de12.c ****   * @brief  Reference value for interrupt generation.[set]
 775:../Drivers/BSP/Components/lis2de12/lis2de12.c ****   *         LSB = ~16@2g / ~31@4g / ~63@8g / ~127@16g
 776:../Drivers/BSP/Components/lis2de12/lis2de12.c ****   *
 777:../Drivers/BSP/Components/lis2de12/lis2de12.c **** 
 778:../Drivers/BSP/Components/lis2de12/lis2de12.c ****   * @param  buff     buffer that contains data to write
 779:../Drivers/BSP/Components/lis2de12/lis2de12.c ****   * @retval          interface status (MANDATORY: return 0 -> no Error)
ARM GAS  /tmp/ccjphgoR.s 			page 58


 780:../Drivers/BSP/Components/lis2de12/lis2de12.c ****   *
 781:../Drivers/BSP/Components/lis2de12/lis2de12.c ****   */
 782:../Drivers/BSP/Components/lis2de12/lis2de12.c **** int32_t lis2de12_filter_reference_set( uint8_t* buff )
 783:../Drivers/BSP/Components/lis2de12/lis2de12.c **** {
 2542              		.loc 1 783 1
 2543              		.cfi_startproc
 2544              		@ args = 0, pretend = 0, frame = 16
 2545              		@ frame_needed = 1, uses_anonymous_args = 0
 2546 0000 80B5     		push	{r7, lr}
 2547              	.LCFI171:
 2548              		.cfi_def_cfa_offset 8
 2549              		.cfi_offset 7, -8
 2550              		.cfi_offset 14, -4
 2551 0002 84B0     		sub	sp, sp, #16
 2552              	.LCFI172:
 2553              		.cfi_def_cfa_offset 24
 2554 0004 00AF     		add	r7, sp, #0
 2555              	.LCFI173:
 2556              		.cfi_def_cfa_register 7
 2557 0006 7860     		str	r0, [r7, #4]
 784:../Drivers/BSP/Components/lis2de12/lis2de12.c ****     int32_t ret;
 785:../Drivers/BSP/Components/lis2de12/lis2de12.c ****     ret = lis2de12_write_reg( LIS2DE12_REFERENCE, buff, 1 );
 2558              		.loc 1 785 11
 2559 0008 0122     		movs	r2, #1
 2560 000a 7968     		ldr	r1, [r7, #4]
 2561 000c 2620     		movs	r0, #38
 2562 000e FFF7FEFF 		bl	lis2de12_write_reg
 2563 0012 F860     		str	r0, [r7, #12]
 786:../Drivers/BSP/Components/lis2de12/lis2de12.c ****     return ret;
 2564              		.loc 1 786 12
 2565 0014 FB68     		ldr	r3, [r7, #12]
 787:../Drivers/BSP/Components/lis2de12/lis2de12.c **** }
 2566              		.loc 1 787 1
 2567 0016 1846     		mov	r0, r3
 2568 0018 1037     		adds	r7, r7, #16
 2569              	.LCFI174:
 2570              		.cfi_def_cfa_offset 8
 2571 001a BD46     		mov	sp, r7
 2572              	.LCFI175:
 2573              		.cfi_def_cfa_register 13
 2574              		@ sp needed
 2575 001c 80BD     		pop	{r7, pc}
 2576              		.cfi_endproc
 2577              	.LFE624:
 2579              		.section	.text.lis2de12_filter_reference_get,"ax",%progbits
 2580              		.align	1
 2581              		.global	lis2de12_filter_reference_get
 2582              		.syntax unified
 2583              		.thumb
 2584              		.thumb_func
 2585              		.fpu fpv4-sp-d16
 2587              	lis2de12_filter_reference_get:
 2588              	.LFB625:
 788:../Drivers/BSP/Components/lis2de12/lis2de12.c **** 
 789:../Drivers/BSP/Components/lis2de12/lis2de12.c **** /**
 790:../Drivers/BSP/Components/lis2de12/lis2de12.c ****   * @brief  Reference value for interrupt generation.[get]
 791:../Drivers/BSP/Components/lis2de12/lis2de12.c ****   *         LSB = ~16@2g / ~31@4g / ~63@8g / ~127@16g
ARM GAS  /tmp/ccjphgoR.s 			page 59


 792:../Drivers/BSP/Components/lis2de12/lis2de12.c ****   *
 793:../Drivers/BSP/Components/lis2de12/lis2de12.c **** 
 794:../Drivers/BSP/Components/lis2de12/lis2de12.c ****   * @param  buff     buffer that stores data read
 795:../Drivers/BSP/Components/lis2de12/lis2de12.c ****   * @retval          interface status (MANDATORY: return 0 -> no Error)
 796:../Drivers/BSP/Components/lis2de12/lis2de12.c ****   *
 797:../Drivers/BSP/Components/lis2de12/lis2de12.c ****   */
 798:../Drivers/BSP/Components/lis2de12/lis2de12.c **** int32_t lis2de12_filter_reference_get( uint8_t* buff )
 799:../Drivers/BSP/Components/lis2de12/lis2de12.c **** {
 2589              		.loc 1 799 1
 2590              		.cfi_startproc
 2591              		@ args = 0, pretend = 0, frame = 16
 2592              		@ frame_needed = 1, uses_anonymous_args = 0
 2593 0000 80B5     		push	{r7, lr}
 2594              	.LCFI176:
 2595              		.cfi_def_cfa_offset 8
 2596              		.cfi_offset 7, -8
 2597              		.cfi_offset 14, -4
 2598 0002 84B0     		sub	sp, sp, #16
 2599              	.LCFI177:
 2600              		.cfi_def_cfa_offset 24
 2601 0004 00AF     		add	r7, sp, #0
 2602              	.LCFI178:
 2603              		.cfi_def_cfa_register 7
 2604 0006 7860     		str	r0, [r7, #4]
 800:../Drivers/BSP/Components/lis2de12/lis2de12.c ****     int32_t ret;
 801:../Drivers/BSP/Components/lis2de12/lis2de12.c ****     ret = lis2de12_read_reg( LIS2DE12_REFERENCE, buff, 1 );
 2605              		.loc 1 801 11
 2606 0008 0122     		movs	r2, #1
 2607 000a 7968     		ldr	r1, [r7, #4]
 2608 000c 2620     		movs	r0, #38
 2609 000e FFF7FEFF 		bl	lis2de12_read_reg
 2610 0012 F860     		str	r0, [r7, #12]
 802:../Drivers/BSP/Components/lis2de12/lis2de12.c ****     return ret;
 2611              		.loc 1 802 12
 2612 0014 FB68     		ldr	r3, [r7, #12]
 803:../Drivers/BSP/Components/lis2de12/lis2de12.c **** }
 2613              		.loc 1 803 1
 2614 0016 1846     		mov	r0, r3
 2615 0018 1037     		adds	r7, r7, #16
 2616              	.LCFI179:
 2617              		.cfi_def_cfa_offset 8
 2618 001a BD46     		mov	sp, r7
 2619              	.LCFI180:
 2620              		.cfi_def_cfa_register 13
 2621              		@ sp needed
 2622 001c 80BD     		pop	{r7, pc}
 2623              		.cfi_endproc
 2624              	.LFE625:
 2626              		.section	.text.lis2de12_xl_data_ready_get,"ax",%progbits
 2627              		.align	1
 2628              		.global	lis2de12_xl_data_ready_get
 2629              		.syntax unified
 2630              		.thumb
 2631              		.thumb_func
 2632              		.fpu fpv4-sp-d16
 2634              	lis2de12_xl_data_ready_get:
 2635              	.LFB626:
ARM GAS  /tmp/ccjphgoR.s 			page 60


 804:../Drivers/BSP/Components/lis2de12/lis2de12.c **** /**
 805:../Drivers/BSP/Components/lis2de12/lis2de12.c ****   * @brief  Acceleration set of data available.[get]
 806:../Drivers/BSP/Components/lis2de12/lis2de12.c ****   *
 807:../Drivers/BSP/Components/lis2de12/lis2de12.c **** 
 808:../Drivers/BSP/Components/lis2de12/lis2de12.c ****   * @param  val      change the values of zyxda in reg STATUS_REG
 809:../Drivers/BSP/Components/lis2de12/lis2de12.c ****   * @retval          interface status (MANDATORY: return 0 -> no Error)
 810:../Drivers/BSP/Components/lis2de12/lis2de12.c ****   *
 811:../Drivers/BSP/Components/lis2de12/lis2de12.c ****   */
 812:../Drivers/BSP/Components/lis2de12/lis2de12.c **** int32_t lis2de12_xl_data_ready_get( uint8_t* val )
 813:../Drivers/BSP/Components/lis2de12/lis2de12.c **** {
 2636              		.loc 1 813 1
 2637              		.cfi_startproc
 2638              		@ args = 0, pretend = 0, frame = 16
 2639              		@ frame_needed = 1, uses_anonymous_args = 0
 2640 0000 80B5     		push	{r7, lr}
 2641              	.LCFI181:
 2642              		.cfi_def_cfa_offset 8
 2643              		.cfi_offset 7, -8
 2644              		.cfi_offset 14, -4
 2645 0002 84B0     		sub	sp, sp, #16
 2646              	.LCFI182:
 2647              		.cfi_def_cfa_offset 24
 2648 0004 00AF     		add	r7, sp, #0
 2649              	.LCFI183:
 2650              		.cfi_def_cfa_register 7
 2651 0006 7860     		str	r0, [r7, #4]
 814:../Drivers/BSP/Components/lis2de12/lis2de12.c ****     lis2de12_status_reg_t status_reg;
 815:../Drivers/BSP/Components/lis2de12/lis2de12.c ****     int32_t               ret;
 816:../Drivers/BSP/Components/lis2de12/lis2de12.c **** 
 817:../Drivers/BSP/Components/lis2de12/lis2de12.c ****     ret  = lis2de12_read_reg( LIS2DE12_STATUS_REG, ( uint8_t* ) &status_reg, 1 );
 2652              		.loc 1 817 12
 2653 0008 07F10803 		add	r3, r7, #8
 2654 000c 0122     		movs	r2, #1
 2655 000e 1946     		mov	r1, r3
 2656 0010 2720     		movs	r0, #39
 2657 0012 FFF7FEFF 		bl	lis2de12_read_reg
 2658 0016 F860     		str	r0, [r7, #12]
 818:../Drivers/BSP/Components/lis2de12/lis2de12.c ****     *val = status_reg.zyxda;
 2659              		.loc 1 818 22
 2660 0018 3B7A     		ldrb	r3, [r7, #8]
 2661 001a C3F3C003 		ubfx	r3, r3, #3, #1
 2662 001e DBB2     		uxtb	r3, r3
 2663 0020 1A46     		mov	r2, r3
 2664              		.loc 1 818 10
 2665 0022 7B68     		ldr	r3, [r7, #4]
 2666 0024 1A70     		strb	r2, [r3]
 819:../Drivers/BSP/Components/lis2de12/lis2de12.c **** 
 820:../Drivers/BSP/Components/lis2de12/lis2de12.c ****     return ret;
 2667              		.loc 1 820 12
 2668 0026 FB68     		ldr	r3, [r7, #12]
 821:../Drivers/BSP/Components/lis2de12/lis2de12.c **** }
 2669              		.loc 1 821 1
 2670 0028 1846     		mov	r0, r3
 2671 002a 1037     		adds	r7, r7, #16
 2672              	.LCFI184:
 2673              		.cfi_def_cfa_offset 8
 2674 002c BD46     		mov	sp, r7
ARM GAS  /tmp/ccjphgoR.s 			page 61


 2675              	.LCFI185:
 2676              		.cfi_def_cfa_register 13
 2677              		@ sp needed
 2678 002e 80BD     		pop	{r7, pc}
 2679              		.cfi_endproc
 2680              	.LFE626:
 2682              		.section	.text.lis2de12_xl_data_ovr_get,"ax",%progbits
 2683              		.align	1
 2684              		.global	lis2de12_xl_data_ovr_get
 2685              		.syntax unified
 2686              		.thumb
 2687              		.thumb_func
 2688              		.fpu fpv4-sp-d16
 2690              	lis2de12_xl_data_ovr_get:
 2691              	.LFB627:
 822:../Drivers/BSP/Components/lis2de12/lis2de12.c **** /**
 823:../Drivers/BSP/Components/lis2de12/lis2de12.c ****   * @brief  Acceleration set of data overrun.[get]
 824:../Drivers/BSP/Components/lis2de12/lis2de12.c ****   *
 825:../Drivers/BSP/Components/lis2de12/lis2de12.c **** 
 826:../Drivers/BSP/Components/lis2de12/lis2de12.c ****   * @param  val      change the values of zyxor in reg STATUS_REG
 827:../Drivers/BSP/Components/lis2de12/lis2de12.c ****   * @retval          interface status (MANDATORY: return 0 -> no Error)
 828:../Drivers/BSP/Components/lis2de12/lis2de12.c ****   *
 829:../Drivers/BSP/Components/lis2de12/lis2de12.c ****   */
 830:../Drivers/BSP/Components/lis2de12/lis2de12.c **** int32_t lis2de12_xl_data_ovr_get( uint8_t* val )
 831:../Drivers/BSP/Components/lis2de12/lis2de12.c **** {
 2692              		.loc 1 831 1
 2693              		.cfi_startproc
 2694              		@ args = 0, pretend = 0, frame = 16
 2695              		@ frame_needed = 1, uses_anonymous_args = 0
 2696 0000 80B5     		push	{r7, lr}
 2697              	.LCFI186:
 2698              		.cfi_def_cfa_offset 8
 2699              		.cfi_offset 7, -8
 2700              		.cfi_offset 14, -4
 2701 0002 84B0     		sub	sp, sp, #16
 2702              	.LCFI187:
 2703              		.cfi_def_cfa_offset 24
 2704 0004 00AF     		add	r7, sp, #0
 2705              	.LCFI188:
 2706              		.cfi_def_cfa_register 7
 2707 0006 7860     		str	r0, [r7, #4]
 832:../Drivers/BSP/Components/lis2de12/lis2de12.c ****     lis2de12_status_reg_t status_reg;
 833:../Drivers/BSP/Components/lis2de12/lis2de12.c ****     int32_t               ret;
 834:../Drivers/BSP/Components/lis2de12/lis2de12.c **** 
 835:../Drivers/BSP/Components/lis2de12/lis2de12.c ****     ret  = lis2de12_read_reg( LIS2DE12_STATUS_REG, ( uint8_t* ) &status_reg, 1 );
 2708              		.loc 1 835 12
 2709 0008 07F10803 		add	r3, r7, #8
 2710 000c 0122     		movs	r2, #1
 2711 000e 1946     		mov	r1, r3
 2712 0010 2720     		movs	r0, #39
 2713 0012 FFF7FEFF 		bl	lis2de12_read_reg
 2714 0016 F860     		str	r0, [r7, #12]
 836:../Drivers/BSP/Components/lis2de12/lis2de12.c ****     *val = status_reg.zyxor;
 2715              		.loc 1 836 22
 2716 0018 3B7A     		ldrb	r3, [r7, #8]
 2717 001a C3F3C013 		ubfx	r3, r3, #7, #1
 2718 001e DBB2     		uxtb	r3, r3
ARM GAS  /tmp/ccjphgoR.s 			page 62


 2719 0020 1A46     		mov	r2, r3
 2720              		.loc 1 836 10
 2721 0022 7B68     		ldr	r3, [r7, #4]
 2722 0024 1A70     		strb	r2, [r3]
 837:../Drivers/BSP/Components/lis2de12/lis2de12.c **** 
 838:../Drivers/BSP/Components/lis2de12/lis2de12.c ****     return ret;
 2723              		.loc 1 838 12
 2724 0026 FB68     		ldr	r3, [r7, #12]
 839:../Drivers/BSP/Components/lis2de12/lis2de12.c **** }
 2725              		.loc 1 839 1
 2726 0028 1846     		mov	r0, r3
 2727 002a 1037     		adds	r7, r7, #16
 2728              	.LCFI189:
 2729              		.cfi_def_cfa_offset 8
 2730 002c BD46     		mov	sp, r7
 2731              	.LCFI190:
 2732              		.cfi_def_cfa_register 13
 2733              		@ sp needed
 2734 002e 80BD     		pop	{r7, pc}
 2735              		.cfi_endproc
 2736              	.LFE627:
 2738              		.section	.text.lis2de12_acceleration_raw_get,"ax",%progbits
 2739              		.align	1
 2740              		.global	lis2de12_acceleration_raw_get
 2741              		.syntax unified
 2742              		.thumb
 2743              		.thumb_func
 2744              		.fpu fpv4-sp-d16
 2746              	lis2de12_acceleration_raw_get:
 2747              	.LFB628:
 840:../Drivers/BSP/Components/lis2de12/lis2de12.c **** /**
 841:../Drivers/BSP/Components/lis2de12/lis2de12.c ****   * @brief  Acceleration output value.[get]
 842:../Drivers/BSP/Components/lis2de12/lis2de12.c ****   *
 843:../Drivers/BSP/Components/lis2de12/lis2de12.c **** 
 844:../Drivers/BSP/Components/lis2de12/lis2de12.c ****   * @param  buff     buffer that stores data read
 845:../Drivers/BSP/Components/lis2de12/lis2de12.c ****   * @retval          interface status (MANDATORY: return 0 -> no Error)
 846:../Drivers/BSP/Components/lis2de12/lis2de12.c ****   *
 847:../Drivers/BSP/Components/lis2de12/lis2de12.c ****   */
 848:../Drivers/BSP/Components/lis2de12/lis2de12.c **** int32_t lis2de12_acceleration_raw_get( uint8_t* buff )
 849:../Drivers/BSP/Components/lis2de12/lis2de12.c **** {
 2748              		.loc 1 849 1
 2749              		.cfi_startproc
 2750              		@ args = 0, pretend = 0, frame = 16
 2751              		@ frame_needed = 1, uses_anonymous_args = 0
 2752 0000 80B5     		push	{r7, lr}
 2753              	.LCFI191:
 2754              		.cfi_def_cfa_offset 8
 2755              		.cfi_offset 7, -8
 2756              		.cfi_offset 14, -4
 2757 0002 84B0     		sub	sp, sp, #16
 2758              	.LCFI192:
 2759              		.cfi_def_cfa_offset 24
 2760 0004 00AF     		add	r7, sp, #0
 2761              	.LCFI193:
 2762              		.cfi_def_cfa_register 7
 2763 0006 7860     		str	r0, [r7, #4]
 850:../Drivers/BSP/Components/lis2de12/lis2de12.c ****     int32_t ret;
ARM GAS  /tmp/ccjphgoR.s 			page 63


 851:../Drivers/BSP/Components/lis2de12/lis2de12.c ****     ret = lis2de12_read_reg( 0x08 | LIS2DE12_FIFO_READ_START, buff, 6 );
 2764              		.loc 1 851 11
 2765 0008 0622     		movs	r2, #6
 2766 000a 7968     		ldr	r1, [r7, #4]
 2767 000c 2820     		movs	r0, #40
 2768 000e FFF7FEFF 		bl	lis2de12_read_reg
 2769 0012 F860     		str	r0, [r7, #12]
 852:../Drivers/BSP/Components/lis2de12/lis2de12.c ****     return ret;
 2770              		.loc 1 852 12
 2771 0014 FB68     		ldr	r3, [r7, #12]
 853:../Drivers/BSP/Components/lis2de12/lis2de12.c **** }
 2772              		.loc 1 853 1
 2773 0016 1846     		mov	r0, r3
 2774 0018 1037     		adds	r7, r7, #16
 2775              	.LCFI194:
 2776              		.cfi_def_cfa_offset 8
 2777 001a BD46     		mov	sp, r7
 2778              	.LCFI195:
 2779              		.cfi_def_cfa_register 13
 2780              		@ sp needed
 2781 001c 80BD     		pop	{r7, pc}
 2782              		.cfi_endproc
 2783              	.LFE628:
 2785              		.section	.text.lis2de12_acceleration_raw_get_x,"ax",%progbits
 2786              		.align	1
 2787              		.global	lis2de12_acceleration_raw_get_x
 2788              		.syntax unified
 2789              		.thumb
 2790              		.thumb_func
 2791              		.fpu fpv4-sp-d16
 2793              	lis2de12_acceleration_raw_get_x:
 2794              	.LFB629:
 854:../Drivers/BSP/Components/lis2de12/lis2de12.c **** 
 855:../Drivers/BSP/Components/lis2de12/lis2de12.c **** /**
 856:../Drivers/BSP/Components/lis2de12/lis2de12.c ****   * @brief  Acceleration output x value.[get]
 857:../Drivers/BSP/Components/lis2de12/lis2de12.c ****   *
 858:../Drivers/BSP/Components/lis2de12/lis2de12.c **** 
 859:../Drivers/BSP/Components/lis2de12/lis2de12.c ****   * @param  buff     buffer that stores data read
 860:../Drivers/BSP/Components/lis2de12/lis2de12.c ****   * @retval          interface status (MANDATORY: return 0 -> no Error)
 861:../Drivers/BSP/Components/lis2de12/lis2de12.c ****   *
 862:../Drivers/BSP/Components/lis2de12/lis2de12.c ****   */
 863:../Drivers/BSP/Components/lis2de12/lis2de12.c **** int32_t lis2de12_acceleration_raw_get_x( uint8_t* buff )
 864:../Drivers/BSP/Components/lis2de12/lis2de12.c **** {
 2795              		.loc 1 864 1
 2796              		.cfi_startproc
 2797              		@ args = 0, pretend = 0, frame = 16
 2798              		@ frame_needed = 1, uses_anonymous_args = 0
 2799 0000 80B5     		push	{r7, lr}
 2800              	.LCFI196:
 2801              		.cfi_def_cfa_offset 8
 2802              		.cfi_offset 7, -8
 2803              		.cfi_offset 14, -4
 2804 0002 84B0     		sub	sp, sp, #16
 2805              	.LCFI197:
 2806              		.cfi_def_cfa_offset 24
 2807 0004 00AF     		add	r7, sp, #0
 2808              	.LCFI198:
ARM GAS  /tmp/ccjphgoR.s 			page 64


 2809              		.cfi_def_cfa_register 7
 2810 0006 7860     		str	r0, [r7, #4]
 865:../Drivers/BSP/Components/lis2de12/lis2de12.c ****     int32_t ret;
 866:../Drivers/BSP/Components/lis2de12/lis2de12.c ****     ret = lis2de12_read_reg( 0x08 | LIS2DE12_OUT_X_H, buff, 2 );
 2811              		.loc 1 866 11
 2812 0008 0222     		movs	r2, #2
 2813 000a 7968     		ldr	r1, [r7, #4]
 2814 000c 2920     		movs	r0, #41
 2815 000e FFF7FEFF 		bl	lis2de12_read_reg
 2816 0012 F860     		str	r0, [r7, #12]
 867:../Drivers/BSP/Components/lis2de12/lis2de12.c ****     return ret;
 2817              		.loc 1 867 12
 2818 0014 FB68     		ldr	r3, [r7, #12]
 868:../Drivers/BSP/Components/lis2de12/lis2de12.c **** }
 2819              		.loc 1 868 1
 2820 0016 1846     		mov	r0, r3
 2821 0018 1037     		adds	r7, r7, #16
 2822              	.LCFI199:
 2823              		.cfi_def_cfa_offset 8
 2824 001a BD46     		mov	sp, r7
 2825              	.LCFI200:
 2826              		.cfi_def_cfa_register 13
 2827              		@ sp needed
 2828 001c 80BD     		pop	{r7, pc}
 2829              		.cfi_endproc
 2830              	.LFE629:
 2832              		.section	.text.lis2de12_acceleration_raw_get_y,"ax",%progbits
 2833              		.align	1
 2834              		.global	lis2de12_acceleration_raw_get_y
 2835              		.syntax unified
 2836              		.thumb
 2837              		.thumb_func
 2838              		.fpu fpv4-sp-d16
 2840              	lis2de12_acceleration_raw_get_y:
 2841              	.LFB630:
 869:../Drivers/BSP/Components/lis2de12/lis2de12.c **** 
 870:../Drivers/BSP/Components/lis2de12/lis2de12.c **** /**
 871:../Drivers/BSP/Components/lis2de12/lis2de12.c ****   * @brief  Acceleration output y value.[get]
 872:../Drivers/BSP/Components/lis2de12/lis2de12.c ****   *
 873:../Drivers/BSP/Components/lis2de12/lis2de12.c **** 
 874:../Drivers/BSP/Components/lis2de12/lis2de12.c ****   * @param  buff     buffer that stores data read
 875:../Drivers/BSP/Components/lis2de12/lis2de12.c ****   * @retval          interface status (MANDATORY: return 0 -> no Error)
 876:../Drivers/BSP/Components/lis2de12/lis2de12.c ****   *
 877:../Drivers/BSP/Components/lis2de12/lis2de12.c ****   */
 878:../Drivers/BSP/Components/lis2de12/lis2de12.c **** int32_t lis2de12_acceleration_raw_get_y( uint8_t* buff )
 879:../Drivers/BSP/Components/lis2de12/lis2de12.c **** {
 2842              		.loc 1 879 1
 2843              		.cfi_startproc
 2844              		@ args = 0, pretend = 0, frame = 16
 2845              		@ frame_needed = 1, uses_anonymous_args = 0
 2846 0000 80B5     		push	{r7, lr}
 2847              	.LCFI201:
 2848              		.cfi_def_cfa_offset 8
 2849              		.cfi_offset 7, -8
 2850              		.cfi_offset 14, -4
 2851 0002 84B0     		sub	sp, sp, #16
 2852              	.LCFI202:
ARM GAS  /tmp/ccjphgoR.s 			page 65


 2853              		.cfi_def_cfa_offset 24
 2854 0004 00AF     		add	r7, sp, #0
 2855              	.LCFI203:
 2856              		.cfi_def_cfa_register 7
 2857 0006 7860     		str	r0, [r7, #4]
 880:../Drivers/BSP/Components/lis2de12/lis2de12.c ****     int32_t ret;
 881:../Drivers/BSP/Components/lis2de12/lis2de12.c ****     ret = lis2de12_read_reg( 0x08 | LIS2DE12_OUT_Y_H, buff, 2 );
 2858              		.loc 1 881 11
 2859 0008 0222     		movs	r2, #2
 2860 000a 7968     		ldr	r1, [r7, #4]
 2861 000c 2B20     		movs	r0, #43
 2862 000e FFF7FEFF 		bl	lis2de12_read_reg
 2863 0012 F860     		str	r0, [r7, #12]
 882:../Drivers/BSP/Components/lis2de12/lis2de12.c ****     return ret;
 2864              		.loc 1 882 12
 2865 0014 FB68     		ldr	r3, [r7, #12]
 883:../Drivers/BSP/Components/lis2de12/lis2de12.c **** }
 2866              		.loc 1 883 1
 2867 0016 1846     		mov	r0, r3
 2868 0018 1037     		adds	r7, r7, #16
 2869              	.LCFI204:
 2870              		.cfi_def_cfa_offset 8
 2871 001a BD46     		mov	sp, r7
 2872              	.LCFI205:
 2873              		.cfi_def_cfa_register 13
 2874              		@ sp needed
 2875 001c 80BD     		pop	{r7, pc}
 2876              		.cfi_endproc
 2877              	.LFE630:
 2879              		.section	.text.lis2de12_acceleration_raw_get_z,"ax",%progbits
 2880              		.align	1
 2881              		.global	lis2de12_acceleration_raw_get_z
 2882              		.syntax unified
 2883              		.thumb
 2884              		.thumb_func
 2885              		.fpu fpv4-sp-d16
 2887              	lis2de12_acceleration_raw_get_z:
 2888              	.LFB631:
 884:../Drivers/BSP/Components/lis2de12/lis2de12.c **** 
 885:../Drivers/BSP/Components/lis2de12/lis2de12.c **** /**
 886:../Drivers/BSP/Components/lis2de12/lis2de12.c ****   * @brief  Acceleration output z value.[get]
 887:../Drivers/BSP/Components/lis2de12/lis2de12.c ****   *
 888:../Drivers/BSP/Components/lis2de12/lis2de12.c **** 
 889:../Drivers/BSP/Components/lis2de12/lis2de12.c ****   * @param  buff     buffer that stores data read
 890:../Drivers/BSP/Components/lis2de12/lis2de12.c ****   * @retval          interface status (MANDATORY: return 0 -> no Error)
 891:../Drivers/BSP/Components/lis2de12/lis2de12.c ****   *
 892:../Drivers/BSP/Components/lis2de12/lis2de12.c ****   */
 893:../Drivers/BSP/Components/lis2de12/lis2de12.c **** int32_t lis2de12_acceleration_raw_get_z( uint8_t* buff )
 894:../Drivers/BSP/Components/lis2de12/lis2de12.c **** {
 2889              		.loc 1 894 1
 2890              		.cfi_startproc
 2891              		@ args = 0, pretend = 0, frame = 16
 2892              		@ frame_needed = 1, uses_anonymous_args = 0
 2893 0000 80B5     		push	{r7, lr}
 2894              	.LCFI206:
 2895              		.cfi_def_cfa_offset 8
 2896              		.cfi_offset 7, -8
ARM GAS  /tmp/ccjphgoR.s 			page 66


 2897              		.cfi_offset 14, -4
 2898 0002 84B0     		sub	sp, sp, #16
 2899              	.LCFI207:
 2900              		.cfi_def_cfa_offset 24
 2901 0004 00AF     		add	r7, sp, #0
 2902              	.LCFI208:
 2903              		.cfi_def_cfa_register 7
 2904 0006 7860     		str	r0, [r7, #4]
 895:../Drivers/BSP/Components/lis2de12/lis2de12.c ****     int32_t ret;
 896:../Drivers/BSP/Components/lis2de12/lis2de12.c ****     ret = lis2de12_read_reg( 0x08 | LIS2DE12_OUT_Z_H, buff, 2 );
 2905              		.loc 1 896 11
 2906 0008 0222     		movs	r2, #2
 2907 000a 7968     		ldr	r1, [r7, #4]
 2908 000c 2D20     		movs	r0, #45
 2909 000e FFF7FEFF 		bl	lis2de12_read_reg
 2910 0012 F860     		str	r0, [r7, #12]
 897:../Drivers/BSP/Components/lis2de12/lis2de12.c ****     return ret;
 2911              		.loc 1 897 12
 2912 0014 FB68     		ldr	r3, [r7, #12]
 898:../Drivers/BSP/Components/lis2de12/lis2de12.c **** }
 2913              		.loc 1 898 1
 2914 0016 1846     		mov	r0, r3
 2915 0018 1037     		adds	r7, r7, #16
 2916              	.LCFI209:
 2917              		.cfi_def_cfa_offset 8
 2918 001a BD46     		mov	sp, r7
 2919              	.LCFI210:
 2920              		.cfi_def_cfa_register 13
 2921              		@ sp needed
 2922 001c 80BD     		pop	{r7, pc}
 2923              		.cfi_endproc
 2924              	.LFE631:
 2926              		.section	.text.lis2de12_device_id_get,"ax",%progbits
 2927              		.align	1
 2928              		.global	lis2de12_device_id_get
 2929              		.syntax unified
 2930              		.thumb
 2931              		.thumb_func
 2932              		.fpu fpv4-sp-d16
 2934              	lis2de12_device_id_get:
 2935              	.LFB632:
 899:../Drivers/BSP/Components/lis2de12/lis2de12.c **** /**
 900:../Drivers/BSP/Components/lis2de12/lis2de12.c ****  * @}
 901:../Drivers/BSP/Components/lis2de12/lis2de12.c ****  *
 902:../Drivers/BSP/Components/lis2de12/lis2de12.c ****  */
 903:../Drivers/BSP/Components/lis2de12/lis2de12.c **** 
 904:../Drivers/BSP/Components/lis2de12/lis2de12.c **** /**
 905:../Drivers/BSP/Components/lis2de12/lis2de12.c ****  * @defgroup  LIS2DE12_Common
 906:../Drivers/BSP/Components/lis2de12/lis2de12.c ****  * @brief     This section group common usefull functions
 907:../Drivers/BSP/Components/lis2de12/lis2de12.c ****  * @{
 908:../Drivers/BSP/Components/lis2de12/lis2de12.c ****  *
 909:../Drivers/BSP/Components/lis2de12/lis2de12.c ****  */
 910:../Drivers/BSP/Components/lis2de12/lis2de12.c **** 
 911:../Drivers/BSP/Components/lis2de12/lis2de12.c **** /**
 912:../Drivers/BSP/Components/lis2de12/lis2de12.c ****   * @brief  DeviceWhoamI .[get]
 913:../Drivers/BSP/Components/lis2de12/lis2de12.c ****   *
 914:../Drivers/BSP/Components/lis2de12/lis2de12.c **** 
ARM GAS  /tmp/ccjphgoR.s 			page 67


 915:../Drivers/BSP/Components/lis2de12/lis2de12.c ****   * @param  buff     buffer that stores data read
 916:../Drivers/BSP/Components/lis2de12/lis2de12.c ****   * @retval          interface status (MANDATORY: return 0 -> no Error)
 917:../Drivers/BSP/Components/lis2de12/lis2de12.c ****   *
 918:../Drivers/BSP/Components/lis2de12/lis2de12.c ****   */
 919:../Drivers/BSP/Components/lis2de12/lis2de12.c **** int32_t lis2de12_device_id_get( uint8_t* buff )
 920:../Drivers/BSP/Components/lis2de12/lis2de12.c **** {
 2936              		.loc 1 920 1
 2937              		.cfi_startproc
 2938              		@ args = 0, pretend = 0, frame = 16
 2939              		@ frame_needed = 1, uses_anonymous_args = 0
 2940 0000 80B5     		push	{r7, lr}
 2941              	.LCFI211:
 2942              		.cfi_def_cfa_offset 8
 2943              		.cfi_offset 7, -8
 2944              		.cfi_offset 14, -4
 2945 0002 84B0     		sub	sp, sp, #16
 2946              	.LCFI212:
 2947              		.cfi_def_cfa_offset 24
 2948 0004 00AF     		add	r7, sp, #0
 2949              	.LCFI213:
 2950              		.cfi_def_cfa_register 7
 2951 0006 7860     		str	r0, [r7, #4]
 921:../Drivers/BSP/Components/lis2de12/lis2de12.c ****     int32_t ret;
 922:../Drivers/BSP/Components/lis2de12/lis2de12.c ****     ret = lis2de12_read_reg( LIS2DE12_WHO_AM_I, buff, 1 );
 2952              		.loc 1 922 11
 2953 0008 0122     		movs	r2, #1
 2954 000a 7968     		ldr	r1, [r7, #4]
 2955 000c 0F20     		movs	r0, #15
 2956 000e FFF7FEFF 		bl	lis2de12_read_reg
 2957 0012 F860     		str	r0, [r7, #12]
 923:../Drivers/BSP/Components/lis2de12/lis2de12.c ****     return ret;
 2958              		.loc 1 923 12
 2959 0014 FB68     		ldr	r3, [r7, #12]
 924:../Drivers/BSP/Components/lis2de12/lis2de12.c **** }
 2960              		.loc 1 924 1
 2961 0016 1846     		mov	r0, r3
 2962 0018 1037     		adds	r7, r7, #16
 2963              	.LCFI214:
 2964              		.cfi_def_cfa_offset 8
 2965 001a BD46     		mov	sp, r7
 2966              	.LCFI215:
 2967              		.cfi_def_cfa_register 13
 2968              		@ sp needed
 2969 001c 80BD     		pop	{r7, pc}
 2970              		.cfi_endproc
 2971              	.LFE632:
 2973              		.section	.text.lis2de12_self_test_set,"ax",%progbits
 2974              		.align	1
 2975              		.global	lis2de12_self_test_set
 2976              		.syntax unified
 2977              		.thumb
 2978              		.thumb_func
 2979              		.fpu fpv4-sp-d16
 2981              	lis2de12_self_test_set:
 2982              	.LFB633:
 925:../Drivers/BSP/Components/lis2de12/lis2de12.c **** /**
 926:../Drivers/BSP/Components/lis2de12/lis2de12.c ****   * @brief  Self Test.[set]
ARM GAS  /tmp/ccjphgoR.s 			page 68


 927:../Drivers/BSP/Components/lis2de12/lis2de12.c ****   *
 928:../Drivers/BSP/Components/lis2de12/lis2de12.c **** 
 929:../Drivers/BSP/Components/lis2de12/lis2de12.c ****   * @param  val      change the values of st in reg CTRL_REG4
 930:../Drivers/BSP/Components/lis2de12/lis2de12.c ****   * @retval          interface status (MANDATORY: return 0 -> no Error)
 931:../Drivers/BSP/Components/lis2de12/lis2de12.c ****   *
 932:../Drivers/BSP/Components/lis2de12/lis2de12.c ****   */
 933:../Drivers/BSP/Components/lis2de12/lis2de12.c **** int32_t lis2de12_self_test_set( lis2de12_st_t val )
 934:../Drivers/BSP/Components/lis2de12/lis2de12.c **** {
 2983              		.loc 1 934 1
 2984              		.cfi_startproc
 2985              		@ args = 0, pretend = 0, frame = 16
 2986              		@ frame_needed = 1, uses_anonymous_args = 0
 2987 0000 80B5     		push	{r7, lr}
 2988              	.LCFI216:
 2989              		.cfi_def_cfa_offset 8
 2990              		.cfi_offset 7, -8
 2991              		.cfi_offset 14, -4
 2992 0002 84B0     		sub	sp, sp, #16
 2993              	.LCFI217:
 2994              		.cfi_def_cfa_offset 24
 2995 0004 00AF     		add	r7, sp, #0
 2996              	.LCFI218:
 2997              		.cfi_def_cfa_register 7
 2998 0006 0346     		mov	r3, r0
 2999 0008 FB71     		strb	r3, [r7, #7]
 935:../Drivers/BSP/Components/lis2de12/lis2de12.c ****     lis2de12_ctrl_reg4_t ctrl_reg4;
 936:../Drivers/BSP/Components/lis2de12/lis2de12.c ****     int32_t              ret;
 937:../Drivers/BSP/Components/lis2de12/lis2de12.c **** 
 938:../Drivers/BSP/Components/lis2de12/lis2de12.c ****     ret = lis2de12_read_reg( LIS2DE12_CTRL_REG4, ( uint8_t* ) &ctrl_reg4, 1 );
 3000              		.loc 1 938 11
 3001 000a 07F10803 		add	r3, r7, #8
 3002 000e 0122     		movs	r2, #1
 3003 0010 1946     		mov	r1, r3
 3004 0012 2320     		movs	r0, #35
 3005 0014 FFF7FEFF 		bl	lis2de12_read_reg
 3006 0018 F860     		str	r0, [r7, #12]
 939:../Drivers/BSP/Components/lis2de12/lis2de12.c ****     if( ret == 0 )
 3007              		.loc 1 939 7
 3008 001a FB68     		ldr	r3, [r7, #12]
 3009 001c 002B     		cmp	r3, #0
 3010 001e 0FD1     		bne	.L171
 940:../Drivers/BSP/Components/lis2de12/lis2de12.c ****     {
 941:../Drivers/BSP/Components/lis2de12/lis2de12.c ****         ctrl_reg4.st = ( uint8_t ) val;
 3011              		.loc 1 941 24
 3012 0020 FB79     		ldrb	r3, [r7, #7]
 3013 0022 03F00303 		and	r3, r3, #3
 3014 0026 DAB2     		uxtb	r2, r3
 3015              		.loc 1 941 22
 3016 0028 3B7A     		ldrb	r3, [r7, #8]
 3017 002a 62F34203 		bfi	r3, r2, #1, #2
 3018 002e 3B72     		strb	r3, [r7, #8]
 942:../Drivers/BSP/Components/lis2de12/lis2de12.c ****         ret          = lis2de12_write_reg( LIS2DE12_CTRL_REG4, ( uint8_t* ) &ctrl_reg4, 1 );
 3019              		.loc 1 942 24
 3020 0030 07F10803 		add	r3, r7, #8
 3021 0034 0122     		movs	r2, #1
 3022 0036 1946     		mov	r1, r3
 3023 0038 2320     		movs	r0, #35
ARM GAS  /tmp/ccjphgoR.s 			page 69


 3024 003a FFF7FEFF 		bl	lis2de12_write_reg
 3025 003e F860     		str	r0, [r7, #12]
 3026              	.L171:
 943:../Drivers/BSP/Components/lis2de12/lis2de12.c ****     }
 944:../Drivers/BSP/Components/lis2de12/lis2de12.c ****     return ret;
 3027              		.loc 1 944 12
 3028 0040 FB68     		ldr	r3, [r7, #12]
 945:../Drivers/BSP/Components/lis2de12/lis2de12.c **** }
 3029              		.loc 1 945 1
 3030 0042 1846     		mov	r0, r3
 3031 0044 1037     		adds	r7, r7, #16
 3032              	.LCFI219:
 3033              		.cfi_def_cfa_offset 8
 3034 0046 BD46     		mov	sp, r7
 3035              	.LCFI220:
 3036              		.cfi_def_cfa_register 13
 3037              		@ sp needed
 3038 0048 80BD     		pop	{r7, pc}
 3039              		.cfi_endproc
 3040              	.LFE633:
 3042              		.section	.text.lis2de12_self_test_get,"ax",%progbits
 3043              		.align	1
 3044              		.global	lis2de12_self_test_get
 3045              		.syntax unified
 3046              		.thumb
 3047              		.thumb_func
 3048              		.fpu fpv4-sp-d16
 3050              	lis2de12_self_test_get:
 3051              	.LFB634:
 946:../Drivers/BSP/Components/lis2de12/lis2de12.c **** 
 947:../Drivers/BSP/Components/lis2de12/lis2de12.c **** /**
 948:../Drivers/BSP/Components/lis2de12/lis2de12.c ****   * @brief  Self Test.[get]
 949:../Drivers/BSP/Components/lis2de12/lis2de12.c ****   *
 950:../Drivers/BSP/Components/lis2de12/lis2de12.c **** 
 951:../Drivers/BSP/Components/lis2de12/lis2de12.c ****   * @param  val      Get the values of st in reg CTRL_REG4
 952:../Drivers/BSP/Components/lis2de12/lis2de12.c ****   * @retval          interface status (MANDATORY: return 0 -> no Error)
 953:../Drivers/BSP/Components/lis2de12/lis2de12.c ****   *
 954:../Drivers/BSP/Components/lis2de12/lis2de12.c ****   */
 955:../Drivers/BSP/Components/lis2de12/lis2de12.c **** int32_t lis2de12_self_test_get( lis2de12_st_t* val )
 956:../Drivers/BSP/Components/lis2de12/lis2de12.c **** {
 3052              		.loc 1 956 1
 3053              		.cfi_startproc
 3054              		@ args = 0, pretend = 0, frame = 16
 3055              		@ frame_needed = 1, uses_anonymous_args = 0
 3056 0000 80B5     		push	{r7, lr}
 3057              	.LCFI221:
 3058              		.cfi_def_cfa_offset 8
 3059              		.cfi_offset 7, -8
 3060              		.cfi_offset 14, -4
 3061 0002 84B0     		sub	sp, sp, #16
 3062              	.LCFI222:
 3063              		.cfi_def_cfa_offset 24
 3064 0004 00AF     		add	r7, sp, #0
 3065              	.LCFI223:
 3066              		.cfi_def_cfa_register 7
 3067 0006 7860     		str	r0, [r7, #4]
 957:../Drivers/BSP/Components/lis2de12/lis2de12.c ****     lis2de12_ctrl_reg4_t ctrl_reg4;
ARM GAS  /tmp/ccjphgoR.s 			page 70


 958:../Drivers/BSP/Components/lis2de12/lis2de12.c ****     int32_t              ret;
 959:../Drivers/BSP/Components/lis2de12/lis2de12.c **** 
 960:../Drivers/BSP/Components/lis2de12/lis2de12.c ****     ret = lis2de12_read_reg( LIS2DE12_CTRL_REG4, ( uint8_t* ) &ctrl_reg4, 1 );
 3068              		.loc 1 960 11
 3069 0008 07F10803 		add	r3, r7, #8
 3070 000c 0122     		movs	r2, #1
 3071 000e 1946     		mov	r1, r3
 3072 0010 2320     		movs	r0, #35
 3073 0012 FFF7FEFF 		bl	lis2de12_read_reg
 3074 0016 F860     		str	r0, [r7, #12]
 961:../Drivers/BSP/Components/lis2de12/lis2de12.c ****     switch( ctrl_reg4.st )
 3075              		.loc 1 961 22
 3076 0018 3B7A     		ldrb	r3, [r7, #8]
 3077 001a C3F34103 		ubfx	r3, r3, #1, #2
 3078 001e DBB2     		uxtb	r3, r3
 3079              		.loc 1 961 5
 3080 0020 022B     		cmp	r3, #2
 3081 0022 0ED0     		beq	.L174
 3082 0024 022B     		cmp	r3, #2
 3083 0026 10DC     		bgt	.L175
 3084 0028 002B     		cmp	r3, #0
 3085 002a 02D0     		beq	.L176
 3086 002c 012B     		cmp	r3, #1
 3087 002e 04D0     		beq	.L177
 3088 0030 0BE0     		b	.L175
 3089              	.L176:
 962:../Drivers/BSP/Components/lis2de12/lis2de12.c ****     {
 963:../Drivers/BSP/Components/lis2de12/lis2de12.c ****     case LIS2DE12_ST_DISABLE:
 964:../Drivers/BSP/Components/lis2de12/lis2de12.c ****         *val = LIS2DE12_ST_DISABLE;
 3090              		.loc 1 964 14
 3091 0032 7B68     		ldr	r3, [r7, #4]
 3092 0034 0022     		movs	r2, #0
 3093 0036 1A70     		strb	r2, [r3]
 965:../Drivers/BSP/Components/lis2de12/lis2de12.c ****         break;
 3094              		.loc 1 965 9
 3095 0038 0BE0     		b	.L178
 3096              	.L177:
 966:../Drivers/BSP/Components/lis2de12/lis2de12.c ****     case LIS2DE12_ST_POSITIVE:
 967:../Drivers/BSP/Components/lis2de12/lis2de12.c ****         *val = LIS2DE12_ST_POSITIVE;
 3097              		.loc 1 967 14
 3098 003a 7B68     		ldr	r3, [r7, #4]
 3099 003c 0122     		movs	r2, #1
 3100 003e 1A70     		strb	r2, [r3]
 968:../Drivers/BSP/Components/lis2de12/lis2de12.c ****         break;
 3101              		.loc 1 968 9
 3102 0040 07E0     		b	.L178
 3103              	.L174:
 969:../Drivers/BSP/Components/lis2de12/lis2de12.c ****     case LIS2DE12_ST_NEGATIVE:
 970:../Drivers/BSP/Components/lis2de12/lis2de12.c ****         *val = LIS2DE12_ST_NEGATIVE;
 3104              		.loc 1 970 14
 3105 0042 7B68     		ldr	r3, [r7, #4]
 3106 0044 0222     		movs	r2, #2
 3107 0046 1A70     		strb	r2, [r3]
 971:../Drivers/BSP/Components/lis2de12/lis2de12.c ****         break;
 3108              		.loc 1 971 9
 3109 0048 03E0     		b	.L178
 3110              	.L175:
ARM GAS  /tmp/ccjphgoR.s 			page 71


 972:../Drivers/BSP/Components/lis2de12/lis2de12.c ****     default:
 973:../Drivers/BSP/Components/lis2de12/lis2de12.c ****         *val = LIS2DE12_ST_DISABLE;
 3111              		.loc 1 973 14
 3112 004a 7B68     		ldr	r3, [r7, #4]
 3113 004c 0022     		movs	r2, #0
 3114 004e 1A70     		strb	r2, [r3]
 974:../Drivers/BSP/Components/lis2de12/lis2de12.c ****         break;
 3115              		.loc 1 974 9
 3116 0050 00BF     		nop
 3117              	.L178:
 975:../Drivers/BSP/Components/lis2de12/lis2de12.c ****     }
 976:../Drivers/BSP/Components/lis2de12/lis2de12.c ****     return ret;
 3118              		.loc 1 976 12
 3119 0052 FB68     		ldr	r3, [r7, #12]
 977:../Drivers/BSP/Components/lis2de12/lis2de12.c **** }
 3120              		.loc 1 977 1
 3121 0054 1846     		mov	r0, r3
 3122 0056 1037     		adds	r7, r7, #16
 3123              	.LCFI224:
 3124              		.cfi_def_cfa_offset 8
 3125 0058 BD46     		mov	sp, r7
 3126              	.LCFI225:
 3127              		.cfi_def_cfa_register 13
 3128              		@ sp needed
 3129 005a 80BD     		pop	{r7, pc}
 3130              		.cfi_endproc
 3131              	.LFE634:
 3133              		.section	.text.lis2de12_boot_set,"ax",%progbits
 3134              		.align	1
 3135              		.global	lis2de12_boot_set
 3136              		.syntax unified
 3137              		.thumb
 3138              		.thumb_func
 3139              		.fpu fpv4-sp-d16
 3141              	lis2de12_boot_set:
 3142              	.LFB635:
 978:../Drivers/BSP/Components/lis2de12/lis2de12.c **** 
 979:../Drivers/BSP/Components/lis2de12/lis2de12.c **** /**
 980:../Drivers/BSP/Components/lis2de12/lis2de12.c ****   * @brief  Reboot memory content. Reload the calibration parameters.[set]
 981:../Drivers/BSP/Components/lis2de12/lis2de12.c ****   *
 982:../Drivers/BSP/Components/lis2de12/lis2de12.c **** 
 983:../Drivers/BSP/Components/lis2de12/lis2de12.c ****   * @param  val      change the values of boot in reg CTRL_REG5
 984:../Drivers/BSP/Components/lis2de12/lis2de12.c ****   * @retval          interface status (MANDATORY: return 0 -> no Error)
 985:../Drivers/BSP/Components/lis2de12/lis2de12.c ****   *
 986:../Drivers/BSP/Components/lis2de12/lis2de12.c ****   */
 987:../Drivers/BSP/Components/lis2de12/lis2de12.c **** int32_t lis2de12_boot_set( uint8_t val )
 988:../Drivers/BSP/Components/lis2de12/lis2de12.c **** {
 3143              		.loc 1 988 1
 3144              		.cfi_startproc
 3145              		@ args = 0, pretend = 0, frame = 16
 3146              		@ frame_needed = 1, uses_anonymous_args = 0
 3147 0000 80B5     		push	{r7, lr}
 3148              	.LCFI226:
 3149              		.cfi_def_cfa_offset 8
 3150              		.cfi_offset 7, -8
 3151              		.cfi_offset 14, -4
 3152 0002 84B0     		sub	sp, sp, #16
ARM GAS  /tmp/ccjphgoR.s 			page 72


 3153              	.LCFI227:
 3154              		.cfi_def_cfa_offset 24
 3155 0004 00AF     		add	r7, sp, #0
 3156              	.LCFI228:
 3157              		.cfi_def_cfa_register 7
 3158 0006 0346     		mov	r3, r0
 3159 0008 FB71     		strb	r3, [r7, #7]
 989:../Drivers/BSP/Components/lis2de12/lis2de12.c ****     lis2de12_ctrl_reg5_t ctrl_reg5;
 990:../Drivers/BSP/Components/lis2de12/lis2de12.c ****     int32_t              ret;
 991:../Drivers/BSP/Components/lis2de12/lis2de12.c **** 
 992:../Drivers/BSP/Components/lis2de12/lis2de12.c ****     ret = lis2de12_read_reg( LIS2DE12_CTRL_REG5, ( uint8_t* ) &ctrl_reg5, 1 );
 3160              		.loc 1 992 11
 3161 000a 07F10803 		add	r3, r7, #8
 3162 000e 0122     		movs	r2, #1
 3163 0010 1946     		mov	r1, r3
 3164 0012 2420     		movs	r0, #36
 3165 0014 FFF7FEFF 		bl	lis2de12_read_reg
 3166 0018 F860     		str	r0, [r7, #12]
 993:../Drivers/BSP/Components/lis2de12/lis2de12.c ****     if( ret == 0 )
 3167              		.loc 1 993 7
 3168 001a FB68     		ldr	r3, [r7, #12]
 3169 001c 002B     		cmp	r3, #0
 3170 001e 0FD1     		bne	.L181
 994:../Drivers/BSP/Components/lis2de12/lis2de12.c ****     {
 995:../Drivers/BSP/Components/lis2de12/lis2de12.c ****         ctrl_reg5.boot = val;
 3171              		.loc 1 995 24
 3172 0020 FB79     		ldrb	r3, [r7, #7]
 3173 0022 03F00103 		and	r3, r3, #1
 3174 0026 DAB2     		uxtb	r2, r3
 3175 0028 3B7A     		ldrb	r3, [r7, #8]
 3176 002a 62F3C713 		bfi	r3, r2, #7, #1
 3177 002e 3B72     		strb	r3, [r7, #8]
 996:../Drivers/BSP/Components/lis2de12/lis2de12.c ****         ret            = lis2de12_write_reg( LIS2DE12_CTRL_REG5, ( uint8_t* ) &ctrl_reg5, 1 );
 3178              		.loc 1 996 26
 3179 0030 07F10803 		add	r3, r7, #8
 3180 0034 0122     		movs	r2, #1
 3181 0036 1946     		mov	r1, r3
 3182 0038 2420     		movs	r0, #36
 3183 003a FFF7FEFF 		bl	lis2de12_write_reg
 3184 003e F860     		str	r0, [r7, #12]
 3185              	.L181:
 997:../Drivers/BSP/Components/lis2de12/lis2de12.c ****     }
 998:../Drivers/BSP/Components/lis2de12/lis2de12.c ****     return ret;
 3186              		.loc 1 998 12
 3187 0040 FB68     		ldr	r3, [r7, #12]
 999:../Drivers/BSP/Components/lis2de12/lis2de12.c **** }
 3188              		.loc 1 999 1
 3189 0042 1846     		mov	r0, r3
 3190 0044 1037     		adds	r7, r7, #16
 3191              	.LCFI229:
 3192              		.cfi_def_cfa_offset 8
 3193 0046 BD46     		mov	sp, r7
 3194              	.LCFI230:
 3195              		.cfi_def_cfa_register 13
 3196              		@ sp needed
 3197 0048 80BD     		pop	{r7, pc}
 3198              		.cfi_endproc
ARM GAS  /tmp/ccjphgoR.s 			page 73


 3199              	.LFE635:
 3201              		.section	.text.lis2de12_boot_get,"ax",%progbits
 3202              		.align	1
 3203              		.global	lis2de12_boot_get
 3204              		.syntax unified
 3205              		.thumb
 3206              		.thumb_func
 3207              		.fpu fpv4-sp-d16
 3209              	lis2de12_boot_get:
 3210              	.LFB636:
1000:../Drivers/BSP/Components/lis2de12/lis2de12.c **** 
1001:../Drivers/BSP/Components/lis2de12/lis2de12.c **** /**
1002:../Drivers/BSP/Components/lis2de12/lis2de12.c ****   * @brief  Reboot memory content. Reload the calibration parameters.[get]
1003:../Drivers/BSP/Components/lis2de12/lis2de12.c ****   *
1004:../Drivers/BSP/Components/lis2de12/lis2de12.c **** 
1005:../Drivers/BSP/Components/lis2de12/lis2de12.c ****   * @param  val      change the values of boot in reg CTRL_REG5
1006:../Drivers/BSP/Components/lis2de12/lis2de12.c ****   * @retval          interface status (MANDATORY: return 0 -> no Error)
1007:../Drivers/BSP/Components/lis2de12/lis2de12.c ****   *
1008:../Drivers/BSP/Components/lis2de12/lis2de12.c ****   */
1009:../Drivers/BSP/Components/lis2de12/lis2de12.c **** int32_t lis2de12_boot_get( uint8_t* val )
1010:../Drivers/BSP/Components/lis2de12/lis2de12.c **** {
 3211              		.loc 1 1010 1
 3212              		.cfi_startproc
 3213              		@ args = 0, pretend = 0, frame = 16
 3214              		@ frame_needed = 1, uses_anonymous_args = 0
 3215 0000 80B5     		push	{r7, lr}
 3216              	.LCFI231:
 3217              		.cfi_def_cfa_offset 8
 3218              		.cfi_offset 7, -8
 3219              		.cfi_offset 14, -4
 3220 0002 84B0     		sub	sp, sp, #16
 3221              	.LCFI232:
 3222              		.cfi_def_cfa_offset 24
 3223 0004 00AF     		add	r7, sp, #0
 3224              	.LCFI233:
 3225              		.cfi_def_cfa_register 7
 3226 0006 7860     		str	r0, [r7, #4]
1011:../Drivers/BSP/Components/lis2de12/lis2de12.c ****     lis2de12_ctrl_reg5_t ctrl_reg5;
1012:../Drivers/BSP/Components/lis2de12/lis2de12.c ****     int32_t              ret;
1013:../Drivers/BSP/Components/lis2de12/lis2de12.c **** 
1014:../Drivers/BSP/Components/lis2de12/lis2de12.c ****     ret  = lis2de12_read_reg( LIS2DE12_CTRL_REG5, ( uint8_t* ) &ctrl_reg5, 1 );
 3227              		.loc 1 1014 12
 3228 0008 07F10803 		add	r3, r7, #8
 3229 000c 0122     		movs	r2, #1
 3230 000e 1946     		mov	r1, r3
 3231 0010 2420     		movs	r0, #36
 3232 0012 FFF7FEFF 		bl	lis2de12_read_reg
 3233 0016 F860     		str	r0, [r7, #12]
1015:../Drivers/BSP/Components/lis2de12/lis2de12.c ****     *val = ( uint8_t ) ctrl_reg5.boot;
 3234              		.loc 1 1015 33
 3235 0018 3B7A     		ldrb	r3, [r7, #8]
 3236 001a C3F3C013 		ubfx	r3, r3, #7, #1
 3237 001e DBB2     		uxtb	r3, r3
 3238              		.loc 1 1015 12
 3239 0020 1A46     		mov	r2, r3
 3240              		.loc 1 1015 10
 3241 0022 7B68     		ldr	r3, [r7, #4]
ARM GAS  /tmp/ccjphgoR.s 			page 74


 3242 0024 1A70     		strb	r2, [r3]
1016:../Drivers/BSP/Components/lis2de12/lis2de12.c **** 
1017:../Drivers/BSP/Components/lis2de12/lis2de12.c ****     return ret;
 3243              		.loc 1 1017 12
 3244 0026 FB68     		ldr	r3, [r7, #12]
1018:../Drivers/BSP/Components/lis2de12/lis2de12.c **** }
 3245              		.loc 1 1018 1
 3246 0028 1846     		mov	r0, r3
 3247 002a 1037     		adds	r7, r7, #16
 3248              	.LCFI234:
 3249              		.cfi_def_cfa_offset 8
 3250 002c BD46     		mov	sp, r7
 3251              	.LCFI235:
 3252              		.cfi_def_cfa_register 13
 3253              		@ sp needed
 3254 002e 80BD     		pop	{r7, pc}
 3255              		.cfi_endproc
 3256              	.LFE636:
 3258              		.section	.text.lis2de12_status_get,"ax",%progbits
 3259              		.align	1
 3260              		.global	lis2de12_status_get
 3261              		.syntax unified
 3262              		.thumb
 3263              		.thumb_func
 3264              		.fpu fpv4-sp-d16
 3266              	lis2de12_status_get:
 3267              	.LFB637:
1019:../Drivers/BSP/Components/lis2de12/lis2de12.c **** 
1020:../Drivers/BSP/Components/lis2de12/lis2de12.c **** /**
1021:../Drivers/BSP/Components/lis2de12/lis2de12.c ****   * @brief  Info about device status.[get]
1022:../Drivers/BSP/Components/lis2de12/lis2de12.c ****   *
1023:../Drivers/BSP/Components/lis2de12/lis2de12.c **** 
1024:../Drivers/BSP/Components/lis2de12/lis2de12.c ****   * @param  val      register STATUS_REG
1025:../Drivers/BSP/Components/lis2de12/lis2de12.c ****   * @retval          interface status (MANDATORY: return 0 -> no Error)
1026:../Drivers/BSP/Components/lis2de12/lis2de12.c ****   *
1027:../Drivers/BSP/Components/lis2de12/lis2de12.c ****   */
1028:../Drivers/BSP/Components/lis2de12/lis2de12.c **** int32_t lis2de12_status_get( lis2de12_status_reg_t* val )
1029:../Drivers/BSP/Components/lis2de12/lis2de12.c **** {
 3268              		.loc 1 1029 1
 3269              		.cfi_startproc
 3270              		@ args = 0, pretend = 0, frame = 16
 3271              		@ frame_needed = 1, uses_anonymous_args = 0
 3272 0000 80B5     		push	{r7, lr}
 3273              	.LCFI236:
 3274              		.cfi_def_cfa_offset 8
 3275              		.cfi_offset 7, -8
 3276              		.cfi_offset 14, -4
 3277 0002 84B0     		sub	sp, sp, #16
 3278              	.LCFI237:
 3279              		.cfi_def_cfa_offset 24
 3280 0004 00AF     		add	r7, sp, #0
 3281              	.LCFI238:
 3282              		.cfi_def_cfa_register 7
 3283 0006 7860     		str	r0, [r7, #4]
1030:../Drivers/BSP/Components/lis2de12/lis2de12.c ****     int32_t ret;
1031:../Drivers/BSP/Components/lis2de12/lis2de12.c ****     ret = lis2de12_read_reg( LIS2DE12_STATUS_REG, ( uint8_t* ) val, 1 );
 3284              		.loc 1 1031 11
ARM GAS  /tmp/ccjphgoR.s 			page 75


 3285 0008 0122     		movs	r2, #1
 3286 000a 7968     		ldr	r1, [r7, #4]
 3287 000c 2720     		movs	r0, #39
 3288 000e FFF7FEFF 		bl	lis2de12_read_reg
 3289 0012 F860     		str	r0, [r7, #12]
1032:../Drivers/BSP/Components/lis2de12/lis2de12.c ****     return ret;
 3290              		.loc 1 1032 12
 3291 0014 FB68     		ldr	r3, [r7, #12]
1033:../Drivers/BSP/Components/lis2de12/lis2de12.c **** }
 3292              		.loc 1 1033 1
 3293 0016 1846     		mov	r0, r3
 3294 0018 1037     		adds	r7, r7, #16
 3295              	.LCFI239:
 3296              		.cfi_def_cfa_offset 8
 3297 001a BD46     		mov	sp, r7
 3298              	.LCFI240:
 3299              		.cfi_def_cfa_register 13
 3300              		@ sp needed
 3301 001c 80BD     		pop	{r7, pc}
 3302              		.cfi_endproc
 3303              	.LFE637:
 3305              		.section	.text.lis2de12_int1_gen_conf_set,"ax",%progbits
 3306              		.align	1
 3307              		.global	lis2de12_int1_gen_conf_set
 3308              		.syntax unified
 3309              		.thumb
 3310              		.thumb_func
 3311              		.fpu fpv4-sp-d16
 3313              	lis2de12_int1_gen_conf_set:
 3314              	.LFB638:
1034:../Drivers/BSP/Components/lis2de12/lis2de12.c **** /**
1035:../Drivers/BSP/Components/lis2de12/lis2de12.c ****  * @}
1036:../Drivers/BSP/Components/lis2de12/lis2de12.c ****  *
1037:../Drivers/BSP/Components/lis2de12/lis2de12.c ****  */
1038:../Drivers/BSP/Components/lis2de12/lis2de12.c **** 
1039:../Drivers/BSP/Components/lis2de12/lis2de12.c **** /**
1040:../Drivers/BSP/Components/lis2de12/lis2de12.c ****  * @defgroup   LIS2DE12_Interrupts_generator_1
1041:../Drivers/BSP/Components/lis2de12/lis2de12.c ****  * @brief      This section group all the functions that manage the first
1042:../Drivers/BSP/Components/lis2de12/lis2de12.c ****  *             interrupts generator
1043:../Drivers/BSP/Components/lis2de12/lis2de12.c ****  * @{
1044:../Drivers/BSP/Components/lis2de12/lis2de12.c ****  *
1045:../Drivers/BSP/Components/lis2de12/lis2de12.c ****  */
1046:../Drivers/BSP/Components/lis2de12/lis2de12.c **** 
1047:../Drivers/BSP/Components/lis2de12/lis2de12.c **** /**
1048:../Drivers/BSP/Components/lis2de12/lis2de12.c ****   * @brief  Interrupt generator 1 configuration register.[set]
1049:../Drivers/BSP/Components/lis2de12/lis2de12.c ****   *
1050:../Drivers/BSP/Components/lis2de12/lis2de12.c **** 
1051:../Drivers/BSP/Components/lis2de12/lis2de12.c ****   * @param  val      register INT1_CFG
1052:../Drivers/BSP/Components/lis2de12/lis2de12.c ****   * @retval          interface status (MANDATORY: return 0 -> no Error)
1053:../Drivers/BSP/Components/lis2de12/lis2de12.c ****   *
1054:../Drivers/BSP/Components/lis2de12/lis2de12.c ****   */
1055:../Drivers/BSP/Components/lis2de12/lis2de12.c **** int32_t lis2de12_int1_gen_conf_set( lis2de12_int1_cfg_t* val )
1056:../Drivers/BSP/Components/lis2de12/lis2de12.c **** {
 3315              		.loc 1 1056 1
 3316              		.cfi_startproc
 3317              		@ args = 0, pretend = 0, frame = 16
 3318              		@ frame_needed = 1, uses_anonymous_args = 0
ARM GAS  /tmp/ccjphgoR.s 			page 76


 3319 0000 80B5     		push	{r7, lr}
 3320              	.LCFI241:
 3321              		.cfi_def_cfa_offset 8
 3322              		.cfi_offset 7, -8
 3323              		.cfi_offset 14, -4
 3324 0002 84B0     		sub	sp, sp, #16
 3325              	.LCFI242:
 3326              		.cfi_def_cfa_offset 24
 3327 0004 00AF     		add	r7, sp, #0
 3328              	.LCFI243:
 3329              		.cfi_def_cfa_register 7
 3330 0006 7860     		str	r0, [r7, #4]
1057:../Drivers/BSP/Components/lis2de12/lis2de12.c ****     int32_t ret;
1058:../Drivers/BSP/Components/lis2de12/lis2de12.c ****     ret = lis2de12_write_reg( LIS2DE12_INT1_CFG, ( uint8_t* ) val, 1 );
 3331              		.loc 1 1058 11
 3332 0008 0122     		movs	r2, #1
 3333 000a 7968     		ldr	r1, [r7, #4]
 3334 000c 3020     		movs	r0, #48
 3335 000e FFF7FEFF 		bl	lis2de12_write_reg
 3336 0012 F860     		str	r0, [r7, #12]
1059:../Drivers/BSP/Components/lis2de12/lis2de12.c ****     return ret;
 3337              		.loc 1 1059 12
 3338 0014 FB68     		ldr	r3, [r7, #12]
1060:../Drivers/BSP/Components/lis2de12/lis2de12.c **** }
 3339              		.loc 1 1060 1
 3340 0016 1846     		mov	r0, r3
 3341 0018 1037     		adds	r7, r7, #16
 3342              	.LCFI244:
 3343              		.cfi_def_cfa_offset 8
 3344 001a BD46     		mov	sp, r7
 3345              	.LCFI245:
 3346              		.cfi_def_cfa_register 13
 3347              		@ sp needed
 3348 001c 80BD     		pop	{r7, pc}
 3349              		.cfi_endproc
 3350              	.LFE638:
 3352              		.section	.text.lis2de12_int1_gen_conf_get,"ax",%progbits
 3353              		.align	1
 3354              		.global	lis2de12_int1_gen_conf_get
 3355              		.syntax unified
 3356              		.thumb
 3357              		.thumb_func
 3358              		.fpu fpv4-sp-d16
 3360              	lis2de12_int1_gen_conf_get:
 3361              	.LFB639:
1061:../Drivers/BSP/Components/lis2de12/lis2de12.c **** 
1062:../Drivers/BSP/Components/lis2de12/lis2de12.c **** /**
1063:../Drivers/BSP/Components/lis2de12/lis2de12.c ****   * @brief  Interrupt generator 1 configuration register.[get]
1064:../Drivers/BSP/Components/lis2de12/lis2de12.c ****   *
1065:../Drivers/BSP/Components/lis2de12/lis2de12.c **** 
1066:../Drivers/BSP/Components/lis2de12/lis2de12.c ****   * @param  val      register INT1_CFG
1067:../Drivers/BSP/Components/lis2de12/lis2de12.c ****   * @retval          interface status (MANDATORY: return 0 -> no Error)
1068:../Drivers/BSP/Components/lis2de12/lis2de12.c ****   *
1069:../Drivers/BSP/Components/lis2de12/lis2de12.c ****   */
1070:../Drivers/BSP/Components/lis2de12/lis2de12.c **** int32_t lis2de12_int1_gen_conf_get( lis2de12_int1_cfg_t* val )
1071:../Drivers/BSP/Components/lis2de12/lis2de12.c **** {
 3362              		.loc 1 1071 1
ARM GAS  /tmp/ccjphgoR.s 			page 77


 3363              		.cfi_startproc
 3364              		@ args = 0, pretend = 0, frame = 16
 3365              		@ frame_needed = 1, uses_anonymous_args = 0
 3366 0000 80B5     		push	{r7, lr}
 3367              	.LCFI246:
 3368              		.cfi_def_cfa_offset 8
 3369              		.cfi_offset 7, -8
 3370              		.cfi_offset 14, -4
 3371 0002 84B0     		sub	sp, sp, #16
 3372              	.LCFI247:
 3373              		.cfi_def_cfa_offset 24
 3374 0004 00AF     		add	r7, sp, #0
 3375              	.LCFI248:
 3376              		.cfi_def_cfa_register 7
 3377 0006 7860     		str	r0, [r7, #4]
1072:../Drivers/BSP/Components/lis2de12/lis2de12.c ****     int32_t ret;
1073:../Drivers/BSP/Components/lis2de12/lis2de12.c ****     ret = lis2de12_read_reg( LIS2DE12_INT1_CFG, ( uint8_t* ) val, 1 );
 3378              		.loc 1 1073 11
 3379 0008 0122     		movs	r2, #1
 3380 000a 7968     		ldr	r1, [r7, #4]
 3381 000c 3020     		movs	r0, #48
 3382 000e FFF7FEFF 		bl	lis2de12_read_reg
 3383 0012 F860     		str	r0, [r7, #12]
1074:../Drivers/BSP/Components/lis2de12/lis2de12.c ****     return ret;
 3384              		.loc 1 1074 12
 3385 0014 FB68     		ldr	r3, [r7, #12]
1075:../Drivers/BSP/Components/lis2de12/lis2de12.c **** }
 3386              		.loc 1 1075 1
 3387 0016 1846     		mov	r0, r3
 3388 0018 1037     		adds	r7, r7, #16
 3389              	.LCFI249:
 3390              		.cfi_def_cfa_offset 8
 3391 001a BD46     		mov	sp, r7
 3392              	.LCFI250:
 3393              		.cfi_def_cfa_register 13
 3394              		@ sp needed
 3395 001c 80BD     		pop	{r7, pc}
 3396              		.cfi_endproc
 3397              	.LFE639:
 3399              		.section	.text.lis2de12_int1_gen_source_get,"ax",%progbits
 3400              		.align	1
 3401              		.global	lis2de12_int1_gen_source_get
 3402              		.syntax unified
 3403              		.thumb
 3404              		.thumb_func
 3405              		.fpu fpv4-sp-d16
 3407              	lis2de12_int1_gen_source_get:
 3408              	.LFB640:
1076:../Drivers/BSP/Components/lis2de12/lis2de12.c **** 
1077:../Drivers/BSP/Components/lis2de12/lis2de12.c **** /**
1078:../Drivers/BSP/Components/lis2de12/lis2de12.c ****   * @brief  Interrupt generator 1 source register.[get]
1079:../Drivers/BSP/Components/lis2de12/lis2de12.c ****   *
1080:../Drivers/BSP/Components/lis2de12/lis2de12.c **** 
1081:../Drivers/BSP/Components/lis2de12/lis2de12.c ****   * @param  val      Registers INT1_SRC
1082:../Drivers/BSP/Components/lis2de12/lis2de12.c ****   * @retval          interface status (MANDATORY: return 0 -> no Error)
1083:../Drivers/BSP/Components/lis2de12/lis2de12.c ****   *
1084:../Drivers/BSP/Components/lis2de12/lis2de12.c ****   */
ARM GAS  /tmp/ccjphgoR.s 			page 78


1085:../Drivers/BSP/Components/lis2de12/lis2de12.c **** int32_t lis2de12_int1_gen_source_get( lis2de12_int1_src_t* val )
1086:../Drivers/BSP/Components/lis2de12/lis2de12.c **** {
 3409              		.loc 1 1086 1
 3410              		.cfi_startproc
 3411              		@ args = 0, pretend = 0, frame = 16
 3412              		@ frame_needed = 1, uses_anonymous_args = 0
 3413 0000 80B5     		push	{r7, lr}
 3414              	.LCFI251:
 3415              		.cfi_def_cfa_offset 8
 3416              		.cfi_offset 7, -8
 3417              		.cfi_offset 14, -4
 3418 0002 84B0     		sub	sp, sp, #16
 3419              	.LCFI252:
 3420              		.cfi_def_cfa_offset 24
 3421 0004 00AF     		add	r7, sp, #0
 3422              	.LCFI253:
 3423              		.cfi_def_cfa_register 7
 3424 0006 7860     		str	r0, [r7, #4]
1087:../Drivers/BSP/Components/lis2de12/lis2de12.c ****     int32_t ret;
1088:../Drivers/BSP/Components/lis2de12/lis2de12.c ****     ret = lis2de12_read_reg( LIS2DE12_INT1_SRC, ( uint8_t* ) val, 1 );
 3425              		.loc 1 1088 11
 3426 0008 0122     		movs	r2, #1
 3427 000a 7968     		ldr	r1, [r7, #4]
 3428 000c 3120     		movs	r0, #49
 3429 000e FFF7FEFF 		bl	lis2de12_read_reg
 3430 0012 F860     		str	r0, [r7, #12]
1089:../Drivers/BSP/Components/lis2de12/lis2de12.c ****     return ret;
 3431              		.loc 1 1089 12
 3432 0014 FB68     		ldr	r3, [r7, #12]
1090:../Drivers/BSP/Components/lis2de12/lis2de12.c **** }
 3433              		.loc 1 1090 1
 3434 0016 1846     		mov	r0, r3
 3435 0018 1037     		adds	r7, r7, #16
 3436              	.LCFI254:
 3437              		.cfi_def_cfa_offset 8
 3438 001a BD46     		mov	sp, r7
 3439              	.LCFI255:
 3440              		.cfi_def_cfa_register 13
 3441              		@ sp needed
 3442 001c 80BD     		pop	{r7, pc}
 3443              		.cfi_endproc
 3444              	.LFE640:
 3446              		.section	.text.lis2de12_int1_gen_threshold_set,"ax",%progbits
 3447              		.align	1
 3448              		.global	lis2de12_int1_gen_threshold_set
 3449              		.syntax unified
 3450              		.thumb
 3451              		.thumb_func
 3452              		.fpu fpv4-sp-d16
 3454              	lis2de12_int1_gen_threshold_set:
 3455              	.LFB641:
1091:../Drivers/BSP/Components/lis2de12/lis2de12.c **** /**
1092:../Drivers/BSP/Components/lis2de12/lis2de12.c ****   * @brief  User-defined threshold value for xl interrupt event on
1093:../Drivers/BSP/Components/lis2de12/lis2de12.c ****   *         generator 1.[set]
1094:../Drivers/BSP/Components/lis2de12/lis2de12.c ****   *         LSb = 16mg@2g / 32mg@4g / 62mg@8g / 186mg@16g
1095:../Drivers/BSP/Components/lis2de12/lis2de12.c ****   *
1096:../Drivers/BSP/Components/lis2de12/lis2de12.c **** 
ARM GAS  /tmp/ccjphgoR.s 			page 79


1097:../Drivers/BSP/Components/lis2de12/lis2de12.c ****   * @param  val      change the values of ths in reg INT1_THS
1098:../Drivers/BSP/Components/lis2de12/lis2de12.c ****   * @retval          interface status (MANDATORY: return 0 -> no Error)
1099:../Drivers/BSP/Components/lis2de12/lis2de12.c ****   *
1100:../Drivers/BSP/Components/lis2de12/lis2de12.c ****   */
1101:../Drivers/BSP/Components/lis2de12/lis2de12.c **** int32_t lis2de12_int1_gen_threshold_set( uint8_t val )
1102:../Drivers/BSP/Components/lis2de12/lis2de12.c **** {
 3456              		.loc 1 1102 1
 3457              		.cfi_startproc
 3458              		@ args = 0, pretend = 0, frame = 16
 3459              		@ frame_needed = 1, uses_anonymous_args = 0
 3460 0000 80B5     		push	{r7, lr}
 3461              	.LCFI256:
 3462              		.cfi_def_cfa_offset 8
 3463              		.cfi_offset 7, -8
 3464              		.cfi_offset 14, -4
 3465 0002 84B0     		sub	sp, sp, #16
 3466              	.LCFI257:
 3467              		.cfi_def_cfa_offset 24
 3468 0004 00AF     		add	r7, sp, #0
 3469              	.LCFI258:
 3470              		.cfi_def_cfa_register 7
 3471 0006 0346     		mov	r3, r0
 3472 0008 FB71     		strb	r3, [r7, #7]
1103:../Drivers/BSP/Components/lis2de12/lis2de12.c ****     lis2de12_int1_ths_t int1_ths;
1104:../Drivers/BSP/Components/lis2de12/lis2de12.c ****     int32_t             ret;
1105:../Drivers/BSP/Components/lis2de12/lis2de12.c **** 
1106:../Drivers/BSP/Components/lis2de12/lis2de12.c ****     ret = lis2de12_read_reg( LIS2DE12_INT1_THS, ( uint8_t* ) &int1_ths, 1 );
 3473              		.loc 1 1106 11
 3474 000a 07F10803 		add	r3, r7, #8
 3475 000e 0122     		movs	r2, #1
 3476 0010 1946     		mov	r1, r3
 3477 0012 3220     		movs	r0, #50
 3478 0014 FFF7FEFF 		bl	lis2de12_read_reg
 3479 0018 F860     		str	r0, [r7, #12]
1107:../Drivers/BSP/Components/lis2de12/lis2de12.c ****     if( ret == 0 )
 3480              		.loc 1 1107 7
 3481 001a FB68     		ldr	r3, [r7, #12]
 3482 001c 002B     		cmp	r3, #0
 3483 001e 0FD1     		bne	.L194
1108:../Drivers/BSP/Components/lis2de12/lis2de12.c ****     {
1109:../Drivers/BSP/Components/lis2de12/lis2de12.c ****         int1_ths.ths = val;
 3484              		.loc 1 1109 22
 3485 0020 FB79     		ldrb	r3, [r7, #7]
 3486 0022 03F07F03 		and	r3, r3, #127
 3487 0026 DAB2     		uxtb	r2, r3
 3488 0028 3B7A     		ldrb	r3, [r7, #8]
 3489 002a 62F30603 		bfi	r3, r2, #0, #7
 3490 002e 3B72     		strb	r3, [r7, #8]
1110:../Drivers/BSP/Components/lis2de12/lis2de12.c ****         ret          = lis2de12_write_reg( LIS2DE12_INT1_THS, ( uint8_t* ) &int1_ths, 1 );
 3491              		.loc 1 1110 24
 3492 0030 07F10803 		add	r3, r7, #8
 3493 0034 0122     		movs	r2, #1
 3494 0036 1946     		mov	r1, r3
 3495 0038 3220     		movs	r0, #50
 3496 003a FFF7FEFF 		bl	lis2de12_write_reg
 3497 003e F860     		str	r0, [r7, #12]
 3498              	.L194:
ARM GAS  /tmp/ccjphgoR.s 			page 80


1111:../Drivers/BSP/Components/lis2de12/lis2de12.c ****     }
1112:../Drivers/BSP/Components/lis2de12/lis2de12.c ****     return ret;
 3499              		.loc 1 1112 12
 3500 0040 FB68     		ldr	r3, [r7, #12]
1113:../Drivers/BSP/Components/lis2de12/lis2de12.c **** }
 3501              		.loc 1 1113 1
 3502 0042 1846     		mov	r0, r3
 3503 0044 1037     		adds	r7, r7, #16
 3504              	.LCFI259:
 3505              		.cfi_def_cfa_offset 8
 3506 0046 BD46     		mov	sp, r7
 3507              	.LCFI260:
 3508              		.cfi_def_cfa_register 13
 3509              		@ sp needed
 3510 0048 80BD     		pop	{r7, pc}
 3511              		.cfi_endproc
 3512              	.LFE641:
 3514              		.section	.text.lis2de12_int1_gen_threshold_get,"ax",%progbits
 3515              		.align	1
 3516              		.global	lis2de12_int1_gen_threshold_get
 3517              		.syntax unified
 3518              		.thumb
 3519              		.thumb_func
 3520              		.fpu fpv4-sp-d16
 3522              	lis2de12_int1_gen_threshold_get:
 3523              	.LFB642:
1114:../Drivers/BSP/Components/lis2de12/lis2de12.c **** 
1115:../Drivers/BSP/Components/lis2de12/lis2de12.c **** /**
1116:../Drivers/BSP/Components/lis2de12/lis2de12.c ****   * @brief  User-defined threshold value for xl interrupt event on
1117:../Drivers/BSP/Components/lis2de12/lis2de12.c ****   *         generator 1.[get]
1118:../Drivers/BSP/Components/lis2de12/lis2de12.c ****   *         LSb = 16mg@2g / 32mg@4g / 62mg@8g / 186mg@16g
1119:../Drivers/BSP/Components/lis2de12/lis2de12.c ****   *
1120:../Drivers/BSP/Components/lis2de12/lis2de12.c **** 
1121:../Drivers/BSP/Components/lis2de12/lis2de12.c ****   * @param  val      change the values of ths in reg INT1_THS
1122:../Drivers/BSP/Components/lis2de12/lis2de12.c ****   * @retval          interface status (MANDATORY: return 0 -> no Error)
1123:../Drivers/BSP/Components/lis2de12/lis2de12.c ****   *
1124:../Drivers/BSP/Components/lis2de12/lis2de12.c ****   */
1125:../Drivers/BSP/Components/lis2de12/lis2de12.c **** int32_t lis2de12_int1_gen_threshold_get( uint8_t* val )
1126:../Drivers/BSP/Components/lis2de12/lis2de12.c **** {
 3524              		.loc 1 1126 1
 3525              		.cfi_startproc
 3526              		@ args = 0, pretend = 0, frame = 16
 3527              		@ frame_needed = 1, uses_anonymous_args = 0
 3528 0000 80B5     		push	{r7, lr}
 3529              	.LCFI261:
 3530              		.cfi_def_cfa_offset 8
 3531              		.cfi_offset 7, -8
 3532              		.cfi_offset 14, -4
 3533 0002 84B0     		sub	sp, sp, #16
 3534              	.LCFI262:
 3535              		.cfi_def_cfa_offset 24
 3536 0004 00AF     		add	r7, sp, #0
 3537              	.LCFI263:
 3538              		.cfi_def_cfa_register 7
 3539 0006 7860     		str	r0, [r7, #4]
1127:../Drivers/BSP/Components/lis2de12/lis2de12.c ****     lis2de12_int1_ths_t int1_ths;
1128:../Drivers/BSP/Components/lis2de12/lis2de12.c ****     int32_t             ret;
ARM GAS  /tmp/ccjphgoR.s 			page 81


1129:../Drivers/BSP/Components/lis2de12/lis2de12.c **** 
1130:../Drivers/BSP/Components/lis2de12/lis2de12.c ****     ret  = lis2de12_read_reg( LIS2DE12_INT1_THS, ( uint8_t* ) &int1_ths, 1 );
 3540              		.loc 1 1130 12
 3541 0008 07F10803 		add	r3, r7, #8
 3542 000c 0122     		movs	r2, #1
 3543 000e 1946     		mov	r1, r3
 3544 0010 3220     		movs	r0, #50
 3545 0012 FFF7FEFF 		bl	lis2de12_read_reg
 3546 0016 F860     		str	r0, [r7, #12]
1131:../Drivers/BSP/Components/lis2de12/lis2de12.c ****     *val = ( uint8_t ) int1_ths.ths;
 3547              		.loc 1 1131 32
 3548 0018 3B7A     		ldrb	r3, [r7, #8]
 3549 001a C3F30603 		ubfx	r3, r3, #0, #7
 3550 001e DBB2     		uxtb	r3, r3
 3551              		.loc 1 1131 12
 3552 0020 1A46     		mov	r2, r3
 3553              		.loc 1 1131 10
 3554 0022 7B68     		ldr	r3, [r7, #4]
 3555 0024 1A70     		strb	r2, [r3]
1132:../Drivers/BSP/Components/lis2de12/lis2de12.c **** 
1133:../Drivers/BSP/Components/lis2de12/lis2de12.c ****     return ret;
 3556              		.loc 1 1133 12
 3557 0026 FB68     		ldr	r3, [r7, #12]
1134:../Drivers/BSP/Components/lis2de12/lis2de12.c **** }
 3558              		.loc 1 1134 1
 3559 0028 1846     		mov	r0, r3
 3560 002a 1037     		adds	r7, r7, #16
 3561              	.LCFI264:
 3562              		.cfi_def_cfa_offset 8
 3563 002c BD46     		mov	sp, r7
 3564              	.LCFI265:
 3565              		.cfi_def_cfa_register 13
 3566              		@ sp needed
 3567 002e 80BD     		pop	{r7, pc}
 3568              		.cfi_endproc
 3569              	.LFE642:
 3571              		.section	.text.lis2de12_int1_gen_duration_set,"ax",%progbits
 3572              		.align	1
 3573              		.global	lis2de12_int1_gen_duration_set
 3574              		.syntax unified
 3575              		.thumb
 3576              		.thumb_func
 3577              		.fpu fpv4-sp-d16
 3579              	lis2de12_int1_gen_duration_set:
 3580              	.LFB643:
1135:../Drivers/BSP/Components/lis2de12/lis2de12.c **** 
1136:../Drivers/BSP/Components/lis2de12/lis2de12.c **** /**
1137:../Drivers/BSP/Components/lis2de12/lis2de12.c ****   * @brief  The minimum duration (LSb = 1/ODR) of the Interrupt 1 event to be
1138:../Drivers/BSP/Components/lis2de12/lis2de12.c ****   *         recognized.[set]
1139:../Drivers/BSP/Components/lis2de12/lis2de12.c ****   *
1140:../Drivers/BSP/Components/lis2de12/lis2de12.c **** 
1141:../Drivers/BSP/Components/lis2de12/lis2de12.c ****   * @param  val      change the values of d in reg INT1_DURATION
1142:../Drivers/BSP/Components/lis2de12/lis2de12.c ****   * @retval          interface status (MANDATORY: return 0 -> no Error)
1143:../Drivers/BSP/Components/lis2de12/lis2de12.c ****   *
1144:../Drivers/BSP/Components/lis2de12/lis2de12.c ****   */
1145:../Drivers/BSP/Components/lis2de12/lis2de12.c **** int32_t lis2de12_int1_gen_duration_set( uint8_t val )
1146:../Drivers/BSP/Components/lis2de12/lis2de12.c **** {
ARM GAS  /tmp/ccjphgoR.s 			page 82


 3581              		.loc 1 1146 1
 3582              		.cfi_startproc
 3583              		@ args = 0, pretend = 0, frame = 16
 3584              		@ frame_needed = 1, uses_anonymous_args = 0
 3585 0000 80B5     		push	{r7, lr}
 3586              	.LCFI266:
 3587              		.cfi_def_cfa_offset 8
 3588              		.cfi_offset 7, -8
 3589              		.cfi_offset 14, -4
 3590 0002 84B0     		sub	sp, sp, #16
 3591              	.LCFI267:
 3592              		.cfi_def_cfa_offset 24
 3593 0004 00AF     		add	r7, sp, #0
 3594              	.LCFI268:
 3595              		.cfi_def_cfa_register 7
 3596 0006 0346     		mov	r3, r0
 3597 0008 FB71     		strb	r3, [r7, #7]
1147:../Drivers/BSP/Components/lis2de12/lis2de12.c ****     lis2de12_int1_duration_t int1_duration;
1148:../Drivers/BSP/Components/lis2de12/lis2de12.c ****     int32_t                  ret;
1149:../Drivers/BSP/Components/lis2de12/lis2de12.c **** 
1150:../Drivers/BSP/Components/lis2de12/lis2de12.c ****     ret = lis2de12_read_reg( LIS2DE12_INT1_DURATION, ( uint8_t* ) &int1_duration, 1 );
 3598              		.loc 1 1150 11
 3599 000a 07F10803 		add	r3, r7, #8
 3600 000e 0122     		movs	r2, #1
 3601 0010 1946     		mov	r1, r3
 3602 0012 3320     		movs	r0, #51
 3603 0014 FFF7FEFF 		bl	lis2de12_read_reg
 3604 0018 F860     		str	r0, [r7, #12]
1151:../Drivers/BSP/Components/lis2de12/lis2de12.c ****     if( ret == 0 )
 3605              		.loc 1 1151 7
 3606 001a FB68     		ldr	r3, [r7, #12]
 3607 001c 002B     		cmp	r3, #0
 3608 001e 0FD1     		bne	.L199
1152:../Drivers/BSP/Components/lis2de12/lis2de12.c ****     {
1153:../Drivers/BSP/Components/lis2de12/lis2de12.c ****         int1_duration.d = val;
 3609              		.loc 1 1153 25
 3610 0020 FB79     		ldrb	r3, [r7, #7]
 3611 0022 03F07F03 		and	r3, r3, #127
 3612 0026 DAB2     		uxtb	r2, r3
 3613 0028 3B7A     		ldrb	r3, [r7, #8]
 3614 002a 62F30603 		bfi	r3, r2, #0, #7
 3615 002e 3B72     		strb	r3, [r7, #8]
1154:../Drivers/BSP/Components/lis2de12/lis2de12.c ****         ret             = lis2de12_write_reg( LIS2DE12_INT1_DURATION, ( uint8_t* ) &int1_duration, 
 3616              		.loc 1 1154 27
 3617 0030 07F10803 		add	r3, r7, #8
 3618 0034 0122     		movs	r2, #1
 3619 0036 1946     		mov	r1, r3
 3620 0038 3320     		movs	r0, #51
 3621 003a FFF7FEFF 		bl	lis2de12_write_reg
 3622 003e F860     		str	r0, [r7, #12]
 3623              	.L199:
1155:../Drivers/BSP/Components/lis2de12/lis2de12.c ****     }
1156:../Drivers/BSP/Components/lis2de12/lis2de12.c ****     return ret;
 3624              		.loc 1 1156 12
 3625 0040 FB68     		ldr	r3, [r7, #12]
1157:../Drivers/BSP/Components/lis2de12/lis2de12.c **** }
 3626              		.loc 1 1157 1
ARM GAS  /tmp/ccjphgoR.s 			page 83


 3627 0042 1846     		mov	r0, r3
 3628 0044 1037     		adds	r7, r7, #16
 3629              	.LCFI269:
 3630              		.cfi_def_cfa_offset 8
 3631 0046 BD46     		mov	sp, r7
 3632              	.LCFI270:
 3633              		.cfi_def_cfa_register 13
 3634              		@ sp needed
 3635 0048 80BD     		pop	{r7, pc}
 3636              		.cfi_endproc
 3637              	.LFE643:
 3639              		.section	.text.lis2de12_int1_gen_duration_get,"ax",%progbits
 3640              		.align	1
 3641              		.global	lis2de12_int1_gen_duration_get
 3642              		.syntax unified
 3643              		.thumb
 3644              		.thumb_func
 3645              		.fpu fpv4-sp-d16
 3647              	lis2de12_int1_gen_duration_get:
 3648              	.LFB644:
1158:../Drivers/BSP/Components/lis2de12/lis2de12.c **** 
1159:../Drivers/BSP/Components/lis2de12/lis2de12.c **** /**
1160:../Drivers/BSP/Components/lis2de12/lis2de12.c ****   * @brief  The minimum duration (LSb = 1/ODR) of the Interrupt 1 event to be
1161:../Drivers/BSP/Components/lis2de12/lis2de12.c ****   *         recognized.[get]
1162:../Drivers/BSP/Components/lis2de12/lis2de12.c ****   *
1163:../Drivers/BSP/Components/lis2de12/lis2de12.c **** 
1164:../Drivers/BSP/Components/lis2de12/lis2de12.c ****   * @param  val      change the values of d in reg INT1_DURATION
1165:../Drivers/BSP/Components/lis2de12/lis2de12.c ****   * @retval          interface status (MANDATORY: return 0 -> no Error)
1166:../Drivers/BSP/Components/lis2de12/lis2de12.c ****   *
1167:../Drivers/BSP/Components/lis2de12/lis2de12.c ****   */
1168:../Drivers/BSP/Components/lis2de12/lis2de12.c **** int32_t lis2de12_int1_gen_duration_get( uint8_t* val )
1169:../Drivers/BSP/Components/lis2de12/lis2de12.c **** {
 3649              		.loc 1 1169 1
 3650              		.cfi_startproc
 3651              		@ args = 0, pretend = 0, frame = 16
 3652              		@ frame_needed = 1, uses_anonymous_args = 0
 3653 0000 80B5     		push	{r7, lr}
 3654              	.LCFI271:
 3655              		.cfi_def_cfa_offset 8
 3656              		.cfi_offset 7, -8
 3657              		.cfi_offset 14, -4
 3658 0002 84B0     		sub	sp, sp, #16
 3659              	.LCFI272:
 3660              		.cfi_def_cfa_offset 24
 3661 0004 00AF     		add	r7, sp, #0
 3662              	.LCFI273:
 3663              		.cfi_def_cfa_register 7
 3664 0006 7860     		str	r0, [r7, #4]
1170:../Drivers/BSP/Components/lis2de12/lis2de12.c ****     lis2de12_int1_duration_t int1_duration;
1171:../Drivers/BSP/Components/lis2de12/lis2de12.c ****     int32_t                  ret;
1172:../Drivers/BSP/Components/lis2de12/lis2de12.c **** 
1173:../Drivers/BSP/Components/lis2de12/lis2de12.c ****     ret  = lis2de12_read_reg( LIS2DE12_INT1_DURATION, ( uint8_t* ) &int1_duration, 1 );
 3665              		.loc 1 1173 12
 3666 0008 07F10803 		add	r3, r7, #8
 3667 000c 0122     		movs	r2, #1
 3668 000e 1946     		mov	r1, r3
 3669 0010 3320     		movs	r0, #51
ARM GAS  /tmp/ccjphgoR.s 			page 84


 3670 0012 FFF7FEFF 		bl	lis2de12_read_reg
 3671 0016 F860     		str	r0, [r7, #12]
1174:../Drivers/BSP/Components/lis2de12/lis2de12.c ****     *val = ( uint8_t ) int1_duration.d;
 3672              		.loc 1 1174 37
 3673 0018 3B7A     		ldrb	r3, [r7, #8]
 3674 001a C3F30603 		ubfx	r3, r3, #0, #7
 3675 001e DBB2     		uxtb	r3, r3
 3676              		.loc 1 1174 12
 3677 0020 1A46     		mov	r2, r3
 3678              		.loc 1 1174 10
 3679 0022 7B68     		ldr	r3, [r7, #4]
 3680 0024 1A70     		strb	r2, [r3]
1175:../Drivers/BSP/Components/lis2de12/lis2de12.c **** 
1176:../Drivers/BSP/Components/lis2de12/lis2de12.c ****     return ret;
 3681              		.loc 1 1176 12
 3682 0026 FB68     		ldr	r3, [r7, #12]
1177:../Drivers/BSP/Components/lis2de12/lis2de12.c **** }
 3683              		.loc 1 1177 1
 3684 0028 1846     		mov	r0, r3
 3685 002a 1037     		adds	r7, r7, #16
 3686              	.LCFI274:
 3687              		.cfi_def_cfa_offset 8
 3688 002c BD46     		mov	sp, r7
 3689              	.LCFI275:
 3690              		.cfi_def_cfa_register 13
 3691              		@ sp needed
 3692 002e 80BD     		pop	{r7, pc}
 3693              		.cfi_endproc
 3694              	.LFE644:
 3696              		.section	.text.lis2de12_int2_gen_conf_set,"ax",%progbits
 3697              		.align	1
 3698              		.global	lis2de12_int2_gen_conf_set
 3699              		.syntax unified
 3700              		.thumb
 3701              		.thumb_func
 3702              		.fpu fpv4-sp-d16
 3704              	lis2de12_int2_gen_conf_set:
 3705              	.LFB645:
1178:../Drivers/BSP/Components/lis2de12/lis2de12.c **** 
1179:../Drivers/BSP/Components/lis2de12/lis2de12.c **** /**
1180:../Drivers/BSP/Components/lis2de12/lis2de12.c ****  * @}
1181:../Drivers/BSP/Components/lis2de12/lis2de12.c ****  *
1182:../Drivers/BSP/Components/lis2de12/lis2de12.c ****  */
1183:../Drivers/BSP/Components/lis2de12/lis2de12.c **** 
1184:../Drivers/BSP/Components/lis2de12/lis2de12.c **** /**
1185:../Drivers/BSP/Components/lis2de12/lis2de12.c ****  * @defgroup   LIS2DE12_Interrupts_generator_2
1186:../Drivers/BSP/Components/lis2de12/lis2de12.c ****  * @brief      This section group all the functions that manage the second
1187:../Drivers/BSP/Components/lis2de12/lis2de12.c ****  *             interrupts generator
1188:../Drivers/BSP/Components/lis2de12/lis2de12.c ****  * @{
1189:../Drivers/BSP/Components/lis2de12/lis2de12.c ****  *
1190:../Drivers/BSP/Components/lis2de12/lis2de12.c ****  */
1191:../Drivers/BSP/Components/lis2de12/lis2de12.c **** 
1192:../Drivers/BSP/Components/lis2de12/lis2de12.c **** /**
1193:../Drivers/BSP/Components/lis2de12/lis2de12.c ****   * @brief  Interrupt generator 2 configuration register.[set]
1194:../Drivers/BSP/Components/lis2de12/lis2de12.c ****   *
1195:../Drivers/BSP/Components/lis2de12/lis2de12.c **** 
1196:../Drivers/BSP/Components/lis2de12/lis2de12.c ****   * @param  val      registers INT2_CFG
ARM GAS  /tmp/ccjphgoR.s 			page 85


1197:../Drivers/BSP/Components/lis2de12/lis2de12.c ****   * @retval          interface status (MANDATORY: return 0 -> no Error)
1198:../Drivers/BSP/Components/lis2de12/lis2de12.c ****   *
1199:../Drivers/BSP/Components/lis2de12/lis2de12.c ****   */
1200:../Drivers/BSP/Components/lis2de12/lis2de12.c **** int32_t lis2de12_int2_gen_conf_set( lis2de12_int2_cfg_t* val )
1201:../Drivers/BSP/Components/lis2de12/lis2de12.c **** {
 3706              		.loc 1 1201 1
 3707              		.cfi_startproc
 3708              		@ args = 0, pretend = 0, frame = 16
 3709              		@ frame_needed = 1, uses_anonymous_args = 0
 3710 0000 80B5     		push	{r7, lr}
 3711              	.LCFI276:
 3712              		.cfi_def_cfa_offset 8
 3713              		.cfi_offset 7, -8
 3714              		.cfi_offset 14, -4
 3715 0002 84B0     		sub	sp, sp, #16
 3716              	.LCFI277:
 3717              		.cfi_def_cfa_offset 24
 3718 0004 00AF     		add	r7, sp, #0
 3719              	.LCFI278:
 3720              		.cfi_def_cfa_register 7
 3721 0006 7860     		str	r0, [r7, #4]
1202:../Drivers/BSP/Components/lis2de12/lis2de12.c ****     int32_t ret;
1203:../Drivers/BSP/Components/lis2de12/lis2de12.c ****     ret = lis2de12_write_reg( LIS2DE12_INT2_CFG, ( uint8_t* ) val, 1 );
 3722              		.loc 1 1203 11
 3723 0008 0122     		movs	r2, #1
 3724 000a 7968     		ldr	r1, [r7, #4]
 3725 000c 3420     		movs	r0, #52
 3726 000e FFF7FEFF 		bl	lis2de12_write_reg
 3727 0012 F860     		str	r0, [r7, #12]
1204:../Drivers/BSP/Components/lis2de12/lis2de12.c ****     return ret;
 3728              		.loc 1 1204 12
 3729 0014 FB68     		ldr	r3, [r7, #12]
1205:../Drivers/BSP/Components/lis2de12/lis2de12.c **** }
 3730              		.loc 1 1205 1
 3731 0016 1846     		mov	r0, r3
 3732 0018 1037     		adds	r7, r7, #16
 3733              	.LCFI279:
 3734              		.cfi_def_cfa_offset 8
 3735 001a BD46     		mov	sp, r7
 3736              	.LCFI280:
 3737              		.cfi_def_cfa_register 13
 3738              		@ sp needed
 3739 001c 80BD     		pop	{r7, pc}
 3740              		.cfi_endproc
 3741              	.LFE645:
 3743              		.section	.text.lis2de12_int2_gen_conf_get,"ax",%progbits
 3744              		.align	1
 3745              		.global	lis2de12_int2_gen_conf_get
 3746              		.syntax unified
 3747              		.thumb
 3748              		.thumb_func
 3749              		.fpu fpv4-sp-d16
 3751              	lis2de12_int2_gen_conf_get:
 3752              	.LFB646:
1206:../Drivers/BSP/Components/lis2de12/lis2de12.c **** 
1207:../Drivers/BSP/Components/lis2de12/lis2de12.c **** /**
1208:../Drivers/BSP/Components/lis2de12/lis2de12.c ****   * @brief  Interrupt generator 2 configuration register.[get]
ARM GAS  /tmp/ccjphgoR.s 			page 86


1209:../Drivers/BSP/Components/lis2de12/lis2de12.c ****   *
1210:../Drivers/BSP/Components/lis2de12/lis2de12.c **** 
1211:../Drivers/BSP/Components/lis2de12/lis2de12.c ****   * @param  val      registers INT2_CFG
1212:../Drivers/BSP/Components/lis2de12/lis2de12.c ****   * @retval          interface status (MANDATORY: return 0 -> no Error)
1213:../Drivers/BSP/Components/lis2de12/lis2de12.c ****   *
1214:../Drivers/BSP/Components/lis2de12/lis2de12.c ****   */
1215:../Drivers/BSP/Components/lis2de12/lis2de12.c **** int32_t lis2de12_int2_gen_conf_get( lis2de12_int2_cfg_t* val )
1216:../Drivers/BSP/Components/lis2de12/lis2de12.c **** {
 3753              		.loc 1 1216 1
 3754              		.cfi_startproc
 3755              		@ args = 0, pretend = 0, frame = 16
 3756              		@ frame_needed = 1, uses_anonymous_args = 0
 3757 0000 80B5     		push	{r7, lr}
 3758              	.LCFI281:
 3759              		.cfi_def_cfa_offset 8
 3760              		.cfi_offset 7, -8
 3761              		.cfi_offset 14, -4
 3762 0002 84B0     		sub	sp, sp, #16
 3763              	.LCFI282:
 3764              		.cfi_def_cfa_offset 24
 3765 0004 00AF     		add	r7, sp, #0
 3766              	.LCFI283:
 3767              		.cfi_def_cfa_register 7
 3768 0006 7860     		str	r0, [r7, #4]
1217:../Drivers/BSP/Components/lis2de12/lis2de12.c ****     int32_t ret;
1218:../Drivers/BSP/Components/lis2de12/lis2de12.c ****     ret = lis2de12_read_reg( LIS2DE12_INT2_CFG, ( uint8_t* ) val, 1 );
 3769              		.loc 1 1218 11
 3770 0008 0122     		movs	r2, #1
 3771 000a 7968     		ldr	r1, [r7, #4]
 3772 000c 3420     		movs	r0, #52
 3773 000e FFF7FEFF 		bl	lis2de12_read_reg
 3774 0012 F860     		str	r0, [r7, #12]
1219:../Drivers/BSP/Components/lis2de12/lis2de12.c ****     return ret;
 3775              		.loc 1 1219 12
 3776 0014 FB68     		ldr	r3, [r7, #12]
1220:../Drivers/BSP/Components/lis2de12/lis2de12.c **** }
 3777              		.loc 1 1220 1
 3778 0016 1846     		mov	r0, r3
 3779 0018 1037     		adds	r7, r7, #16
 3780              	.LCFI284:
 3781              		.cfi_def_cfa_offset 8
 3782 001a BD46     		mov	sp, r7
 3783              	.LCFI285:
 3784              		.cfi_def_cfa_register 13
 3785              		@ sp needed
 3786 001c 80BD     		pop	{r7, pc}
 3787              		.cfi_endproc
 3788              	.LFE646:
 3790              		.section	.text.lis2de12_int2_gen_source_get,"ax",%progbits
 3791              		.align	1
 3792              		.global	lis2de12_int2_gen_source_get
 3793              		.syntax unified
 3794              		.thumb
 3795              		.thumb_func
 3796              		.fpu fpv4-sp-d16
 3798              	lis2de12_int2_gen_source_get:
 3799              	.LFB647:
ARM GAS  /tmp/ccjphgoR.s 			page 87


1221:../Drivers/BSP/Components/lis2de12/lis2de12.c **** /**
1222:../Drivers/BSP/Components/lis2de12/lis2de12.c ****   * @brief  Interrupt generator 2 source register.[get]
1223:../Drivers/BSP/Components/lis2de12/lis2de12.c ****   *
1224:../Drivers/BSP/Components/lis2de12/lis2de12.c **** 
1225:../Drivers/BSP/Components/lis2de12/lis2de12.c ****   * @param  val      registers INT2_SRC
1226:../Drivers/BSP/Components/lis2de12/lis2de12.c ****   * @retval          interface status (MANDATORY: return 0 -> no Error)
1227:../Drivers/BSP/Components/lis2de12/lis2de12.c ****   *
1228:../Drivers/BSP/Components/lis2de12/lis2de12.c ****   */
1229:../Drivers/BSP/Components/lis2de12/lis2de12.c **** int32_t lis2de12_int2_gen_source_get( lis2de12_int2_src_t* val )
1230:../Drivers/BSP/Components/lis2de12/lis2de12.c **** {
 3800              		.loc 1 1230 1
 3801              		.cfi_startproc
 3802              		@ args = 0, pretend = 0, frame = 16
 3803              		@ frame_needed = 1, uses_anonymous_args = 0
 3804 0000 80B5     		push	{r7, lr}
 3805              	.LCFI286:
 3806              		.cfi_def_cfa_offset 8
 3807              		.cfi_offset 7, -8
 3808              		.cfi_offset 14, -4
 3809 0002 84B0     		sub	sp, sp, #16
 3810              	.LCFI287:
 3811              		.cfi_def_cfa_offset 24
 3812 0004 00AF     		add	r7, sp, #0
 3813              	.LCFI288:
 3814              		.cfi_def_cfa_register 7
 3815 0006 7860     		str	r0, [r7, #4]
1231:../Drivers/BSP/Components/lis2de12/lis2de12.c ****     int32_t ret;
1232:../Drivers/BSP/Components/lis2de12/lis2de12.c ****     ret = lis2de12_read_reg( LIS2DE12_INT2_SRC, ( uint8_t* ) val, 1 );
 3816              		.loc 1 1232 11
 3817 0008 0122     		movs	r2, #1
 3818 000a 7968     		ldr	r1, [r7, #4]
 3819 000c 3520     		movs	r0, #53
 3820 000e FFF7FEFF 		bl	lis2de12_read_reg
 3821 0012 F860     		str	r0, [r7, #12]
1233:../Drivers/BSP/Components/lis2de12/lis2de12.c ****     return ret;
 3822              		.loc 1 1233 12
 3823 0014 FB68     		ldr	r3, [r7, #12]
1234:../Drivers/BSP/Components/lis2de12/lis2de12.c **** }
 3824              		.loc 1 1234 1
 3825 0016 1846     		mov	r0, r3
 3826 0018 1037     		adds	r7, r7, #16
 3827              	.LCFI289:
 3828              		.cfi_def_cfa_offset 8
 3829 001a BD46     		mov	sp, r7
 3830              	.LCFI290:
 3831              		.cfi_def_cfa_register 13
 3832              		@ sp needed
 3833 001c 80BD     		pop	{r7, pc}
 3834              		.cfi_endproc
 3835              	.LFE647:
 3837              		.section	.text.lis2de12_int2_gen_threshold_set,"ax",%progbits
 3838              		.align	1
 3839              		.global	lis2de12_int2_gen_threshold_set
 3840              		.syntax unified
 3841              		.thumb
 3842              		.thumb_func
 3843              		.fpu fpv4-sp-d16
ARM GAS  /tmp/ccjphgoR.s 			page 88


 3845              	lis2de12_int2_gen_threshold_set:
 3846              	.LFB648:
1235:../Drivers/BSP/Components/lis2de12/lis2de12.c **** /**
1236:../Drivers/BSP/Components/lis2de12/lis2de12.c ****   * @brief   User-defined threshold value for xl interrupt event on
1237:../Drivers/BSP/Components/lis2de12/lis2de12.c ****   *          generator 2.[set]
1238:../Drivers/BSP/Components/lis2de12/lis2de12.c ****   *          LSb = 16mg@2g / 32mg@4g / 62mg@8g / 186mg@16g
1239:../Drivers/BSP/Components/lis2de12/lis2de12.c ****   *
1240:../Drivers/BSP/Components/lis2de12/lis2de12.c **** 
1241:../Drivers/BSP/Components/lis2de12/lis2de12.c ****   * @param  val      change the values of ths in reg INT2_THS
1242:../Drivers/BSP/Components/lis2de12/lis2de12.c ****   * @retval          interface status (MANDATORY: return 0 -> no Error)
1243:../Drivers/BSP/Components/lis2de12/lis2de12.c ****   *
1244:../Drivers/BSP/Components/lis2de12/lis2de12.c ****   */
1245:../Drivers/BSP/Components/lis2de12/lis2de12.c **** int32_t lis2de12_int2_gen_threshold_set( uint8_t val )
1246:../Drivers/BSP/Components/lis2de12/lis2de12.c **** {
 3847              		.loc 1 1246 1
 3848              		.cfi_startproc
 3849              		@ args = 0, pretend = 0, frame = 16
 3850              		@ frame_needed = 1, uses_anonymous_args = 0
 3851 0000 80B5     		push	{r7, lr}
 3852              	.LCFI291:
 3853              		.cfi_def_cfa_offset 8
 3854              		.cfi_offset 7, -8
 3855              		.cfi_offset 14, -4
 3856 0002 84B0     		sub	sp, sp, #16
 3857              	.LCFI292:
 3858              		.cfi_def_cfa_offset 24
 3859 0004 00AF     		add	r7, sp, #0
 3860              	.LCFI293:
 3861              		.cfi_def_cfa_register 7
 3862 0006 0346     		mov	r3, r0
 3863 0008 FB71     		strb	r3, [r7, #7]
1247:../Drivers/BSP/Components/lis2de12/lis2de12.c ****     lis2de12_int2_ths_t int2_ths;
1248:../Drivers/BSP/Components/lis2de12/lis2de12.c ****     int32_t             ret;
1249:../Drivers/BSP/Components/lis2de12/lis2de12.c **** 
1250:../Drivers/BSP/Components/lis2de12/lis2de12.c ****     ret = lis2de12_read_reg( LIS2DE12_INT2_THS, ( uint8_t* ) &int2_ths, 1 );
 3864              		.loc 1 1250 11
 3865 000a 07F10803 		add	r3, r7, #8
 3866 000e 0122     		movs	r2, #1
 3867 0010 1946     		mov	r1, r3
 3868 0012 3620     		movs	r0, #54
 3869 0014 FFF7FEFF 		bl	lis2de12_read_reg
 3870 0018 F860     		str	r0, [r7, #12]
1251:../Drivers/BSP/Components/lis2de12/lis2de12.c ****     if( ret == 0 )
 3871              		.loc 1 1251 7
 3872 001a FB68     		ldr	r3, [r7, #12]
 3873 001c 002B     		cmp	r3, #0
 3874 001e 0FD1     		bne	.L210
1252:../Drivers/BSP/Components/lis2de12/lis2de12.c ****     {
1253:../Drivers/BSP/Components/lis2de12/lis2de12.c ****         int2_ths.ths = val;
 3875              		.loc 1 1253 22
 3876 0020 FB79     		ldrb	r3, [r7, #7]
 3877 0022 03F07F03 		and	r3, r3, #127
 3878 0026 DAB2     		uxtb	r2, r3
 3879 0028 3B7A     		ldrb	r3, [r7, #8]
 3880 002a 62F30603 		bfi	r3, r2, #0, #7
 3881 002e 3B72     		strb	r3, [r7, #8]
1254:../Drivers/BSP/Components/lis2de12/lis2de12.c ****         ret          = lis2de12_write_reg( LIS2DE12_INT2_THS, ( uint8_t* ) &int2_ths, 1 );
ARM GAS  /tmp/ccjphgoR.s 			page 89


 3882              		.loc 1 1254 24
 3883 0030 07F10803 		add	r3, r7, #8
 3884 0034 0122     		movs	r2, #1
 3885 0036 1946     		mov	r1, r3
 3886 0038 3620     		movs	r0, #54
 3887 003a FFF7FEFF 		bl	lis2de12_write_reg
 3888 003e F860     		str	r0, [r7, #12]
 3889              	.L210:
1255:../Drivers/BSP/Components/lis2de12/lis2de12.c ****     }
1256:../Drivers/BSP/Components/lis2de12/lis2de12.c ****     return ret;
 3890              		.loc 1 1256 12
 3891 0040 FB68     		ldr	r3, [r7, #12]
1257:../Drivers/BSP/Components/lis2de12/lis2de12.c **** }
 3892              		.loc 1 1257 1
 3893 0042 1846     		mov	r0, r3
 3894 0044 1037     		adds	r7, r7, #16
 3895              	.LCFI294:
 3896              		.cfi_def_cfa_offset 8
 3897 0046 BD46     		mov	sp, r7
 3898              	.LCFI295:
 3899              		.cfi_def_cfa_register 13
 3900              		@ sp needed
 3901 0048 80BD     		pop	{r7, pc}
 3902              		.cfi_endproc
 3903              	.LFE648:
 3905              		.section	.text.lis2de12_int2_gen_threshold_get,"ax",%progbits
 3906              		.align	1
 3907              		.global	lis2de12_int2_gen_threshold_get
 3908              		.syntax unified
 3909              		.thumb
 3910              		.thumb_func
 3911              		.fpu fpv4-sp-d16
 3913              	lis2de12_int2_gen_threshold_get:
 3914              	.LFB649:
1258:../Drivers/BSP/Components/lis2de12/lis2de12.c **** 
1259:../Drivers/BSP/Components/lis2de12/lis2de12.c **** /**
1260:../Drivers/BSP/Components/lis2de12/lis2de12.c ****   * @brief  User-defined threshold value for xl interrupt event on
1261:../Drivers/BSP/Components/lis2de12/lis2de12.c ****   *         generator 2.[get]
1262:../Drivers/BSP/Components/lis2de12/lis2de12.c ****   *         LSb = 16mg@2g / 32mg@4g / 62mg@8g / 186mg@16g
1263:../Drivers/BSP/Components/lis2de12/lis2de12.c ****   *
1264:../Drivers/BSP/Components/lis2de12/lis2de12.c **** 
1265:../Drivers/BSP/Components/lis2de12/lis2de12.c ****   * @param  val      change the values of ths in reg INT2_THS
1266:../Drivers/BSP/Components/lis2de12/lis2de12.c ****   * @retval          interface status (MANDATORY: return 0 -> no Error)
1267:../Drivers/BSP/Components/lis2de12/lis2de12.c ****   *
1268:../Drivers/BSP/Components/lis2de12/lis2de12.c ****   */
1269:../Drivers/BSP/Components/lis2de12/lis2de12.c **** int32_t lis2de12_int2_gen_threshold_get( uint8_t* val )
1270:../Drivers/BSP/Components/lis2de12/lis2de12.c **** {
 3915              		.loc 1 1270 1
 3916              		.cfi_startproc
 3917              		@ args = 0, pretend = 0, frame = 16
 3918              		@ frame_needed = 1, uses_anonymous_args = 0
 3919 0000 80B5     		push	{r7, lr}
 3920              	.LCFI296:
 3921              		.cfi_def_cfa_offset 8
 3922              		.cfi_offset 7, -8
 3923              		.cfi_offset 14, -4
 3924 0002 84B0     		sub	sp, sp, #16
ARM GAS  /tmp/ccjphgoR.s 			page 90


 3925              	.LCFI297:
 3926              		.cfi_def_cfa_offset 24
 3927 0004 00AF     		add	r7, sp, #0
 3928              	.LCFI298:
 3929              		.cfi_def_cfa_register 7
 3930 0006 7860     		str	r0, [r7, #4]
1271:../Drivers/BSP/Components/lis2de12/lis2de12.c ****     lis2de12_int2_ths_t int2_ths;
1272:../Drivers/BSP/Components/lis2de12/lis2de12.c ****     int32_t             ret;
1273:../Drivers/BSP/Components/lis2de12/lis2de12.c **** 
1274:../Drivers/BSP/Components/lis2de12/lis2de12.c ****     ret  = lis2de12_read_reg( LIS2DE12_INT2_THS, ( uint8_t* ) &int2_ths, 1 );
 3931              		.loc 1 1274 12
 3932 0008 07F10803 		add	r3, r7, #8
 3933 000c 0122     		movs	r2, #1
 3934 000e 1946     		mov	r1, r3
 3935 0010 3620     		movs	r0, #54
 3936 0012 FFF7FEFF 		bl	lis2de12_read_reg
 3937 0016 F860     		str	r0, [r7, #12]
1275:../Drivers/BSP/Components/lis2de12/lis2de12.c ****     *val = ( uint8_t ) int2_ths.ths;
 3938              		.loc 1 1275 32
 3939 0018 3B7A     		ldrb	r3, [r7, #8]
 3940 001a C3F30603 		ubfx	r3, r3, #0, #7
 3941 001e DBB2     		uxtb	r3, r3
 3942              		.loc 1 1275 12
 3943 0020 1A46     		mov	r2, r3
 3944              		.loc 1 1275 10
 3945 0022 7B68     		ldr	r3, [r7, #4]
 3946 0024 1A70     		strb	r2, [r3]
1276:../Drivers/BSP/Components/lis2de12/lis2de12.c **** 
1277:../Drivers/BSP/Components/lis2de12/lis2de12.c ****     return ret;
 3947              		.loc 1 1277 12
 3948 0026 FB68     		ldr	r3, [r7, #12]
1278:../Drivers/BSP/Components/lis2de12/lis2de12.c **** }
 3949              		.loc 1 1278 1
 3950 0028 1846     		mov	r0, r3
 3951 002a 1037     		adds	r7, r7, #16
 3952              	.LCFI299:
 3953              		.cfi_def_cfa_offset 8
 3954 002c BD46     		mov	sp, r7
 3955              	.LCFI300:
 3956              		.cfi_def_cfa_register 13
 3957              		@ sp needed
 3958 002e 80BD     		pop	{r7, pc}
 3959              		.cfi_endproc
 3960              	.LFE649:
 3962              		.section	.text.lis2de12_int2_gen_duration_set,"ax",%progbits
 3963              		.align	1
 3964              		.global	lis2de12_int2_gen_duration_set
 3965              		.syntax unified
 3966              		.thumb
 3967              		.thumb_func
 3968              		.fpu fpv4-sp-d16
 3970              	lis2de12_int2_gen_duration_set:
 3971              	.LFB650:
1279:../Drivers/BSP/Components/lis2de12/lis2de12.c **** 
1280:../Drivers/BSP/Components/lis2de12/lis2de12.c **** /**
1281:../Drivers/BSP/Components/lis2de12/lis2de12.c ****   * @brief  The minimum duration (LSb = 1/ODR) of the Interrupt 1 event to be
1282:../Drivers/BSP/Components/lis2de12/lis2de12.c ****   *         recognized .[set]
ARM GAS  /tmp/ccjphgoR.s 			page 91


1283:../Drivers/BSP/Components/lis2de12/lis2de12.c ****   *
1284:../Drivers/BSP/Components/lis2de12/lis2de12.c **** 
1285:../Drivers/BSP/Components/lis2de12/lis2de12.c ****   * @param  val      change the values of d in reg INT2_DURATION
1286:../Drivers/BSP/Components/lis2de12/lis2de12.c ****   * @retval          interface status (MANDATORY: return 0 -> no Error)
1287:../Drivers/BSP/Components/lis2de12/lis2de12.c ****   *
1288:../Drivers/BSP/Components/lis2de12/lis2de12.c ****   */
1289:../Drivers/BSP/Components/lis2de12/lis2de12.c **** int32_t lis2de12_int2_gen_duration_set( uint8_t val )
1290:../Drivers/BSP/Components/lis2de12/lis2de12.c **** {
 3972              		.loc 1 1290 1
 3973              		.cfi_startproc
 3974              		@ args = 0, pretend = 0, frame = 16
 3975              		@ frame_needed = 1, uses_anonymous_args = 0
 3976 0000 80B5     		push	{r7, lr}
 3977              	.LCFI301:
 3978              		.cfi_def_cfa_offset 8
 3979              		.cfi_offset 7, -8
 3980              		.cfi_offset 14, -4
 3981 0002 84B0     		sub	sp, sp, #16
 3982              	.LCFI302:
 3983              		.cfi_def_cfa_offset 24
 3984 0004 00AF     		add	r7, sp, #0
 3985              	.LCFI303:
 3986              		.cfi_def_cfa_register 7
 3987 0006 0346     		mov	r3, r0
 3988 0008 FB71     		strb	r3, [r7, #7]
1291:../Drivers/BSP/Components/lis2de12/lis2de12.c ****     lis2de12_int2_duration_t int2_duration;
1292:../Drivers/BSP/Components/lis2de12/lis2de12.c ****     int32_t                  ret;
1293:../Drivers/BSP/Components/lis2de12/lis2de12.c **** 
1294:../Drivers/BSP/Components/lis2de12/lis2de12.c ****     ret = lis2de12_read_reg( LIS2DE12_INT2_DURATION, ( uint8_t* ) &int2_duration, 1 );
 3989              		.loc 1 1294 11
 3990 000a 07F10803 		add	r3, r7, #8
 3991 000e 0122     		movs	r2, #1
 3992 0010 1946     		mov	r1, r3
 3993 0012 3720     		movs	r0, #55
 3994 0014 FFF7FEFF 		bl	lis2de12_read_reg
 3995 0018 F860     		str	r0, [r7, #12]
1295:../Drivers/BSP/Components/lis2de12/lis2de12.c ****     if( ret == 0 )
 3996              		.loc 1 1295 7
 3997 001a FB68     		ldr	r3, [r7, #12]
 3998 001c 002B     		cmp	r3, #0
 3999 001e 0FD1     		bne	.L215
1296:../Drivers/BSP/Components/lis2de12/lis2de12.c ****     {
1297:../Drivers/BSP/Components/lis2de12/lis2de12.c ****         int2_duration.d = val;
 4000              		.loc 1 1297 25
 4001 0020 FB79     		ldrb	r3, [r7, #7]
 4002 0022 03F07F03 		and	r3, r3, #127
 4003 0026 DAB2     		uxtb	r2, r3
 4004 0028 3B7A     		ldrb	r3, [r7, #8]
 4005 002a 62F30603 		bfi	r3, r2, #0, #7
 4006 002e 3B72     		strb	r3, [r7, #8]
1298:../Drivers/BSP/Components/lis2de12/lis2de12.c ****         ret             = lis2de12_write_reg( LIS2DE12_INT2_DURATION, ( uint8_t* ) &int2_duration, 
 4007              		.loc 1 1298 27
 4008 0030 07F10803 		add	r3, r7, #8
 4009 0034 0122     		movs	r2, #1
 4010 0036 1946     		mov	r1, r3
 4011 0038 3720     		movs	r0, #55
 4012 003a FFF7FEFF 		bl	lis2de12_write_reg
ARM GAS  /tmp/ccjphgoR.s 			page 92


 4013 003e F860     		str	r0, [r7, #12]
 4014              	.L215:
1299:../Drivers/BSP/Components/lis2de12/lis2de12.c ****     }
1300:../Drivers/BSP/Components/lis2de12/lis2de12.c ****     return ret;
 4015              		.loc 1 1300 12
 4016 0040 FB68     		ldr	r3, [r7, #12]
1301:../Drivers/BSP/Components/lis2de12/lis2de12.c **** }
 4017              		.loc 1 1301 1
 4018 0042 1846     		mov	r0, r3
 4019 0044 1037     		adds	r7, r7, #16
 4020              	.LCFI304:
 4021              		.cfi_def_cfa_offset 8
 4022 0046 BD46     		mov	sp, r7
 4023              	.LCFI305:
 4024              		.cfi_def_cfa_register 13
 4025              		@ sp needed
 4026 0048 80BD     		pop	{r7, pc}
 4027              		.cfi_endproc
 4028              	.LFE650:
 4030              		.section	.text.lis2de12_int2_gen_duration_get,"ax",%progbits
 4031              		.align	1
 4032              		.global	lis2de12_int2_gen_duration_get
 4033              		.syntax unified
 4034              		.thumb
 4035              		.thumb_func
 4036              		.fpu fpv4-sp-d16
 4038              	lis2de12_int2_gen_duration_get:
 4039              	.LFB651:
1302:../Drivers/BSP/Components/lis2de12/lis2de12.c **** 
1303:../Drivers/BSP/Components/lis2de12/lis2de12.c **** /**
1304:../Drivers/BSP/Components/lis2de12/lis2de12.c ****   * @brief  The minimum duration (LSb = 1/ODR) of the Interrupt 1 event to be
1305:../Drivers/BSP/Components/lis2de12/lis2de12.c ****   *         recognized.[get]
1306:../Drivers/BSP/Components/lis2de12/lis2de12.c ****   *
1307:../Drivers/BSP/Components/lis2de12/lis2de12.c **** 
1308:../Drivers/BSP/Components/lis2de12/lis2de12.c ****   * @param  val      change the values of d in reg INT2_DURATION
1309:../Drivers/BSP/Components/lis2de12/lis2de12.c ****   * @retval          interface status (MANDATORY: return 0 -> no Error)
1310:../Drivers/BSP/Components/lis2de12/lis2de12.c ****   *
1311:../Drivers/BSP/Components/lis2de12/lis2de12.c ****   */
1312:../Drivers/BSP/Components/lis2de12/lis2de12.c **** int32_t lis2de12_int2_gen_duration_get( uint8_t* val )
1313:../Drivers/BSP/Components/lis2de12/lis2de12.c **** {
 4040              		.loc 1 1313 1
 4041              		.cfi_startproc
 4042              		@ args = 0, pretend = 0, frame = 16
 4043              		@ frame_needed = 1, uses_anonymous_args = 0
 4044 0000 80B5     		push	{r7, lr}
 4045              	.LCFI306:
 4046              		.cfi_def_cfa_offset 8
 4047              		.cfi_offset 7, -8
 4048              		.cfi_offset 14, -4
 4049 0002 84B0     		sub	sp, sp, #16
 4050              	.LCFI307:
 4051              		.cfi_def_cfa_offset 24
 4052 0004 00AF     		add	r7, sp, #0
 4053              	.LCFI308:
 4054              		.cfi_def_cfa_register 7
 4055 0006 7860     		str	r0, [r7, #4]
1314:../Drivers/BSP/Components/lis2de12/lis2de12.c ****     lis2de12_int2_duration_t int2_duration;
ARM GAS  /tmp/ccjphgoR.s 			page 93


1315:../Drivers/BSP/Components/lis2de12/lis2de12.c ****     int32_t                  ret;
1316:../Drivers/BSP/Components/lis2de12/lis2de12.c **** 
1317:../Drivers/BSP/Components/lis2de12/lis2de12.c ****     ret  = lis2de12_read_reg( LIS2DE12_INT2_DURATION, ( uint8_t* ) &int2_duration, 1 );
 4056              		.loc 1 1317 12
 4057 0008 07F10803 		add	r3, r7, #8
 4058 000c 0122     		movs	r2, #1
 4059 000e 1946     		mov	r1, r3
 4060 0010 3720     		movs	r0, #55
 4061 0012 FFF7FEFF 		bl	lis2de12_read_reg
 4062 0016 F860     		str	r0, [r7, #12]
1318:../Drivers/BSP/Components/lis2de12/lis2de12.c ****     *val = ( uint8_t ) int2_duration.d;
 4063              		.loc 1 1318 37
 4064 0018 3B7A     		ldrb	r3, [r7, #8]
 4065 001a C3F30603 		ubfx	r3, r3, #0, #7
 4066 001e DBB2     		uxtb	r3, r3
 4067              		.loc 1 1318 12
 4068 0020 1A46     		mov	r2, r3
 4069              		.loc 1 1318 10
 4070 0022 7B68     		ldr	r3, [r7, #4]
 4071 0024 1A70     		strb	r2, [r3]
1319:../Drivers/BSP/Components/lis2de12/lis2de12.c **** 
1320:../Drivers/BSP/Components/lis2de12/lis2de12.c ****     return ret;
 4072              		.loc 1 1320 12
 4073 0026 FB68     		ldr	r3, [r7, #12]
1321:../Drivers/BSP/Components/lis2de12/lis2de12.c **** }
 4074              		.loc 1 1321 1
 4075 0028 1846     		mov	r0, r3
 4076 002a 1037     		adds	r7, r7, #16
 4077              	.LCFI309:
 4078              		.cfi_def_cfa_offset 8
 4079 002c BD46     		mov	sp, r7
 4080              	.LCFI310:
 4081              		.cfi_def_cfa_register 13
 4082              		@ sp needed
 4083 002e 80BD     		pop	{r7, pc}
 4084              		.cfi_endproc
 4085              	.LFE651:
 4087              		.section	.text.lis2de12_high_pass_int_conf_set,"ax",%progbits
 4088              		.align	1
 4089              		.global	lis2de12_high_pass_int_conf_set
 4090              		.syntax unified
 4091              		.thumb
 4092              		.thumb_func
 4093              		.fpu fpv4-sp-d16
 4095              	lis2de12_high_pass_int_conf_set:
 4096              	.LFB652:
1322:../Drivers/BSP/Components/lis2de12/lis2de12.c **** 
1323:../Drivers/BSP/Components/lis2de12/lis2de12.c **** /**
1324:../Drivers/BSP/Components/lis2de12/lis2de12.c ****  * @}
1325:../Drivers/BSP/Components/lis2de12/lis2de12.c ****  *
1326:../Drivers/BSP/Components/lis2de12/lis2de12.c ****  */
1327:../Drivers/BSP/Components/lis2de12/lis2de12.c **** 
1328:../Drivers/BSP/Components/lis2de12/lis2de12.c **** /**
1329:../Drivers/BSP/Components/lis2de12/lis2de12.c ****  * @defgroup  LIS2DE12_Interrupt_pins
1330:../Drivers/BSP/Components/lis2de12/lis2de12.c ****  * @brief     This section group all the functions that manage interrup pins
1331:../Drivers/BSP/Components/lis2de12/lis2de12.c ****  * @{
1332:../Drivers/BSP/Components/lis2de12/lis2de12.c ****  *
ARM GAS  /tmp/ccjphgoR.s 			page 94


1333:../Drivers/BSP/Components/lis2de12/lis2de12.c ****  */
1334:../Drivers/BSP/Components/lis2de12/lis2de12.c **** 
1335:../Drivers/BSP/Components/lis2de12/lis2de12.c **** /**
1336:../Drivers/BSP/Components/lis2de12/lis2de12.c ****   * @brief  High-pass filter on interrupts/tap generator.[set]
1337:../Drivers/BSP/Components/lis2de12/lis2de12.c ****   *
1338:../Drivers/BSP/Components/lis2de12/lis2de12.c **** 
1339:../Drivers/BSP/Components/lis2de12/lis2de12.c ****   * @param  val      change the values of hp in reg CTRL_REG2
1340:../Drivers/BSP/Components/lis2de12/lis2de12.c ****   * @retval          interface status (MANDATORY: return 0 -> no Error)
1341:../Drivers/BSP/Components/lis2de12/lis2de12.c ****   *
1342:../Drivers/BSP/Components/lis2de12/lis2de12.c ****   */
1343:../Drivers/BSP/Components/lis2de12/lis2de12.c **** int32_t lis2de12_high_pass_int_conf_set( lis2de12_hp_t val )
1344:../Drivers/BSP/Components/lis2de12/lis2de12.c **** {
 4097              		.loc 1 1344 1
 4098              		.cfi_startproc
 4099              		@ args = 0, pretend = 0, frame = 16
 4100              		@ frame_needed = 1, uses_anonymous_args = 0
 4101 0000 80B5     		push	{r7, lr}
 4102              	.LCFI311:
 4103              		.cfi_def_cfa_offset 8
 4104              		.cfi_offset 7, -8
 4105              		.cfi_offset 14, -4
 4106 0002 84B0     		sub	sp, sp, #16
 4107              	.LCFI312:
 4108              		.cfi_def_cfa_offset 24
 4109 0004 00AF     		add	r7, sp, #0
 4110              	.LCFI313:
 4111              		.cfi_def_cfa_register 7
 4112 0006 0346     		mov	r3, r0
 4113 0008 FB71     		strb	r3, [r7, #7]
1345:../Drivers/BSP/Components/lis2de12/lis2de12.c ****     lis2de12_ctrl_reg2_t ctrl_reg2;
1346:../Drivers/BSP/Components/lis2de12/lis2de12.c ****     int32_t              ret;
1347:../Drivers/BSP/Components/lis2de12/lis2de12.c **** 
1348:../Drivers/BSP/Components/lis2de12/lis2de12.c ****     ret = lis2de12_read_reg( LIS2DE12_CTRL_REG2, ( uint8_t* ) &ctrl_reg2, 1 );
 4114              		.loc 1 1348 11
 4115 000a 07F10803 		add	r3, r7, #8
 4116 000e 0122     		movs	r2, #1
 4117 0010 1946     		mov	r1, r3
 4118 0012 2120     		movs	r0, #33
 4119 0014 FFF7FEFF 		bl	lis2de12_read_reg
 4120 0018 F860     		str	r0, [r7, #12]
1349:../Drivers/BSP/Components/lis2de12/lis2de12.c ****     if( ret == 0 )
 4121              		.loc 1 1349 7
 4122 001a FB68     		ldr	r3, [r7, #12]
 4123 001c 002B     		cmp	r3, #0
 4124 001e 0FD1     		bne	.L220
1350:../Drivers/BSP/Components/lis2de12/lis2de12.c ****     {
1351:../Drivers/BSP/Components/lis2de12/lis2de12.c ****         ctrl_reg2.hp = ( uint8_t ) val;
 4125              		.loc 1 1351 24
 4126 0020 FB79     		ldrb	r3, [r7, #7]
 4127 0022 03F00703 		and	r3, r3, #7
 4128 0026 DAB2     		uxtb	r2, r3
 4129              		.loc 1 1351 22
 4130 0028 3B7A     		ldrb	r3, [r7, #8]
 4131 002a 62F30203 		bfi	r3, r2, #0, #3
 4132 002e 3B72     		strb	r3, [r7, #8]
1352:../Drivers/BSP/Components/lis2de12/lis2de12.c ****         ret          = lis2de12_write_reg( LIS2DE12_CTRL_REG2, ( uint8_t* ) &ctrl_reg2, 1 );
 4133              		.loc 1 1352 24
ARM GAS  /tmp/ccjphgoR.s 			page 95


 4134 0030 07F10803 		add	r3, r7, #8
 4135 0034 0122     		movs	r2, #1
 4136 0036 1946     		mov	r1, r3
 4137 0038 2120     		movs	r0, #33
 4138 003a FFF7FEFF 		bl	lis2de12_write_reg
 4139 003e F860     		str	r0, [r7, #12]
 4140              	.L220:
1353:../Drivers/BSP/Components/lis2de12/lis2de12.c ****     }
1354:../Drivers/BSP/Components/lis2de12/lis2de12.c ****     return ret;
 4141              		.loc 1 1354 12
 4142 0040 FB68     		ldr	r3, [r7, #12]
1355:../Drivers/BSP/Components/lis2de12/lis2de12.c **** }
 4143              		.loc 1 1355 1
 4144 0042 1846     		mov	r0, r3
 4145 0044 1037     		adds	r7, r7, #16
 4146              	.LCFI314:
 4147              		.cfi_def_cfa_offset 8
 4148 0046 BD46     		mov	sp, r7
 4149              	.LCFI315:
 4150              		.cfi_def_cfa_register 13
 4151              		@ sp needed
 4152 0048 80BD     		pop	{r7, pc}
 4153              		.cfi_endproc
 4154              	.LFE652:
 4156              		.section	.text.lis2de12_high_pass_int_conf_get,"ax",%progbits
 4157              		.align	1
 4158              		.global	lis2de12_high_pass_int_conf_get
 4159              		.syntax unified
 4160              		.thumb
 4161              		.thumb_func
 4162              		.fpu fpv4-sp-d16
 4164              	lis2de12_high_pass_int_conf_get:
 4165              	.LFB653:
1356:../Drivers/BSP/Components/lis2de12/lis2de12.c **** 
1357:../Drivers/BSP/Components/lis2de12/lis2de12.c **** /**
1358:../Drivers/BSP/Components/lis2de12/lis2de12.c ****   * @brief  High-pass filter on interrupts/tap generator.[get]
1359:../Drivers/BSP/Components/lis2de12/lis2de12.c ****   *
1360:../Drivers/BSP/Components/lis2de12/lis2de12.c **** 
1361:../Drivers/BSP/Components/lis2de12/lis2de12.c ****   * @param  val      Get the values of hp in reg CTRL_REG2
1362:../Drivers/BSP/Components/lis2de12/lis2de12.c ****   * @retval          interface status (MANDATORY: return 0 -> no Error)
1363:../Drivers/BSP/Components/lis2de12/lis2de12.c ****   *
1364:../Drivers/BSP/Components/lis2de12/lis2de12.c ****   */
1365:../Drivers/BSP/Components/lis2de12/lis2de12.c **** int32_t lis2de12_high_pass_int_conf_get( lis2de12_hp_t* val )
1366:../Drivers/BSP/Components/lis2de12/lis2de12.c **** {
 4166              		.loc 1 1366 1
 4167              		.cfi_startproc
 4168              		@ args = 0, pretend = 0, frame = 16
 4169              		@ frame_needed = 1, uses_anonymous_args = 0
 4170 0000 80B5     		push	{r7, lr}
 4171              	.LCFI316:
 4172              		.cfi_def_cfa_offset 8
 4173              		.cfi_offset 7, -8
 4174              		.cfi_offset 14, -4
 4175 0002 84B0     		sub	sp, sp, #16
 4176              	.LCFI317:
 4177              		.cfi_def_cfa_offset 24
 4178 0004 00AF     		add	r7, sp, #0
ARM GAS  /tmp/ccjphgoR.s 			page 96


 4179              	.LCFI318:
 4180              		.cfi_def_cfa_register 7
 4181 0006 7860     		str	r0, [r7, #4]
1367:../Drivers/BSP/Components/lis2de12/lis2de12.c ****     lis2de12_ctrl_reg2_t ctrl_reg2;
1368:../Drivers/BSP/Components/lis2de12/lis2de12.c ****     int32_t              ret;
1369:../Drivers/BSP/Components/lis2de12/lis2de12.c **** 
1370:../Drivers/BSP/Components/lis2de12/lis2de12.c ****     ret = lis2de12_read_reg( LIS2DE12_CTRL_REG2, ( uint8_t* ) &ctrl_reg2, 1 );
 4182              		.loc 1 1370 11
 4183 0008 07F10803 		add	r3, r7, #8
 4184 000c 0122     		movs	r2, #1
 4185 000e 1946     		mov	r1, r3
 4186 0010 2120     		movs	r0, #33
 4187 0012 FFF7FEFF 		bl	lis2de12_read_reg
 4188 0016 F860     		str	r0, [r7, #12]
1371:../Drivers/BSP/Components/lis2de12/lis2de12.c ****     switch( ctrl_reg2.hp )
 4189              		.loc 1 1371 22
 4190 0018 3B7A     		ldrb	r3, [r7, #8]
 4191 001a C3F30203 		ubfx	r3, r3, #0, #3
 4192 001e DBB2     		uxtb	r3, r3
 4193              		.loc 1 1371 5
 4194 0020 072B     		cmp	r3, #7
 4195 0022 33D8     		bhi	.L223
 4196 0024 01A2     		adr	r2, .L225
 4197 0026 52F823F0 		ldr	pc, [r2, r3, lsl #2]
 4198 002a 00BF     		.p2align 2
 4199              	.L225:
 4200 002c 4D000000 		.word	.L232+1
 4201 0030 55000000 		.word	.L231+1
 4202 0034 5D000000 		.word	.L230+1
 4203 0038 6D000000 		.word	.L229+1
 4204 003c 65000000 		.word	.L228+1
 4205 0040 75000000 		.word	.L227+1
 4206 0044 7D000000 		.word	.L226+1
 4207 0048 85000000 		.word	.L224+1
 4208              		.p2align 1
 4209              	.L232:
1372:../Drivers/BSP/Components/lis2de12/lis2de12.c ****     {
1373:../Drivers/BSP/Components/lis2de12/lis2de12.c ****     case LIS2DE12_DISC_FROM_INT_GENERATOR:
1374:../Drivers/BSP/Components/lis2de12/lis2de12.c ****         *val = LIS2DE12_DISC_FROM_INT_GENERATOR;
 4210              		.loc 1 1374 14
 4211 004c 7B68     		ldr	r3, [r7, #4]
 4212 004e 0022     		movs	r2, #0
 4213 0050 1A70     		strb	r2, [r3]
1375:../Drivers/BSP/Components/lis2de12/lis2de12.c ****         break;
 4214              		.loc 1 1375 9
 4215 0052 1FE0     		b	.L233
 4216              	.L231:
1376:../Drivers/BSP/Components/lis2de12/lis2de12.c ****     case LIS2DE12_ON_INT1_GEN:
1377:../Drivers/BSP/Components/lis2de12/lis2de12.c ****         *val = LIS2DE12_ON_INT1_GEN;
 4217              		.loc 1 1377 14
 4218 0054 7B68     		ldr	r3, [r7, #4]
 4219 0056 0122     		movs	r2, #1
 4220 0058 1A70     		strb	r2, [r3]
1378:../Drivers/BSP/Components/lis2de12/lis2de12.c ****         break;
 4221              		.loc 1 1378 9
 4222 005a 1BE0     		b	.L233
 4223              	.L230:
ARM GAS  /tmp/ccjphgoR.s 			page 97


1379:../Drivers/BSP/Components/lis2de12/lis2de12.c ****     case LIS2DE12_ON_INT2_GEN:
1380:../Drivers/BSP/Components/lis2de12/lis2de12.c ****         *val = LIS2DE12_ON_INT2_GEN;
 4224              		.loc 1 1380 14
 4225 005c 7B68     		ldr	r3, [r7, #4]
 4226 005e 0222     		movs	r2, #2
 4227 0060 1A70     		strb	r2, [r3]
1381:../Drivers/BSP/Components/lis2de12/lis2de12.c ****         break;
 4228              		.loc 1 1381 9
 4229 0062 17E0     		b	.L233
 4230              	.L228:
1382:../Drivers/BSP/Components/lis2de12/lis2de12.c ****     case LIS2DE12_ON_TAP_GEN:
1383:../Drivers/BSP/Components/lis2de12/lis2de12.c ****         *val = LIS2DE12_ON_TAP_GEN;
 4231              		.loc 1 1383 14
 4232 0064 7B68     		ldr	r3, [r7, #4]
 4233 0066 0422     		movs	r2, #4
 4234 0068 1A70     		strb	r2, [r3]
1384:../Drivers/BSP/Components/lis2de12/lis2de12.c ****         break;
 4235              		.loc 1 1384 9
 4236 006a 13E0     		b	.L233
 4237              	.L229:
1385:../Drivers/BSP/Components/lis2de12/lis2de12.c ****     case LIS2DE12_ON_INT1_INT2_GEN:
1386:../Drivers/BSP/Components/lis2de12/lis2de12.c ****         *val = LIS2DE12_ON_INT1_INT2_GEN;
 4238              		.loc 1 1386 14
 4239 006c 7B68     		ldr	r3, [r7, #4]
 4240 006e 0322     		movs	r2, #3
 4241 0070 1A70     		strb	r2, [r3]
1387:../Drivers/BSP/Components/lis2de12/lis2de12.c ****         break;
 4242              		.loc 1 1387 9
 4243 0072 0FE0     		b	.L233
 4244              	.L227:
1388:../Drivers/BSP/Components/lis2de12/lis2de12.c ****     case LIS2DE12_ON_INT1_TAP_GEN:
1389:../Drivers/BSP/Components/lis2de12/lis2de12.c ****         *val = LIS2DE12_ON_INT1_TAP_GEN;
 4245              		.loc 1 1389 14
 4246 0074 7B68     		ldr	r3, [r7, #4]
 4247 0076 0522     		movs	r2, #5
 4248 0078 1A70     		strb	r2, [r3]
1390:../Drivers/BSP/Components/lis2de12/lis2de12.c ****         break;
 4249              		.loc 1 1390 9
 4250 007a 0BE0     		b	.L233
 4251              	.L226:
1391:../Drivers/BSP/Components/lis2de12/lis2de12.c ****     case LIS2DE12_ON_INT2_TAP_GEN:
1392:../Drivers/BSP/Components/lis2de12/lis2de12.c ****         *val = LIS2DE12_ON_INT2_TAP_GEN;
 4252              		.loc 1 1392 14
 4253 007c 7B68     		ldr	r3, [r7, #4]
 4254 007e 0622     		movs	r2, #6
 4255 0080 1A70     		strb	r2, [r3]
1393:../Drivers/BSP/Components/lis2de12/lis2de12.c ****         break;
 4256              		.loc 1 1393 9
 4257 0082 07E0     		b	.L233
 4258              	.L224:
1394:../Drivers/BSP/Components/lis2de12/lis2de12.c ****     case LIS2DE12_ON_INT1_INT2_TAP_GEN:
1395:../Drivers/BSP/Components/lis2de12/lis2de12.c ****         *val = LIS2DE12_ON_INT1_INT2_TAP_GEN;
 4259              		.loc 1 1395 14
 4260 0084 7B68     		ldr	r3, [r7, #4]
 4261 0086 0722     		movs	r2, #7
 4262 0088 1A70     		strb	r2, [r3]
1396:../Drivers/BSP/Components/lis2de12/lis2de12.c ****         break;
ARM GAS  /tmp/ccjphgoR.s 			page 98


 4263              		.loc 1 1396 9
 4264 008a 03E0     		b	.L233
 4265              	.L223:
1397:../Drivers/BSP/Components/lis2de12/lis2de12.c ****     default:
1398:../Drivers/BSP/Components/lis2de12/lis2de12.c ****         *val = LIS2DE12_DISC_FROM_INT_GENERATOR;
 4266              		.loc 1 1398 14
 4267 008c 7B68     		ldr	r3, [r7, #4]
 4268 008e 0022     		movs	r2, #0
 4269 0090 1A70     		strb	r2, [r3]
1399:../Drivers/BSP/Components/lis2de12/lis2de12.c ****         break;
 4270              		.loc 1 1399 9
 4271 0092 00BF     		nop
 4272              	.L233:
1400:../Drivers/BSP/Components/lis2de12/lis2de12.c ****     }
1401:../Drivers/BSP/Components/lis2de12/lis2de12.c ****     return ret;
 4273              		.loc 1 1401 12
 4274 0094 FB68     		ldr	r3, [r7, #12]
1402:../Drivers/BSP/Components/lis2de12/lis2de12.c **** }
 4275              		.loc 1 1402 1
 4276 0096 1846     		mov	r0, r3
 4277 0098 1037     		adds	r7, r7, #16
 4278              	.LCFI319:
 4279              		.cfi_def_cfa_offset 8
 4280 009a BD46     		mov	sp, r7
 4281              	.LCFI320:
 4282              		.cfi_def_cfa_register 13
 4283              		@ sp needed
 4284 009c 80BD     		pop	{r7, pc}
 4285              		.cfi_endproc
 4286              	.LFE653:
 4288 009e 00BF     		.section	.text.lis2de12_pin_int1_config_set,"ax",%progbits
 4289              		.align	1
 4290              		.global	lis2de12_pin_int1_config_set
 4291              		.syntax unified
 4292              		.thumb
 4293              		.thumb_func
 4294              		.fpu fpv4-sp-d16
 4296              	lis2de12_pin_int1_config_set:
 4297              	.LFB654:
1403:../Drivers/BSP/Components/lis2de12/lis2de12.c **** 
1404:../Drivers/BSP/Components/lis2de12/lis2de12.c **** /**
1405:../Drivers/BSP/Components/lis2de12/lis2de12.c ****   * @brief  Int1 pin routing configuration register.[set]
1406:../Drivers/BSP/Components/lis2de12/lis2de12.c ****   *
1407:../Drivers/BSP/Components/lis2de12/lis2de12.c **** 
1408:../Drivers/BSP/Components/lis2de12/lis2de12.c ****   * @param  val      registers CTRL_REG3
1409:../Drivers/BSP/Components/lis2de12/lis2de12.c ****   * @retval          interface status (MANDATORY: return 0 -> no Error)
1410:../Drivers/BSP/Components/lis2de12/lis2de12.c ****   *
1411:../Drivers/BSP/Components/lis2de12/lis2de12.c ****   */
1412:../Drivers/BSP/Components/lis2de12/lis2de12.c **** int32_t lis2de12_pin_int1_config_set( lis2de12_ctrl_reg3_t* val )
1413:../Drivers/BSP/Components/lis2de12/lis2de12.c **** {
 4298              		.loc 1 1413 1
 4299              		.cfi_startproc
 4300              		@ args = 0, pretend = 0, frame = 16
 4301              		@ frame_needed = 1, uses_anonymous_args = 0
 4302 0000 80B5     		push	{r7, lr}
 4303              	.LCFI321:
 4304              		.cfi_def_cfa_offset 8
ARM GAS  /tmp/ccjphgoR.s 			page 99


 4305              		.cfi_offset 7, -8
 4306              		.cfi_offset 14, -4
 4307 0002 84B0     		sub	sp, sp, #16
 4308              	.LCFI322:
 4309              		.cfi_def_cfa_offset 24
 4310 0004 00AF     		add	r7, sp, #0
 4311              	.LCFI323:
 4312              		.cfi_def_cfa_register 7
 4313 0006 7860     		str	r0, [r7, #4]
1414:../Drivers/BSP/Components/lis2de12/lis2de12.c ****     int32_t ret;
1415:../Drivers/BSP/Components/lis2de12/lis2de12.c ****     ret = lis2de12_write_reg( LIS2DE12_CTRL_REG3, ( uint8_t* ) val, 1 );
 4314              		.loc 1 1415 11
 4315 0008 0122     		movs	r2, #1
 4316 000a 7968     		ldr	r1, [r7, #4]
 4317 000c 2220     		movs	r0, #34
 4318 000e FFF7FEFF 		bl	lis2de12_write_reg
 4319 0012 F860     		str	r0, [r7, #12]
1416:../Drivers/BSP/Components/lis2de12/lis2de12.c ****     return ret;
 4320              		.loc 1 1416 12
 4321 0014 FB68     		ldr	r3, [r7, #12]
1417:../Drivers/BSP/Components/lis2de12/lis2de12.c **** }
 4322              		.loc 1 1417 1
 4323 0016 1846     		mov	r0, r3
 4324 0018 1037     		adds	r7, r7, #16
 4325              	.LCFI324:
 4326              		.cfi_def_cfa_offset 8
 4327 001a BD46     		mov	sp, r7
 4328              	.LCFI325:
 4329              		.cfi_def_cfa_register 13
 4330              		@ sp needed
 4331 001c 80BD     		pop	{r7, pc}
 4332              		.cfi_endproc
 4333              	.LFE654:
 4335              		.section	.text.lis2de12_pin_int1_config_get,"ax",%progbits
 4336              		.align	1
 4337              		.global	lis2de12_pin_int1_config_get
 4338              		.syntax unified
 4339              		.thumb
 4340              		.thumb_func
 4341              		.fpu fpv4-sp-d16
 4343              	lis2de12_pin_int1_config_get:
 4344              	.LFB655:
1418:../Drivers/BSP/Components/lis2de12/lis2de12.c **** 
1419:../Drivers/BSP/Components/lis2de12/lis2de12.c **** /**
1420:../Drivers/BSP/Components/lis2de12/lis2de12.c ****   * @brief  Int1 pin routing configuration register.[get]
1421:../Drivers/BSP/Components/lis2de12/lis2de12.c ****   *
1422:../Drivers/BSP/Components/lis2de12/lis2de12.c **** 
1423:../Drivers/BSP/Components/lis2de12/lis2de12.c ****   * @param  val      registers CTRL_REG3
1424:../Drivers/BSP/Components/lis2de12/lis2de12.c ****   * @retval          interface status (MANDATORY: return 0 -> no Error)
1425:../Drivers/BSP/Components/lis2de12/lis2de12.c ****   *
1426:../Drivers/BSP/Components/lis2de12/lis2de12.c ****   */
1427:../Drivers/BSP/Components/lis2de12/lis2de12.c **** int32_t lis2de12_pin_int1_config_get( lis2de12_ctrl_reg3_t* val )
1428:../Drivers/BSP/Components/lis2de12/lis2de12.c **** {
 4345              		.loc 1 1428 1
 4346              		.cfi_startproc
 4347              		@ args = 0, pretend = 0, frame = 16
 4348              		@ frame_needed = 1, uses_anonymous_args = 0
ARM GAS  /tmp/ccjphgoR.s 			page 100


 4349 0000 80B5     		push	{r7, lr}
 4350              	.LCFI326:
 4351              		.cfi_def_cfa_offset 8
 4352              		.cfi_offset 7, -8
 4353              		.cfi_offset 14, -4
 4354 0002 84B0     		sub	sp, sp, #16
 4355              	.LCFI327:
 4356              		.cfi_def_cfa_offset 24
 4357 0004 00AF     		add	r7, sp, #0
 4358              	.LCFI328:
 4359              		.cfi_def_cfa_register 7
 4360 0006 7860     		str	r0, [r7, #4]
1429:../Drivers/BSP/Components/lis2de12/lis2de12.c ****     int32_t ret;
1430:../Drivers/BSP/Components/lis2de12/lis2de12.c ****     ret = lis2de12_read_reg( LIS2DE12_CTRL_REG3, ( uint8_t* ) val, 1 );
 4361              		.loc 1 1430 11
 4362 0008 0122     		movs	r2, #1
 4363 000a 7968     		ldr	r1, [r7, #4]
 4364 000c 2220     		movs	r0, #34
 4365 000e FFF7FEFF 		bl	lis2de12_read_reg
 4366 0012 F860     		str	r0, [r7, #12]
1431:../Drivers/BSP/Components/lis2de12/lis2de12.c ****     return ret;
 4367              		.loc 1 1431 12
 4368 0014 FB68     		ldr	r3, [r7, #12]
1432:../Drivers/BSP/Components/lis2de12/lis2de12.c **** }
 4369              		.loc 1 1432 1
 4370 0016 1846     		mov	r0, r3
 4371 0018 1037     		adds	r7, r7, #16
 4372              	.LCFI329:
 4373              		.cfi_def_cfa_offset 8
 4374 001a BD46     		mov	sp, r7
 4375              	.LCFI330:
 4376              		.cfi_def_cfa_register 13
 4377              		@ sp needed
 4378 001c 80BD     		pop	{r7, pc}
 4379              		.cfi_endproc
 4380              	.LFE655:
 4382              		.section	.text.lis2de12_int2_pin_detect_4d_set,"ax",%progbits
 4383              		.align	1
 4384              		.global	lis2de12_int2_pin_detect_4d_set
 4385              		.syntax unified
 4386              		.thumb
 4387              		.thumb_func
 4388              		.fpu fpv4-sp-d16
 4390              	lis2de12_int2_pin_detect_4d_set:
 4391              	.LFB656:
1433:../Drivers/BSP/Components/lis2de12/lis2de12.c **** /**
1434:../Drivers/BSP/Components/lis2de12/lis2de12.c ****   * @brief  int2_pin_detect_4d: [set]  4D enable: 4D detection is enabled
1435:../Drivers/BSP/Components/lis2de12/lis2de12.c ****   *                                    on INT2 pin when 6D bit on
1436:../Drivers/BSP/Components/lis2de12/lis2de12.c ****   *                                    INT2_CFG (34h) is set to 1.
1437:../Drivers/BSP/Components/lis2de12/lis2de12.c ****   *
1438:../Drivers/BSP/Components/lis2de12/lis2de12.c **** 
1439:../Drivers/BSP/Components/lis2de12/lis2de12.c ****   * @param  val      change the values of d4d_int2 in reg CTRL_REG5
1440:../Drivers/BSP/Components/lis2de12/lis2de12.c ****   * @retval          interface status (MANDATORY: return 0 -> no Error)
1441:../Drivers/BSP/Components/lis2de12/lis2de12.c ****   *
1442:../Drivers/BSP/Components/lis2de12/lis2de12.c ****   */
1443:../Drivers/BSP/Components/lis2de12/lis2de12.c **** int32_t lis2de12_int2_pin_detect_4d_set( uint8_t val )
1444:../Drivers/BSP/Components/lis2de12/lis2de12.c **** {
ARM GAS  /tmp/ccjphgoR.s 			page 101


 4392              		.loc 1 1444 1
 4393              		.cfi_startproc
 4394              		@ args = 0, pretend = 0, frame = 16
 4395              		@ frame_needed = 1, uses_anonymous_args = 0
 4396 0000 80B5     		push	{r7, lr}
 4397              	.LCFI331:
 4398              		.cfi_def_cfa_offset 8
 4399              		.cfi_offset 7, -8
 4400              		.cfi_offset 14, -4
 4401 0002 84B0     		sub	sp, sp, #16
 4402              	.LCFI332:
 4403              		.cfi_def_cfa_offset 24
 4404 0004 00AF     		add	r7, sp, #0
 4405              	.LCFI333:
 4406              		.cfi_def_cfa_register 7
 4407 0006 0346     		mov	r3, r0
 4408 0008 FB71     		strb	r3, [r7, #7]
1445:../Drivers/BSP/Components/lis2de12/lis2de12.c ****     lis2de12_ctrl_reg5_t ctrl_reg5;
1446:../Drivers/BSP/Components/lis2de12/lis2de12.c ****     int32_t              ret;
1447:../Drivers/BSP/Components/lis2de12/lis2de12.c **** 
1448:../Drivers/BSP/Components/lis2de12/lis2de12.c ****     ret = lis2de12_read_reg( LIS2DE12_CTRL_REG5, ( uint8_t* ) &ctrl_reg5, 1 );
 4409              		.loc 1 1448 11
 4410 000a 07F10803 		add	r3, r7, #8
 4411 000e 0122     		movs	r2, #1
 4412 0010 1946     		mov	r1, r3
 4413 0012 2420     		movs	r0, #36
 4414 0014 FFF7FEFF 		bl	lis2de12_read_reg
 4415 0018 F860     		str	r0, [r7, #12]
1449:../Drivers/BSP/Components/lis2de12/lis2de12.c ****     if( ret == 0 )
 4416              		.loc 1 1449 7
 4417 001a FB68     		ldr	r3, [r7, #12]
 4418 001c 002B     		cmp	r3, #0
 4419 001e 0FD1     		bne	.L240
1450:../Drivers/BSP/Components/lis2de12/lis2de12.c ****     {
1451:../Drivers/BSP/Components/lis2de12/lis2de12.c ****         ctrl_reg5.d4d_int2 = val;
 4420              		.loc 1 1451 28
 4421 0020 FB79     		ldrb	r3, [r7, #7]
 4422 0022 03F00103 		and	r3, r3, #1
 4423 0026 DAB2     		uxtb	r2, r3
 4424 0028 3B7A     		ldrb	r3, [r7, #8]
 4425 002a 62F30003 		bfi	r3, r2, #0, #1
 4426 002e 3B72     		strb	r3, [r7, #8]
1452:../Drivers/BSP/Components/lis2de12/lis2de12.c ****         ret                = lis2de12_write_reg( LIS2DE12_CTRL_REG5, ( uint8_t* ) &ctrl_reg5, 1 );
 4427              		.loc 1 1452 30
 4428 0030 07F10803 		add	r3, r7, #8
 4429 0034 0122     		movs	r2, #1
 4430 0036 1946     		mov	r1, r3
 4431 0038 2420     		movs	r0, #36
 4432 003a FFF7FEFF 		bl	lis2de12_write_reg
 4433 003e F860     		str	r0, [r7, #12]
 4434              	.L240:
1453:../Drivers/BSP/Components/lis2de12/lis2de12.c ****     }
1454:../Drivers/BSP/Components/lis2de12/lis2de12.c ****     return ret;
 4435              		.loc 1 1454 12
 4436 0040 FB68     		ldr	r3, [r7, #12]
1455:../Drivers/BSP/Components/lis2de12/lis2de12.c **** }
 4437              		.loc 1 1455 1
ARM GAS  /tmp/ccjphgoR.s 			page 102


 4438 0042 1846     		mov	r0, r3
 4439 0044 1037     		adds	r7, r7, #16
 4440              	.LCFI334:
 4441              		.cfi_def_cfa_offset 8
 4442 0046 BD46     		mov	sp, r7
 4443              	.LCFI335:
 4444              		.cfi_def_cfa_register 13
 4445              		@ sp needed
 4446 0048 80BD     		pop	{r7, pc}
 4447              		.cfi_endproc
 4448              	.LFE656:
 4450              		.section	.text.lis2de12_int2_pin_detect_4d_get,"ax",%progbits
 4451              		.align	1
 4452              		.global	lis2de12_int2_pin_detect_4d_get
 4453              		.syntax unified
 4454              		.thumb
 4455              		.thumb_func
 4456              		.fpu fpv4-sp-d16
 4458              	lis2de12_int2_pin_detect_4d_get:
 4459              	.LFB657:
1456:../Drivers/BSP/Components/lis2de12/lis2de12.c **** 
1457:../Drivers/BSP/Components/lis2de12/lis2de12.c **** /**
1458:../Drivers/BSP/Components/lis2de12/lis2de12.c ****   * @brief  4D enable: 4D detection is enabled on INT2 pin when 6D bit on
1459:../Drivers/BSP/Components/lis2de12/lis2de12.c ****   *         INT2_CFG (34h) is set to 1.[get]
1460:../Drivers/BSP/Components/lis2de12/lis2de12.c ****   *
1461:../Drivers/BSP/Components/lis2de12/lis2de12.c **** 
1462:../Drivers/BSP/Components/lis2de12/lis2de12.c ****   * @param  val      change the values of d4d_int2 in reg CTRL_REG5
1463:../Drivers/BSP/Components/lis2de12/lis2de12.c ****   * @retval          interface status (MANDATORY: return 0 -> no Error)
1464:../Drivers/BSP/Components/lis2de12/lis2de12.c ****   *
1465:../Drivers/BSP/Components/lis2de12/lis2de12.c ****   */
1466:../Drivers/BSP/Components/lis2de12/lis2de12.c **** int32_t lis2de12_int2_pin_detect_4d_get( uint8_t* val )
1467:../Drivers/BSP/Components/lis2de12/lis2de12.c **** {
 4460              		.loc 1 1467 1
 4461              		.cfi_startproc
 4462              		@ args = 0, pretend = 0, frame = 16
 4463              		@ frame_needed = 1, uses_anonymous_args = 0
 4464 0000 80B5     		push	{r7, lr}
 4465              	.LCFI336:
 4466              		.cfi_def_cfa_offset 8
 4467              		.cfi_offset 7, -8
 4468              		.cfi_offset 14, -4
 4469 0002 84B0     		sub	sp, sp, #16
 4470              	.LCFI337:
 4471              		.cfi_def_cfa_offset 24
 4472 0004 00AF     		add	r7, sp, #0
 4473              	.LCFI338:
 4474              		.cfi_def_cfa_register 7
 4475 0006 7860     		str	r0, [r7, #4]
1468:../Drivers/BSP/Components/lis2de12/lis2de12.c ****     lis2de12_ctrl_reg5_t ctrl_reg5;
1469:../Drivers/BSP/Components/lis2de12/lis2de12.c ****     int32_t              ret;
1470:../Drivers/BSP/Components/lis2de12/lis2de12.c **** 
1471:../Drivers/BSP/Components/lis2de12/lis2de12.c ****     ret  = lis2de12_read_reg( LIS2DE12_CTRL_REG5, ( uint8_t* ) &ctrl_reg5, 1 );
 4476              		.loc 1 1471 12
 4477 0008 07F10803 		add	r3, r7, #8
 4478 000c 0122     		movs	r2, #1
 4479 000e 1946     		mov	r1, r3
 4480 0010 2420     		movs	r0, #36
ARM GAS  /tmp/ccjphgoR.s 			page 103


 4481 0012 FFF7FEFF 		bl	lis2de12_read_reg
 4482 0016 F860     		str	r0, [r7, #12]
1472:../Drivers/BSP/Components/lis2de12/lis2de12.c ****     *val = ( uint8_t ) ctrl_reg5.d4d_int2;
 4483              		.loc 1 1472 33
 4484 0018 3B7A     		ldrb	r3, [r7, #8]
 4485 001a C3F30003 		ubfx	r3, r3, #0, #1
 4486 001e DBB2     		uxtb	r3, r3
 4487              		.loc 1 1472 12
 4488 0020 1A46     		mov	r2, r3
 4489              		.loc 1 1472 10
 4490 0022 7B68     		ldr	r3, [r7, #4]
 4491 0024 1A70     		strb	r2, [r3]
1473:../Drivers/BSP/Components/lis2de12/lis2de12.c **** 
1474:../Drivers/BSP/Components/lis2de12/lis2de12.c ****     return ret;
 4492              		.loc 1 1474 12
 4493 0026 FB68     		ldr	r3, [r7, #12]
1475:../Drivers/BSP/Components/lis2de12/lis2de12.c **** }
 4494              		.loc 1 1475 1
 4495 0028 1846     		mov	r0, r3
 4496 002a 1037     		adds	r7, r7, #16
 4497              	.LCFI339:
 4498              		.cfi_def_cfa_offset 8
 4499 002c BD46     		mov	sp, r7
 4500              	.LCFI340:
 4501              		.cfi_def_cfa_register 13
 4502              		@ sp needed
 4503 002e 80BD     		pop	{r7, pc}
 4504              		.cfi_endproc
 4505              	.LFE657:
 4507              		.section	.text.lis2de12_int2_pin_notification_mode_set,"ax",%progbits
 4508              		.align	1
 4509              		.global	lis2de12_int2_pin_notification_mode_set
 4510              		.syntax unified
 4511              		.thumb
 4512              		.thumb_func
 4513              		.fpu fpv4-sp-d16
 4515              	lis2de12_int2_pin_notification_mode_set:
 4516              	.LFB658:
1476:../Drivers/BSP/Components/lis2de12/lis2de12.c **** 
1477:../Drivers/BSP/Components/lis2de12/lis2de12.c **** /**
1478:../Drivers/BSP/Components/lis2de12/lis2de12.c ****   * @brief   Latch interrupt request on INT2_SRC (35h) register, with
1479:../Drivers/BSP/Components/lis2de12/lis2de12.c ****   *          INT2_SRC (35h) register cleared by reading INT2_SRC(35h)
1480:../Drivers/BSP/Components/lis2de12/lis2de12.c ****   *          itself.[set]
1481:../Drivers/BSP/Components/lis2de12/lis2de12.c ****   *
1482:../Drivers/BSP/Components/lis2de12/lis2de12.c **** 
1483:../Drivers/BSP/Components/lis2de12/lis2de12.c ****   * @param  val      change the values of lir_int2 in reg CTRL_REG5
1484:../Drivers/BSP/Components/lis2de12/lis2de12.c ****   * @retval          interface status (MANDATORY: return 0 -> no Error)
1485:../Drivers/BSP/Components/lis2de12/lis2de12.c ****   *
1486:../Drivers/BSP/Components/lis2de12/lis2de12.c ****   */
1487:../Drivers/BSP/Components/lis2de12/lis2de12.c **** int32_t lis2de12_int2_pin_notification_mode_set( lis2de12_lir_int2_t val )
1488:../Drivers/BSP/Components/lis2de12/lis2de12.c **** {
 4517              		.loc 1 1488 1
 4518              		.cfi_startproc
 4519              		@ args = 0, pretend = 0, frame = 16
 4520              		@ frame_needed = 1, uses_anonymous_args = 0
 4521 0000 80B5     		push	{r7, lr}
 4522              	.LCFI341:
ARM GAS  /tmp/ccjphgoR.s 			page 104


 4523              		.cfi_def_cfa_offset 8
 4524              		.cfi_offset 7, -8
 4525              		.cfi_offset 14, -4
 4526 0002 84B0     		sub	sp, sp, #16
 4527              	.LCFI342:
 4528              		.cfi_def_cfa_offset 24
 4529 0004 00AF     		add	r7, sp, #0
 4530              	.LCFI343:
 4531              		.cfi_def_cfa_register 7
 4532 0006 0346     		mov	r3, r0
 4533 0008 FB71     		strb	r3, [r7, #7]
1489:../Drivers/BSP/Components/lis2de12/lis2de12.c ****     lis2de12_ctrl_reg5_t ctrl_reg5;
1490:../Drivers/BSP/Components/lis2de12/lis2de12.c ****     int32_t              ret;
1491:../Drivers/BSP/Components/lis2de12/lis2de12.c **** 
1492:../Drivers/BSP/Components/lis2de12/lis2de12.c ****     ret = lis2de12_read_reg( LIS2DE12_CTRL_REG5, ( uint8_t* ) &ctrl_reg5, 1 );
 4534              		.loc 1 1492 11
 4535 000a 07F10803 		add	r3, r7, #8
 4536 000e 0122     		movs	r2, #1
 4537 0010 1946     		mov	r1, r3
 4538 0012 2420     		movs	r0, #36
 4539 0014 FFF7FEFF 		bl	lis2de12_read_reg
 4540 0018 F860     		str	r0, [r7, #12]
1493:../Drivers/BSP/Components/lis2de12/lis2de12.c ****     if( ret == 0 )
 4541              		.loc 1 1493 7
 4542 001a FB68     		ldr	r3, [r7, #12]
 4543 001c 002B     		cmp	r3, #0
 4544 001e 0FD1     		bne	.L245
1494:../Drivers/BSP/Components/lis2de12/lis2de12.c ****     {
1495:../Drivers/BSP/Components/lis2de12/lis2de12.c ****         ctrl_reg5.lir_int2 = ( uint8_t ) val;
 4545              		.loc 1 1495 30
 4546 0020 FB79     		ldrb	r3, [r7, #7]
 4547 0022 03F00103 		and	r3, r3, #1
 4548 0026 DAB2     		uxtb	r2, r3
 4549              		.loc 1 1495 28
 4550 0028 3B7A     		ldrb	r3, [r7, #8]
 4551 002a 62F34103 		bfi	r3, r2, #1, #1
 4552 002e 3B72     		strb	r3, [r7, #8]
1496:../Drivers/BSP/Components/lis2de12/lis2de12.c ****         ret                = lis2de12_write_reg( LIS2DE12_CTRL_REG5, ( uint8_t* ) &ctrl_reg5, 1 );
 4553              		.loc 1 1496 30
 4554 0030 07F10803 		add	r3, r7, #8
 4555 0034 0122     		movs	r2, #1
 4556 0036 1946     		mov	r1, r3
 4557 0038 2420     		movs	r0, #36
 4558 003a FFF7FEFF 		bl	lis2de12_write_reg
 4559 003e F860     		str	r0, [r7, #12]
 4560              	.L245:
1497:../Drivers/BSP/Components/lis2de12/lis2de12.c ****     }
1498:../Drivers/BSP/Components/lis2de12/lis2de12.c ****     return ret;
 4561              		.loc 1 1498 12
 4562 0040 FB68     		ldr	r3, [r7, #12]
1499:../Drivers/BSP/Components/lis2de12/lis2de12.c **** }
 4563              		.loc 1 1499 1
 4564 0042 1846     		mov	r0, r3
 4565 0044 1037     		adds	r7, r7, #16
 4566              	.LCFI344:
 4567              		.cfi_def_cfa_offset 8
 4568 0046 BD46     		mov	sp, r7
ARM GAS  /tmp/ccjphgoR.s 			page 105


 4569              	.LCFI345:
 4570              		.cfi_def_cfa_register 13
 4571              		@ sp needed
 4572 0048 80BD     		pop	{r7, pc}
 4573              		.cfi_endproc
 4574              	.LFE658:
 4576              		.section	.text.lis2de12_int2_pin_notification_mode_get,"ax",%progbits
 4577              		.align	1
 4578              		.global	lis2de12_int2_pin_notification_mode_get
 4579              		.syntax unified
 4580              		.thumb
 4581              		.thumb_func
 4582              		.fpu fpv4-sp-d16
 4584              	lis2de12_int2_pin_notification_mode_get:
 4585              	.LFB659:
1500:../Drivers/BSP/Components/lis2de12/lis2de12.c **** 
1501:../Drivers/BSP/Components/lis2de12/lis2de12.c **** /**
1502:../Drivers/BSP/Components/lis2de12/lis2de12.c ****   * @brief   Latch interrupt request on INT2_SRC (35h) register, with
1503:../Drivers/BSP/Components/lis2de12/lis2de12.c ****   *          INT2_SRC (35h) register cleared by reading INT2_SRC(35h)
1504:../Drivers/BSP/Components/lis2de12/lis2de12.c ****   *          itself.[get]
1505:../Drivers/BSP/Components/lis2de12/lis2de12.c ****   *
1506:../Drivers/BSP/Components/lis2de12/lis2de12.c **** 
1507:../Drivers/BSP/Components/lis2de12/lis2de12.c ****   * @param  val      Get the values of lir_int2 in reg CTRL_REG5
1508:../Drivers/BSP/Components/lis2de12/lis2de12.c ****   * @retval          interface status (MANDATORY: return 0 -> no Error)
1509:../Drivers/BSP/Components/lis2de12/lis2de12.c ****   *
1510:../Drivers/BSP/Components/lis2de12/lis2de12.c ****   */
1511:../Drivers/BSP/Components/lis2de12/lis2de12.c **** int32_t lis2de12_int2_pin_notification_mode_get( lis2de12_lir_int2_t* val )
1512:../Drivers/BSP/Components/lis2de12/lis2de12.c **** {
 4586              		.loc 1 1512 1
 4587              		.cfi_startproc
 4588              		@ args = 0, pretend = 0, frame = 16
 4589              		@ frame_needed = 1, uses_anonymous_args = 0
 4590 0000 80B5     		push	{r7, lr}
 4591              	.LCFI346:
 4592              		.cfi_def_cfa_offset 8
 4593              		.cfi_offset 7, -8
 4594              		.cfi_offset 14, -4
 4595 0002 84B0     		sub	sp, sp, #16
 4596              	.LCFI347:
 4597              		.cfi_def_cfa_offset 24
 4598 0004 00AF     		add	r7, sp, #0
 4599              	.LCFI348:
 4600              		.cfi_def_cfa_register 7
 4601 0006 7860     		str	r0, [r7, #4]
1513:../Drivers/BSP/Components/lis2de12/lis2de12.c ****     lis2de12_ctrl_reg5_t ctrl_reg5;
1514:../Drivers/BSP/Components/lis2de12/lis2de12.c ****     int32_t              ret;
1515:../Drivers/BSP/Components/lis2de12/lis2de12.c **** 
1516:../Drivers/BSP/Components/lis2de12/lis2de12.c ****     ret = lis2de12_read_reg( LIS2DE12_CTRL_REG5, ( uint8_t* ) &ctrl_reg5, 1 );
 4602              		.loc 1 1516 11
 4603 0008 07F10803 		add	r3, r7, #8
 4604 000c 0122     		movs	r2, #1
 4605 000e 1946     		mov	r1, r3
 4606 0010 2420     		movs	r0, #36
 4607 0012 FFF7FEFF 		bl	lis2de12_read_reg
 4608 0016 F860     		str	r0, [r7, #12]
1517:../Drivers/BSP/Components/lis2de12/lis2de12.c ****     switch( ctrl_reg5.lir_int2 )
 4609              		.loc 1 1517 22
ARM GAS  /tmp/ccjphgoR.s 			page 106


 4610 0018 3B7A     		ldrb	r3, [r7, #8]
 4611 001a C3F34003 		ubfx	r3, r3, #1, #1
 4612 001e DBB2     		uxtb	r3, r3
 4613              		.loc 1 1517 5
 4614 0020 002B     		cmp	r3, #0
 4615 0022 02D0     		beq	.L248
 4616 0024 012B     		cmp	r3, #1
 4617 0026 04D0     		beq	.L249
 4618 0028 07E0     		b	.L253
 4619              	.L248:
1518:../Drivers/BSP/Components/lis2de12/lis2de12.c ****     {
1519:../Drivers/BSP/Components/lis2de12/lis2de12.c ****     case LIS2DE12_INT2_PULSED:
1520:../Drivers/BSP/Components/lis2de12/lis2de12.c ****         *val = LIS2DE12_INT2_PULSED;
 4620              		.loc 1 1520 14
 4621 002a 7B68     		ldr	r3, [r7, #4]
 4622 002c 0022     		movs	r2, #0
 4623 002e 1A70     		strb	r2, [r3]
1521:../Drivers/BSP/Components/lis2de12/lis2de12.c ****         break;
 4624              		.loc 1 1521 9
 4625 0030 07E0     		b	.L251
 4626              	.L249:
1522:../Drivers/BSP/Components/lis2de12/lis2de12.c ****     case LIS2DE12_INT2_LATCHED:
1523:../Drivers/BSP/Components/lis2de12/lis2de12.c ****         *val = LIS2DE12_INT2_LATCHED;
 4627              		.loc 1 1523 14
 4628 0032 7B68     		ldr	r3, [r7, #4]
 4629 0034 0122     		movs	r2, #1
 4630 0036 1A70     		strb	r2, [r3]
1524:../Drivers/BSP/Components/lis2de12/lis2de12.c ****         break;
 4631              		.loc 1 1524 9
 4632 0038 03E0     		b	.L251
 4633              	.L253:
1525:../Drivers/BSP/Components/lis2de12/lis2de12.c ****     default:
1526:../Drivers/BSP/Components/lis2de12/lis2de12.c ****         *val = LIS2DE12_INT2_PULSED;
 4634              		.loc 1 1526 14
 4635 003a 7B68     		ldr	r3, [r7, #4]
 4636 003c 0022     		movs	r2, #0
 4637 003e 1A70     		strb	r2, [r3]
1527:../Drivers/BSP/Components/lis2de12/lis2de12.c ****         break;
 4638              		.loc 1 1527 9
 4639 0040 00BF     		nop
 4640              	.L251:
1528:../Drivers/BSP/Components/lis2de12/lis2de12.c ****     }
1529:../Drivers/BSP/Components/lis2de12/lis2de12.c ****     return ret;
 4641              		.loc 1 1529 12
 4642 0042 FB68     		ldr	r3, [r7, #12]
1530:../Drivers/BSP/Components/lis2de12/lis2de12.c **** }
 4643              		.loc 1 1530 1
 4644 0044 1846     		mov	r0, r3
 4645 0046 1037     		adds	r7, r7, #16
 4646              	.LCFI349:
 4647              		.cfi_def_cfa_offset 8
 4648 0048 BD46     		mov	sp, r7
 4649              	.LCFI350:
 4650              		.cfi_def_cfa_register 13
 4651              		@ sp needed
 4652 004a 80BD     		pop	{r7, pc}
 4653              		.cfi_endproc
ARM GAS  /tmp/ccjphgoR.s 			page 107


 4654              	.LFE659:
 4656              		.section	.text.lis2de12_int1_pin_detect_4d_set,"ax",%progbits
 4657              		.align	1
 4658              		.global	lis2de12_int1_pin_detect_4d_set
 4659              		.syntax unified
 4660              		.thumb
 4661              		.thumb_func
 4662              		.fpu fpv4-sp-d16
 4664              	lis2de12_int1_pin_detect_4d_set:
 4665              	.LFB660:
1531:../Drivers/BSP/Components/lis2de12/lis2de12.c **** 
1532:../Drivers/BSP/Components/lis2de12/lis2de12.c **** /**
1533:../Drivers/BSP/Components/lis2de12/lis2de12.c ****   * @brief  4D enable: 4D detection is enabled on INT1 pin when 6D bit
1534:../Drivers/BSP/Components/lis2de12/lis2de12.c ****   *                    on INT1_CFG(30h) is set to 1.[set]
1535:../Drivers/BSP/Components/lis2de12/lis2de12.c ****   *
1536:../Drivers/BSP/Components/lis2de12/lis2de12.c **** 
1537:../Drivers/BSP/Components/lis2de12/lis2de12.c ****   * @param  val      change the values of d4d_int1 in reg CTRL_REG5
1538:../Drivers/BSP/Components/lis2de12/lis2de12.c ****   * @retval          interface status (MANDATORY: return 0 -> no Error)
1539:../Drivers/BSP/Components/lis2de12/lis2de12.c ****   *
1540:../Drivers/BSP/Components/lis2de12/lis2de12.c ****   */
1541:../Drivers/BSP/Components/lis2de12/lis2de12.c **** int32_t lis2de12_int1_pin_detect_4d_set( uint8_t val )
1542:../Drivers/BSP/Components/lis2de12/lis2de12.c **** {
 4666              		.loc 1 1542 1
 4667              		.cfi_startproc
 4668              		@ args = 0, pretend = 0, frame = 16
 4669              		@ frame_needed = 1, uses_anonymous_args = 0
 4670 0000 80B5     		push	{r7, lr}
 4671              	.LCFI351:
 4672              		.cfi_def_cfa_offset 8
 4673              		.cfi_offset 7, -8
 4674              		.cfi_offset 14, -4
 4675 0002 84B0     		sub	sp, sp, #16
 4676              	.LCFI352:
 4677              		.cfi_def_cfa_offset 24
 4678 0004 00AF     		add	r7, sp, #0
 4679              	.LCFI353:
 4680              		.cfi_def_cfa_register 7
 4681 0006 0346     		mov	r3, r0
 4682 0008 FB71     		strb	r3, [r7, #7]
1543:../Drivers/BSP/Components/lis2de12/lis2de12.c ****     lis2de12_ctrl_reg5_t ctrl_reg5;
1544:../Drivers/BSP/Components/lis2de12/lis2de12.c ****     int32_t              ret;
1545:../Drivers/BSP/Components/lis2de12/lis2de12.c **** 
1546:../Drivers/BSP/Components/lis2de12/lis2de12.c ****     ret = lis2de12_read_reg( LIS2DE12_CTRL_REG5, ( uint8_t* ) &ctrl_reg5, 1 );
 4683              		.loc 1 1546 11
 4684 000a 07F10803 		add	r3, r7, #8
 4685 000e 0122     		movs	r2, #1
 4686 0010 1946     		mov	r1, r3
 4687 0012 2420     		movs	r0, #36
 4688 0014 FFF7FEFF 		bl	lis2de12_read_reg
 4689 0018 F860     		str	r0, [r7, #12]
1547:../Drivers/BSP/Components/lis2de12/lis2de12.c ****     if( ret == 0 )
 4690              		.loc 1 1547 7
 4691 001a FB68     		ldr	r3, [r7, #12]
 4692 001c 002B     		cmp	r3, #0
 4693 001e 0FD1     		bne	.L255
1548:../Drivers/BSP/Components/lis2de12/lis2de12.c ****     {
1549:../Drivers/BSP/Components/lis2de12/lis2de12.c ****         ctrl_reg5.d4d_int1 = val;
ARM GAS  /tmp/ccjphgoR.s 			page 108


 4694              		.loc 1 1549 28
 4695 0020 FB79     		ldrb	r3, [r7, #7]
 4696 0022 03F00103 		and	r3, r3, #1
 4697 0026 DAB2     		uxtb	r2, r3
 4698 0028 3B7A     		ldrb	r3, [r7, #8]
 4699 002a 62F38203 		bfi	r3, r2, #2, #1
 4700 002e 3B72     		strb	r3, [r7, #8]
1550:../Drivers/BSP/Components/lis2de12/lis2de12.c ****         ret                = lis2de12_write_reg( LIS2DE12_CTRL_REG5, ( uint8_t* ) &ctrl_reg5, 1 );
 4701              		.loc 1 1550 30
 4702 0030 07F10803 		add	r3, r7, #8
 4703 0034 0122     		movs	r2, #1
 4704 0036 1946     		mov	r1, r3
 4705 0038 2420     		movs	r0, #36
 4706 003a FFF7FEFF 		bl	lis2de12_write_reg
 4707 003e F860     		str	r0, [r7, #12]
 4708              	.L255:
1551:../Drivers/BSP/Components/lis2de12/lis2de12.c ****     }
1552:../Drivers/BSP/Components/lis2de12/lis2de12.c ****     return ret;
 4709              		.loc 1 1552 12
 4710 0040 FB68     		ldr	r3, [r7, #12]
1553:../Drivers/BSP/Components/lis2de12/lis2de12.c **** }
 4711              		.loc 1 1553 1
 4712 0042 1846     		mov	r0, r3
 4713 0044 1037     		adds	r7, r7, #16
 4714              	.LCFI354:
 4715              		.cfi_def_cfa_offset 8
 4716 0046 BD46     		mov	sp, r7
 4717              	.LCFI355:
 4718              		.cfi_def_cfa_register 13
 4719              		@ sp needed
 4720 0048 80BD     		pop	{r7, pc}
 4721              		.cfi_endproc
 4722              	.LFE660:
 4724              		.section	.text.lis2de12_int1_pin_detect_4d_get,"ax",%progbits
 4725              		.align	1
 4726              		.global	lis2de12_int1_pin_detect_4d_get
 4727              		.syntax unified
 4728              		.thumb
 4729              		.thumb_func
 4730              		.fpu fpv4-sp-d16
 4732              	lis2de12_int1_pin_detect_4d_get:
 4733              	.LFB661:
1554:../Drivers/BSP/Components/lis2de12/lis2de12.c **** 
1555:../Drivers/BSP/Components/lis2de12/lis2de12.c **** /**
1556:../Drivers/BSP/Components/lis2de12/lis2de12.c ****   * @brief  4D enable: 4D detection is enabled on INT1 pin when 6D bit on
1557:../Drivers/BSP/Components/lis2de12/lis2de12.c ****   *         INT1_CFG(30h) is set to 1.[get]
1558:../Drivers/BSP/Components/lis2de12/lis2de12.c ****   *
1559:../Drivers/BSP/Components/lis2de12/lis2de12.c **** 
1560:../Drivers/BSP/Components/lis2de12/lis2de12.c ****   * @param  val      change the values of d4d_int1 in reg CTRL_REG5
1561:../Drivers/BSP/Components/lis2de12/lis2de12.c ****   * @retval          interface status (MANDATORY: return 0 -> no Error)
1562:../Drivers/BSP/Components/lis2de12/lis2de12.c ****   *
1563:../Drivers/BSP/Components/lis2de12/lis2de12.c ****   */
1564:../Drivers/BSP/Components/lis2de12/lis2de12.c **** int32_t lis2de12_int1_pin_detect_4d_get( uint8_t* val )
1565:../Drivers/BSP/Components/lis2de12/lis2de12.c **** {
 4734              		.loc 1 1565 1
 4735              		.cfi_startproc
 4736              		@ args = 0, pretend = 0, frame = 16
ARM GAS  /tmp/ccjphgoR.s 			page 109


 4737              		@ frame_needed = 1, uses_anonymous_args = 0
 4738 0000 80B5     		push	{r7, lr}
 4739              	.LCFI356:
 4740              		.cfi_def_cfa_offset 8
 4741              		.cfi_offset 7, -8
 4742              		.cfi_offset 14, -4
 4743 0002 84B0     		sub	sp, sp, #16
 4744              	.LCFI357:
 4745              		.cfi_def_cfa_offset 24
 4746 0004 00AF     		add	r7, sp, #0
 4747              	.LCFI358:
 4748              		.cfi_def_cfa_register 7
 4749 0006 7860     		str	r0, [r7, #4]
1566:../Drivers/BSP/Components/lis2de12/lis2de12.c ****     lis2de12_ctrl_reg5_t ctrl_reg5;
1567:../Drivers/BSP/Components/lis2de12/lis2de12.c ****     int32_t              ret;
1568:../Drivers/BSP/Components/lis2de12/lis2de12.c **** 
1569:../Drivers/BSP/Components/lis2de12/lis2de12.c ****     ret  = lis2de12_read_reg( LIS2DE12_CTRL_REG5, ( uint8_t* ) &ctrl_reg5, 1 );
 4750              		.loc 1 1569 12
 4751 0008 07F10803 		add	r3, r7, #8
 4752 000c 0122     		movs	r2, #1
 4753 000e 1946     		mov	r1, r3
 4754 0010 2420     		movs	r0, #36
 4755 0012 FFF7FEFF 		bl	lis2de12_read_reg
 4756 0016 F860     		str	r0, [r7, #12]
1570:../Drivers/BSP/Components/lis2de12/lis2de12.c ****     *val = ( uint8_t ) ctrl_reg5.d4d_int1;
 4757              		.loc 1 1570 33
 4758 0018 3B7A     		ldrb	r3, [r7, #8]
 4759 001a C3F38003 		ubfx	r3, r3, #2, #1
 4760 001e DBB2     		uxtb	r3, r3
 4761              		.loc 1 1570 12
 4762 0020 1A46     		mov	r2, r3
 4763              		.loc 1 1570 10
 4764 0022 7B68     		ldr	r3, [r7, #4]
 4765 0024 1A70     		strb	r2, [r3]
1571:../Drivers/BSP/Components/lis2de12/lis2de12.c **** 
1572:../Drivers/BSP/Components/lis2de12/lis2de12.c ****     return ret;
 4766              		.loc 1 1572 12
 4767 0026 FB68     		ldr	r3, [r7, #12]
1573:../Drivers/BSP/Components/lis2de12/lis2de12.c **** }
 4768              		.loc 1 1573 1
 4769 0028 1846     		mov	r0, r3
 4770 002a 1037     		adds	r7, r7, #16
 4771              	.LCFI359:
 4772              		.cfi_def_cfa_offset 8
 4773 002c BD46     		mov	sp, r7
 4774              	.LCFI360:
 4775              		.cfi_def_cfa_register 13
 4776              		@ sp needed
 4777 002e 80BD     		pop	{r7, pc}
 4778              		.cfi_endproc
 4779              	.LFE661:
 4781              		.section	.text.lis2de12_int1_pin_notification_mode_set,"ax",%progbits
 4782              		.align	1
 4783              		.global	lis2de12_int1_pin_notification_mode_set
 4784              		.syntax unified
 4785              		.thumb
 4786              		.thumb_func
ARM GAS  /tmp/ccjphgoR.s 			page 110


 4787              		.fpu fpv4-sp-d16
 4789              	lis2de12_int1_pin_notification_mode_set:
 4790              	.LFB662:
1574:../Drivers/BSP/Components/lis2de12/lis2de12.c **** 
1575:../Drivers/BSP/Components/lis2de12/lis2de12.c **** /**
1576:../Drivers/BSP/Components/lis2de12/lis2de12.c ****   * @brief   Latch interrupt request on INT1_SRC (31h), with INT1_SRC(31h)
1577:../Drivers/BSP/Components/lis2de12/lis2de12.c ****   *          register cleared by reading INT1_SRC (31h) itself.[set]
1578:../Drivers/BSP/Components/lis2de12/lis2de12.c ****   *
1579:../Drivers/BSP/Components/lis2de12/lis2de12.c **** 
1580:../Drivers/BSP/Components/lis2de12/lis2de12.c ****   * @param  val      change the values of lir_int1 in reg CTRL_REG5
1581:../Drivers/BSP/Components/lis2de12/lis2de12.c ****   * @retval          interface status (MANDATORY: return 0 -> no Error)
1582:../Drivers/BSP/Components/lis2de12/lis2de12.c ****   *
1583:../Drivers/BSP/Components/lis2de12/lis2de12.c ****   */
1584:../Drivers/BSP/Components/lis2de12/lis2de12.c **** int32_t lis2de12_int1_pin_notification_mode_set( lis2de12_lir_int1_t val )
1585:../Drivers/BSP/Components/lis2de12/lis2de12.c **** {
 4791              		.loc 1 1585 1
 4792              		.cfi_startproc
 4793              		@ args = 0, pretend = 0, frame = 16
 4794              		@ frame_needed = 1, uses_anonymous_args = 0
 4795 0000 80B5     		push	{r7, lr}
 4796              	.LCFI361:
 4797              		.cfi_def_cfa_offset 8
 4798              		.cfi_offset 7, -8
 4799              		.cfi_offset 14, -4
 4800 0002 84B0     		sub	sp, sp, #16
 4801              	.LCFI362:
 4802              		.cfi_def_cfa_offset 24
 4803 0004 00AF     		add	r7, sp, #0
 4804              	.LCFI363:
 4805              		.cfi_def_cfa_register 7
 4806 0006 0346     		mov	r3, r0
 4807 0008 FB71     		strb	r3, [r7, #7]
1586:../Drivers/BSP/Components/lis2de12/lis2de12.c ****     lis2de12_ctrl_reg5_t ctrl_reg5;
1587:../Drivers/BSP/Components/lis2de12/lis2de12.c ****     int32_t              ret;
1588:../Drivers/BSP/Components/lis2de12/lis2de12.c **** 
1589:../Drivers/BSP/Components/lis2de12/lis2de12.c ****     ret = lis2de12_read_reg( LIS2DE12_CTRL_REG5, ( uint8_t* ) &ctrl_reg5, 1 );
 4808              		.loc 1 1589 11
 4809 000a 07F10803 		add	r3, r7, #8
 4810 000e 0122     		movs	r2, #1
 4811 0010 1946     		mov	r1, r3
 4812 0012 2420     		movs	r0, #36
 4813 0014 FFF7FEFF 		bl	lis2de12_read_reg
 4814 0018 F860     		str	r0, [r7, #12]
1590:../Drivers/BSP/Components/lis2de12/lis2de12.c ****     if( ret == 0 )
 4815              		.loc 1 1590 7
 4816 001a FB68     		ldr	r3, [r7, #12]
 4817 001c 002B     		cmp	r3, #0
 4818 001e 0FD1     		bne	.L260
1591:../Drivers/BSP/Components/lis2de12/lis2de12.c ****     {
1592:../Drivers/BSP/Components/lis2de12/lis2de12.c ****         ctrl_reg5.lir_int1 = ( uint8_t ) val;
 4819              		.loc 1 1592 30
 4820 0020 FB79     		ldrb	r3, [r7, #7]
 4821 0022 03F00103 		and	r3, r3, #1
 4822 0026 DAB2     		uxtb	r2, r3
 4823              		.loc 1 1592 28
 4824 0028 3B7A     		ldrb	r3, [r7, #8]
 4825 002a 62F3C303 		bfi	r3, r2, #3, #1
ARM GAS  /tmp/ccjphgoR.s 			page 111


 4826 002e 3B72     		strb	r3, [r7, #8]
1593:../Drivers/BSP/Components/lis2de12/lis2de12.c ****         ret                = lis2de12_write_reg( LIS2DE12_CTRL_REG5, ( uint8_t* ) &ctrl_reg5, 1 );
 4827              		.loc 1 1593 30
 4828 0030 07F10803 		add	r3, r7, #8
 4829 0034 0122     		movs	r2, #1
 4830 0036 1946     		mov	r1, r3
 4831 0038 2420     		movs	r0, #36
 4832 003a FFF7FEFF 		bl	lis2de12_write_reg
 4833 003e F860     		str	r0, [r7, #12]
 4834              	.L260:
1594:../Drivers/BSP/Components/lis2de12/lis2de12.c ****     }
1595:../Drivers/BSP/Components/lis2de12/lis2de12.c ****     return ret;
 4835              		.loc 1 1595 12
 4836 0040 FB68     		ldr	r3, [r7, #12]
1596:../Drivers/BSP/Components/lis2de12/lis2de12.c **** }
 4837              		.loc 1 1596 1
 4838 0042 1846     		mov	r0, r3
 4839 0044 1037     		adds	r7, r7, #16
 4840              	.LCFI364:
 4841              		.cfi_def_cfa_offset 8
 4842 0046 BD46     		mov	sp, r7
 4843              	.LCFI365:
 4844              		.cfi_def_cfa_register 13
 4845              		@ sp needed
 4846 0048 80BD     		pop	{r7, pc}
 4847              		.cfi_endproc
 4848              	.LFE662:
 4850              		.section	.text.lis2de12_int1_pin_notification_mode_get,"ax",%progbits
 4851              		.align	1
 4852              		.global	lis2de12_int1_pin_notification_mode_get
 4853              		.syntax unified
 4854              		.thumb
 4855              		.thumb_func
 4856              		.fpu fpv4-sp-d16
 4858              	lis2de12_int1_pin_notification_mode_get:
 4859              	.LFB663:
1597:../Drivers/BSP/Components/lis2de12/lis2de12.c **** 
1598:../Drivers/BSP/Components/lis2de12/lis2de12.c **** /**
1599:../Drivers/BSP/Components/lis2de12/lis2de12.c ****   * @brief   Latch interrupt request on INT1_SRC (31h), with INT1_SRC(31h)
1600:../Drivers/BSP/Components/lis2de12/lis2de12.c ****   *          register cleared by reading INT1_SRC (31h) itself.[get]
1601:../Drivers/BSP/Components/lis2de12/lis2de12.c ****   *
1602:../Drivers/BSP/Components/lis2de12/lis2de12.c **** 
1603:../Drivers/BSP/Components/lis2de12/lis2de12.c ****   * @param  val      Get the values of lir_int1 in reg CTRL_REG5
1604:../Drivers/BSP/Components/lis2de12/lis2de12.c ****   * @retval          interface status (MANDATORY: return 0 -> no Error)
1605:../Drivers/BSP/Components/lis2de12/lis2de12.c ****   *
1606:../Drivers/BSP/Components/lis2de12/lis2de12.c ****   */
1607:../Drivers/BSP/Components/lis2de12/lis2de12.c **** int32_t lis2de12_int1_pin_notification_mode_get( lis2de12_lir_int1_t* val )
1608:../Drivers/BSP/Components/lis2de12/lis2de12.c **** {
 4860              		.loc 1 1608 1
 4861              		.cfi_startproc
 4862              		@ args = 0, pretend = 0, frame = 16
 4863              		@ frame_needed = 1, uses_anonymous_args = 0
 4864 0000 80B5     		push	{r7, lr}
 4865              	.LCFI366:
 4866              		.cfi_def_cfa_offset 8
 4867              		.cfi_offset 7, -8
 4868              		.cfi_offset 14, -4
ARM GAS  /tmp/ccjphgoR.s 			page 112


 4869 0002 84B0     		sub	sp, sp, #16
 4870              	.LCFI367:
 4871              		.cfi_def_cfa_offset 24
 4872 0004 00AF     		add	r7, sp, #0
 4873              	.LCFI368:
 4874              		.cfi_def_cfa_register 7
 4875 0006 7860     		str	r0, [r7, #4]
1609:../Drivers/BSP/Components/lis2de12/lis2de12.c ****     lis2de12_ctrl_reg5_t ctrl_reg5;
1610:../Drivers/BSP/Components/lis2de12/lis2de12.c ****     int32_t              ret;
1611:../Drivers/BSP/Components/lis2de12/lis2de12.c **** 
1612:../Drivers/BSP/Components/lis2de12/lis2de12.c ****     ret = lis2de12_read_reg( LIS2DE12_CTRL_REG5, ( uint8_t* ) &ctrl_reg5, 1 );
 4876              		.loc 1 1612 11
 4877 0008 07F10803 		add	r3, r7, #8
 4878 000c 0122     		movs	r2, #1
 4879 000e 1946     		mov	r1, r3
 4880 0010 2420     		movs	r0, #36
 4881 0012 FFF7FEFF 		bl	lis2de12_read_reg
 4882 0016 F860     		str	r0, [r7, #12]
1613:../Drivers/BSP/Components/lis2de12/lis2de12.c ****     switch( ctrl_reg5.lir_int1 )
 4883              		.loc 1 1613 22
 4884 0018 3B7A     		ldrb	r3, [r7, #8]
 4885 001a C3F3C003 		ubfx	r3, r3, #3, #1
 4886 001e DBB2     		uxtb	r3, r3
 4887              		.loc 1 1613 5
 4888 0020 002B     		cmp	r3, #0
 4889 0022 02D0     		beq	.L263
 4890 0024 012B     		cmp	r3, #1
 4891 0026 04D0     		beq	.L264
 4892 0028 07E0     		b	.L268
 4893              	.L263:
1614:../Drivers/BSP/Components/lis2de12/lis2de12.c ****     {
1615:../Drivers/BSP/Components/lis2de12/lis2de12.c ****     case LIS2DE12_INT1_PULSED:
1616:../Drivers/BSP/Components/lis2de12/lis2de12.c ****         *val = LIS2DE12_INT1_PULSED;
 4894              		.loc 1 1616 14
 4895 002a 7B68     		ldr	r3, [r7, #4]
 4896 002c 0022     		movs	r2, #0
 4897 002e 1A70     		strb	r2, [r3]
1617:../Drivers/BSP/Components/lis2de12/lis2de12.c ****         break;
 4898              		.loc 1 1617 9
 4899 0030 07E0     		b	.L266
 4900              	.L264:
1618:../Drivers/BSP/Components/lis2de12/lis2de12.c ****     case LIS2DE12_INT1_LATCHED:
1619:../Drivers/BSP/Components/lis2de12/lis2de12.c ****         *val = LIS2DE12_INT1_LATCHED;
 4901              		.loc 1 1619 14
 4902 0032 7B68     		ldr	r3, [r7, #4]
 4903 0034 0122     		movs	r2, #1
 4904 0036 1A70     		strb	r2, [r3]
1620:../Drivers/BSP/Components/lis2de12/lis2de12.c ****         break;
 4905              		.loc 1 1620 9
 4906 0038 03E0     		b	.L266
 4907              	.L268:
1621:../Drivers/BSP/Components/lis2de12/lis2de12.c ****     default:
1622:../Drivers/BSP/Components/lis2de12/lis2de12.c ****         *val = LIS2DE12_INT1_PULSED;
 4908              		.loc 1 1622 14
 4909 003a 7B68     		ldr	r3, [r7, #4]
 4910 003c 0022     		movs	r2, #0
 4911 003e 1A70     		strb	r2, [r3]
ARM GAS  /tmp/ccjphgoR.s 			page 113


1623:../Drivers/BSP/Components/lis2de12/lis2de12.c ****         break;
 4912              		.loc 1 1623 9
 4913 0040 00BF     		nop
 4914              	.L266:
1624:../Drivers/BSP/Components/lis2de12/lis2de12.c ****     }
1625:../Drivers/BSP/Components/lis2de12/lis2de12.c ****     return ret;
 4915              		.loc 1 1625 12
 4916 0042 FB68     		ldr	r3, [r7, #12]
1626:../Drivers/BSP/Components/lis2de12/lis2de12.c **** }
 4917              		.loc 1 1626 1
 4918 0044 1846     		mov	r0, r3
 4919 0046 1037     		adds	r7, r7, #16
 4920              	.LCFI369:
 4921              		.cfi_def_cfa_offset 8
 4922 0048 BD46     		mov	sp, r7
 4923              	.LCFI370:
 4924              		.cfi_def_cfa_register 13
 4925              		@ sp needed
 4926 004a 80BD     		pop	{r7, pc}
 4927              		.cfi_endproc
 4928              	.LFE663:
 4930              		.section	.text.lis2de12_pin_int2_config_set,"ax",%progbits
 4931              		.align	1
 4932              		.global	lis2de12_pin_int2_config_set
 4933              		.syntax unified
 4934              		.thumb
 4935              		.thumb_func
 4936              		.fpu fpv4-sp-d16
 4938              	lis2de12_pin_int2_config_set:
 4939              	.LFB664:
1627:../Drivers/BSP/Components/lis2de12/lis2de12.c **** 
1628:../Drivers/BSP/Components/lis2de12/lis2de12.c **** /**
1629:../Drivers/BSP/Components/lis2de12/lis2de12.c ****   * @brief  Int2 pin routing configuration register.[set]
1630:../Drivers/BSP/Components/lis2de12/lis2de12.c ****   *
1631:../Drivers/BSP/Components/lis2de12/lis2de12.c **** 
1632:../Drivers/BSP/Components/lis2de12/lis2de12.c ****   * @param  val      registers CTRL_REG6
1633:../Drivers/BSP/Components/lis2de12/lis2de12.c ****   * @retval          interface status (MANDATORY: return 0 -> no Error)
1634:../Drivers/BSP/Components/lis2de12/lis2de12.c ****   *
1635:../Drivers/BSP/Components/lis2de12/lis2de12.c ****   */
1636:../Drivers/BSP/Components/lis2de12/lis2de12.c **** int32_t lis2de12_pin_int2_config_set( lis2de12_ctrl_reg6_t* val )
1637:../Drivers/BSP/Components/lis2de12/lis2de12.c **** {
 4940              		.loc 1 1637 1
 4941              		.cfi_startproc
 4942              		@ args = 0, pretend = 0, frame = 16
 4943              		@ frame_needed = 1, uses_anonymous_args = 0
 4944 0000 80B5     		push	{r7, lr}
 4945              	.LCFI371:
 4946              		.cfi_def_cfa_offset 8
 4947              		.cfi_offset 7, -8
 4948              		.cfi_offset 14, -4
 4949 0002 84B0     		sub	sp, sp, #16
 4950              	.LCFI372:
 4951              		.cfi_def_cfa_offset 24
 4952 0004 00AF     		add	r7, sp, #0
 4953              	.LCFI373:
 4954              		.cfi_def_cfa_register 7
 4955 0006 7860     		str	r0, [r7, #4]
ARM GAS  /tmp/ccjphgoR.s 			page 114


1638:../Drivers/BSP/Components/lis2de12/lis2de12.c ****     int32_t ret;
1639:../Drivers/BSP/Components/lis2de12/lis2de12.c ****     ret = lis2de12_write_reg( LIS2DE12_CTRL_REG6, ( uint8_t* ) val, 1 );
 4956              		.loc 1 1639 11
 4957 0008 0122     		movs	r2, #1
 4958 000a 7968     		ldr	r1, [r7, #4]
 4959 000c 2520     		movs	r0, #37
 4960 000e FFF7FEFF 		bl	lis2de12_write_reg
 4961 0012 F860     		str	r0, [r7, #12]
1640:../Drivers/BSP/Components/lis2de12/lis2de12.c ****     return ret;
 4962              		.loc 1 1640 12
 4963 0014 FB68     		ldr	r3, [r7, #12]
1641:../Drivers/BSP/Components/lis2de12/lis2de12.c **** }
 4964              		.loc 1 1641 1
 4965 0016 1846     		mov	r0, r3
 4966 0018 1037     		adds	r7, r7, #16
 4967              	.LCFI374:
 4968              		.cfi_def_cfa_offset 8
 4969 001a BD46     		mov	sp, r7
 4970              	.LCFI375:
 4971              		.cfi_def_cfa_register 13
 4972              		@ sp needed
 4973 001c 80BD     		pop	{r7, pc}
 4974              		.cfi_endproc
 4975              	.LFE664:
 4977              		.section	.text.lis2de12_pin_int2_config_get,"ax",%progbits
 4978              		.align	1
 4979              		.global	lis2de12_pin_int2_config_get
 4980              		.syntax unified
 4981              		.thumb
 4982              		.thumb_func
 4983              		.fpu fpv4-sp-d16
 4985              	lis2de12_pin_int2_config_get:
 4986              	.LFB665:
1642:../Drivers/BSP/Components/lis2de12/lis2de12.c **** 
1643:../Drivers/BSP/Components/lis2de12/lis2de12.c **** /**
1644:../Drivers/BSP/Components/lis2de12/lis2de12.c ****   * @brief  Int2 pin routing configuration register.[get]
1645:../Drivers/BSP/Components/lis2de12/lis2de12.c ****   *
1646:../Drivers/BSP/Components/lis2de12/lis2de12.c **** 
1647:../Drivers/BSP/Components/lis2de12/lis2de12.c ****   * @param  val      registers CTRL_REG6
1648:../Drivers/BSP/Components/lis2de12/lis2de12.c ****   * @retval          interface status (MANDATORY: return 0 -> no Error)
1649:../Drivers/BSP/Components/lis2de12/lis2de12.c ****   *
1650:../Drivers/BSP/Components/lis2de12/lis2de12.c ****   */
1651:../Drivers/BSP/Components/lis2de12/lis2de12.c **** int32_t lis2de12_pin_int2_config_get( lis2de12_ctrl_reg6_t* val )
1652:../Drivers/BSP/Components/lis2de12/lis2de12.c **** {
 4987              		.loc 1 1652 1
 4988              		.cfi_startproc
 4989              		@ args = 0, pretend = 0, frame = 16
 4990              		@ frame_needed = 1, uses_anonymous_args = 0
 4991 0000 80B5     		push	{r7, lr}
 4992              	.LCFI376:
 4993              		.cfi_def_cfa_offset 8
 4994              		.cfi_offset 7, -8
 4995              		.cfi_offset 14, -4
 4996 0002 84B0     		sub	sp, sp, #16
 4997              	.LCFI377:
 4998              		.cfi_def_cfa_offset 24
 4999 0004 00AF     		add	r7, sp, #0
ARM GAS  /tmp/ccjphgoR.s 			page 115


 5000              	.LCFI378:
 5001              		.cfi_def_cfa_register 7
 5002 0006 7860     		str	r0, [r7, #4]
1653:../Drivers/BSP/Components/lis2de12/lis2de12.c ****     int32_t ret;
1654:../Drivers/BSP/Components/lis2de12/lis2de12.c ****     ret = lis2de12_read_reg( LIS2DE12_CTRL_REG6, ( uint8_t* ) val, 1 );
 5003              		.loc 1 1654 11
 5004 0008 0122     		movs	r2, #1
 5005 000a 7968     		ldr	r1, [r7, #4]
 5006 000c 2520     		movs	r0, #37
 5007 000e FFF7FEFF 		bl	lis2de12_read_reg
 5008 0012 F860     		str	r0, [r7, #12]
1655:../Drivers/BSP/Components/lis2de12/lis2de12.c ****     return ret;
 5009              		.loc 1 1655 12
 5010 0014 FB68     		ldr	r3, [r7, #12]
1656:../Drivers/BSP/Components/lis2de12/lis2de12.c **** }
 5011              		.loc 1 1656 1
 5012 0016 1846     		mov	r0, r3
 5013 0018 1037     		adds	r7, r7, #16
 5014              	.LCFI379:
 5015              		.cfi_def_cfa_offset 8
 5016 001a BD46     		mov	sp, r7
 5017              	.LCFI380:
 5018              		.cfi_def_cfa_register 13
 5019              		@ sp needed
 5020 001c 80BD     		pop	{r7, pc}
 5021              		.cfi_endproc
 5022              	.LFE665:
 5024              		.section	.text.lis2de12_fifo_set,"ax",%progbits
 5025              		.align	1
 5026              		.global	lis2de12_fifo_set
 5027              		.syntax unified
 5028              		.thumb
 5029              		.thumb_func
 5030              		.fpu fpv4-sp-d16
 5032              	lis2de12_fifo_set:
 5033              	.LFB666:
1657:../Drivers/BSP/Components/lis2de12/lis2de12.c **** /**
1658:../Drivers/BSP/Components/lis2de12/lis2de12.c ****  * @}
1659:../Drivers/BSP/Components/lis2de12/lis2de12.c ****  *
1660:../Drivers/BSP/Components/lis2de12/lis2de12.c ****  */
1661:../Drivers/BSP/Components/lis2de12/lis2de12.c **** 
1662:../Drivers/BSP/Components/lis2de12/lis2de12.c **** /**
1663:../Drivers/BSP/Components/lis2de12/lis2de12.c ****  * @defgroup  LIS2DE12_Fifo
1664:../Drivers/BSP/Components/lis2de12/lis2de12.c ****  * @brief     This section group all the functions concerning the fifo usage
1665:../Drivers/BSP/Components/lis2de12/lis2de12.c ****  * @{
1666:../Drivers/BSP/Components/lis2de12/lis2de12.c ****  *
1667:../Drivers/BSP/Components/lis2de12/lis2de12.c ****  */
1668:../Drivers/BSP/Components/lis2de12/lis2de12.c **** 
1669:../Drivers/BSP/Components/lis2de12/lis2de12.c **** /**
1670:../Drivers/BSP/Components/lis2de12/lis2de12.c ****   * @brief  FIFO enable.[set]
1671:../Drivers/BSP/Components/lis2de12/lis2de12.c ****   *
1672:../Drivers/BSP/Components/lis2de12/lis2de12.c **** 
1673:../Drivers/BSP/Components/lis2de12/lis2de12.c ****   * @param  val      change the values of fifo_en in reg CTRL_REG5
1674:../Drivers/BSP/Components/lis2de12/lis2de12.c ****   * @retval          interface status (MANDATORY: return 0 -> no Error)
1675:../Drivers/BSP/Components/lis2de12/lis2de12.c ****   *
1676:../Drivers/BSP/Components/lis2de12/lis2de12.c ****   */
1677:../Drivers/BSP/Components/lis2de12/lis2de12.c **** int32_t lis2de12_fifo_set( uint8_t val )
ARM GAS  /tmp/ccjphgoR.s 			page 116


1678:../Drivers/BSP/Components/lis2de12/lis2de12.c **** {
 5034              		.loc 1 1678 1
 5035              		.cfi_startproc
 5036              		@ args = 0, pretend = 0, frame = 16
 5037              		@ frame_needed = 1, uses_anonymous_args = 0
 5038 0000 80B5     		push	{r7, lr}
 5039              	.LCFI381:
 5040              		.cfi_def_cfa_offset 8
 5041              		.cfi_offset 7, -8
 5042              		.cfi_offset 14, -4
 5043 0002 84B0     		sub	sp, sp, #16
 5044              	.LCFI382:
 5045              		.cfi_def_cfa_offset 24
 5046 0004 00AF     		add	r7, sp, #0
 5047              	.LCFI383:
 5048              		.cfi_def_cfa_register 7
 5049 0006 0346     		mov	r3, r0
 5050 0008 FB71     		strb	r3, [r7, #7]
1679:../Drivers/BSP/Components/lis2de12/lis2de12.c ****     lis2de12_ctrl_reg5_t ctrl_reg5;
1680:../Drivers/BSP/Components/lis2de12/lis2de12.c ****     int32_t              ret;
1681:../Drivers/BSP/Components/lis2de12/lis2de12.c **** 
1682:../Drivers/BSP/Components/lis2de12/lis2de12.c ****     ret = lis2de12_read_reg( LIS2DE12_CTRL_REG5, ( uint8_t* ) &ctrl_reg5, 1 );
 5051              		.loc 1 1682 11
 5052 000a 07F10803 		add	r3, r7, #8
 5053 000e 0122     		movs	r2, #1
 5054 0010 1946     		mov	r1, r3
 5055 0012 2420     		movs	r0, #36
 5056 0014 FFF7FEFF 		bl	lis2de12_read_reg
 5057 0018 F860     		str	r0, [r7, #12]
1683:../Drivers/BSP/Components/lis2de12/lis2de12.c ****     if( ret == 0 )
 5058              		.loc 1 1683 7
 5059 001a FB68     		ldr	r3, [r7, #12]
 5060 001c 002B     		cmp	r3, #0
 5061 001e 0FD1     		bne	.L274
1684:../Drivers/BSP/Components/lis2de12/lis2de12.c ****     {
1685:../Drivers/BSP/Components/lis2de12/lis2de12.c ****         ctrl_reg5.fifo_en = val;
 5062              		.loc 1 1685 27
 5063 0020 FB79     		ldrb	r3, [r7, #7]
 5064 0022 03F00103 		and	r3, r3, #1
 5065 0026 DAB2     		uxtb	r2, r3
 5066 0028 3B7A     		ldrb	r3, [r7, #8]
 5067 002a 62F38613 		bfi	r3, r2, #6, #1
 5068 002e 3B72     		strb	r3, [r7, #8]
1686:../Drivers/BSP/Components/lis2de12/lis2de12.c ****         ret               = lis2de12_write_reg( LIS2DE12_CTRL_REG5, ( uint8_t* ) &ctrl_reg5, 1 );
 5069              		.loc 1 1686 29
 5070 0030 07F10803 		add	r3, r7, #8
 5071 0034 0122     		movs	r2, #1
 5072 0036 1946     		mov	r1, r3
 5073 0038 2420     		movs	r0, #36
 5074 003a FFF7FEFF 		bl	lis2de12_write_reg
 5075 003e F860     		str	r0, [r7, #12]
 5076              	.L274:
1687:../Drivers/BSP/Components/lis2de12/lis2de12.c ****     }
1688:../Drivers/BSP/Components/lis2de12/lis2de12.c ****     return ret;
 5077              		.loc 1 1688 12
 5078 0040 FB68     		ldr	r3, [r7, #12]
1689:../Drivers/BSP/Components/lis2de12/lis2de12.c **** }
ARM GAS  /tmp/ccjphgoR.s 			page 117


 5079              		.loc 1 1689 1
 5080 0042 1846     		mov	r0, r3
 5081 0044 1037     		adds	r7, r7, #16
 5082              	.LCFI384:
 5083              		.cfi_def_cfa_offset 8
 5084 0046 BD46     		mov	sp, r7
 5085              	.LCFI385:
 5086              		.cfi_def_cfa_register 13
 5087              		@ sp needed
 5088 0048 80BD     		pop	{r7, pc}
 5089              		.cfi_endproc
 5090              	.LFE666:
 5092              		.section	.text.lis2de12_fifo_get,"ax",%progbits
 5093              		.align	1
 5094              		.global	lis2de12_fifo_get
 5095              		.syntax unified
 5096              		.thumb
 5097              		.thumb_func
 5098              		.fpu fpv4-sp-d16
 5100              	lis2de12_fifo_get:
 5101              	.LFB667:
1690:../Drivers/BSP/Components/lis2de12/lis2de12.c **** 
1691:../Drivers/BSP/Components/lis2de12/lis2de12.c **** /**
1692:../Drivers/BSP/Components/lis2de12/lis2de12.c ****   * @brief  FIFO enable.[get]
1693:../Drivers/BSP/Components/lis2de12/lis2de12.c ****   *
1694:../Drivers/BSP/Components/lis2de12/lis2de12.c **** 
1695:../Drivers/BSP/Components/lis2de12/lis2de12.c ****   * @param  val      change the values of fifo_en in reg CTRL_REG5
1696:../Drivers/BSP/Components/lis2de12/lis2de12.c ****   * @retval          interface status (MANDATORY: return 0 -> no Error)
1697:../Drivers/BSP/Components/lis2de12/lis2de12.c ****   *
1698:../Drivers/BSP/Components/lis2de12/lis2de12.c ****   */
1699:../Drivers/BSP/Components/lis2de12/lis2de12.c **** int32_t lis2de12_fifo_get( uint8_t* val )
1700:../Drivers/BSP/Components/lis2de12/lis2de12.c **** {
 5102              		.loc 1 1700 1
 5103              		.cfi_startproc
 5104              		@ args = 0, pretend = 0, frame = 16
 5105              		@ frame_needed = 1, uses_anonymous_args = 0
 5106 0000 80B5     		push	{r7, lr}
 5107              	.LCFI386:
 5108              		.cfi_def_cfa_offset 8
 5109              		.cfi_offset 7, -8
 5110              		.cfi_offset 14, -4
 5111 0002 84B0     		sub	sp, sp, #16
 5112              	.LCFI387:
 5113              		.cfi_def_cfa_offset 24
 5114 0004 00AF     		add	r7, sp, #0
 5115              	.LCFI388:
 5116              		.cfi_def_cfa_register 7
 5117 0006 7860     		str	r0, [r7, #4]
1701:../Drivers/BSP/Components/lis2de12/lis2de12.c ****     lis2de12_ctrl_reg5_t ctrl_reg5;
1702:../Drivers/BSP/Components/lis2de12/lis2de12.c ****     int32_t              ret;
1703:../Drivers/BSP/Components/lis2de12/lis2de12.c **** 
1704:../Drivers/BSP/Components/lis2de12/lis2de12.c ****     ret  = lis2de12_read_reg( LIS2DE12_CTRL_REG5, ( uint8_t* ) &ctrl_reg5, 1 );
 5118              		.loc 1 1704 12
 5119 0008 07F10803 		add	r3, r7, #8
 5120 000c 0122     		movs	r2, #1
 5121 000e 1946     		mov	r1, r3
 5122 0010 2420     		movs	r0, #36
ARM GAS  /tmp/ccjphgoR.s 			page 118


 5123 0012 FFF7FEFF 		bl	lis2de12_read_reg
 5124 0016 F860     		str	r0, [r7, #12]
1705:../Drivers/BSP/Components/lis2de12/lis2de12.c ****     *val = ( uint8_t ) ctrl_reg5.fifo_en;
 5125              		.loc 1 1705 33
 5126 0018 3B7A     		ldrb	r3, [r7, #8]
 5127 001a C3F38013 		ubfx	r3, r3, #6, #1
 5128 001e DBB2     		uxtb	r3, r3
 5129              		.loc 1 1705 12
 5130 0020 1A46     		mov	r2, r3
 5131              		.loc 1 1705 10
 5132 0022 7B68     		ldr	r3, [r7, #4]
 5133 0024 1A70     		strb	r2, [r3]
1706:../Drivers/BSP/Components/lis2de12/lis2de12.c **** 
1707:../Drivers/BSP/Components/lis2de12/lis2de12.c ****     return ret;
 5134              		.loc 1 1707 12
 5135 0026 FB68     		ldr	r3, [r7, #12]
1708:../Drivers/BSP/Components/lis2de12/lis2de12.c **** }
 5136              		.loc 1 1708 1
 5137 0028 1846     		mov	r0, r3
 5138 002a 1037     		adds	r7, r7, #16
 5139              	.LCFI389:
 5140              		.cfi_def_cfa_offset 8
 5141 002c BD46     		mov	sp, r7
 5142              	.LCFI390:
 5143              		.cfi_def_cfa_register 13
 5144              		@ sp needed
 5145 002e 80BD     		pop	{r7, pc}
 5146              		.cfi_endproc
 5147              	.LFE667:
 5149              		.section	.text.lis2de12_fifo_watermark_set,"ax",%progbits
 5150              		.align	1
 5151              		.global	lis2de12_fifo_watermark_set
 5152              		.syntax unified
 5153              		.thumb
 5154              		.thumb_func
 5155              		.fpu fpv4-sp-d16
 5157              	lis2de12_fifo_watermark_set:
 5158              	.LFB668:
1709:../Drivers/BSP/Components/lis2de12/lis2de12.c **** 
1710:../Drivers/BSP/Components/lis2de12/lis2de12.c **** /**
1711:../Drivers/BSP/Components/lis2de12/lis2de12.c ****   * @brief  FIFO watermark level selection.[set]
1712:../Drivers/BSP/Components/lis2de12/lis2de12.c ****   *
1713:../Drivers/BSP/Components/lis2de12/lis2de12.c **** 
1714:../Drivers/BSP/Components/lis2de12/lis2de12.c ****   * @param  val      change the values of fth in reg FIFO_CTRL_REG
1715:../Drivers/BSP/Components/lis2de12/lis2de12.c ****   * @retval          interface status (MANDATORY: return 0 -> no Error)
1716:../Drivers/BSP/Components/lis2de12/lis2de12.c ****   *
1717:../Drivers/BSP/Components/lis2de12/lis2de12.c ****   */
1718:../Drivers/BSP/Components/lis2de12/lis2de12.c **** int32_t lis2de12_fifo_watermark_set( uint8_t val )
1719:../Drivers/BSP/Components/lis2de12/lis2de12.c **** {
 5159              		.loc 1 1719 1
 5160              		.cfi_startproc
 5161              		@ args = 0, pretend = 0, frame = 16
 5162              		@ frame_needed = 1, uses_anonymous_args = 0
 5163 0000 80B5     		push	{r7, lr}
 5164              	.LCFI391:
 5165              		.cfi_def_cfa_offset 8
 5166              		.cfi_offset 7, -8
ARM GAS  /tmp/ccjphgoR.s 			page 119


 5167              		.cfi_offset 14, -4
 5168 0002 84B0     		sub	sp, sp, #16
 5169              	.LCFI392:
 5170              		.cfi_def_cfa_offset 24
 5171 0004 00AF     		add	r7, sp, #0
 5172              	.LCFI393:
 5173              		.cfi_def_cfa_register 7
 5174 0006 0346     		mov	r3, r0
 5175 0008 FB71     		strb	r3, [r7, #7]
1720:../Drivers/BSP/Components/lis2de12/lis2de12.c ****     lis2de12_fifo_ctrl_reg_t fifo_ctrl_reg;
1721:../Drivers/BSP/Components/lis2de12/lis2de12.c ****     int32_t                  ret;
1722:../Drivers/BSP/Components/lis2de12/lis2de12.c **** 
1723:../Drivers/BSP/Components/lis2de12/lis2de12.c ****     ret = lis2de12_read_reg( LIS2DE12_FIFO_CTRL_REG, ( uint8_t* ) &fifo_ctrl_reg, 1 );
 5176              		.loc 1 1723 11
 5177 000a 07F10803 		add	r3, r7, #8
 5178 000e 0122     		movs	r2, #1
 5179 0010 1946     		mov	r1, r3
 5180 0012 2E20     		movs	r0, #46
 5181 0014 FFF7FEFF 		bl	lis2de12_read_reg
 5182 0018 F860     		str	r0, [r7, #12]
1724:../Drivers/BSP/Components/lis2de12/lis2de12.c ****     if( ret == 0 )
 5183              		.loc 1 1724 7
 5184 001a FB68     		ldr	r3, [r7, #12]
 5185 001c 002B     		cmp	r3, #0
 5186 001e 0FD1     		bne	.L279
1725:../Drivers/BSP/Components/lis2de12/lis2de12.c ****     {
1726:../Drivers/BSP/Components/lis2de12/lis2de12.c ****         fifo_ctrl_reg.fth = val;
 5187              		.loc 1 1726 27
 5188 0020 FB79     		ldrb	r3, [r7, #7]
 5189 0022 03F01F03 		and	r3, r3, #31
 5190 0026 DAB2     		uxtb	r2, r3
 5191 0028 3B7A     		ldrb	r3, [r7, #8]
 5192 002a 62F30403 		bfi	r3, r2, #0, #5
 5193 002e 3B72     		strb	r3, [r7, #8]
1727:../Drivers/BSP/Components/lis2de12/lis2de12.c ****         ret               = lis2de12_write_reg( LIS2DE12_FIFO_CTRL_REG, ( uint8_t* ) &fifo_ctrl_reg
 5194              		.loc 1 1727 29
 5195 0030 07F10803 		add	r3, r7, #8
 5196 0034 0122     		movs	r2, #1
 5197 0036 1946     		mov	r1, r3
 5198 0038 2E20     		movs	r0, #46
 5199 003a FFF7FEFF 		bl	lis2de12_write_reg
 5200 003e F860     		str	r0, [r7, #12]
 5201              	.L279:
1728:../Drivers/BSP/Components/lis2de12/lis2de12.c ****     }
1729:../Drivers/BSP/Components/lis2de12/lis2de12.c ****     return ret;
 5202              		.loc 1 1729 12
 5203 0040 FB68     		ldr	r3, [r7, #12]
1730:../Drivers/BSP/Components/lis2de12/lis2de12.c **** }
 5204              		.loc 1 1730 1
 5205 0042 1846     		mov	r0, r3
 5206 0044 1037     		adds	r7, r7, #16
 5207              	.LCFI394:
 5208              		.cfi_def_cfa_offset 8
 5209 0046 BD46     		mov	sp, r7
 5210              	.LCFI395:
 5211              		.cfi_def_cfa_register 13
 5212              		@ sp needed
ARM GAS  /tmp/ccjphgoR.s 			page 120


 5213 0048 80BD     		pop	{r7, pc}
 5214              		.cfi_endproc
 5215              	.LFE668:
 5217              		.section	.text.lis2de12_fifo_watermark_get,"ax",%progbits
 5218              		.align	1
 5219              		.global	lis2de12_fifo_watermark_get
 5220              		.syntax unified
 5221              		.thumb
 5222              		.thumb_func
 5223              		.fpu fpv4-sp-d16
 5225              	lis2de12_fifo_watermark_get:
 5226              	.LFB669:
1731:../Drivers/BSP/Components/lis2de12/lis2de12.c **** 
1732:../Drivers/BSP/Components/lis2de12/lis2de12.c **** /**
1733:../Drivers/BSP/Components/lis2de12/lis2de12.c ****   * @brief  FIFO watermark level selection.[get]
1734:../Drivers/BSP/Components/lis2de12/lis2de12.c ****   *
1735:../Drivers/BSP/Components/lis2de12/lis2de12.c **** 
1736:../Drivers/BSP/Components/lis2de12/lis2de12.c ****   * @param  val      change the values of fth in reg FIFO_CTRL_REG
1737:../Drivers/BSP/Components/lis2de12/lis2de12.c ****   * @retval          interface status (MANDATORY: return 0 -> no Error)
1738:../Drivers/BSP/Components/lis2de12/lis2de12.c ****   *
1739:../Drivers/BSP/Components/lis2de12/lis2de12.c ****   */
1740:../Drivers/BSP/Components/lis2de12/lis2de12.c **** int32_t lis2de12_fifo_watermark_get( uint8_t* val )
1741:../Drivers/BSP/Components/lis2de12/lis2de12.c **** {
 5227              		.loc 1 1741 1
 5228              		.cfi_startproc
 5229              		@ args = 0, pretend = 0, frame = 16
 5230              		@ frame_needed = 1, uses_anonymous_args = 0
 5231 0000 80B5     		push	{r7, lr}
 5232              	.LCFI396:
 5233              		.cfi_def_cfa_offset 8
 5234              		.cfi_offset 7, -8
 5235              		.cfi_offset 14, -4
 5236 0002 84B0     		sub	sp, sp, #16
 5237              	.LCFI397:
 5238              		.cfi_def_cfa_offset 24
 5239 0004 00AF     		add	r7, sp, #0
 5240              	.LCFI398:
 5241              		.cfi_def_cfa_register 7
 5242 0006 7860     		str	r0, [r7, #4]
1742:../Drivers/BSP/Components/lis2de12/lis2de12.c ****     lis2de12_fifo_ctrl_reg_t fifo_ctrl_reg;
1743:../Drivers/BSP/Components/lis2de12/lis2de12.c ****     int32_t                  ret;
1744:../Drivers/BSP/Components/lis2de12/lis2de12.c **** 
1745:../Drivers/BSP/Components/lis2de12/lis2de12.c ****     ret  = lis2de12_read_reg( LIS2DE12_FIFO_CTRL_REG, ( uint8_t* ) &fifo_ctrl_reg, 1 );
 5243              		.loc 1 1745 12
 5244 0008 07F10803 		add	r3, r7, #8
 5245 000c 0122     		movs	r2, #1
 5246 000e 1946     		mov	r1, r3
 5247 0010 2E20     		movs	r0, #46
 5248 0012 FFF7FEFF 		bl	lis2de12_read_reg
 5249 0016 F860     		str	r0, [r7, #12]
1746:../Drivers/BSP/Components/lis2de12/lis2de12.c ****     *val = ( uint8_t ) fifo_ctrl_reg.fth;
 5250              		.loc 1 1746 37
 5251 0018 3B7A     		ldrb	r3, [r7, #8]
 5252 001a C3F30403 		ubfx	r3, r3, #0, #5
 5253 001e DBB2     		uxtb	r3, r3
 5254              		.loc 1 1746 12
 5255 0020 1A46     		mov	r2, r3
ARM GAS  /tmp/ccjphgoR.s 			page 121


 5256              		.loc 1 1746 10
 5257 0022 7B68     		ldr	r3, [r7, #4]
 5258 0024 1A70     		strb	r2, [r3]
1747:../Drivers/BSP/Components/lis2de12/lis2de12.c **** 
1748:../Drivers/BSP/Components/lis2de12/lis2de12.c ****     return ret;
 5259              		.loc 1 1748 12
 5260 0026 FB68     		ldr	r3, [r7, #12]
1749:../Drivers/BSP/Components/lis2de12/lis2de12.c **** }
 5261              		.loc 1 1749 1
 5262 0028 1846     		mov	r0, r3
 5263 002a 1037     		adds	r7, r7, #16
 5264              	.LCFI399:
 5265              		.cfi_def_cfa_offset 8
 5266 002c BD46     		mov	sp, r7
 5267              	.LCFI400:
 5268              		.cfi_def_cfa_register 13
 5269              		@ sp needed
 5270 002e 80BD     		pop	{r7, pc}
 5271              		.cfi_endproc
 5272              	.LFE669:
 5274              		.section	.text.lis2de12_fifo_trigger_event_set,"ax",%progbits
 5275              		.align	1
 5276              		.global	lis2de12_fifo_trigger_event_set
 5277              		.syntax unified
 5278              		.thumb
 5279              		.thumb_func
 5280              		.fpu fpv4-sp-d16
 5282              	lis2de12_fifo_trigger_event_set:
 5283              	.LFB670:
1750:../Drivers/BSP/Components/lis2de12/lis2de12.c **** 
1751:../Drivers/BSP/Components/lis2de12/lis2de12.c **** /**
1752:../Drivers/BSP/Components/lis2de12/lis2de12.c ****   * @brief  Trigger FIFO selection.[set]
1753:../Drivers/BSP/Components/lis2de12/lis2de12.c ****   *
1754:../Drivers/BSP/Components/lis2de12/lis2de12.c **** 
1755:../Drivers/BSP/Components/lis2de12/lis2de12.c ****   * @param  val      change the values of tr in reg FIFO_CTRL_REG
1756:../Drivers/BSP/Components/lis2de12/lis2de12.c ****   * @retval          interface status (MANDATORY: return 0 -> no Error)
1757:../Drivers/BSP/Components/lis2de12/lis2de12.c ****   *
1758:../Drivers/BSP/Components/lis2de12/lis2de12.c ****   */
1759:../Drivers/BSP/Components/lis2de12/lis2de12.c **** int32_t lis2de12_fifo_trigger_event_set( lis2de12_tr_t val )
1760:../Drivers/BSP/Components/lis2de12/lis2de12.c **** {
 5284              		.loc 1 1760 1
 5285              		.cfi_startproc
 5286              		@ args = 0, pretend = 0, frame = 16
 5287              		@ frame_needed = 1, uses_anonymous_args = 0
 5288 0000 80B5     		push	{r7, lr}
 5289              	.LCFI401:
 5290              		.cfi_def_cfa_offset 8
 5291              		.cfi_offset 7, -8
 5292              		.cfi_offset 14, -4
 5293 0002 84B0     		sub	sp, sp, #16
 5294              	.LCFI402:
 5295              		.cfi_def_cfa_offset 24
 5296 0004 00AF     		add	r7, sp, #0
 5297              	.LCFI403:
 5298              		.cfi_def_cfa_register 7
 5299 0006 0346     		mov	r3, r0
 5300 0008 FB71     		strb	r3, [r7, #7]
ARM GAS  /tmp/ccjphgoR.s 			page 122


1761:../Drivers/BSP/Components/lis2de12/lis2de12.c ****     lis2de12_fifo_ctrl_reg_t fifo_ctrl_reg;
1762:../Drivers/BSP/Components/lis2de12/lis2de12.c ****     int32_t                  ret;
1763:../Drivers/BSP/Components/lis2de12/lis2de12.c **** 
1764:../Drivers/BSP/Components/lis2de12/lis2de12.c ****     ret = lis2de12_read_reg( LIS2DE12_FIFO_CTRL_REG, ( uint8_t* ) &fifo_ctrl_reg, 1 );
 5301              		.loc 1 1764 11
 5302 000a 07F10803 		add	r3, r7, #8
 5303 000e 0122     		movs	r2, #1
 5304 0010 1946     		mov	r1, r3
 5305 0012 2E20     		movs	r0, #46
 5306 0014 FFF7FEFF 		bl	lis2de12_read_reg
 5307 0018 F860     		str	r0, [r7, #12]
1765:../Drivers/BSP/Components/lis2de12/lis2de12.c ****     if( ret == 0 )
 5308              		.loc 1 1765 7
 5309 001a FB68     		ldr	r3, [r7, #12]
 5310 001c 002B     		cmp	r3, #0
 5311 001e 0FD1     		bne	.L284
1766:../Drivers/BSP/Components/lis2de12/lis2de12.c ****     {
1767:../Drivers/BSP/Components/lis2de12/lis2de12.c ****         fifo_ctrl_reg.tr = ( uint8_t ) val;
 5312              		.loc 1 1767 28
 5313 0020 FB79     		ldrb	r3, [r7, #7]
 5314 0022 03F00103 		and	r3, r3, #1
 5315 0026 DAB2     		uxtb	r2, r3
 5316              		.loc 1 1767 26
 5317 0028 3B7A     		ldrb	r3, [r7, #8]
 5318 002a 62F34513 		bfi	r3, r2, #5, #1
 5319 002e 3B72     		strb	r3, [r7, #8]
1768:../Drivers/BSP/Components/lis2de12/lis2de12.c ****         ret              = lis2de12_write_reg( LIS2DE12_FIFO_CTRL_REG, ( uint8_t* ) &fifo_ctrl_reg,
 5320              		.loc 1 1768 28
 5321 0030 07F10803 		add	r3, r7, #8
 5322 0034 0122     		movs	r2, #1
 5323 0036 1946     		mov	r1, r3
 5324 0038 2E20     		movs	r0, #46
 5325 003a FFF7FEFF 		bl	lis2de12_write_reg
 5326 003e F860     		str	r0, [r7, #12]
 5327              	.L284:
1769:../Drivers/BSP/Components/lis2de12/lis2de12.c ****     }
1770:../Drivers/BSP/Components/lis2de12/lis2de12.c ****     return ret;
 5328              		.loc 1 1770 12
 5329 0040 FB68     		ldr	r3, [r7, #12]
1771:../Drivers/BSP/Components/lis2de12/lis2de12.c **** }
 5330              		.loc 1 1771 1
 5331 0042 1846     		mov	r0, r3
 5332 0044 1037     		adds	r7, r7, #16
 5333              	.LCFI404:
 5334              		.cfi_def_cfa_offset 8
 5335 0046 BD46     		mov	sp, r7
 5336              	.LCFI405:
 5337              		.cfi_def_cfa_register 13
 5338              		@ sp needed
 5339 0048 80BD     		pop	{r7, pc}
 5340              		.cfi_endproc
 5341              	.LFE670:
 5343              		.section	.text.lis2de12_fifo_trigger_event_get,"ax",%progbits
 5344              		.align	1
 5345              		.global	lis2de12_fifo_trigger_event_get
 5346              		.syntax unified
 5347              		.thumb
ARM GAS  /tmp/ccjphgoR.s 			page 123


 5348              		.thumb_func
 5349              		.fpu fpv4-sp-d16
 5351              	lis2de12_fifo_trigger_event_get:
 5352              	.LFB671:
1772:../Drivers/BSP/Components/lis2de12/lis2de12.c **** 
1773:../Drivers/BSP/Components/lis2de12/lis2de12.c **** /**
1774:../Drivers/BSP/Components/lis2de12/lis2de12.c ****   * @brief  Trigger FIFO selection.[get]
1775:../Drivers/BSP/Components/lis2de12/lis2de12.c ****   *
1776:../Drivers/BSP/Components/lis2de12/lis2de12.c **** 
1777:../Drivers/BSP/Components/lis2de12/lis2de12.c ****   * @param  val      Get the values of tr in reg FIFO_CTRL_REG
1778:../Drivers/BSP/Components/lis2de12/lis2de12.c ****   * @retval          interface status (MANDATORY: return 0 -> no Error)
1779:../Drivers/BSP/Components/lis2de12/lis2de12.c ****   *
1780:../Drivers/BSP/Components/lis2de12/lis2de12.c ****   */
1781:../Drivers/BSP/Components/lis2de12/lis2de12.c **** int32_t lis2de12_fifo_trigger_event_get( lis2de12_tr_t* val )
1782:../Drivers/BSP/Components/lis2de12/lis2de12.c **** {
 5353              		.loc 1 1782 1
 5354              		.cfi_startproc
 5355              		@ args = 0, pretend = 0, frame = 16
 5356              		@ frame_needed = 1, uses_anonymous_args = 0
 5357 0000 80B5     		push	{r7, lr}
 5358              	.LCFI406:
 5359              		.cfi_def_cfa_offset 8
 5360              		.cfi_offset 7, -8
 5361              		.cfi_offset 14, -4
 5362 0002 84B0     		sub	sp, sp, #16
 5363              	.LCFI407:
 5364              		.cfi_def_cfa_offset 24
 5365 0004 00AF     		add	r7, sp, #0
 5366              	.LCFI408:
 5367              		.cfi_def_cfa_register 7
 5368 0006 7860     		str	r0, [r7, #4]
1783:../Drivers/BSP/Components/lis2de12/lis2de12.c ****     lis2de12_fifo_ctrl_reg_t fifo_ctrl_reg;
1784:../Drivers/BSP/Components/lis2de12/lis2de12.c ****     int32_t                  ret;
1785:../Drivers/BSP/Components/lis2de12/lis2de12.c **** 
1786:../Drivers/BSP/Components/lis2de12/lis2de12.c ****     ret = lis2de12_read_reg( LIS2DE12_FIFO_CTRL_REG, ( uint8_t* ) &fifo_ctrl_reg, 1 );
 5369              		.loc 1 1786 11
 5370 0008 07F10803 		add	r3, r7, #8
 5371 000c 0122     		movs	r2, #1
 5372 000e 1946     		mov	r1, r3
 5373 0010 2E20     		movs	r0, #46
 5374 0012 FFF7FEFF 		bl	lis2de12_read_reg
 5375 0016 F860     		str	r0, [r7, #12]
1787:../Drivers/BSP/Components/lis2de12/lis2de12.c ****     switch( fifo_ctrl_reg.tr )
 5376              		.loc 1 1787 26
 5377 0018 3B7A     		ldrb	r3, [r7, #8]
 5378 001a C3F34013 		ubfx	r3, r3, #5, #1
 5379 001e DBB2     		uxtb	r3, r3
 5380              		.loc 1 1787 5
 5381 0020 002B     		cmp	r3, #0
 5382 0022 02D0     		beq	.L287
 5383 0024 012B     		cmp	r3, #1
 5384 0026 04D0     		beq	.L288
 5385 0028 07E0     		b	.L292
 5386              	.L287:
1788:../Drivers/BSP/Components/lis2de12/lis2de12.c ****     {
1789:../Drivers/BSP/Components/lis2de12/lis2de12.c ****     case LIS2DE12_INT1_GEN:
1790:../Drivers/BSP/Components/lis2de12/lis2de12.c ****         *val = LIS2DE12_INT1_GEN;
ARM GAS  /tmp/ccjphgoR.s 			page 124


 5387              		.loc 1 1790 14
 5388 002a 7B68     		ldr	r3, [r7, #4]
 5389 002c 0022     		movs	r2, #0
 5390 002e 1A70     		strb	r2, [r3]
1791:../Drivers/BSP/Components/lis2de12/lis2de12.c ****         break;
 5391              		.loc 1 1791 9
 5392 0030 07E0     		b	.L290
 5393              	.L288:
1792:../Drivers/BSP/Components/lis2de12/lis2de12.c ****     case LIS2DE12_INT2_GEN:
1793:../Drivers/BSP/Components/lis2de12/lis2de12.c ****         *val = LIS2DE12_INT2_GEN;
 5394              		.loc 1 1793 14
 5395 0032 7B68     		ldr	r3, [r7, #4]
 5396 0034 0122     		movs	r2, #1
 5397 0036 1A70     		strb	r2, [r3]
1794:../Drivers/BSP/Components/lis2de12/lis2de12.c ****         break;
 5398              		.loc 1 1794 9
 5399 0038 03E0     		b	.L290
 5400              	.L292:
1795:../Drivers/BSP/Components/lis2de12/lis2de12.c ****     default:
1796:../Drivers/BSP/Components/lis2de12/lis2de12.c ****         *val = LIS2DE12_INT1_GEN;
 5401              		.loc 1 1796 14
 5402 003a 7B68     		ldr	r3, [r7, #4]
 5403 003c 0022     		movs	r2, #0
 5404 003e 1A70     		strb	r2, [r3]
1797:../Drivers/BSP/Components/lis2de12/lis2de12.c ****         break;
 5405              		.loc 1 1797 9
 5406 0040 00BF     		nop
 5407              	.L290:
1798:../Drivers/BSP/Components/lis2de12/lis2de12.c ****     }
1799:../Drivers/BSP/Components/lis2de12/lis2de12.c ****     return ret;
 5408              		.loc 1 1799 12
 5409 0042 FB68     		ldr	r3, [r7, #12]
1800:../Drivers/BSP/Components/lis2de12/lis2de12.c **** }
 5410              		.loc 1 1800 1
 5411 0044 1846     		mov	r0, r3
 5412 0046 1037     		adds	r7, r7, #16
 5413              	.LCFI409:
 5414              		.cfi_def_cfa_offset 8
 5415 0048 BD46     		mov	sp, r7
 5416              	.LCFI410:
 5417              		.cfi_def_cfa_register 13
 5418              		@ sp needed
 5419 004a 80BD     		pop	{r7, pc}
 5420              		.cfi_endproc
 5421              	.LFE671:
 5423              		.section	.text.lis2de12_fifo_mode_set,"ax",%progbits
 5424              		.align	1
 5425              		.global	lis2de12_fifo_mode_set
 5426              		.syntax unified
 5427              		.thumb
 5428              		.thumb_func
 5429              		.fpu fpv4-sp-d16
 5431              	lis2de12_fifo_mode_set:
 5432              	.LFB672:
1801:../Drivers/BSP/Components/lis2de12/lis2de12.c **** 
1802:../Drivers/BSP/Components/lis2de12/lis2de12.c **** /**
1803:../Drivers/BSP/Components/lis2de12/lis2de12.c ****   * @brief  FIFO mode selection.[set]
ARM GAS  /tmp/ccjphgoR.s 			page 125


1804:../Drivers/BSP/Components/lis2de12/lis2de12.c ****   *
1805:../Drivers/BSP/Components/lis2de12/lis2de12.c **** 
1806:../Drivers/BSP/Components/lis2de12/lis2de12.c ****   * @param  val      change the values of fm in reg FIFO_CTRL_REG
1807:../Drivers/BSP/Components/lis2de12/lis2de12.c ****   * @retval          interface status (MANDATORY: return 0 -> no Error)
1808:../Drivers/BSP/Components/lis2de12/lis2de12.c ****   *
1809:../Drivers/BSP/Components/lis2de12/lis2de12.c ****   */
1810:../Drivers/BSP/Components/lis2de12/lis2de12.c **** int32_t lis2de12_fifo_mode_set( lis2de12_fm_t val )
1811:../Drivers/BSP/Components/lis2de12/lis2de12.c **** {
 5433              		.loc 1 1811 1
 5434              		.cfi_startproc
 5435              		@ args = 0, pretend = 0, frame = 16
 5436              		@ frame_needed = 1, uses_anonymous_args = 0
 5437 0000 80B5     		push	{r7, lr}
 5438              	.LCFI411:
 5439              		.cfi_def_cfa_offset 8
 5440              		.cfi_offset 7, -8
 5441              		.cfi_offset 14, -4
 5442 0002 84B0     		sub	sp, sp, #16
 5443              	.LCFI412:
 5444              		.cfi_def_cfa_offset 24
 5445 0004 00AF     		add	r7, sp, #0
 5446              	.LCFI413:
 5447              		.cfi_def_cfa_register 7
 5448 0006 0346     		mov	r3, r0
 5449 0008 FB71     		strb	r3, [r7, #7]
1812:../Drivers/BSP/Components/lis2de12/lis2de12.c ****     lis2de12_fifo_ctrl_reg_t fifo_ctrl_reg;
1813:../Drivers/BSP/Components/lis2de12/lis2de12.c ****     int32_t                  ret;
1814:../Drivers/BSP/Components/lis2de12/lis2de12.c **** 
1815:../Drivers/BSP/Components/lis2de12/lis2de12.c ****     ret = lis2de12_read_reg( LIS2DE12_FIFO_CTRL_REG, ( uint8_t* ) &fifo_ctrl_reg, 1 );
 5450              		.loc 1 1815 11
 5451 000a 07F10803 		add	r3, r7, #8
 5452 000e 0122     		movs	r2, #1
 5453 0010 1946     		mov	r1, r3
 5454 0012 2E20     		movs	r0, #46
 5455 0014 FFF7FEFF 		bl	lis2de12_read_reg
 5456 0018 F860     		str	r0, [r7, #12]
1816:../Drivers/BSP/Components/lis2de12/lis2de12.c ****     if( ret == 0 )
 5457              		.loc 1 1816 7
 5458 001a FB68     		ldr	r3, [r7, #12]
 5459 001c 002B     		cmp	r3, #0
 5460 001e 0FD1     		bne	.L294
1817:../Drivers/BSP/Components/lis2de12/lis2de12.c ****     {
1818:../Drivers/BSP/Components/lis2de12/lis2de12.c ****         fifo_ctrl_reg.fm = ( uint8_t ) val;
 5461              		.loc 1 1818 28
 5462 0020 FB79     		ldrb	r3, [r7, #7]
 5463 0022 03F00303 		and	r3, r3, #3
 5464 0026 DAB2     		uxtb	r2, r3
 5465              		.loc 1 1818 26
 5466 0028 3B7A     		ldrb	r3, [r7, #8]
 5467 002a 62F38713 		bfi	r3, r2, #6, #2
 5468 002e 3B72     		strb	r3, [r7, #8]
1819:../Drivers/BSP/Components/lis2de12/lis2de12.c ****         ret              = lis2de12_write_reg( LIS2DE12_FIFO_CTRL_REG, ( uint8_t* ) &fifo_ctrl_reg,
 5469              		.loc 1 1819 28
 5470 0030 07F10803 		add	r3, r7, #8
 5471 0034 0122     		movs	r2, #1
 5472 0036 1946     		mov	r1, r3
 5473 0038 2E20     		movs	r0, #46
ARM GAS  /tmp/ccjphgoR.s 			page 126


 5474 003a FFF7FEFF 		bl	lis2de12_write_reg
 5475 003e F860     		str	r0, [r7, #12]
 5476              	.L294:
1820:../Drivers/BSP/Components/lis2de12/lis2de12.c ****     }
1821:../Drivers/BSP/Components/lis2de12/lis2de12.c ****     return ret;
 5477              		.loc 1 1821 12
 5478 0040 FB68     		ldr	r3, [r7, #12]
1822:../Drivers/BSP/Components/lis2de12/lis2de12.c **** }
 5479              		.loc 1 1822 1
 5480 0042 1846     		mov	r0, r3
 5481 0044 1037     		adds	r7, r7, #16
 5482              	.LCFI414:
 5483              		.cfi_def_cfa_offset 8
 5484 0046 BD46     		mov	sp, r7
 5485              	.LCFI415:
 5486              		.cfi_def_cfa_register 13
 5487              		@ sp needed
 5488 0048 80BD     		pop	{r7, pc}
 5489              		.cfi_endproc
 5490              	.LFE672:
 5492              		.section	.text.lis2de12_fifo_mode_get,"ax",%progbits
 5493              		.align	1
 5494              		.global	lis2de12_fifo_mode_get
 5495              		.syntax unified
 5496              		.thumb
 5497              		.thumb_func
 5498              		.fpu fpv4-sp-d16
 5500              	lis2de12_fifo_mode_get:
 5501              	.LFB673:
1823:../Drivers/BSP/Components/lis2de12/lis2de12.c **** 
1824:../Drivers/BSP/Components/lis2de12/lis2de12.c **** /**
1825:../Drivers/BSP/Components/lis2de12/lis2de12.c ****   * @brief  FIFO mode selection.[get]
1826:../Drivers/BSP/Components/lis2de12/lis2de12.c ****   *
1827:../Drivers/BSP/Components/lis2de12/lis2de12.c **** 
1828:../Drivers/BSP/Components/lis2de12/lis2de12.c ****   * @param  val      Get the values of fm in reg FIFO_CTRL_REG
1829:../Drivers/BSP/Components/lis2de12/lis2de12.c ****   * @retval          interface status (MANDATORY: return 0 -> no Error)
1830:../Drivers/BSP/Components/lis2de12/lis2de12.c ****   *
1831:../Drivers/BSP/Components/lis2de12/lis2de12.c ****   */
1832:../Drivers/BSP/Components/lis2de12/lis2de12.c **** int32_t lis2de12_fifo_mode_get( lis2de12_fm_t* val )
1833:../Drivers/BSP/Components/lis2de12/lis2de12.c **** {
 5502              		.loc 1 1833 1
 5503              		.cfi_startproc
 5504              		@ args = 0, pretend = 0, frame = 16
 5505              		@ frame_needed = 1, uses_anonymous_args = 0
 5506 0000 80B5     		push	{r7, lr}
 5507              	.LCFI416:
 5508              		.cfi_def_cfa_offset 8
 5509              		.cfi_offset 7, -8
 5510              		.cfi_offset 14, -4
 5511 0002 84B0     		sub	sp, sp, #16
 5512              	.LCFI417:
 5513              		.cfi_def_cfa_offset 24
 5514 0004 00AF     		add	r7, sp, #0
 5515              	.LCFI418:
 5516              		.cfi_def_cfa_register 7
 5517 0006 7860     		str	r0, [r7, #4]
1834:../Drivers/BSP/Components/lis2de12/lis2de12.c ****     lis2de12_fifo_ctrl_reg_t fifo_ctrl_reg;
ARM GAS  /tmp/ccjphgoR.s 			page 127


1835:../Drivers/BSP/Components/lis2de12/lis2de12.c ****     int32_t                  ret;
1836:../Drivers/BSP/Components/lis2de12/lis2de12.c **** 
1837:../Drivers/BSP/Components/lis2de12/lis2de12.c ****     ret = lis2de12_read_reg( LIS2DE12_FIFO_CTRL_REG, ( uint8_t* ) &fifo_ctrl_reg, 1 );
 5518              		.loc 1 1837 11
 5519 0008 07F10803 		add	r3, r7, #8
 5520 000c 0122     		movs	r2, #1
 5521 000e 1946     		mov	r1, r3
 5522 0010 2E20     		movs	r0, #46
 5523 0012 FFF7FEFF 		bl	lis2de12_read_reg
 5524 0016 F860     		str	r0, [r7, #12]
1838:../Drivers/BSP/Components/lis2de12/lis2de12.c ****     switch( fifo_ctrl_reg.fm )
 5525              		.loc 1 1838 26
 5526 0018 3B7A     		ldrb	r3, [r7, #8]
 5527 001a C3F38113 		ubfx	r3, r3, #6, #2
 5528 001e DBB2     		uxtb	r3, r3
 5529              		.loc 1 1838 5
 5530 0020 032B     		cmp	r3, #3
 5531 0022 1BD8     		bhi	.L297
 5532 0024 01A2     		adr	r2, .L299
 5533 0026 52F823F0 		ldr	pc, [r2, r3, lsl #2]
 5534 002a 00BF     		.p2align 2
 5535              	.L299:
 5536 002c 3D000000 		.word	.L302+1
 5537 0030 45000000 		.word	.L301+1
 5538 0034 4D000000 		.word	.L300+1
 5539 0038 55000000 		.word	.L298+1
 5540              		.p2align 1
 5541              	.L302:
1839:../Drivers/BSP/Components/lis2de12/lis2de12.c ****     {
1840:../Drivers/BSP/Components/lis2de12/lis2de12.c ****     case LIS2DE12_BYPASS_MODE:
1841:../Drivers/BSP/Components/lis2de12/lis2de12.c ****         *val = LIS2DE12_BYPASS_MODE;
 5542              		.loc 1 1841 14
 5543 003c 7B68     		ldr	r3, [r7, #4]
 5544 003e 0022     		movs	r2, #0
 5545 0040 1A70     		strb	r2, [r3]
1842:../Drivers/BSP/Components/lis2de12/lis2de12.c ****         break;
 5546              		.loc 1 1842 9
 5547 0042 0FE0     		b	.L303
 5548              	.L301:
1843:../Drivers/BSP/Components/lis2de12/lis2de12.c ****     case LIS2DE12_FIFO_MODE:
1844:../Drivers/BSP/Components/lis2de12/lis2de12.c ****         *val = LIS2DE12_FIFO_MODE;
 5549              		.loc 1 1844 14
 5550 0044 7B68     		ldr	r3, [r7, #4]
 5551 0046 0122     		movs	r2, #1
 5552 0048 1A70     		strb	r2, [r3]
1845:../Drivers/BSP/Components/lis2de12/lis2de12.c ****         break;
 5553              		.loc 1 1845 9
 5554 004a 0BE0     		b	.L303
 5555              	.L300:
1846:../Drivers/BSP/Components/lis2de12/lis2de12.c ****     case LIS2DE12_DYNAMIC_STREAM_MODE:
1847:../Drivers/BSP/Components/lis2de12/lis2de12.c ****         *val = LIS2DE12_DYNAMIC_STREAM_MODE;
 5556              		.loc 1 1847 14
 5557 004c 7B68     		ldr	r3, [r7, #4]
 5558 004e 0222     		movs	r2, #2
 5559 0050 1A70     		strb	r2, [r3]
1848:../Drivers/BSP/Components/lis2de12/lis2de12.c ****         break;
 5560              		.loc 1 1848 9
ARM GAS  /tmp/ccjphgoR.s 			page 128


 5561 0052 07E0     		b	.L303
 5562              	.L298:
1849:../Drivers/BSP/Components/lis2de12/lis2de12.c ****     case LIS2DE12_STREAM_TO_FIFO_MODE:
1850:../Drivers/BSP/Components/lis2de12/lis2de12.c ****         *val = LIS2DE12_STREAM_TO_FIFO_MODE;
 5563              		.loc 1 1850 14
 5564 0054 7B68     		ldr	r3, [r7, #4]
 5565 0056 0322     		movs	r2, #3
 5566 0058 1A70     		strb	r2, [r3]
1851:../Drivers/BSP/Components/lis2de12/lis2de12.c ****         break;
 5567              		.loc 1 1851 9
 5568 005a 03E0     		b	.L303
 5569              	.L297:
1852:../Drivers/BSP/Components/lis2de12/lis2de12.c ****     default:
1853:../Drivers/BSP/Components/lis2de12/lis2de12.c ****         *val = LIS2DE12_BYPASS_MODE;
 5570              		.loc 1 1853 14
 5571 005c 7B68     		ldr	r3, [r7, #4]
 5572 005e 0022     		movs	r2, #0
 5573 0060 1A70     		strb	r2, [r3]
1854:../Drivers/BSP/Components/lis2de12/lis2de12.c ****         break;
 5574              		.loc 1 1854 9
 5575 0062 00BF     		nop
 5576              	.L303:
1855:../Drivers/BSP/Components/lis2de12/lis2de12.c ****     }
1856:../Drivers/BSP/Components/lis2de12/lis2de12.c ****     return ret;
 5577              		.loc 1 1856 12
 5578 0064 FB68     		ldr	r3, [r7, #12]
1857:../Drivers/BSP/Components/lis2de12/lis2de12.c **** }
 5579              		.loc 1 1857 1
 5580 0066 1846     		mov	r0, r3
 5581 0068 1037     		adds	r7, r7, #16
 5582              	.LCFI419:
 5583              		.cfi_def_cfa_offset 8
 5584 006a BD46     		mov	sp, r7
 5585              	.LCFI420:
 5586              		.cfi_def_cfa_register 13
 5587              		@ sp needed
 5588 006c 80BD     		pop	{r7, pc}
 5589              		.cfi_endproc
 5590              	.LFE673:
 5592 006e 00BF     		.section	.text.lis2de12_fifo_status_get,"ax",%progbits
 5593              		.align	1
 5594              		.global	lis2de12_fifo_status_get
 5595              		.syntax unified
 5596              		.thumb
 5597              		.thumb_func
 5598              		.fpu fpv4-sp-d16
 5600              	lis2de12_fifo_status_get:
 5601              	.LFB674:
1858:../Drivers/BSP/Components/lis2de12/lis2de12.c **** 
1859:../Drivers/BSP/Components/lis2de12/lis2de12.c **** /**
1860:../Drivers/BSP/Components/lis2de12/lis2de12.c ****   * @brief  FIFO status register.[get]
1861:../Drivers/BSP/Components/lis2de12/lis2de12.c ****   *
1862:../Drivers/BSP/Components/lis2de12/lis2de12.c **** 
1863:../Drivers/BSP/Components/lis2de12/lis2de12.c ****   * @param  val      registers FIFO_SRC_REG
1864:../Drivers/BSP/Components/lis2de12/lis2de12.c ****   * @retval          interface status (MANDATORY: return 0 -> no Error)
1865:../Drivers/BSP/Components/lis2de12/lis2de12.c ****   *
1866:../Drivers/BSP/Components/lis2de12/lis2de12.c ****   */
ARM GAS  /tmp/ccjphgoR.s 			page 129


1867:../Drivers/BSP/Components/lis2de12/lis2de12.c **** int32_t lis2de12_fifo_status_get( lis2de12_fifo_src_reg_t* val )
1868:../Drivers/BSP/Components/lis2de12/lis2de12.c **** {
 5602              		.loc 1 1868 1
 5603              		.cfi_startproc
 5604              		@ args = 0, pretend = 0, frame = 16
 5605              		@ frame_needed = 1, uses_anonymous_args = 0
 5606 0000 80B5     		push	{r7, lr}
 5607              	.LCFI421:
 5608              		.cfi_def_cfa_offset 8
 5609              		.cfi_offset 7, -8
 5610              		.cfi_offset 14, -4
 5611 0002 84B0     		sub	sp, sp, #16
 5612              	.LCFI422:
 5613              		.cfi_def_cfa_offset 24
 5614 0004 00AF     		add	r7, sp, #0
 5615              	.LCFI423:
 5616              		.cfi_def_cfa_register 7
 5617 0006 7860     		str	r0, [r7, #4]
1869:../Drivers/BSP/Components/lis2de12/lis2de12.c ****     int32_t ret;
1870:../Drivers/BSP/Components/lis2de12/lis2de12.c ****     ret = lis2de12_read_reg( LIS2DE12_FIFO_SRC_REG, ( uint8_t* ) val, 1 );
 5618              		.loc 1 1870 11
 5619 0008 0122     		movs	r2, #1
 5620 000a 7968     		ldr	r1, [r7, #4]
 5621 000c 2F20     		movs	r0, #47
 5622 000e FFF7FEFF 		bl	lis2de12_read_reg
 5623 0012 F860     		str	r0, [r7, #12]
1871:../Drivers/BSP/Components/lis2de12/lis2de12.c ****     return ret;
 5624              		.loc 1 1871 12
 5625 0014 FB68     		ldr	r3, [r7, #12]
1872:../Drivers/BSP/Components/lis2de12/lis2de12.c **** }
 5626              		.loc 1 1872 1
 5627 0016 1846     		mov	r0, r3
 5628 0018 1037     		adds	r7, r7, #16
 5629              	.LCFI424:
 5630              		.cfi_def_cfa_offset 8
 5631 001a BD46     		mov	sp, r7
 5632              	.LCFI425:
 5633              		.cfi_def_cfa_register 13
 5634              		@ sp needed
 5635 001c 80BD     		pop	{r7, pc}
 5636              		.cfi_endproc
 5637              	.LFE674:
 5639              		.section	.text.lis2de12_fifo_data_level_get,"ax",%progbits
 5640              		.align	1
 5641              		.global	lis2de12_fifo_data_level_get
 5642              		.syntax unified
 5643              		.thumb
 5644              		.thumb_func
 5645              		.fpu fpv4-sp-d16
 5647              	lis2de12_fifo_data_level_get:
 5648              	.LFB675:
1873:../Drivers/BSP/Components/lis2de12/lis2de12.c **** /**
1874:../Drivers/BSP/Components/lis2de12/lis2de12.c ****   * @brief  FIFO stored data level.[get]
1875:../Drivers/BSP/Components/lis2de12/lis2de12.c ****   *
1876:../Drivers/BSP/Components/lis2de12/lis2de12.c **** 
1877:../Drivers/BSP/Components/lis2de12/lis2de12.c ****   * @param  val      change the values of fss in reg FIFO_SRC_REG
1878:../Drivers/BSP/Components/lis2de12/lis2de12.c ****   * @retval          interface status (MANDATORY: return 0 -> no Error)
ARM GAS  /tmp/ccjphgoR.s 			page 130


1879:../Drivers/BSP/Components/lis2de12/lis2de12.c ****   *
1880:../Drivers/BSP/Components/lis2de12/lis2de12.c ****   */
1881:../Drivers/BSP/Components/lis2de12/lis2de12.c **** int32_t lis2de12_fifo_data_level_get( uint8_t* val )
1882:../Drivers/BSP/Components/lis2de12/lis2de12.c **** {
 5649              		.loc 1 1882 1
 5650              		.cfi_startproc
 5651              		@ args = 0, pretend = 0, frame = 16
 5652              		@ frame_needed = 1, uses_anonymous_args = 0
 5653 0000 80B5     		push	{r7, lr}
 5654              	.LCFI426:
 5655              		.cfi_def_cfa_offset 8
 5656              		.cfi_offset 7, -8
 5657              		.cfi_offset 14, -4
 5658 0002 84B0     		sub	sp, sp, #16
 5659              	.LCFI427:
 5660              		.cfi_def_cfa_offset 24
 5661 0004 00AF     		add	r7, sp, #0
 5662              	.LCFI428:
 5663              		.cfi_def_cfa_register 7
 5664 0006 7860     		str	r0, [r7, #4]
1883:../Drivers/BSP/Components/lis2de12/lis2de12.c ****     lis2de12_fifo_src_reg_t fifo_src_reg;
1884:../Drivers/BSP/Components/lis2de12/lis2de12.c ****     int32_t                 ret;
1885:../Drivers/BSP/Components/lis2de12/lis2de12.c **** 
1886:../Drivers/BSP/Components/lis2de12/lis2de12.c ****     ret  = lis2de12_read_reg( LIS2DE12_FIFO_SRC_REG, ( uint8_t* ) &fifo_src_reg, 1 );
 5665              		.loc 1 1886 12
 5666 0008 07F10803 		add	r3, r7, #8
 5667 000c 0122     		movs	r2, #1
 5668 000e 1946     		mov	r1, r3
 5669 0010 2F20     		movs	r0, #47
 5670 0012 FFF7FEFF 		bl	lis2de12_read_reg
 5671 0016 F860     		str	r0, [r7, #12]
1887:../Drivers/BSP/Components/lis2de12/lis2de12.c ****     *val = ( uint8_t ) fifo_src_reg.fss;
 5672              		.loc 1 1887 36
 5673 0018 3B7A     		ldrb	r3, [r7, #8]
 5674 001a C3F30403 		ubfx	r3, r3, #0, #5
 5675 001e DBB2     		uxtb	r3, r3
 5676              		.loc 1 1887 12
 5677 0020 1A46     		mov	r2, r3
 5678              		.loc 1 1887 10
 5679 0022 7B68     		ldr	r3, [r7, #4]
 5680 0024 1A70     		strb	r2, [r3]
1888:../Drivers/BSP/Components/lis2de12/lis2de12.c **** 
1889:../Drivers/BSP/Components/lis2de12/lis2de12.c ****     return ret;
 5681              		.loc 1 1889 12
 5682 0026 FB68     		ldr	r3, [r7, #12]
1890:../Drivers/BSP/Components/lis2de12/lis2de12.c **** }
 5683              		.loc 1 1890 1
 5684 0028 1846     		mov	r0, r3
 5685 002a 1037     		adds	r7, r7, #16
 5686              	.LCFI429:
 5687              		.cfi_def_cfa_offset 8
 5688 002c BD46     		mov	sp, r7
 5689              	.LCFI430:
 5690              		.cfi_def_cfa_register 13
 5691              		@ sp needed
 5692 002e 80BD     		pop	{r7, pc}
 5693              		.cfi_endproc
ARM GAS  /tmp/ccjphgoR.s 			page 131


 5694              	.LFE675:
 5696              		.section	.text.lis2de12_fifo_empty_flag_get,"ax",%progbits
 5697              		.align	1
 5698              		.global	lis2de12_fifo_empty_flag_get
 5699              		.syntax unified
 5700              		.thumb
 5701              		.thumb_func
 5702              		.fpu fpv4-sp-d16
 5704              	lis2de12_fifo_empty_flag_get:
 5705              	.LFB676:
1891:../Drivers/BSP/Components/lis2de12/lis2de12.c **** /**
1892:../Drivers/BSP/Components/lis2de12/lis2de12.c ****   * @brief  Empty FIFO status flag.[get]
1893:../Drivers/BSP/Components/lis2de12/lis2de12.c ****   *
1894:../Drivers/BSP/Components/lis2de12/lis2de12.c **** 
1895:../Drivers/BSP/Components/lis2de12/lis2de12.c ****   * @param  val      change the values of empty in reg FIFO_SRC_REG
1896:../Drivers/BSP/Components/lis2de12/lis2de12.c ****   * @retval          interface status (MANDATORY: return 0 -> no Error)
1897:../Drivers/BSP/Components/lis2de12/lis2de12.c ****   *
1898:../Drivers/BSP/Components/lis2de12/lis2de12.c ****   */
1899:../Drivers/BSP/Components/lis2de12/lis2de12.c **** int32_t lis2de12_fifo_empty_flag_get( uint8_t* val )
1900:../Drivers/BSP/Components/lis2de12/lis2de12.c **** {
 5706              		.loc 1 1900 1
 5707              		.cfi_startproc
 5708              		@ args = 0, pretend = 0, frame = 16
 5709              		@ frame_needed = 1, uses_anonymous_args = 0
 5710 0000 80B5     		push	{r7, lr}
 5711              	.LCFI431:
 5712              		.cfi_def_cfa_offset 8
 5713              		.cfi_offset 7, -8
 5714              		.cfi_offset 14, -4
 5715 0002 84B0     		sub	sp, sp, #16
 5716              	.LCFI432:
 5717              		.cfi_def_cfa_offset 24
 5718 0004 00AF     		add	r7, sp, #0
 5719              	.LCFI433:
 5720              		.cfi_def_cfa_register 7
 5721 0006 7860     		str	r0, [r7, #4]
1901:../Drivers/BSP/Components/lis2de12/lis2de12.c ****     lis2de12_fifo_src_reg_t fifo_src_reg;
1902:../Drivers/BSP/Components/lis2de12/lis2de12.c ****     int32_t                 ret;
1903:../Drivers/BSP/Components/lis2de12/lis2de12.c **** 
1904:../Drivers/BSP/Components/lis2de12/lis2de12.c ****     ret  = lis2de12_read_reg( LIS2DE12_FIFO_SRC_REG, ( uint8_t* ) &fifo_src_reg, 1 );
 5722              		.loc 1 1904 12
 5723 0008 07F10803 		add	r3, r7, #8
 5724 000c 0122     		movs	r2, #1
 5725 000e 1946     		mov	r1, r3
 5726 0010 2F20     		movs	r0, #47
 5727 0012 FFF7FEFF 		bl	lis2de12_read_reg
 5728 0016 F860     		str	r0, [r7, #12]
1905:../Drivers/BSP/Components/lis2de12/lis2de12.c ****     *val = ( uint8_t ) fifo_src_reg.empty;
 5729              		.loc 1 1905 36
 5730 0018 3B7A     		ldrb	r3, [r7, #8]
 5731 001a C3F34013 		ubfx	r3, r3, #5, #1
 5732 001e DBB2     		uxtb	r3, r3
 5733              		.loc 1 1905 12
 5734 0020 1A46     		mov	r2, r3
 5735              		.loc 1 1905 10
 5736 0022 7B68     		ldr	r3, [r7, #4]
 5737 0024 1A70     		strb	r2, [r3]
ARM GAS  /tmp/ccjphgoR.s 			page 132


1906:../Drivers/BSP/Components/lis2de12/lis2de12.c **** 
1907:../Drivers/BSP/Components/lis2de12/lis2de12.c ****     return ret;
 5738              		.loc 1 1907 12
 5739 0026 FB68     		ldr	r3, [r7, #12]
1908:../Drivers/BSP/Components/lis2de12/lis2de12.c **** }
 5740              		.loc 1 1908 1
 5741 0028 1846     		mov	r0, r3
 5742 002a 1037     		adds	r7, r7, #16
 5743              	.LCFI434:
 5744              		.cfi_def_cfa_offset 8
 5745 002c BD46     		mov	sp, r7
 5746              	.LCFI435:
 5747              		.cfi_def_cfa_register 13
 5748              		@ sp needed
 5749 002e 80BD     		pop	{r7, pc}
 5750              		.cfi_endproc
 5751              	.LFE676:
 5753              		.section	.text.lis2de12_fifo_ovr_flag_get,"ax",%progbits
 5754              		.align	1
 5755              		.global	lis2de12_fifo_ovr_flag_get
 5756              		.syntax unified
 5757              		.thumb
 5758              		.thumb_func
 5759              		.fpu fpv4-sp-d16
 5761              	lis2de12_fifo_ovr_flag_get:
 5762              	.LFB677:
1909:../Drivers/BSP/Components/lis2de12/lis2de12.c **** /**
1910:../Drivers/BSP/Components/lis2de12/lis2de12.c ****   * @brief  FIFO overrun status flag.[get]
1911:../Drivers/BSP/Components/lis2de12/lis2de12.c ****   *
1912:../Drivers/BSP/Components/lis2de12/lis2de12.c **** 
1913:../Drivers/BSP/Components/lis2de12/lis2de12.c ****   * @param  val      change the values of ovrn_fifo in reg FIFO_SRC_REG
1914:../Drivers/BSP/Components/lis2de12/lis2de12.c ****   * @retval          interface status (MANDATORY: return 0 -> no Error)
1915:../Drivers/BSP/Components/lis2de12/lis2de12.c ****   *
1916:../Drivers/BSP/Components/lis2de12/lis2de12.c ****   */
1917:../Drivers/BSP/Components/lis2de12/lis2de12.c **** int32_t lis2de12_fifo_ovr_flag_get( uint8_t* val )
1918:../Drivers/BSP/Components/lis2de12/lis2de12.c **** {
 5763              		.loc 1 1918 1
 5764              		.cfi_startproc
 5765              		@ args = 0, pretend = 0, frame = 16
 5766              		@ frame_needed = 1, uses_anonymous_args = 0
 5767 0000 80B5     		push	{r7, lr}
 5768              	.LCFI436:
 5769              		.cfi_def_cfa_offset 8
 5770              		.cfi_offset 7, -8
 5771              		.cfi_offset 14, -4
 5772 0002 84B0     		sub	sp, sp, #16
 5773              	.LCFI437:
 5774              		.cfi_def_cfa_offset 24
 5775 0004 00AF     		add	r7, sp, #0
 5776              	.LCFI438:
 5777              		.cfi_def_cfa_register 7
 5778 0006 7860     		str	r0, [r7, #4]
1919:../Drivers/BSP/Components/lis2de12/lis2de12.c ****     lis2de12_fifo_src_reg_t fifo_src_reg;
1920:../Drivers/BSP/Components/lis2de12/lis2de12.c ****     int32_t                 ret;
1921:../Drivers/BSP/Components/lis2de12/lis2de12.c **** 
1922:../Drivers/BSP/Components/lis2de12/lis2de12.c ****     ret  = lis2de12_read_reg( LIS2DE12_FIFO_SRC_REG, ( uint8_t* ) &fifo_src_reg, 1 );
 5779              		.loc 1 1922 12
ARM GAS  /tmp/ccjphgoR.s 			page 133


 5780 0008 07F10803 		add	r3, r7, #8
 5781 000c 0122     		movs	r2, #1
 5782 000e 1946     		mov	r1, r3
 5783 0010 2F20     		movs	r0, #47
 5784 0012 FFF7FEFF 		bl	lis2de12_read_reg
 5785 0016 F860     		str	r0, [r7, #12]
1923:../Drivers/BSP/Components/lis2de12/lis2de12.c ****     *val = ( uint8_t ) fifo_src_reg.ovrn_fifo;
 5786              		.loc 1 1923 36
 5787 0018 3B7A     		ldrb	r3, [r7, #8]
 5788 001a C3F38013 		ubfx	r3, r3, #6, #1
 5789 001e DBB2     		uxtb	r3, r3
 5790              		.loc 1 1923 12
 5791 0020 1A46     		mov	r2, r3
 5792              		.loc 1 1923 10
 5793 0022 7B68     		ldr	r3, [r7, #4]
 5794 0024 1A70     		strb	r2, [r3]
1924:../Drivers/BSP/Components/lis2de12/lis2de12.c **** 
1925:../Drivers/BSP/Components/lis2de12/lis2de12.c ****     return ret;
 5795              		.loc 1 1925 12
 5796 0026 FB68     		ldr	r3, [r7, #12]
1926:../Drivers/BSP/Components/lis2de12/lis2de12.c **** }
 5797              		.loc 1 1926 1
 5798 0028 1846     		mov	r0, r3
 5799 002a 1037     		adds	r7, r7, #16
 5800              	.LCFI439:
 5801              		.cfi_def_cfa_offset 8
 5802 002c BD46     		mov	sp, r7
 5803              	.LCFI440:
 5804              		.cfi_def_cfa_register 13
 5805              		@ sp needed
 5806 002e 80BD     		pop	{r7, pc}
 5807              		.cfi_endproc
 5808              	.LFE677:
 5810              		.section	.text.lis2de12_fifo_fth_flag_get,"ax",%progbits
 5811              		.align	1
 5812              		.global	lis2de12_fifo_fth_flag_get
 5813              		.syntax unified
 5814              		.thumb
 5815              		.thumb_func
 5816              		.fpu fpv4-sp-d16
 5818              	lis2de12_fifo_fth_flag_get:
 5819              	.LFB678:
1927:../Drivers/BSP/Components/lis2de12/lis2de12.c **** /**
1928:../Drivers/BSP/Components/lis2de12/lis2de12.c ****   * @brief  FIFO watermark status.[get]
1929:../Drivers/BSP/Components/lis2de12/lis2de12.c ****   *
1930:../Drivers/BSP/Components/lis2de12/lis2de12.c **** 
1931:../Drivers/BSP/Components/lis2de12/lis2de12.c ****   * @param  val      change the values of wtm in reg FIFO_SRC_REG
1932:../Drivers/BSP/Components/lis2de12/lis2de12.c ****   * @retval          interface status (MANDATORY: return 0 -> no Error)
1933:../Drivers/BSP/Components/lis2de12/lis2de12.c ****   *
1934:../Drivers/BSP/Components/lis2de12/lis2de12.c ****   */
1935:../Drivers/BSP/Components/lis2de12/lis2de12.c **** int32_t lis2de12_fifo_fth_flag_get( uint8_t* val )
1936:../Drivers/BSP/Components/lis2de12/lis2de12.c **** {
 5820              		.loc 1 1936 1
 5821              		.cfi_startproc
 5822              		@ args = 0, pretend = 0, frame = 16
 5823              		@ frame_needed = 1, uses_anonymous_args = 0
 5824 0000 80B5     		push	{r7, lr}
ARM GAS  /tmp/ccjphgoR.s 			page 134


 5825              	.LCFI441:
 5826              		.cfi_def_cfa_offset 8
 5827              		.cfi_offset 7, -8
 5828              		.cfi_offset 14, -4
 5829 0002 84B0     		sub	sp, sp, #16
 5830              	.LCFI442:
 5831              		.cfi_def_cfa_offset 24
 5832 0004 00AF     		add	r7, sp, #0
 5833              	.LCFI443:
 5834              		.cfi_def_cfa_register 7
 5835 0006 7860     		str	r0, [r7, #4]
1937:../Drivers/BSP/Components/lis2de12/lis2de12.c ****     lis2de12_fifo_src_reg_t fifo_src_reg;
1938:../Drivers/BSP/Components/lis2de12/lis2de12.c ****     int32_t                 ret;
1939:../Drivers/BSP/Components/lis2de12/lis2de12.c **** 
1940:../Drivers/BSP/Components/lis2de12/lis2de12.c ****     ret  = lis2de12_read_reg( LIS2DE12_FIFO_SRC_REG, ( uint8_t* ) &fifo_src_reg, 1 );
 5836              		.loc 1 1940 12
 5837 0008 07F10803 		add	r3, r7, #8
 5838 000c 0122     		movs	r2, #1
 5839 000e 1946     		mov	r1, r3
 5840 0010 2F20     		movs	r0, #47
 5841 0012 FFF7FEFF 		bl	lis2de12_read_reg
 5842 0016 F860     		str	r0, [r7, #12]
1941:../Drivers/BSP/Components/lis2de12/lis2de12.c ****     *val = ( uint8_t ) fifo_src_reg.wtm;
 5843              		.loc 1 1941 36
 5844 0018 3B7A     		ldrb	r3, [r7, #8]
 5845 001a C3F3C013 		ubfx	r3, r3, #7, #1
 5846 001e DBB2     		uxtb	r3, r3
 5847              		.loc 1 1941 12
 5848 0020 1A46     		mov	r2, r3
 5849              		.loc 1 1941 10
 5850 0022 7B68     		ldr	r3, [r7, #4]
 5851 0024 1A70     		strb	r2, [r3]
1942:../Drivers/BSP/Components/lis2de12/lis2de12.c **** 
1943:../Drivers/BSP/Components/lis2de12/lis2de12.c ****     return ret;
 5852              		.loc 1 1943 12
 5853 0026 FB68     		ldr	r3, [r7, #12]
1944:../Drivers/BSP/Components/lis2de12/lis2de12.c **** }
 5854              		.loc 1 1944 1
 5855 0028 1846     		mov	r0, r3
 5856 002a 1037     		adds	r7, r7, #16
 5857              	.LCFI444:
 5858              		.cfi_def_cfa_offset 8
 5859 002c BD46     		mov	sp, r7
 5860              	.LCFI445:
 5861              		.cfi_def_cfa_register 13
 5862              		@ sp needed
 5863 002e 80BD     		pop	{r7, pc}
 5864              		.cfi_endproc
 5865              	.LFE678:
 5867              		.section	.text.lis2de12_tap_conf_set,"ax",%progbits
 5868              		.align	1
 5869              		.global	lis2de12_tap_conf_set
 5870              		.syntax unified
 5871              		.thumb
 5872              		.thumb_func
 5873              		.fpu fpv4-sp-d16
 5875              	lis2de12_tap_conf_set:
ARM GAS  /tmp/ccjphgoR.s 			page 135


 5876              	.LFB679:
1945:../Drivers/BSP/Components/lis2de12/lis2de12.c **** /**
1946:../Drivers/BSP/Components/lis2de12/lis2de12.c ****  * @}
1947:../Drivers/BSP/Components/lis2de12/lis2de12.c ****  *
1948:../Drivers/BSP/Components/lis2de12/lis2de12.c ****  */
1949:../Drivers/BSP/Components/lis2de12/lis2de12.c **** 
1950:../Drivers/BSP/Components/lis2de12/lis2de12.c **** /**
1951:../Drivers/BSP/Components/lis2de12/lis2de12.c ****  * @defgroup  LIS2DE12_Tap_generator
1952:../Drivers/BSP/Components/lis2de12/lis2de12.c ****  * @brief     This section group all the functions that manage the tap and
1953:../Drivers/BSP/Components/lis2de12/lis2de12.c ****  *            double tap event generation
1954:../Drivers/BSP/Components/lis2de12/lis2de12.c ****  * @{
1955:../Drivers/BSP/Components/lis2de12/lis2de12.c ****  *
1956:../Drivers/BSP/Components/lis2de12/lis2de12.c ****  */
1957:../Drivers/BSP/Components/lis2de12/lis2de12.c **** 
1958:../Drivers/BSP/Components/lis2de12/lis2de12.c **** /**
1959:../Drivers/BSP/Components/lis2de12/lis2de12.c ****   * @brief  Tap/Double Tap generator configuration register.[set]
1960:../Drivers/BSP/Components/lis2de12/lis2de12.c ****   *
1961:../Drivers/BSP/Components/lis2de12/lis2de12.c **** 
1962:../Drivers/BSP/Components/lis2de12/lis2de12.c ****   * @param  val      registers CLICK_CFG
1963:../Drivers/BSP/Components/lis2de12/lis2de12.c ****   * @retval          interface status (MANDATORY: return 0 -> no Error)
1964:../Drivers/BSP/Components/lis2de12/lis2de12.c ****   *
1965:../Drivers/BSP/Components/lis2de12/lis2de12.c ****   */
1966:../Drivers/BSP/Components/lis2de12/lis2de12.c **** int32_t lis2de12_tap_conf_set( lis2de12_click_cfg_t* val )
1967:../Drivers/BSP/Components/lis2de12/lis2de12.c **** {
 5877              		.loc 1 1967 1
 5878              		.cfi_startproc
 5879              		@ args = 0, pretend = 0, frame = 16
 5880              		@ frame_needed = 1, uses_anonymous_args = 0
 5881 0000 80B5     		push	{r7, lr}
 5882              	.LCFI446:
 5883              		.cfi_def_cfa_offset 8
 5884              		.cfi_offset 7, -8
 5885              		.cfi_offset 14, -4
 5886 0002 84B0     		sub	sp, sp, #16
 5887              	.LCFI447:
 5888              		.cfi_def_cfa_offset 24
 5889 0004 00AF     		add	r7, sp, #0
 5890              	.LCFI448:
 5891              		.cfi_def_cfa_register 7
 5892 0006 7860     		str	r0, [r7, #4]
1968:../Drivers/BSP/Components/lis2de12/lis2de12.c ****     int32_t ret;
1969:../Drivers/BSP/Components/lis2de12/lis2de12.c ****     ret = lis2de12_write_reg( LIS2DE12_CLICK_CFG, ( uint8_t* ) val, 1 );
 5893              		.loc 1 1969 11
 5894 0008 0122     		movs	r2, #1
 5895 000a 7968     		ldr	r1, [r7, #4]
 5896 000c 3820     		movs	r0, #56
 5897 000e FFF7FEFF 		bl	lis2de12_write_reg
 5898 0012 F860     		str	r0, [r7, #12]
1970:../Drivers/BSP/Components/lis2de12/lis2de12.c ****     return ret;
 5899              		.loc 1 1970 12
 5900 0014 FB68     		ldr	r3, [r7, #12]
1971:../Drivers/BSP/Components/lis2de12/lis2de12.c **** }
 5901              		.loc 1 1971 1
 5902 0016 1846     		mov	r0, r3
 5903 0018 1037     		adds	r7, r7, #16
 5904              	.LCFI449:
 5905              		.cfi_def_cfa_offset 8
ARM GAS  /tmp/ccjphgoR.s 			page 136


 5906 001a BD46     		mov	sp, r7
 5907              	.LCFI450:
 5908              		.cfi_def_cfa_register 13
 5909              		@ sp needed
 5910 001c 80BD     		pop	{r7, pc}
 5911              		.cfi_endproc
 5912              	.LFE679:
 5914              		.section	.text.lis2de12_tap_conf_get,"ax",%progbits
 5915              		.align	1
 5916              		.global	lis2de12_tap_conf_get
 5917              		.syntax unified
 5918              		.thumb
 5919              		.thumb_func
 5920              		.fpu fpv4-sp-d16
 5922              	lis2de12_tap_conf_get:
 5923              	.LFB680:
1972:../Drivers/BSP/Components/lis2de12/lis2de12.c **** 
1973:../Drivers/BSP/Components/lis2de12/lis2de12.c **** /**
1974:../Drivers/BSP/Components/lis2de12/lis2de12.c ****   * @brief  Tap/Double Tap generator configuration register.[get]
1975:../Drivers/BSP/Components/lis2de12/lis2de12.c ****   *
1976:../Drivers/BSP/Components/lis2de12/lis2de12.c **** 
1977:../Drivers/BSP/Components/lis2de12/lis2de12.c ****   * @param  val      registers CLICK_CFG
1978:../Drivers/BSP/Components/lis2de12/lis2de12.c ****   * @retval          interface status (MANDATORY: return 0 -> no Error)
1979:../Drivers/BSP/Components/lis2de12/lis2de12.c ****   *
1980:../Drivers/BSP/Components/lis2de12/lis2de12.c ****   */
1981:../Drivers/BSP/Components/lis2de12/lis2de12.c **** int32_t lis2de12_tap_conf_get( lis2de12_click_cfg_t* val )
1982:../Drivers/BSP/Components/lis2de12/lis2de12.c **** {
 5924              		.loc 1 1982 1
 5925              		.cfi_startproc
 5926              		@ args = 0, pretend = 0, frame = 16
 5927              		@ frame_needed = 1, uses_anonymous_args = 0
 5928 0000 80B5     		push	{r7, lr}
 5929              	.LCFI451:
 5930              		.cfi_def_cfa_offset 8
 5931              		.cfi_offset 7, -8
 5932              		.cfi_offset 14, -4
 5933 0002 84B0     		sub	sp, sp, #16
 5934              	.LCFI452:
 5935              		.cfi_def_cfa_offset 24
 5936 0004 00AF     		add	r7, sp, #0
 5937              	.LCFI453:
 5938              		.cfi_def_cfa_register 7
 5939 0006 7860     		str	r0, [r7, #4]
1983:../Drivers/BSP/Components/lis2de12/lis2de12.c ****     int32_t ret;
1984:../Drivers/BSP/Components/lis2de12/lis2de12.c ****     ret = lis2de12_read_reg( LIS2DE12_CLICK_CFG, ( uint8_t* ) val, 1 );
 5940              		.loc 1 1984 11
 5941 0008 0122     		movs	r2, #1
 5942 000a 7968     		ldr	r1, [r7, #4]
 5943 000c 3820     		movs	r0, #56
 5944 000e FFF7FEFF 		bl	lis2de12_read_reg
 5945 0012 F860     		str	r0, [r7, #12]
1985:../Drivers/BSP/Components/lis2de12/lis2de12.c ****     return ret;
 5946              		.loc 1 1985 12
 5947 0014 FB68     		ldr	r3, [r7, #12]
1986:../Drivers/BSP/Components/lis2de12/lis2de12.c **** }
 5948              		.loc 1 1986 1
 5949 0016 1846     		mov	r0, r3
ARM GAS  /tmp/ccjphgoR.s 			page 137


 5950 0018 1037     		adds	r7, r7, #16
 5951              	.LCFI454:
 5952              		.cfi_def_cfa_offset 8
 5953 001a BD46     		mov	sp, r7
 5954              	.LCFI455:
 5955              		.cfi_def_cfa_register 13
 5956              		@ sp needed
 5957 001c 80BD     		pop	{r7, pc}
 5958              		.cfi_endproc
 5959              	.LFE680:
 5961              		.section	.text.lis2de12_tap_source_get,"ax",%progbits
 5962              		.align	1
 5963              		.global	lis2de12_tap_source_get
 5964              		.syntax unified
 5965              		.thumb
 5966              		.thumb_func
 5967              		.fpu fpv4-sp-d16
 5969              	lis2de12_tap_source_get:
 5970              	.LFB681:
1987:../Drivers/BSP/Components/lis2de12/lis2de12.c **** /**
1988:../Drivers/BSP/Components/lis2de12/lis2de12.c ****   * @brief  Tap/Double Tap generator source register.[get]
1989:../Drivers/BSP/Components/lis2de12/lis2de12.c ****   *
1990:../Drivers/BSP/Components/lis2de12/lis2de12.c **** 
1991:../Drivers/BSP/Components/lis2de12/lis2de12.c ****   * @param  val      registers CLICK_SRC
1992:../Drivers/BSP/Components/lis2de12/lis2de12.c ****   * @retval          interface status (MANDATORY: return 0 -> no Error)
1993:../Drivers/BSP/Components/lis2de12/lis2de12.c ****   *
1994:../Drivers/BSP/Components/lis2de12/lis2de12.c ****   */
1995:../Drivers/BSP/Components/lis2de12/lis2de12.c **** int32_t lis2de12_tap_source_get( lis2de12_click_src_t* val )
1996:../Drivers/BSP/Components/lis2de12/lis2de12.c **** {
 5971              		.loc 1 1996 1
 5972              		.cfi_startproc
 5973              		@ args = 0, pretend = 0, frame = 16
 5974              		@ frame_needed = 1, uses_anonymous_args = 0
 5975 0000 80B5     		push	{r7, lr}
 5976              	.LCFI456:
 5977              		.cfi_def_cfa_offset 8
 5978              		.cfi_offset 7, -8
 5979              		.cfi_offset 14, -4
 5980 0002 84B0     		sub	sp, sp, #16
 5981              	.LCFI457:
 5982              		.cfi_def_cfa_offset 24
 5983 0004 00AF     		add	r7, sp, #0
 5984              	.LCFI458:
 5985              		.cfi_def_cfa_register 7
 5986 0006 7860     		str	r0, [r7, #4]
1997:../Drivers/BSP/Components/lis2de12/lis2de12.c ****     int32_t ret;
1998:../Drivers/BSP/Components/lis2de12/lis2de12.c ****     ret = lis2de12_read_reg( LIS2DE12_CLICK_SRC, ( uint8_t* ) val, 1 );
 5987              		.loc 1 1998 11
 5988 0008 0122     		movs	r2, #1
 5989 000a 7968     		ldr	r1, [r7, #4]
 5990 000c 3920     		movs	r0, #57
 5991 000e FFF7FEFF 		bl	lis2de12_read_reg
 5992 0012 F860     		str	r0, [r7, #12]
1999:../Drivers/BSP/Components/lis2de12/lis2de12.c ****     return ret;
 5993              		.loc 1 1999 12
 5994 0014 FB68     		ldr	r3, [r7, #12]
2000:../Drivers/BSP/Components/lis2de12/lis2de12.c **** }
ARM GAS  /tmp/ccjphgoR.s 			page 138


 5995              		.loc 1 2000 1
 5996 0016 1846     		mov	r0, r3
 5997 0018 1037     		adds	r7, r7, #16
 5998              	.LCFI459:
 5999              		.cfi_def_cfa_offset 8
 6000 001a BD46     		mov	sp, r7
 6001              	.LCFI460:
 6002              		.cfi_def_cfa_register 13
 6003              		@ sp needed
 6004 001c 80BD     		pop	{r7, pc}
 6005              		.cfi_endproc
 6006              	.LFE681:
 6008              		.section	.text.lis2de12_tap_threshold_set,"ax",%progbits
 6009              		.align	1
 6010              		.global	lis2de12_tap_threshold_set
 6011              		.syntax unified
 6012              		.thumb
 6013              		.thumb_func
 6014              		.fpu fpv4-sp-d16
 6016              	lis2de12_tap_threshold_set:
 6017              	.LFB682:
2001:../Drivers/BSP/Components/lis2de12/lis2de12.c **** /**
2002:../Drivers/BSP/Components/lis2de12/lis2de12.c ****   * @brief  User-defined threshold value for Tap/Double Tap event.[set]
2003:../Drivers/BSP/Components/lis2de12/lis2de12.c ****   *         1 LSB = full scale/128
2004:../Drivers/BSP/Components/lis2de12/lis2de12.c ****   *
2005:../Drivers/BSP/Components/lis2de12/lis2de12.c **** 
2006:../Drivers/BSP/Components/lis2de12/lis2de12.c ****   * @param  val      change the values of ths in reg CLICK_THS
2007:../Drivers/BSP/Components/lis2de12/lis2de12.c ****   * @retval          interface status (MANDATORY: return 0 -> no Error)
2008:../Drivers/BSP/Components/lis2de12/lis2de12.c ****   *
2009:../Drivers/BSP/Components/lis2de12/lis2de12.c ****   */
2010:../Drivers/BSP/Components/lis2de12/lis2de12.c **** int32_t lis2de12_tap_threshold_set( uint8_t val )
2011:../Drivers/BSP/Components/lis2de12/lis2de12.c **** {
 6018              		.loc 1 2011 1
 6019              		.cfi_startproc
 6020              		@ args = 0, pretend = 0, frame = 16
 6021              		@ frame_needed = 1, uses_anonymous_args = 0
 6022 0000 80B5     		push	{r7, lr}
 6023              	.LCFI461:
 6024              		.cfi_def_cfa_offset 8
 6025              		.cfi_offset 7, -8
 6026              		.cfi_offset 14, -4
 6027 0002 84B0     		sub	sp, sp, #16
 6028              	.LCFI462:
 6029              		.cfi_def_cfa_offset 24
 6030 0004 00AF     		add	r7, sp, #0
 6031              	.LCFI463:
 6032              		.cfi_def_cfa_register 7
 6033 0006 0346     		mov	r3, r0
 6034 0008 FB71     		strb	r3, [r7, #7]
2012:../Drivers/BSP/Components/lis2de12/lis2de12.c ****     lis2de12_click_ths_t click_ths;
2013:../Drivers/BSP/Components/lis2de12/lis2de12.c ****     int32_t              ret;
2014:../Drivers/BSP/Components/lis2de12/lis2de12.c **** 
2015:../Drivers/BSP/Components/lis2de12/lis2de12.c ****     ret = lis2de12_read_reg( LIS2DE12_CLICK_THS, ( uint8_t* ) &click_ths, 1 );
 6035              		.loc 1 2015 11
 6036 000a 07F10803 		add	r3, r7, #8
 6037 000e 0122     		movs	r2, #1
 6038 0010 1946     		mov	r1, r3
ARM GAS  /tmp/ccjphgoR.s 			page 139


 6039 0012 3A20     		movs	r0, #58
 6040 0014 FFF7FEFF 		bl	lis2de12_read_reg
 6041 0018 F860     		str	r0, [r7, #12]
2016:../Drivers/BSP/Components/lis2de12/lis2de12.c ****     if( ret == 0 )
 6042              		.loc 1 2016 7
 6043 001a FB68     		ldr	r3, [r7, #12]
 6044 001c 002B     		cmp	r3, #0
 6045 001e 0FD1     		bne	.L322
2017:../Drivers/BSP/Components/lis2de12/lis2de12.c ****     {
2018:../Drivers/BSP/Components/lis2de12/lis2de12.c ****         click_ths.ths = val;
 6046              		.loc 1 2018 23
 6047 0020 FB79     		ldrb	r3, [r7, #7]
 6048 0022 03F07F03 		and	r3, r3, #127
 6049 0026 DAB2     		uxtb	r2, r3
 6050 0028 3B7A     		ldrb	r3, [r7, #8]
 6051 002a 62F30603 		bfi	r3, r2, #0, #7
 6052 002e 3B72     		strb	r3, [r7, #8]
2019:../Drivers/BSP/Components/lis2de12/lis2de12.c ****         ret           = lis2de12_write_reg( LIS2DE12_CLICK_THS, ( uint8_t* ) &click_ths, 1 );
 6053              		.loc 1 2019 25
 6054 0030 07F10803 		add	r3, r7, #8
 6055 0034 0122     		movs	r2, #1
 6056 0036 1946     		mov	r1, r3
 6057 0038 3A20     		movs	r0, #58
 6058 003a FFF7FEFF 		bl	lis2de12_write_reg
 6059 003e F860     		str	r0, [r7, #12]
 6060              	.L322:
2020:../Drivers/BSP/Components/lis2de12/lis2de12.c ****     }
2021:../Drivers/BSP/Components/lis2de12/lis2de12.c ****     return ret;
 6061              		.loc 1 2021 12
 6062 0040 FB68     		ldr	r3, [r7, #12]
2022:../Drivers/BSP/Components/lis2de12/lis2de12.c **** }
 6063              		.loc 1 2022 1
 6064 0042 1846     		mov	r0, r3
 6065 0044 1037     		adds	r7, r7, #16
 6066              	.LCFI464:
 6067              		.cfi_def_cfa_offset 8
 6068 0046 BD46     		mov	sp, r7
 6069              	.LCFI465:
 6070              		.cfi_def_cfa_register 13
 6071              		@ sp needed
 6072 0048 80BD     		pop	{r7, pc}
 6073              		.cfi_endproc
 6074              	.LFE682:
 6076              		.section	.text.lis2de12_tap_threshold_get,"ax",%progbits
 6077              		.align	1
 6078              		.global	lis2de12_tap_threshold_get
 6079              		.syntax unified
 6080              		.thumb
 6081              		.thumb_func
 6082              		.fpu fpv4-sp-d16
 6084              	lis2de12_tap_threshold_get:
 6085              	.LFB683:
2023:../Drivers/BSP/Components/lis2de12/lis2de12.c **** 
2024:../Drivers/BSP/Components/lis2de12/lis2de12.c **** /**
2025:../Drivers/BSP/Components/lis2de12/lis2de12.c ****   * @brief  User-defined threshold value for Tap/Double Tap event.[get]
2026:../Drivers/BSP/Components/lis2de12/lis2de12.c ****   *         1 LSB = full scale/128
2027:../Drivers/BSP/Components/lis2de12/lis2de12.c ****   *
ARM GAS  /tmp/ccjphgoR.s 			page 140


2028:../Drivers/BSP/Components/lis2de12/lis2de12.c **** 
2029:../Drivers/BSP/Components/lis2de12/lis2de12.c ****   * @param  val      change the values of ths in reg CLICK_THS
2030:../Drivers/BSP/Components/lis2de12/lis2de12.c ****   * @retval          interface status (MANDATORY: return 0 -> no Error)
2031:../Drivers/BSP/Components/lis2de12/lis2de12.c ****   *
2032:../Drivers/BSP/Components/lis2de12/lis2de12.c ****   */
2033:../Drivers/BSP/Components/lis2de12/lis2de12.c **** int32_t lis2de12_tap_threshold_get( uint8_t* val )
2034:../Drivers/BSP/Components/lis2de12/lis2de12.c **** {
 6086              		.loc 1 2034 1
 6087              		.cfi_startproc
 6088              		@ args = 0, pretend = 0, frame = 16
 6089              		@ frame_needed = 1, uses_anonymous_args = 0
 6090 0000 80B5     		push	{r7, lr}
 6091              	.LCFI466:
 6092              		.cfi_def_cfa_offset 8
 6093              		.cfi_offset 7, -8
 6094              		.cfi_offset 14, -4
 6095 0002 84B0     		sub	sp, sp, #16
 6096              	.LCFI467:
 6097              		.cfi_def_cfa_offset 24
 6098 0004 00AF     		add	r7, sp, #0
 6099              	.LCFI468:
 6100              		.cfi_def_cfa_register 7
 6101 0006 7860     		str	r0, [r7, #4]
2035:../Drivers/BSP/Components/lis2de12/lis2de12.c ****     lis2de12_click_ths_t click_ths;
2036:../Drivers/BSP/Components/lis2de12/lis2de12.c ****     int32_t              ret;
2037:../Drivers/BSP/Components/lis2de12/lis2de12.c **** 
2038:../Drivers/BSP/Components/lis2de12/lis2de12.c ****     ret  = lis2de12_read_reg( LIS2DE12_CLICK_THS, ( uint8_t* ) &click_ths, 1 );
 6102              		.loc 1 2038 12
 6103 0008 07F10803 		add	r3, r7, #8
 6104 000c 0122     		movs	r2, #1
 6105 000e 1946     		mov	r1, r3
 6106 0010 3A20     		movs	r0, #58
 6107 0012 FFF7FEFF 		bl	lis2de12_read_reg
 6108 0016 F860     		str	r0, [r7, #12]
2039:../Drivers/BSP/Components/lis2de12/lis2de12.c ****     *val = ( uint8_t ) click_ths.ths;
 6109              		.loc 1 2039 33
 6110 0018 3B7A     		ldrb	r3, [r7, #8]
 6111 001a C3F30603 		ubfx	r3, r3, #0, #7
 6112 001e DBB2     		uxtb	r3, r3
 6113              		.loc 1 2039 12
 6114 0020 1A46     		mov	r2, r3
 6115              		.loc 1 2039 10
 6116 0022 7B68     		ldr	r3, [r7, #4]
 6117 0024 1A70     		strb	r2, [r3]
2040:../Drivers/BSP/Components/lis2de12/lis2de12.c **** 
2041:../Drivers/BSP/Components/lis2de12/lis2de12.c ****     return ret;
 6118              		.loc 1 2041 12
 6119 0026 FB68     		ldr	r3, [r7, #12]
2042:../Drivers/BSP/Components/lis2de12/lis2de12.c **** }
 6120              		.loc 1 2042 1
 6121 0028 1846     		mov	r0, r3
 6122 002a 1037     		adds	r7, r7, #16
 6123              	.LCFI469:
 6124              		.cfi_def_cfa_offset 8
 6125 002c BD46     		mov	sp, r7
 6126              	.LCFI470:
 6127              		.cfi_def_cfa_register 13
ARM GAS  /tmp/ccjphgoR.s 			page 141


 6128              		@ sp needed
 6129 002e 80BD     		pop	{r7, pc}
 6130              		.cfi_endproc
 6131              	.LFE683:
 6133              		.section	.text.lis2de12_tap_notification_mode_set,"ax",%progbits
 6134              		.align	1
 6135              		.global	lis2de12_tap_notification_mode_set
 6136              		.syntax unified
 6137              		.thumb
 6138              		.thumb_func
 6139              		.fpu fpv4-sp-d16
 6141              	lis2de12_tap_notification_mode_set:
 6142              	.LFB684:
2043:../Drivers/BSP/Components/lis2de12/lis2de12.c **** 
2044:../Drivers/BSP/Components/lis2de12/lis2de12.c **** /**
2045:../Drivers/BSP/Components/lis2de12/lis2de12.c ****   * @brief   If the LIR_Click bit is not set, the interrupt is kept high
2046:../Drivers/BSP/Components/lis2de12/lis2de12.c ****   *          for the duration of the latency window.
2047:../Drivers/BSP/Components/lis2de12/lis2de12.c ****   *          If the LIR_Click bit is set, the interrupt is kept high until the
2048:../Drivers/BSP/Components/lis2de12/lis2de12.c ****   *          CLICK_SRC(39h) register is read.[set]
2049:../Drivers/BSP/Components/lis2de12/lis2de12.c ****   *
2050:../Drivers/BSP/Components/lis2de12/lis2de12.c **** 
2051:../Drivers/BSP/Components/lis2de12/lis2de12.c ****   * @param  val      change the values of lir_click in reg CLICK_THS
2052:../Drivers/BSP/Components/lis2de12/lis2de12.c ****   * @retval          interface status (MANDATORY: return 0 -> no Error)
2053:../Drivers/BSP/Components/lis2de12/lis2de12.c ****   *
2054:../Drivers/BSP/Components/lis2de12/lis2de12.c ****   */
2055:../Drivers/BSP/Components/lis2de12/lis2de12.c **** int32_t lis2de12_tap_notification_mode_set( lis2de12_lir_click_t val )
2056:../Drivers/BSP/Components/lis2de12/lis2de12.c **** {
 6143              		.loc 1 2056 1
 6144              		.cfi_startproc
 6145              		@ args = 0, pretend = 0, frame = 16
 6146              		@ frame_needed = 1, uses_anonymous_args = 0
 6147 0000 80B5     		push	{r7, lr}
 6148              	.LCFI471:
 6149              		.cfi_def_cfa_offset 8
 6150              		.cfi_offset 7, -8
 6151              		.cfi_offset 14, -4
 6152 0002 84B0     		sub	sp, sp, #16
 6153              	.LCFI472:
 6154              		.cfi_def_cfa_offset 24
 6155 0004 00AF     		add	r7, sp, #0
 6156              	.LCFI473:
 6157              		.cfi_def_cfa_register 7
 6158 0006 0346     		mov	r3, r0
 6159 0008 FB71     		strb	r3, [r7, #7]
2057:../Drivers/BSP/Components/lis2de12/lis2de12.c ****     lis2de12_click_ths_t click_ths;
2058:../Drivers/BSP/Components/lis2de12/lis2de12.c ****     int32_t              ret;
2059:../Drivers/BSP/Components/lis2de12/lis2de12.c **** 
2060:../Drivers/BSP/Components/lis2de12/lis2de12.c ****     ret = lis2de12_read_reg( LIS2DE12_CLICK_THS, ( uint8_t* ) &click_ths, 1 );
 6160              		.loc 1 2060 11
 6161 000a 07F10803 		add	r3, r7, #8
 6162 000e 0122     		movs	r2, #1
 6163 0010 1946     		mov	r1, r3
 6164 0012 3A20     		movs	r0, #58
 6165 0014 FFF7FEFF 		bl	lis2de12_read_reg
 6166 0018 F860     		str	r0, [r7, #12]
2061:../Drivers/BSP/Components/lis2de12/lis2de12.c ****     if( ret == 0 )
 6167              		.loc 1 2061 7
ARM GAS  /tmp/ccjphgoR.s 			page 142


 6168 001a FB68     		ldr	r3, [r7, #12]
 6169 001c 002B     		cmp	r3, #0
 6170 001e 0FD1     		bne	.L327
2062:../Drivers/BSP/Components/lis2de12/lis2de12.c ****     {
2063:../Drivers/BSP/Components/lis2de12/lis2de12.c ****         click_ths.lir_click = ( uint8_t ) val;
 6171              		.loc 1 2063 31
 6172 0020 FB79     		ldrb	r3, [r7, #7]
 6173 0022 03F00103 		and	r3, r3, #1
 6174 0026 DAB2     		uxtb	r2, r3
 6175              		.loc 1 2063 29
 6176 0028 3B7A     		ldrb	r3, [r7, #8]
 6177 002a 62F3C713 		bfi	r3, r2, #7, #1
 6178 002e 3B72     		strb	r3, [r7, #8]
2064:../Drivers/BSP/Components/lis2de12/lis2de12.c ****         ret                 = lis2de12_write_reg( LIS2DE12_CLICK_THS, ( uint8_t* ) &click_ths, 1 );
 6179              		.loc 1 2064 31
 6180 0030 07F10803 		add	r3, r7, #8
 6181 0034 0122     		movs	r2, #1
 6182 0036 1946     		mov	r1, r3
 6183 0038 3A20     		movs	r0, #58
 6184 003a FFF7FEFF 		bl	lis2de12_write_reg
 6185 003e F860     		str	r0, [r7, #12]
 6186              	.L327:
2065:../Drivers/BSP/Components/lis2de12/lis2de12.c ****     }
2066:../Drivers/BSP/Components/lis2de12/lis2de12.c ****     return ret;
 6187              		.loc 1 2066 12
 6188 0040 FB68     		ldr	r3, [r7, #12]
2067:../Drivers/BSP/Components/lis2de12/lis2de12.c **** }
 6189              		.loc 1 2067 1
 6190 0042 1846     		mov	r0, r3
 6191 0044 1037     		adds	r7, r7, #16
 6192              	.LCFI474:
 6193              		.cfi_def_cfa_offset 8
 6194 0046 BD46     		mov	sp, r7
 6195              	.LCFI475:
 6196              		.cfi_def_cfa_register 13
 6197              		@ sp needed
 6198 0048 80BD     		pop	{r7, pc}
 6199              		.cfi_endproc
 6200              	.LFE684:
 6202              		.section	.text.lis2de12_tap_notification_mode_get,"ax",%progbits
 6203              		.align	1
 6204              		.global	lis2de12_tap_notification_mode_get
 6205              		.syntax unified
 6206              		.thumb
 6207              		.thumb_func
 6208              		.fpu fpv4-sp-d16
 6210              	lis2de12_tap_notification_mode_get:
 6211              	.LFB685:
2068:../Drivers/BSP/Components/lis2de12/lis2de12.c **** 
2069:../Drivers/BSP/Components/lis2de12/lis2de12.c **** /**
2070:../Drivers/BSP/Components/lis2de12/lis2de12.c ****   * @brief   If the LIR_Click bit is not set, the interrupt is kept high
2071:../Drivers/BSP/Components/lis2de12/lis2de12.c ****   *          for the duration of the latency window.
2072:../Drivers/BSP/Components/lis2de12/lis2de12.c ****   *          If the LIR_Click bit is set, the interrupt is kept high until the
2073:../Drivers/BSP/Components/lis2de12/lis2de12.c ****   *          CLICK_SRC(39h) register is read.[get]
2074:../Drivers/BSP/Components/lis2de12/lis2de12.c ****   *
2075:../Drivers/BSP/Components/lis2de12/lis2de12.c **** 
2076:../Drivers/BSP/Components/lis2de12/lis2de12.c ****   * @param  val      Get the values of lir_click in reg CLICK_THS
ARM GAS  /tmp/ccjphgoR.s 			page 143


2077:../Drivers/BSP/Components/lis2de12/lis2de12.c ****   * @retval          interface status (MANDATORY: return 0 -> no Error)
2078:../Drivers/BSP/Components/lis2de12/lis2de12.c ****   *
2079:../Drivers/BSP/Components/lis2de12/lis2de12.c ****   */
2080:../Drivers/BSP/Components/lis2de12/lis2de12.c **** int32_t lis2de12_tap_notification_mode_get( lis2de12_lir_click_t* val )
2081:../Drivers/BSP/Components/lis2de12/lis2de12.c **** {
 6212              		.loc 1 2081 1
 6213              		.cfi_startproc
 6214              		@ args = 0, pretend = 0, frame = 16
 6215              		@ frame_needed = 1, uses_anonymous_args = 0
 6216 0000 80B5     		push	{r7, lr}
 6217              	.LCFI476:
 6218              		.cfi_def_cfa_offset 8
 6219              		.cfi_offset 7, -8
 6220              		.cfi_offset 14, -4
 6221 0002 84B0     		sub	sp, sp, #16
 6222              	.LCFI477:
 6223              		.cfi_def_cfa_offset 24
 6224 0004 00AF     		add	r7, sp, #0
 6225              	.LCFI478:
 6226              		.cfi_def_cfa_register 7
 6227 0006 7860     		str	r0, [r7, #4]
2082:../Drivers/BSP/Components/lis2de12/lis2de12.c ****     lis2de12_click_ths_t click_ths;
2083:../Drivers/BSP/Components/lis2de12/lis2de12.c ****     int32_t              ret;
2084:../Drivers/BSP/Components/lis2de12/lis2de12.c **** 
2085:../Drivers/BSP/Components/lis2de12/lis2de12.c ****     ret = lis2de12_read_reg( LIS2DE12_CLICK_THS, ( uint8_t* ) &click_ths, 1 );
 6228              		.loc 1 2085 11
 6229 0008 07F10803 		add	r3, r7, #8
 6230 000c 0122     		movs	r2, #1
 6231 000e 1946     		mov	r1, r3
 6232 0010 3A20     		movs	r0, #58
 6233 0012 FFF7FEFF 		bl	lis2de12_read_reg
 6234 0016 F860     		str	r0, [r7, #12]
2086:../Drivers/BSP/Components/lis2de12/lis2de12.c ****     switch( click_ths.lir_click )
 6235              		.loc 1 2086 22
 6236 0018 3B7A     		ldrb	r3, [r7, #8]
 6237 001a C3F3C013 		ubfx	r3, r3, #7, #1
 6238 001e DBB2     		uxtb	r3, r3
 6239              		.loc 1 2086 5
 6240 0020 002B     		cmp	r3, #0
 6241 0022 02D0     		beq	.L330
 6242 0024 012B     		cmp	r3, #1
 6243 0026 04D0     		beq	.L331
 6244 0028 07E0     		b	.L335
 6245              	.L330:
2087:../Drivers/BSP/Components/lis2de12/lis2de12.c ****     {
2088:../Drivers/BSP/Components/lis2de12/lis2de12.c ****     case LIS2DE12_TAP_PULSED:
2089:../Drivers/BSP/Components/lis2de12/lis2de12.c ****         *val = LIS2DE12_TAP_PULSED;
 6246              		.loc 1 2089 14
 6247 002a 7B68     		ldr	r3, [r7, #4]
 6248 002c 0022     		movs	r2, #0
 6249 002e 1A70     		strb	r2, [r3]
2090:../Drivers/BSP/Components/lis2de12/lis2de12.c ****         break;
 6250              		.loc 1 2090 9
 6251 0030 07E0     		b	.L333
 6252              	.L331:
2091:../Drivers/BSP/Components/lis2de12/lis2de12.c ****     case LIS2DE12_TAP_LATCHED:
2092:../Drivers/BSP/Components/lis2de12/lis2de12.c ****         *val = LIS2DE12_TAP_LATCHED;
ARM GAS  /tmp/ccjphgoR.s 			page 144


 6253              		.loc 1 2092 14
 6254 0032 7B68     		ldr	r3, [r7, #4]
 6255 0034 0122     		movs	r2, #1
 6256 0036 1A70     		strb	r2, [r3]
2093:../Drivers/BSP/Components/lis2de12/lis2de12.c ****         break;
 6257              		.loc 1 2093 9
 6258 0038 03E0     		b	.L333
 6259              	.L335:
2094:../Drivers/BSP/Components/lis2de12/lis2de12.c ****     default:
2095:../Drivers/BSP/Components/lis2de12/lis2de12.c ****         *val = LIS2DE12_TAP_PULSED;
 6260              		.loc 1 2095 14
 6261 003a 7B68     		ldr	r3, [r7, #4]
 6262 003c 0022     		movs	r2, #0
 6263 003e 1A70     		strb	r2, [r3]
2096:../Drivers/BSP/Components/lis2de12/lis2de12.c ****         break;
 6264              		.loc 1 2096 9
 6265 0040 00BF     		nop
 6266              	.L333:
2097:../Drivers/BSP/Components/lis2de12/lis2de12.c ****     }
2098:../Drivers/BSP/Components/lis2de12/lis2de12.c ****     return ret;
 6267              		.loc 1 2098 12
 6268 0042 FB68     		ldr	r3, [r7, #12]
2099:../Drivers/BSP/Components/lis2de12/lis2de12.c **** }
 6269              		.loc 1 2099 1
 6270 0044 1846     		mov	r0, r3
 6271 0046 1037     		adds	r7, r7, #16
 6272              	.LCFI479:
 6273              		.cfi_def_cfa_offset 8
 6274 0048 BD46     		mov	sp, r7
 6275              	.LCFI480:
 6276              		.cfi_def_cfa_register 13
 6277              		@ sp needed
 6278 004a 80BD     		pop	{r7, pc}
 6279              		.cfi_endproc
 6280              	.LFE685:
 6282              		.section	.text.lis2de12_shock_dur_set,"ax",%progbits
 6283              		.align	1
 6284              		.global	lis2de12_shock_dur_set
 6285              		.syntax unified
 6286              		.thumb
 6287              		.thumb_func
 6288              		.fpu fpv4-sp-d16
 6290              	lis2de12_shock_dur_set:
 6291              	.LFB686:
2100:../Drivers/BSP/Components/lis2de12/lis2de12.c **** 
2101:../Drivers/BSP/Components/lis2de12/lis2de12.c **** /**
2102:../Drivers/BSP/Components/lis2de12/lis2de12.c ****   * @brief  The maximum time (1 LSB = 1/ODR) interval that can elapse
2103:../Drivers/BSP/Components/lis2de12/lis2de12.c ****   *         between the start of the click-detection procedure and when the
2104:../Drivers/BSP/Components/lis2de12/lis2de12.c ****   *         acceleration falls back below the threshold.[set]
2105:../Drivers/BSP/Components/lis2de12/lis2de12.c ****   *
2106:../Drivers/BSP/Components/lis2de12/lis2de12.c **** 
2107:../Drivers/BSP/Components/lis2de12/lis2de12.c ****   * @param  val      change the values of tli in reg TIME_LIMIT
2108:../Drivers/BSP/Components/lis2de12/lis2de12.c ****   * @retval          interface status (MANDATORY: return 0 -> no Error)
2109:../Drivers/BSP/Components/lis2de12/lis2de12.c ****   *
2110:../Drivers/BSP/Components/lis2de12/lis2de12.c ****   */
2111:../Drivers/BSP/Components/lis2de12/lis2de12.c **** int32_t lis2de12_shock_dur_set( uint8_t val )
2112:../Drivers/BSP/Components/lis2de12/lis2de12.c **** {
ARM GAS  /tmp/ccjphgoR.s 			page 145


 6292              		.loc 1 2112 1
 6293              		.cfi_startproc
 6294              		@ args = 0, pretend = 0, frame = 16
 6295              		@ frame_needed = 1, uses_anonymous_args = 0
 6296 0000 80B5     		push	{r7, lr}
 6297              	.LCFI481:
 6298              		.cfi_def_cfa_offset 8
 6299              		.cfi_offset 7, -8
 6300              		.cfi_offset 14, -4
 6301 0002 84B0     		sub	sp, sp, #16
 6302              	.LCFI482:
 6303              		.cfi_def_cfa_offset 24
 6304 0004 00AF     		add	r7, sp, #0
 6305              	.LCFI483:
 6306              		.cfi_def_cfa_register 7
 6307 0006 0346     		mov	r3, r0
 6308 0008 FB71     		strb	r3, [r7, #7]
2113:../Drivers/BSP/Components/lis2de12/lis2de12.c ****     lis2de12_time_limit_t time_limit;
2114:../Drivers/BSP/Components/lis2de12/lis2de12.c ****     int32_t               ret;
2115:../Drivers/BSP/Components/lis2de12/lis2de12.c **** 
2116:../Drivers/BSP/Components/lis2de12/lis2de12.c ****     ret = lis2de12_read_reg( LIS2DE12_TIME_LIMIT, ( uint8_t* ) &time_limit, 1 );
 6309              		.loc 1 2116 11
 6310 000a 07F10803 		add	r3, r7, #8
 6311 000e 0122     		movs	r2, #1
 6312 0010 1946     		mov	r1, r3
 6313 0012 3B20     		movs	r0, #59
 6314 0014 FFF7FEFF 		bl	lis2de12_read_reg
 6315 0018 F860     		str	r0, [r7, #12]
2117:../Drivers/BSP/Components/lis2de12/lis2de12.c ****     if( ret == 0 )
 6316              		.loc 1 2117 7
 6317 001a FB68     		ldr	r3, [r7, #12]
 6318 001c 002B     		cmp	r3, #0
 6319 001e 0FD1     		bne	.L337
2118:../Drivers/BSP/Components/lis2de12/lis2de12.c ****     {
2119:../Drivers/BSP/Components/lis2de12/lis2de12.c ****         time_limit.tli = val;
 6320              		.loc 1 2119 24
 6321 0020 FB79     		ldrb	r3, [r7, #7]
 6322 0022 03F07F03 		and	r3, r3, #127
 6323 0026 DAB2     		uxtb	r2, r3
 6324 0028 3B7A     		ldrb	r3, [r7, #8]
 6325 002a 62F30603 		bfi	r3, r2, #0, #7
 6326 002e 3B72     		strb	r3, [r7, #8]
2120:../Drivers/BSP/Components/lis2de12/lis2de12.c ****         ret            = lis2de12_write_reg( LIS2DE12_TIME_LIMIT, ( uint8_t* ) &time_limit, 1 );
 6327              		.loc 1 2120 26
 6328 0030 07F10803 		add	r3, r7, #8
 6329 0034 0122     		movs	r2, #1
 6330 0036 1946     		mov	r1, r3
 6331 0038 3B20     		movs	r0, #59
 6332 003a FFF7FEFF 		bl	lis2de12_write_reg
 6333 003e F860     		str	r0, [r7, #12]
 6334              	.L337:
2121:../Drivers/BSP/Components/lis2de12/lis2de12.c ****     }
2122:../Drivers/BSP/Components/lis2de12/lis2de12.c ****     return ret;
 6335              		.loc 1 2122 12
 6336 0040 FB68     		ldr	r3, [r7, #12]
2123:../Drivers/BSP/Components/lis2de12/lis2de12.c **** }
 6337              		.loc 1 2123 1
ARM GAS  /tmp/ccjphgoR.s 			page 146


 6338 0042 1846     		mov	r0, r3
 6339 0044 1037     		adds	r7, r7, #16
 6340              	.LCFI484:
 6341              		.cfi_def_cfa_offset 8
 6342 0046 BD46     		mov	sp, r7
 6343              	.LCFI485:
 6344              		.cfi_def_cfa_register 13
 6345              		@ sp needed
 6346 0048 80BD     		pop	{r7, pc}
 6347              		.cfi_endproc
 6348              	.LFE686:
 6350              		.section	.text.lis2de12_shock_dur_get,"ax",%progbits
 6351              		.align	1
 6352              		.global	lis2de12_shock_dur_get
 6353              		.syntax unified
 6354              		.thumb
 6355              		.thumb_func
 6356              		.fpu fpv4-sp-d16
 6358              	lis2de12_shock_dur_get:
 6359              	.LFB687:
2124:../Drivers/BSP/Components/lis2de12/lis2de12.c **** 
2125:../Drivers/BSP/Components/lis2de12/lis2de12.c **** /**
2126:../Drivers/BSP/Components/lis2de12/lis2de12.c ****   * @brief  The maximum time (1 LSB = 1/ODR) interval that can elapse between
2127:../Drivers/BSP/Components/lis2de12/lis2de12.c ****   *         the start of the click-detection procedure and when the
2128:../Drivers/BSP/Components/lis2de12/lis2de12.c ****   *         acceleration falls back below the threshold.[get]
2129:../Drivers/BSP/Components/lis2de12/lis2de12.c ****   *
2130:../Drivers/BSP/Components/lis2de12/lis2de12.c **** 
2131:../Drivers/BSP/Components/lis2de12/lis2de12.c ****   * @param  val      change the values of tli in reg TIME_LIMIT
2132:../Drivers/BSP/Components/lis2de12/lis2de12.c ****   * @retval          interface status (MANDATORY: return 0 -> no Error)
2133:../Drivers/BSP/Components/lis2de12/lis2de12.c ****   *
2134:../Drivers/BSP/Components/lis2de12/lis2de12.c ****   */
2135:../Drivers/BSP/Components/lis2de12/lis2de12.c **** int32_t lis2de12_shock_dur_get( uint8_t* val )
2136:../Drivers/BSP/Components/lis2de12/lis2de12.c **** {
 6360              		.loc 1 2136 1
 6361              		.cfi_startproc
 6362              		@ args = 0, pretend = 0, frame = 16
 6363              		@ frame_needed = 1, uses_anonymous_args = 0
 6364 0000 80B5     		push	{r7, lr}
 6365              	.LCFI486:
 6366              		.cfi_def_cfa_offset 8
 6367              		.cfi_offset 7, -8
 6368              		.cfi_offset 14, -4
 6369 0002 84B0     		sub	sp, sp, #16
 6370              	.LCFI487:
 6371              		.cfi_def_cfa_offset 24
 6372 0004 00AF     		add	r7, sp, #0
 6373              	.LCFI488:
 6374              		.cfi_def_cfa_register 7
 6375 0006 7860     		str	r0, [r7, #4]
2137:../Drivers/BSP/Components/lis2de12/lis2de12.c ****     lis2de12_time_limit_t time_limit;
2138:../Drivers/BSP/Components/lis2de12/lis2de12.c ****     int32_t               ret;
2139:../Drivers/BSP/Components/lis2de12/lis2de12.c **** 
2140:../Drivers/BSP/Components/lis2de12/lis2de12.c ****     ret  = lis2de12_read_reg( LIS2DE12_TIME_LIMIT, ( uint8_t* ) &time_limit, 1 );
 6376              		.loc 1 2140 12
 6377 0008 07F10803 		add	r3, r7, #8
 6378 000c 0122     		movs	r2, #1
 6379 000e 1946     		mov	r1, r3
ARM GAS  /tmp/ccjphgoR.s 			page 147


 6380 0010 3B20     		movs	r0, #59
 6381 0012 FFF7FEFF 		bl	lis2de12_read_reg
 6382 0016 F860     		str	r0, [r7, #12]
2141:../Drivers/BSP/Components/lis2de12/lis2de12.c ****     *val = ( uint8_t ) time_limit.tli;
 6383              		.loc 1 2141 34
 6384 0018 3B7A     		ldrb	r3, [r7, #8]
 6385 001a C3F30603 		ubfx	r3, r3, #0, #7
 6386 001e DBB2     		uxtb	r3, r3
 6387              		.loc 1 2141 12
 6388 0020 1A46     		mov	r2, r3
 6389              		.loc 1 2141 10
 6390 0022 7B68     		ldr	r3, [r7, #4]
 6391 0024 1A70     		strb	r2, [r3]
2142:../Drivers/BSP/Components/lis2de12/lis2de12.c **** 
2143:../Drivers/BSP/Components/lis2de12/lis2de12.c ****     return ret;
 6392              		.loc 1 2143 12
 6393 0026 FB68     		ldr	r3, [r7, #12]
2144:../Drivers/BSP/Components/lis2de12/lis2de12.c **** }
 6394              		.loc 1 2144 1
 6395 0028 1846     		mov	r0, r3
 6396 002a 1037     		adds	r7, r7, #16
 6397              	.LCFI489:
 6398              		.cfi_def_cfa_offset 8
 6399 002c BD46     		mov	sp, r7
 6400              	.LCFI490:
 6401              		.cfi_def_cfa_register 13
 6402              		@ sp needed
 6403 002e 80BD     		pop	{r7, pc}
 6404              		.cfi_endproc
 6405              	.LFE687:
 6407              		.section	.text.lis2de12_quiet_dur_set,"ax",%progbits
 6408              		.align	1
 6409              		.global	lis2de12_quiet_dur_set
 6410              		.syntax unified
 6411              		.thumb
 6412              		.thumb_func
 6413              		.fpu fpv4-sp-d16
 6415              	lis2de12_quiet_dur_set:
 6416              	.LFB688:
2145:../Drivers/BSP/Components/lis2de12/lis2de12.c **** 
2146:../Drivers/BSP/Components/lis2de12/lis2de12.c **** /**
2147:../Drivers/BSP/Components/lis2de12/lis2de12.c ****   * @brief  The time (1 LSB = 1/ODR) interval that starts after the first
2148:../Drivers/BSP/Components/lis2de12/lis2de12.c ****   *         click detection where the click-detection procedure is
2149:../Drivers/BSP/Components/lis2de12/lis2de12.c ****   *         disabled, in cases where the device is configured for
2150:../Drivers/BSP/Components/lis2de12/lis2de12.c ****   *         double-click detection.[set]
2151:../Drivers/BSP/Components/lis2de12/lis2de12.c ****   *
2152:../Drivers/BSP/Components/lis2de12/lis2de12.c **** 
2153:../Drivers/BSP/Components/lis2de12/lis2de12.c ****   * @param  val      change the values of tla in reg TIME_LATENCY
2154:../Drivers/BSP/Components/lis2de12/lis2de12.c ****   * @retval          interface status (MANDATORY: return 0 -> no Error)
2155:../Drivers/BSP/Components/lis2de12/lis2de12.c ****   *
2156:../Drivers/BSP/Components/lis2de12/lis2de12.c ****   */
2157:../Drivers/BSP/Components/lis2de12/lis2de12.c **** int32_t lis2de12_quiet_dur_set( uint8_t val )
2158:../Drivers/BSP/Components/lis2de12/lis2de12.c **** {
 6417              		.loc 1 2158 1
 6418              		.cfi_startproc
 6419              		@ args = 0, pretend = 0, frame = 16
 6420              		@ frame_needed = 1, uses_anonymous_args = 0
ARM GAS  /tmp/ccjphgoR.s 			page 148


 6421 0000 80B5     		push	{r7, lr}
 6422              	.LCFI491:
 6423              		.cfi_def_cfa_offset 8
 6424              		.cfi_offset 7, -8
 6425              		.cfi_offset 14, -4
 6426 0002 84B0     		sub	sp, sp, #16
 6427              	.LCFI492:
 6428              		.cfi_def_cfa_offset 24
 6429 0004 00AF     		add	r7, sp, #0
 6430              	.LCFI493:
 6431              		.cfi_def_cfa_register 7
 6432 0006 0346     		mov	r3, r0
 6433 0008 FB71     		strb	r3, [r7, #7]
2159:../Drivers/BSP/Components/lis2de12/lis2de12.c ****     lis2de12_time_latency_t time_latency;
2160:../Drivers/BSP/Components/lis2de12/lis2de12.c ****     int32_t                 ret;
2161:../Drivers/BSP/Components/lis2de12/lis2de12.c **** 
2162:../Drivers/BSP/Components/lis2de12/lis2de12.c ****     ret = lis2de12_read_reg( LIS2DE12_TIME_LATENCY, ( uint8_t* ) &time_latency, 1 );
 6434              		.loc 1 2162 11
 6435 000a 07F10803 		add	r3, r7, #8
 6436 000e 0122     		movs	r2, #1
 6437 0010 1946     		mov	r1, r3
 6438 0012 3C20     		movs	r0, #60
 6439 0014 FFF7FEFF 		bl	lis2de12_read_reg
 6440 0018 F860     		str	r0, [r7, #12]
2163:../Drivers/BSP/Components/lis2de12/lis2de12.c ****     if( ret == 0 )
 6441              		.loc 1 2163 7
 6442 001a FB68     		ldr	r3, [r7, #12]
 6443 001c 002B     		cmp	r3, #0
 6444 001e 09D1     		bne	.L342
2164:../Drivers/BSP/Components/lis2de12/lis2de12.c ****     {
2165:../Drivers/BSP/Components/lis2de12/lis2de12.c ****         time_latency.tla = val;
 6445              		.loc 1 2165 26
 6446 0020 FB79     		ldrb	r3, [r7, #7]
 6447 0022 3B72     		strb	r3, [r7, #8]
2166:../Drivers/BSP/Components/lis2de12/lis2de12.c ****         ret              = lis2de12_write_reg( LIS2DE12_TIME_LATENCY, ( uint8_t* ) &time_latency, 1
 6448              		.loc 1 2166 28
 6449 0024 07F10803 		add	r3, r7, #8
 6450 0028 0122     		movs	r2, #1
 6451 002a 1946     		mov	r1, r3
 6452 002c 3C20     		movs	r0, #60
 6453 002e FFF7FEFF 		bl	lis2de12_write_reg
 6454 0032 F860     		str	r0, [r7, #12]
 6455              	.L342:
2167:../Drivers/BSP/Components/lis2de12/lis2de12.c ****     }
2168:../Drivers/BSP/Components/lis2de12/lis2de12.c ****     return ret;
 6456              		.loc 1 2168 12
 6457 0034 FB68     		ldr	r3, [r7, #12]
2169:../Drivers/BSP/Components/lis2de12/lis2de12.c **** }
 6458              		.loc 1 2169 1
 6459 0036 1846     		mov	r0, r3
 6460 0038 1037     		adds	r7, r7, #16
 6461              	.LCFI494:
 6462              		.cfi_def_cfa_offset 8
 6463 003a BD46     		mov	sp, r7
 6464              	.LCFI495:
 6465              		.cfi_def_cfa_register 13
 6466              		@ sp needed
ARM GAS  /tmp/ccjphgoR.s 			page 149


 6467 003c 80BD     		pop	{r7, pc}
 6468              		.cfi_endproc
 6469              	.LFE688:
 6471              		.section	.text.lis2de12_quiet_dur_get,"ax",%progbits
 6472              		.align	1
 6473              		.global	lis2de12_quiet_dur_get
 6474              		.syntax unified
 6475              		.thumb
 6476              		.thumb_func
 6477              		.fpu fpv4-sp-d16
 6479              	lis2de12_quiet_dur_get:
 6480              	.LFB689:
2170:../Drivers/BSP/Components/lis2de12/lis2de12.c **** 
2171:../Drivers/BSP/Components/lis2de12/lis2de12.c **** /**
2172:../Drivers/BSP/Components/lis2de12/lis2de12.c ****   * @brief  The time (1 LSB = 1/ODR) interval that starts after the first
2173:../Drivers/BSP/Components/lis2de12/lis2de12.c ****   *         click detection where the click-detection procedure is
2174:../Drivers/BSP/Components/lis2de12/lis2de12.c ****   *         disabled, in cases where the device is configured for
2175:../Drivers/BSP/Components/lis2de12/lis2de12.c ****   *         double-click detection.[get]
2176:../Drivers/BSP/Components/lis2de12/lis2de12.c ****   *
2177:../Drivers/BSP/Components/lis2de12/lis2de12.c **** 
2178:../Drivers/BSP/Components/lis2de12/lis2de12.c ****   * @param  val      change the values of tla in reg TIME_LATENCY
2179:../Drivers/BSP/Components/lis2de12/lis2de12.c ****   * @retval          interface status (MANDATORY: return 0 -> no Error)
2180:../Drivers/BSP/Components/lis2de12/lis2de12.c ****   *
2181:../Drivers/BSP/Components/lis2de12/lis2de12.c ****   */
2182:../Drivers/BSP/Components/lis2de12/lis2de12.c **** int32_t lis2de12_quiet_dur_get( uint8_t* val )
2183:../Drivers/BSP/Components/lis2de12/lis2de12.c **** {
 6481              		.loc 1 2183 1
 6482              		.cfi_startproc
 6483              		@ args = 0, pretend = 0, frame = 16
 6484              		@ frame_needed = 1, uses_anonymous_args = 0
 6485 0000 80B5     		push	{r7, lr}
 6486              	.LCFI496:
 6487              		.cfi_def_cfa_offset 8
 6488              		.cfi_offset 7, -8
 6489              		.cfi_offset 14, -4
 6490 0002 84B0     		sub	sp, sp, #16
 6491              	.LCFI497:
 6492              		.cfi_def_cfa_offset 24
 6493 0004 00AF     		add	r7, sp, #0
 6494              	.LCFI498:
 6495              		.cfi_def_cfa_register 7
 6496 0006 7860     		str	r0, [r7, #4]
2184:../Drivers/BSP/Components/lis2de12/lis2de12.c ****     lis2de12_time_latency_t time_latency;
2185:../Drivers/BSP/Components/lis2de12/lis2de12.c ****     int32_t                 ret;
2186:../Drivers/BSP/Components/lis2de12/lis2de12.c **** 
2187:../Drivers/BSP/Components/lis2de12/lis2de12.c ****     ret  = lis2de12_read_reg( LIS2DE12_TIME_LATENCY, ( uint8_t* ) &time_latency, 1 );
 6497              		.loc 1 2187 12
 6498 0008 07F10803 		add	r3, r7, #8
 6499 000c 0122     		movs	r2, #1
 6500 000e 1946     		mov	r1, r3
 6501 0010 3C20     		movs	r0, #60
 6502 0012 FFF7FEFF 		bl	lis2de12_read_reg
 6503 0016 F860     		str	r0, [r7, #12]
2188:../Drivers/BSP/Components/lis2de12/lis2de12.c ****     *val = ( uint8_t ) time_latency.tla;
 6504              		.loc 1 2188 36
 6505 0018 3A7A     		ldrb	r2, [r7, #8]	@ zero_extendqisi2
 6506              		.loc 1 2188 10
ARM GAS  /tmp/ccjphgoR.s 			page 150


 6507 001a 7B68     		ldr	r3, [r7, #4]
 6508 001c 1A70     		strb	r2, [r3]
2189:../Drivers/BSP/Components/lis2de12/lis2de12.c **** 
2190:../Drivers/BSP/Components/lis2de12/lis2de12.c ****     return ret;
 6509              		.loc 1 2190 12
 6510 001e FB68     		ldr	r3, [r7, #12]
2191:../Drivers/BSP/Components/lis2de12/lis2de12.c **** }
 6511              		.loc 1 2191 1
 6512 0020 1846     		mov	r0, r3
 6513 0022 1037     		adds	r7, r7, #16
 6514              	.LCFI499:
 6515              		.cfi_def_cfa_offset 8
 6516 0024 BD46     		mov	sp, r7
 6517              	.LCFI500:
 6518              		.cfi_def_cfa_register 13
 6519              		@ sp needed
 6520 0026 80BD     		pop	{r7, pc}
 6521              		.cfi_endproc
 6522              	.LFE689:
 6524              		.section	.text.lis2de12_double_tap_timeout_set,"ax",%progbits
 6525              		.align	1
 6526              		.global	lis2de12_double_tap_timeout_set
 6527              		.syntax unified
 6528              		.thumb
 6529              		.thumb_func
 6530              		.fpu fpv4-sp-d16
 6532              	lis2de12_double_tap_timeout_set:
 6533              	.LFB690:
2192:../Drivers/BSP/Components/lis2de12/lis2de12.c **** 
2193:../Drivers/BSP/Components/lis2de12/lis2de12.c **** /**
2194:../Drivers/BSP/Components/lis2de12/lis2de12.c ****   * @brief  The maximum interval of time (1 LSB = 1/ODR) that can elapse
2195:../Drivers/BSP/Components/lis2de12/lis2de12.c ****   *         after the end of the latency interval in which the click-detection
2196:../Drivers/BSP/Components/lis2de12/lis2de12.c ****   *         procedure can start, in cases where the device is configured
2197:../Drivers/BSP/Components/lis2de12/lis2de12.c ****   *         for double-click detection.[set]
2198:../Drivers/BSP/Components/lis2de12/lis2de12.c ****   *
2199:../Drivers/BSP/Components/lis2de12/lis2de12.c **** 
2200:../Drivers/BSP/Components/lis2de12/lis2de12.c ****   * @param  val      change the values of tw in reg TIME_WINDOW
2201:../Drivers/BSP/Components/lis2de12/lis2de12.c ****   * @retval          interface status (MANDATORY: return 0 -> no Error)
2202:../Drivers/BSP/Components/lis2de12/lis2de12.c ****   *
2203:../Drivers/BSP/Components/lis2de12/lis2de12.c ****   */
2204:../Drivers/BSP/Components/lis2de12/lis2de12.c **** int32_t lis2de12_double_tap_timeout_set( uint8_t val )
2205:../Drivers/BSP/Components/lis2de12/lis2de12.c **** {
 6534              		.loc 1 2205 1
 6535              		.cfi_startproc
 6536              		@ args = 0, pretend = 0, frame = 16
 6537              		@ frame_needed = 1, uses_anonymous_args = 0
 6538 0000 80B5     		push	{r7, lr}
 6539              	.LCFI501:
 6540              		.cfi_def_cfa_offset 8
 6541              		.cfi_offset 7, -8
 6542              		.cfi_offset 14, -4
 6543 0002 84B0     		sub	sp, sp, #16
 6544              	.LCFI502:
 6545              		.cfi_def_cfa_offset 24
 6546 0004 00AF     		add	r7, sp, #0
 6547              	.LCFI503:
 6548              		.cfi_def_cfa_register 7
ARM GAS  /tmp/ccjphgoR.s 			page 151


 6549 0006 0346     		mov	r3, r0
 6550 0008 FB71     		strb	r3, [r7, #7]
2206:../Drivers/BSP/Components/lis2de12/lis2de12.c ****     lis2de12_time_window_t time_window;
2207:../Drivers/BSP/Components/lis2de12/lis2de12.c ****     int32_t                ret;
2208:../Drivers/BSP/Components/lis2de12/lis2de12.c **** 
2209:../Drivers/BSP/Components/lis2de12/lis2de12.c ****     ret = lis2de12_read_reg( LIS2DE12_TIME_WINDOW, ( uint8_t* ) &time_window, 1 );
 6551              		.loc 1 2209 11
 6552 000a 07F10803 		add	r3, r7, #8
 6553 000e 0122     		movs	r2, #1
 6554 0010 1946     		mov	r1, r3
 6555 0012 3D20     		movs	r0, #61
 6556 0014 FFF7FEFF 		bl	lis2de12_read_reg
 6557 0018 F860     		str	r0, [r7, #12]
2210:../Drivers/BSP/Components/lis2de12/lis2de12.c ****     if( ret == 0 )
 6558              		.loc 1 2210 7
 6559 001a FB68     		ldr	r3, [r7, #12]
 6560 001c 002B     		cmp	r3, #0
 6561 001e 09D1     		bne	.L347
2211:../Drivers/BSP/Components/lis2de12/lis2de12.c ****     {
2212:../Drivers/BSP/Components/lis2de12/lis2de12.c ****         time_window.tw = val;
 6562              		.loc 1 2212 24
 6563 0020 FB79     		ldrb	r3, [r7, #7]
 6564 0022 3B72     		strb	r3, [r7, #8]
2213:../Drivers/BSP/Components/lis2de12/lis2de12.c ****         ret            = lis2de12_write_reg( LIS2DE12_TIME_WINDOW, ( uint8_t* ) &time_window, 1 );
 6565              		.loc 1 2213 26
 6566 0024 07F10803 		add	r3, r7, #8
 6567 0028 0122     		movs	r2, #1
 6568 002a 1946     		mov	r1, r3
 6569 002c 3D20     		movs	r0, #61
 6570 002e FFF7FEFF 		bl	lis2de12_write_reg
 6571 0032 F860     		str	r0, [r7, #12]
 6572              	.L347:
2214:../Drivers/BSP/Components/lis2de12/lis2de12.c ****     }
2215:../Drivers/BSP/Components/lis2de12/lis2de12.c ****     return ret;
 6573              		.loc 1 2215 12
 6574 0034 FB68     		ldr	r3, [r7, #12]
2216:../Drivers/BSP/Components/lis2de12/lis2de12.c **** }
 6575              		.loc 1 2216 1
 6576 0036 1846     		mov	r0, r3
 6577 0038 1037     		adds	r7, r7, #16
 6578              	.LCFI504:
 6579              		.cfi_def_cfa_offset 8
 6580 003a BD46     		mov	sp, r7
 6581              	.LCFI505:
 6582              		.cfi_def_cfa_register 13
 6583              		@ sp needed
 6584 003c 80BD     		pop	{r7, pc}
 6585              		.cfi_endproc
 6586              	.LFE690:
 6588              		.section	.text.lis2de12_double_tap_timeout_get,"ax",%progbits
 6589              		.align	1
 6590              		.global	lis2de12_double_tap_timeout_get
 6591              		.syntax unified
 6592              		.thumb
 6593              		.thumb_func
 6594              		.fpu fpv4-sp-d16
 6596              	lis2de12_double_tap_timeout_get:
ARM GAS  /tmp/ccjphgoR.s 			page 152


 6597              	.LFB691:
2217:../Drivers/BSP/Components/lis2de12/lis2de12.c **** 
2218:../Drivers/BSP/Components/lis2de12/lis2de12.c **** /**
2219:../Drivers/BSP/Components/lis2de12/lis2de12.c ****   * @brief  The maximum interval of time (1 LSB = 1/ODR) that can elapse
2220:../Drivers/BSP/Components/lis2de12/lis2de12.c ****   *         after the end of the latency interval in which the
2221:../Drivers/BSP/Components/lis2de12/lis2de12.c ****   *         click-detection procedure can start, in cases where the device
2222:../Drivers/BSP/Components/lis2de12/lis2de12.c ****   *         is configured for double-click detection.[get]
2223:../Drivers/BSP/Components/lis2de12/lis2de12.c ****   *
2224:../Drivers/BSP/Components/lis2de12/lis2de12.c **** 
2225:../Drivers/BSP/Components/lis2de12/lis2de12.c ****   * @param  val      change the values of tw in reg TIME_WINDOW
2226:../Drivers/BSP/Components/lis2de12/lis2de12.c ****   * @retval          interface status (MANDATORY: return 0 -> no Error)
2227:../Drivers/BSP/Components/lis2de12/lis2de12.c ****   *
2228:../Drivers/BSP/Components/lis2de12/lis2de12.c ****   */
2229:../Drivers/BSP/Components/lis2de12/lis2de12.c **** int32_t lis2de12_double_tap_timeout_get( uint8_t* val )
2230:../Drivers/BSP/Components/lis2de12/lis2de12.c **** {
 6598              		.loc 1 2230 1
 6599              		.cfi_startproc
 6600              		@ args = 0, pretend = 0, frame = 16
 6601              		@ frame_needed = 1, uses_anonymous_args = 0
 6602 0000 80B5     		push	{r7, lr}
 6603              	.LCFI506:
 6604              		.cfi_def_cfa_offset 8
 6605              		.cfi_offset 7, -8
 6606              		.cfi_offset 14, -4
 6607 0002 84B0     		sub	sp, sp, #16
 6608              	.LCFI507:
 6609              		.cfi_def_cfa_offset 24
 6610 0004 00AF     		add	r7, sp, #0
 6611              	.LCFI508:
 6612              		.cfi_def_cfa_register 7
 6613 0006 7860     		str	r0, [r7, #4]
2231:../Drivers/BSP/Components/lis2de12/lis2de12.c ****     lis2de12_time_window_t time_window;
2232:../Drivers/BSP/Components/lis2de12/lis2de12.c ****     int32_t                ret;
2233:../Drivers/BSP/Components/lis2de12/lis2de12.c **** 
2234:../Drivers/BSP/Components/lis2de12/lis2de12.c ****     ret  = lis2de12_read_reg( LIS2DE12_TIME_WINDOW, ( uint8_t* ) &time_window, 1 );
 6614              		.loc 1 2234 12
 6615 0008 07F10803 		add	r3, r7, #8
 6616 000c 0122     		movs	r2, #1
 6617 000e 1946     		mov	r1, r3
 6618 0010 3D20     		movs	r0, #61
 6619 0012 FFF7FEFF 		bl	lis2de12_read_reg
 6620 0016 F860     		str	r0, [r7, #12]
2235:../Drivers/BSP/Components/lis2de12/lis2de12.c ****     *val = ( uint8_t ) time_window.tw;
 6621              		.loc 1 2235 35
 6622 0018 3A7A     		ldrb	r2, [r7, #8]	@ zero_extendqisi2
 6623              		.loc 1 2235 10
 6624 001a 7B68     		ldr	r3, [r7, #4]
 6625 001c 1A70     		strb	r2, [r3]
2236:../Drivers/BSP/Components/lis2de12/lis2de12.c **** 
2237:../Drivers/BSP/Components/lis2de12/lis2de12.c ****     return ret;
 6626              		.loc 1 2237 12
 6627 001e FB68     		ldr	r3, [r7, #12]
2238:../Drivers/BSP/Components/lis2de12/lis2de12.c **** }
 6628              		.loc 1 2238 1
 6629 0020 1846     		mov	r0, r3
 6630 0022 1037     		adds	r7, r7, #16
 6631              	.LCFI509:
ARM GAS  /tmp/ccjphgoR.s 			page 153


 6632              		.cfi_def_cfa_offset 8
 6633 0024 BD46     		mov	sp, r7
 6634              	.LCFI510:
 6635              		.cfi_def_cfa_register 13
 6636              		@ sp needed
 6637 0026 80BD     		pop	{r7, pc}
 6638              		.cfi_endproc
 6639              	.LFE691:
 6641              		.section	.text.lis2de12_act_threshold_set,"ax",%progbits
 6642              		.align	1
 6643              		.global	lis2de12_act_threshold_set
 6644              		.syntax unified
 6645              		.thumb
 6646              		.thumb_func
 6647              		.fpu fpv4-sp-d16
 6649              	lis2de12_act_threshold_set:
 6650              	.LFB692:
2239:../Drivers/BSP/Components/lis2de12/lis2de12.c **** 
2240:../Drivers/BSP/Components/lis2de12/lis2de12.c **** /**
2241:../Drivers/BSP/Components/lis2de12/lis2de12.c ****  * @}
2242:../Drivers/BSP/Components/lis2de12/lis2de12.c ****  *
2243:../Drivers/BSP/Components/lis2de12/lis2de12.c ****  */
2244:../Drivers/BSP/Components/lis2de12/lis2de12.c **** 
2245:../Drivers/BSP/Components/lis2de12/lis2de12.c **** /**
2246:../Drivers/BSP/Components/lis2de12/lis2de12.c ****  * @defgroup  LIS2DE12_Activity_inactivity
2247:../Drivers/BSP/Components/lis2de12/lis2de12.c ****  * @brief     This section group all the functions concerning activity
2248:../Drivers/BSP/Components/lis2de12/lis2de12.c ****  *            inactivity functionality
2249:../Drivers/BSP/Components/lis2de12/lis2de12.c ****  * @{
2250:../Drivers/BSP/Components/lis2de12/lis2de12.c ****  *
2251:../Drivers/BSP/Components/lis2de12/lis2de12.c ****  */
2252:../Drivers/BSP/Components/lis2de12/lis2de12.c **** 
2253:../Drivers/BSP/Components/lis2de12/lis2de12.c **** /**
2254:../Drivers/BSP/Components/lis2de12/lis2de12.c ****   * @brief    Sleep-to-wake, return-to-sleep activation threshold in
2255:../Drivers/BSP/Components/lis2de12/lis2de12.c ****   *           low-power mode.[set]
2256:../Drivers/BSP/Components/lis2de12/lis2de12.c ****   *           1 LSb = 16mg@2g / 32mg@4g / 62mg@8g / 186mg@16g
2257:../Drivers/BSP/Components/lis2de12/lis2de12.c ****   *
2258:../Drivers/BSP/Components/lis2de12/lis2de12.c **** 
2259:../Drivers/BSP/Components/lis2de12/lis2de12.c ****   * @param  val      change the values of acth in reg ACT_THS
2260:../Drivers/BSP/Components/lis2de12/lis2de12.c ****   * @retval          interface status (MANDATORY: return 0 -> no Error)
2261:../Drivers/BSP/Components/lis2de12/lis2de12.c ****   *
2262:../Drivers/BSP/Components/lis2de12/lis2de12.c ****   */
2263:../Drivers/BSP/Components/lis2de12/lis2de12.c **** int32_t lis2de12_act_threshold_set( uint8_t val )
2264:../Drivers/BSP/Components/lis2de12/lis2de12.c **** {
 6651              		.loc 1 2264 1
 6652              		.cfi_startproc
 6653              		@ args = 0, pretend = 0, frame = 16
 6654              		@ frame_needed = 1, uses_anonymous_args = 0
 6655 0000 80B5     		push	{r7, lr}
 6656              	.LCFI511:
 6657              		.cfi_def_cfa_offset 8
 6658              		.cfi_offset 7, -8
 6659              		.cfi_offset 14, -4
 6660 0002 84B0     		sub	sp, sp, #16
 6661              	.LCFI512:
 6662              		.cfi_def_cfa_offset 24
 6663 0004 00AF     		add	r7, sp, #0
 6664              	.LCFI513:
ARM GAS  /tmp/ccjphgoR.s 			page 154


 6665              		.cfi_def_cfa_register 7
 6666 0006 0346     		mov	r3, r0
 6667 0008 FB71     		strb	r3, [r7, #7]
2265:../Drivers/BSP/Components/lis2de12/lis2de12.c ****     lis2de12_act_ths_t act_ths;
2266:../Drivers/BSP/Components/lis2de12/lis2de12.c ****     int32_t            ret;
2267:../Drivers/BSP/Components/lis2de12/lis2de12.c **** 
2268:../Drivers/BSP/Components/lis2de12/lis2de12.c ****     ret = lis2de12_read_reg( LIS2DE12_ACT_THS, ( uint8_t* ) &act_ths, 1 );
 6668              		.loc 1 2268 11
 6669 000a 07F10803 		add	r3, r7, #8
 6670 000e 0122     		movs	r2, #1
 6671 0010 1946     		mov	r1, r3
 6672 0012 3E20     		movs	r0, #62
 6673 0014 FFF7FEFF 		bl	lis2de12_read_reg
 6674 0018 F860     		str	r0, [r7, #12]
2269:../Drivers/BSP/Components/lis2de12/lis2de12.c ****     if( ret == 0 )
 6675              		.loc 1 2269 7
 6676 001a FB68     		ldr	r3, [r7, #12]
 6677 001c 002B     		cmp	r3, #0
 6678 001e 0FD1     		bne	.L352
2270:../Drivers/BSP/Components/lis2de12/lis2de12.c ****     {
2271:../Drivers/BSP/Components/lis2de12/lis2de12.c ****         act_ths.acth = val;
 6679              		.loc 1 2271 22
 6680 0020 FB79     		ldrb	r3, [r7, #7]
 6681 0022 03F07F03 		and	r3, r3, #127
 6682 0026 DAB2     		uxtb	r2, r3
 6683 0028 3B7A     		ldrb	r3, [r7, #8]
 6684 002a 62F30603 		bfi	r3, r2, #0, #7
 6685 002e 3B72     		strb	r3, [r7, #8]
2272:../Drivers/BSP/Components/lis2de12/lis2de12.c ****         ret          = lis2de12_write_reg( LIS2DE12_ACT_THS, ( uint8_t* ) &act_ths, 1 );
 6686              		.loc 1 2272 24
 6687 0030 07F10803 		add	r3, r7, #8
 6688 0034 0122     		movs	r2, #1
 6689 0036 1946     		mov	r1, r3
 6690 0038 3E20     		movs	r0, #62
 6691 003a FFF7FEFF 		bl	lis2de12_write_reg
 6692 003e F860     		str	r0, [r7, #12]
 6693              	.L352:
2273:../Drivers/BSP/Components/lis2de12/lis2de12.c ****     }
2274:../Drivers/BSP/Components/lis2de12/lis2de12.c ****     return ret;
 6694              		.loc 1 2274 12
 6695 0040 FB68     		ldr	r3, [r7, #12]
2275:../Drivers/BSP/Components/lis2de12/lis2de12.c **** }
 6696              		.loc 1 2275 1
 6697 0042 1846     		mov	r0, r3
 6698 0044 1037     		adds	r7, r7, #16
 6699              	.LCFI514:
 6700              		.cfi_def_cfa_offset 8
 6701 0046 BD46     		mov	sp, r7
 6702              	.LCFI515:
 6703              		.cfi_def_cfa_register 13
 6704              		@ sp needed
 6705 0048 80BD     		pop	{r7, pc}
 6706              		.cfi_endproc
 6707              	.LFE692:
 6709              		.section	.text.lis2de12_act_threshold_get,"ax",%progbits
 6710              		.align	1
 6711              		.global	lis2de12_act_threshold_get
ARM GAS  /tmp/ccjphgoR.s 			page 155


 6712              		.syntax unified
 6713              		.thumb
 6714              		.thumb_func
 6715              		.fpu fpv4-sp-d16
 6717              	lis2de12_act_threshold_get:
 6718              	.LFB693:
2276:../Drivers/BSP/Components/lis2de12/lis2de12.c **** 
2277:../Drivers/BSP/Components/lis2de12/lis2de12.c **** /**
2278:../Drivers/BSP/Components/lis2de12/lis2de12.c ****   * @brief  Sleep-to-wake, return-to-sleep activation threshold in low-power
2279:../Drivers/BSP/Components/lis2de12/lis2de12.c ****   *         mode.[get]
2280:../Drivers/BSP/Components/lis2de12/lis2de12.c ****   *         1 LSb = 16mg@2g / 32mg@4g / 62mg@8g / 186mg@16g
2281:../Drivers/BSP/Components/lis2de12/lis2de12.c ****   *
2282:../Drivers/BSP/Components/lis2de12/lis2de12.c **** 
2283:../Drivers/BSP/Components/lis2de12/lis2de12.c ****   * @param  val      change the values of acth in reg ACT_THS
2284:../Drivers/BSP/Components/lis2de12/lis2de12.c ****   * @retval          interface status (MANDATORY: return 0 -> no Error)
2285:../Drivers/BSP/Components/lis2de12/lis2de12.c ****   *
2286:../Drivers/BSP/Components/lis2de12/lis2de12.c ****   */
2287:../Drivers/BSP/Components/lis2de12/lis2de12.c **** int32_t lis2de12_act_threshold_get( uint8_t* val )
2288:../Drivers/BSP/Components/lis2de12/lis2de12.c **** {
 6719              		.loc 1 2288 1
 6720              		.cfi_startproc
 6721              		@ args = 0, pretend = 0, frame = 16
 6722              		@ frame_needed = 1, uses_anonymous_args = 0
 6723 0000 80B5     		push	{r7, lr}
 6724              	.LCFI516:
 6725              		.cfi_def_cfa_offset 8
 6726              		.cfi_offset 7, -8
 6727              		.cfi_offset 14, -4
 6728 0002 84B0     		sub	sp, sp, #16
 6729              	.LCFI517:
 6730              		.cfi_def_cfa_offset 24
 6731 0004 00AF     		add	r7, sp, #0
 6732              	.LCFI518:
 6733              		.cfi_def_cfa_register 7
 6734 0006 7860     		str	r0, [r7, #4]
2289:../Drivers/BSP/Components/lis2de12/lis2de12.c ****     lis2de12_act_ths_t act_ths;
2290:../Drivers/BSP/Components/lis2de12/lis2de12.c ****     int32_t            ret;
2291:../Drivers/BSP/Components/lis2de12/lis2de12.c **** 
2292:../Drivers/BSP/Components/lis2de12/lis2de12.c ****     ret  = lis2de12_read_reg( LIS2DE12_ACT_THS, ( uint8_t* ) &act_ths, 1 );
 6735              		.loc 1 2292 12
 6736 0008 07F10803 		add	r3, r7, #8
 6737 000c 0122     		movs	r2, #1
 6738 000e 1946     		mov	r1, r3
 6739 0010 3E20     		movs	r0, #62
 6740 0012 FFF7FEFF 		bl	lis2de12_read_reg
 6741 0016 F860     		str	r0, [r7, #12]
2293:../Drivers/BSP/Components/lis2de12/lis2de12.c ****     *val = ( uint8_t ) act_ths.acth;
 6742              		.loc 1 2293 31
 6743 0018 3B7A     		ldrb	r3, [r7, #8]
 6744 001a C3F30603 		ubfx	r3, r3, #0, #7
 6745 001e DBB2     		uxtb	r3, r3
 6746              		.loc 1 2293 12
 6747 0020 1A46     		mov	r2, r3
 6748              		.loc 1 2293 10
 6749 0022 7B68     		ldr	r3, [r7, #4]
 6750 0024 1A70     		strb	r2, [r3]
2294:../Drivers/BSP/Components/lis2de12/lis2de12.c **** 
ARM GAS  /tmp/ccjphgoR.s 			page 156


2295:../Drivers/BSP/Components/lis2de12/lis2de12.c ****     return ret;
 6751              		.loc 1 2295 12
 6752 0026 FB68     		ldr	r3, [r7, #12]
2296:../Drivers/BSP/Components/lis2de12/lis2de12.c **** }
 6753              		.loc 1 2296 1
 6754 0028 1846     		mov	r0, r3
 6755 002a 1037     		adds	r7, r7, #16
 6756              	.LCFI519:
 6757              		.cfi_def_cfa_offset 8
 6758 002c BD46     		mov	sp, r7
 6759              	.LCFI520:
 6760              		.cfi_def_cfa_register 13
 6761              		@ sp needed
 6762 002e 80BD     		pop	{r7, pc}
 6763              		.cfi_endproc
 6764              	.LFE693:
 6766              		.section	.text.lis2de12_act_timeout_set,"ax",%progbits
 6767              		.align	1
 6768              		.global	lis2de12_act_timeout_set
 6769              		.syntax unified
 6770              		.thumb
 6771              		.thumb_func
 6772              		.fpu fpv4-sp-d16
 6774              	lis2de12_act_timeout_set:
 6775              	.LFB694:
2297:../Drivers/BSP/Components/lis2de12/lis2de12.c **** 
2298:../Drivers/BSP/Components/lis2de12/lis2de12.c **** /**
2299:../Drivers/BSP/Components/lis2de12/lis2de12.c ****   * @brief  Sleep-to-wake, return-to-sleep.[set]
2300:../Drivers/BSP/Components/lis2de12/lis2de12.c ****   *         duration = (8*1[LSb]+1)/ODR
2301:../Drivers/BSP/Components/lis2de12/lis2de12.c ****   *
2302:../Drivers/BSP/Components/lis2de12/lis2de12.c **** 
2303:../Drivers/BSP/Components/lis2de12/lis2de12.c ****   * @param  val      change the values of actd in reg ACT_DUR
2304:../Drivers/BSP/Components/lis2de12/lis2de12.c ****   * @retval          interface status (MANDATORY: return 0 -> no Error)
2305:../Drivers/BSP/Components/lis2de12/lis2de12.c ****   *
2306:../Drivers/BSP/Components/lis2de12/lis2de12.c ****   */
2307:../Drivers/BSP/Components/lis2de12/lis2de12.c **** int32_t lis2de12_act_timeout_set( uint8_t val )
2308:../Drivers/BSP/Components/lis2de12/lis2de12.c **** {
 6776              		.loc 1 2308 1
 6777              		.cfi_startproc
 6778              		@ args = 0, pretend = 0, frame = 16
 6779              		@ frame_needed = 1, uses_anonymous_args = 0
 6780 0000 80B5     		push	{r7, lr}
 6781              	.LCFI521:
 6782              		.cfi_def_cfa_offset 8
 6783              		.cfi_offset 7, -8
 6784              		.cfi_offset 14, -4
 6785 0002 84B0     		sub	sp, sp, #16
 6786              	.LCFI522:
 6787              		.cfi_def_cfa_offset 24
 6788 0004 00AF     		add	r7, sp, #0
 6789              	.LCFI523:
 6790              		.cfi_def_cfa_register 7
 6791 0006 0346     		mov	r3, r0
 6792 0008 FB71     		strb	r3, [r7, #7]
2309:../Drivers/BSP/Components/lis2de12/lis2de12.c ****     lis2de12_act_dur_t act_dur;
2310:../Drivers/BSP/Components/lis2de12/lis2de12.c ****     int32_t            ret;
2311:../Drivers/BSP/Components/lis2de12/lis2de12.c **** 
ARM GAS  /tmp/ccjphgoR.s 			page 157


2312:../Drivers/BSP/Components/lis2de12/lis2de12.c ****     ret = lis2de12_read_reg( LIS2DE12_ACT_DUR, ( uint8_t* ) &act_dur, 1 );
 6793              		.loc 1 2312 11
 6794 000a 07F10803 		add	r3, r7, #8
 6795 000e 0122     		movs	r2, #1
 6796 0010 1946     		mov	r1, r3
 6797 0012 3F20     		movs	r0, #63
 6798 0014 FFF7FEFF 		bl	lis2de12_read_reg
 6799 0018 F860     		str	r0, [r7, #12]
2313:../Drivers/BSP/Components/lis2de12/lis2de12.c ****     if( ret == 0 )
 6800              		.loc 1 2313 7
 6801 001a FB68     		ldr	r3, [r7, #12]
 6802 001c 002B     		cmp	r3, #0
 6803 001e 09D1     		bne	.L357
2314:../Drivers/BSP/Components/lis2de12/lis2de12.c ****     {
2315:../Drivers/BSP/Components/lis2de12/lis2de12.c ****         act_dur.actd = val;
 6804              		.loc 1 2315 22
 6805 0020 FB79     		ldrb	r3, [r7, #7]
 6806 0022 3B72     		strb	r3, [r7, #8]
2316:../Drivers/BSP/Components/lis2de12/lis2de12.c ****         ret          = lis2de12_write_reg( LIS2DE12_ACT_DUR, ( uint8_t* ) &act_dur, 1 );
 6807              		.loc 1 2316 24
 6808 0024 07F10803 		add	r3, r7, #8
 6809 0028 0122     		movs	r2, #1
 6810 002a 1946     		mov	r1, r3
 6811 002c 3F20     		movs	r0, #63
 6812 002e FFF7FEFF 		bl	lis2de12_write_reg
 6813 0032 F860     		str	r0, [r7, #12]
 6814              	.L357:
2317:../Drivers/BSP/Components/lis2de12/lis2de12.c ****     }
2318:../Drivers/BSP/Components/lis2de12/lis2de12.c ****     return ret;
 6815              		.loc 1 2318 12
 6816 0034 FB68     		ldr	r3, [r7, #12]
2319:../Drivers/BSP/Components/lis2de12/lis2de12.c **** }
 6817              		.loc 1 2319 1
 6818 0036 1846     		mov	r0, r3
 6819 0038 1037     		adds	r7, r7, #16
 6820              	.LCFI524:
 6821              		.cfi_def_cfa_offset 8
 6822 003a BD46     		mov	sp, r7
 6823              	.LCFI525:
 6824              		.cfi_def_cfa_register 13
 6825              		@ sp needed
 6826 003c 80BD     		pop	{r7, pc}
 6827              		.cfi_endproc
 6828              	.LFE694:
 6830              		.section	.text.lis2de12_act_timeout_get,"ax",%progbits
 6831              		.align	1
 6832              		.global	lis2de12_act_timeout_get
 6833              		.syntax unified
 6834              		.thumb
 6835              		.thumb_func
 6836              		.fpu fpv4-sp-d16
 6838              	lis2de12_act_timeout_get:
 6839              	.LFB695:
2320:../Drivers/BSP/Components/lis2de12/lis2de12.c **** 
2321:../Drivers/BSP/Components/lis2de12/lis2de12.c **** /**
2322:../Drivers/BSP/Components/lis2de12/lis2de12.c ****   * @brief  Sleep-to-wake, return-to-sleep.[get]
2323:../Drivers/BSP/Components/lis2de12/lis2de12.c ****   *         duration = (8*1[LSb]+1)/ODR
ARM GAS  /tmp/ccjphgoR.s 			page 158


2324:../Drivers/BSP/Components/lis2de12/lis2de12.c ****   *
2325:../Drivers/BSP/Components/lis2de12/lis2de12.c **** 
2326:../Drivers/BSP/Components/lis2de12/lis2de12.c ****   * @param  val      change the values of actd in reg ACT_DUR
2327:../Drivers/BSP/Components/lis2de12/lis2de12.c ****   * @retval          interface status (MANDATORY: return 0 -> no Error)
2328:../Drivers/BSP/Components/lis2de12/lis2de12.c ****   *
2329:../Drivers/BSP/Components/lis2de12/lis2de12.c ****   */
2330:../Drivers/BSP/Components/lis2de12/lis2de12.c **** int32_t lis2de12_act_timeout_get( uint8_t* val )
2331:../Drivers/BSP/Components/lis2de12/lis2de12.c **** {
 6840              		.loc 1 2331 1
 6841              		.cfi_startproc
 6842              		@ args = 0, pretend = 0, frame = 16
 6843              		@ frame_needed = 1, uses_anonymous_args = 0
 6844 0000 80B5     		push	{r7, lr}
 6845              	.LCFI526:
 6846              		.cfi_def_cfa_offset 8
 6847              		.cfi_offset 7, -8
 6848              		.cfi_offset 14, -4
 6849 0002 84B0     		sub	sp, sp, #16
 6850              	.LCFI527:
 6851              		.cfi_def_cfa_offset 24
 6852 0004 00AF     		add	r7, sp, #0
 6853              	.LCFI528:
 6854              		.cfi_def_cfa_register 7
 6855 0006 7860     		str	r0, [r7, #4]
2332:../Drivers/BSP/Components/lis2de12/lis2de12.c ****     lis2de12_act_dur_t act_dur;
2333:../Drivers/BSP/Components/lis2de12/lis2de12.c ****     int32_t            ret;
2334:../Drivers/BSP/Components/lis2de12/lis2de12.c **** 
2335:../Drivers/BSP/Components/lis2de12/lis2de12.c ****     ret  = lis2de12_read_reg( LIS2DE12_ACT_DUR, ( uint8_t* ) &act_dur, 1 );
 6856              		.loc 1 2335 12
 6857 0008 07F10803 		add	r3, r7, #8
 6858 000c 0122     		movs	r2, #1
 6859 000e 1946     		mov	r1, r3
 6860 0010 3F20     		movs	r0, #63
 6861 0012 FFF7FEFF 		bl	lis2de12_read_reg
 6862 0016 F860     		str	r0, [r7, #12]
2336:../Drivers/BSP/Components/lis2de12/lis2de12.c ****     *val = ( uint8_t ) act_dur.actd;
 6863              		.loc 1 2336 31
 6864 0018 3A7A     		ldrb	r2, [r7, #8]	@ zero_extendqisi2
 6865              		.loc 1 2336 10
 6866 001a 7B68     		ldr	r3, [r7, #4]
 6867 001c 1A70     		strb	r2, [r3]
2337:../Drivers/BSP/Components/lis2de12/lis2de12.c **** 
2338:../Drivers/BSP/Components/lis2de12/lis2de12.c ****     return ret;
 6868              		.loc 1 2338 12
 6869 001e FB68     		ldr	r3, [r7, #12]
2339:../Drivers/BSP/Components/lis2de12/lis2de12.c **** }
 6870              		.loc 1 2339 1
 6871 0020 1846     		mov	r0, r3
 6872 0022 1037     		adds	r7, r7, #16
 6873              	.LCFI529:
 6874              		.cfi_def_cfa_offset 8
 6875 0024 BD46     		mov	sp, r7
 6876              	.LCFI530:
 6877              		.cfi_def_cfa_register 13
 6878              		@ sp needed
 6879 0026 80BD     		pop	{r7, pc}
 6880              		.cfi_endproc
ARM GAS  /tmp/ccjphgoR.s 			page 159


 6881              	.LFE695:
 6883              		.section	.text.lis2de12_pin_sdo_sa0_mode_set,"ax",%progbits
 6884              		.align	1
 6885              		.global	lis2de12_pin_sdo_sa0_mode_set
 6886              		.syntax unified
 6887              		.thumb
 6888              		.thumb_func
 6889              		.fpu fpv4-sp-d16
 6891              	lis2de12_pin_sdo_sa0_mode_set:
 6892              	.LFB696:
2340:../Drivers/BSP/Components/lis2de12/lis2de12.c **** 
2341:../Drivers/BSP/Components/lis2de12/lis2de12.c **** /**
2342:../Drivers/BSP/Components/lis2de12/lis2de12.c ****  * @}
2343:../Drivers/BSP/Components/lis2de12/lis2de12.c ****  *
2344:../Drivers/BSP/Components/lis2de12/lis2de12.c ****  */
2345:../Drivers/BSP/Components/lis2de12/lis2de12.c **** 
2346:../Drivers/BSP/Components/lis2de12/lis2de12.c **** /**
2347:../Drivers/BSP/Components/lis2de12/lis2de12.c ****  * @defgroup  LIS2DE12_Serial_interface
2348:../Drivers/BSP/Components/lis2de12/lis2de12.c ****  * @brief     This section group all the functions concerning serial
2349:../Drivers/BSP/Components/lis2de12/lis2de12.c ****  *            interface management
2350:../Drivers/BSP/Components/lis2de12/lis2de12.c ****  * @{
2351:../Drivers/BSP/Components/lis2de12/lis2de12.c ****  *
2352:../Drivers/BSP/Components/lis2de12/lis2de12.c ****  */
2353:../Drivers/BSP/Components/lis2de12/lis2de12.c **** 
2354:../Drivers/BSP/Components/lis2de12/lis2de12.c **** /**
2355:../Drivers/BSP/Components/lis2de12/lis2de12.c ****   * @brief  Connect/Disconnect SDO/SA0 internal pull-up.[set]
2356:../Drivers/BSP/Components/lis2de12/lis2de12.c ****   *
2357:../Drivers/BSP/Components/lis2de12/lis2de12.c **** 
2358:../Drivers/BSP/Components/lis2de12/lis2de12.c ****   * @param  val      change the values of sdo_pu_disc in reg CTRL_REG0
2359:../Drivers/BSP/Components/lis2de12/lis2de12.c ****   * @retval          interface status (MANDATORY: return 0 -> no Error)
2360:../Drivers/BSP/Components/lis2de12/lis2de12.c ****   *
2361:../Drivers/BSP/Components/lis2de12/lis2de12.c ****   */
2362:../Drivers/BSP/Components/lis2de12/lis2de12.c **** int32_t lis2de12_pin_sdo_sa0_mode_set( lis2de12_sdo_pu_disc_t val )
2363:../Drivers/BSP/Components/lis2de12/lis2de12.c **** {
 6893              		.loc 1 2363 1
 6894              		.cfi_startproc
 6895              		@ args = 0, pretend = 0, frame = 16
 6896              		@ frame_needed = 1, uses_anonymous_args = 0
 6897 0000 80B5     		push	{r7, lr}
 6898              	.LCFI531:
 6899              		.cfi_def_cfa_offset 8
 6900              		.cfi_offset 7, -8
 6901              		.cfi_offset 14, -4
 6902 0002 84B0     		sub	sp, sp, #16
 6903              	.LCFI532:
 6904              		.cfi_def_cfa_offset 24
 6905 0004 00AF     		add	r7, sp, #0
 6906              	.LCFI533:
 6907              		.cfi_def_cfa_register 7
 6908 0006 0346     		mov	r3, r0
 6909 0008 FB71     		strb	r3, [r7, #7]
2364:../Drivers/BSP/Components/lis2de12/lis2de12.c ****     lis2de12_ctrl_reg0_t ctrl_reg0;
2365:../Drivers/BSP/Components/lis2de12/lis2de12.c ****     int32_t              ret;
2366:../Drivers/BSP/Components/lis2de12/lis2de12.c **** 
2367:../Drivers/BSP/Components/lis2de12/lis2de12.c ****     ret = lis2de12_read_reg( LIS2DE12_CTRL_REG0, ( uint8_t* ) &ctrl_reg0, 1 );
 6910              		.loc 1 2367 11
 6911 000a 07F10803 		add	r3, r7, #8
ARM GAS  /tmp/ccjphgoR.s 			page 160


 6912 000e 0122     		movs	r2, #1
 6913 0010 1946     		mov	r1, r3
 6914 0012 1E20     		movs	r0, #30
 6915 0014 FFF7FEFF 		bl	lis2de12_read_reg
 6916 0018 F860     		str	r0, [r7, #12]
2368:../Drivers/BSP/Components/lis2de12/lis2de12.c ****     if( ret == 0 )
 6917              		.loc 1 2368 7
 6918 001a FB68     		ldr	r3, [r7, #12]
 6919 001c 002B     		cmp	r3, #0
 6920 001e 0FD1     		bne	.L362
2369:../Drivers/BSP/Components/lis2de12/lis2de12.c ****     {
2370:../Drivers/BSP/Components/lis2de12/lis2de12.c ****         ctrl_reg0.sdo_pu_disc = ( uint8_t ) val;
 6921              		.loc 1 2370 33
 6922 0020 FB79     		ldrb	r3, [r7, #7]
 6923 0022 03F00103 		and	r3, r3, #1
 6924 0026 DAB2     		uxtb	r2, r3
 6925              		.loc 1 2370 31
 6926 0028 3B7A     		ldrb	r3, [r7, #8]
 6927 002a 62F3C713 		bfi	r3, r2, #7, #1
 6928 002e 3B72     		strb	r3, [r7, #8]
2371:../Drivers/BSP/Components/lis2de12/lis2de12.c ****         ret                   = lis2de12_write_reg( LIS2DE12_CTRL_REG0, ( uint8_t* ) &ctrl_reg0, 1 
 6929              		.loc 1 2371 33
 6930 0030 07F10803 		add	r3, r7, #8
 6931 0034 0122     		movs	r2, #1
 6932 0036 1946     		mov	r1, r3
 6933 0038 1E20     		movs	r0, #30
 6934 003a FFF7FEFF 		bl	lis2de12_write_reg
 6935 003e F860     		str	r0, [r7, #12]
 6936              	.L362:
2372:../Drivers/BSP/Components/lis2de12/lis2de12.c ****     }
2373:../Drivers/BSP/Components/lis2de12/lis2de12.c ****     return ret;
 6937              		.loc 1 2373 12
 6938 0040 FB68     		ldr	r3, [r7, #12]
2374:../Drivers/BSP/Components/lis2de12/lis2de12.c **** }
 6939              		.loc 1 2374 1
 6940 0042 1846     		mov	r0, r3
 6941 0044 1037     		adds	r7, r7, #16
 6942              	.LCFI534:
 6943              		.cfi_def_cfa_offset 8
 6944 0046 BD46     		mov	sp, r7
 6945              	.LCFI535:
 6946              		.cfi_def_cfa_register 13
 6947              		@ sp needed
 6948 0048 80BD     		pop	{r7, pc}
 6949              		.cfi_endproc
 6950              	.LFE696:
 6952              		.section	.text.lis2de12_pin_sdo_sa0_mode_get,"ax",%progbits
 6953              		.align	1
 6954              		.global	lis2de12_pin_sdo_sa0_mode_get
 6955              		.syntax unified
 6956              		.thumb
 6957              		.thumb_func
 6958              		.fpu fpv4-sp-d16
 6960              	lis2de12_pin_sdo_sa0_mode_get:
 6961              	.LFB697:
2375:../Drivers/BSP/Components/lis2de12/lis2de12.c **** 
2376:../Drivers/BSP/Components/lis2de12/lis2de12.c **** /**
ARM GAS  /tmp/ccjphgoR.s 			page 161


2377:../Drivers/BSP/Components/lis2de12/lis2de12.c ****   * @brief  Connect/Disconnect SDO/SA0 internal pull-up.[get]
2378:../Drivers/BSP/Components/lis2de12/lis2de12.c ****   *
2379:../Drivers/BSP/Components/lis2de12/lis2de12.c **** 
2380:../Drivers/BSP/Components/lis2de12/lis2de12.c ****   * @param  val      Get the values of sdo_pu_disc in reg CTRL_REG0
2381:../Drivers/BSP/Components/lis2de12/lis2de12.c ****   * @retval          interface status (MANDATORY: return 0 -> no Error)
2382:../Drivers/BSP/Components/lis2de12/lis2de12.c ****   *
2383:../Drivers/BSP/Components/lis2de12/lis2de12.c ****   */
2384:../Drivers/BSP/Components/lis2de12/lis2de12.c **** int32_t lis2de12_pin_sdo_sa0_mode_get( lis2de12_sdo_pu_disc_t* val )
2385:../Drivers/BSP/Components/lis2de12/lis2de12.c **** {
 6962              		.loc 1 2385 1
 6963              		.cfi_startproc
 6964              		@ args = 0, pretend = 0, frame = 16
 6965              		@ frame_needed = 1, uses_anonymous_args = 0
 6966 0000 80B5     		push	{r7, lr}
 6967              	.LCFI536:
 6968              		.cfi_def_cfa_offset 8
 6969              		.cfi_offset 7, -8
 6970              		.cfi_offset 14, -4
 6971 0002 84B0     		sub	sp, sp, #16
 6972              	.LCFI537:
 6973              		.cfi_def_cfa_offset 24
 6974 0004 00AF     		add	r7, sp, #0
 6975              	.LCFI538:
 6976              		.cfi_def_cfa_register 7
 6977 0006 7860     		str	r0, [r7, #4]
2386:../Drivers/BSP/Components/lis2de12/lis2de12.c ****     lis2de12_ctrl_reg0_t ctrl_reg0;
2387:../Drivers/BSP/Components/lis2de12/lis2de12.c ****     int32_t              ret;
2388:../Drivers/BSP/Components/lis2de12/lis2de12.c **** 
2389:../Drivers/BSP/Components/lis2de12/lis2de12.c ****     ret = lis2de12_read_reg( LIS2DE12_CTRL_REG0, ( uint8_t* ) &ctrl_reg0, 1 );
 6978              		.loc 1 2389 11
 6979 0008 07F10803 		add	r3, r7, #8
 6980 000c 0122     		movs	r2, #1
 6981 000e 1946     		mov	r1, r3
 6982 0010 1E20     		movs	r0, #30
 6983 0012 FFF7FEFF 		bl	lis2de12_read_reg
 6984 0016 F860     		str	r0, [r7, #12]
2390:../Drivers/BSP/Components/lis2de12/lis2de12.c ****     switch( ctrl_reg0.sdo_pu_disc )
 6985              		.loc 1 2390 22
 6986 0018 3B7A     		ldrb	r3, [r7, #8]
 6987 001a C3F3C013 		ubfx	r3, r3, #7, #1
 6988 001e DBB2     		uxtb	r3, r3
 6989              		.loc 1 2390 5
 6990 0020 002B     		cmp	r3, #0
 6991 0022 02D0     		beq	.L365
 6992 0024 012B     		cmp	r3, #1
 6993 0026 04D0     		beq	.L366
 6994 0028 07E0     		b	.L370
 6995              	.L365:
2391:../Drivers/BSP/Components/lis2de12/lis2de12.c ****     {
2392:../Drivers/BSP/Components/lis2de12/lis2de12.c ****     case LIS2DE12_PULL_UP_DISCONNECT:
2393:../Drivers/BSP/Components/lis2de12/lis2de12.c ****         *val = LIS2DE12_PULL_UP_DISCONNECT;
 6996              		.loc 1 2393 14
 6997 002a 7B68     		ldr	r3, [r7, #4]
 6998 002c 0022     		movs	r2, #0
 6999 002e 1A70     		strb	r2, [r3]
2394:../Drivers/BSP/Components/lis2de12/lis2de12.c ****         break;
 7000              		.loc 1 2394 9
ARM GAS  /tmp/ccjphgoR.s 			page 162


 7001 0030 07E0     		b	.L368
 7002              	.L366:
2395:../Drivers/BSP/Components/lis2de12/lis2de12.c ****     case LIS2DE12_PULL_UP_CONNECT:
2396:../Drivers/BSP/Components/lis2de12/lis2de12.c ****         *val = LIS2DE12_PULL_UP_CONNECT;
 7003              		.loc 1 2396 14
 7004 0032 7B68     		ldr	r3, [r7, #4]
 7005 0034 0122     		movs	r2, #1
 7006 0036 1A70     		strb	r2, [r3]
2397:../Drivers/BSP/Components/lis2de12/lis2de12.c ****         break;
 7007              		.loc 1 2397 9
 7008 0038 03E0     		b	.L368
 7009              	.L370:
2398:../Drivers/BSP/Components/lis2de12/lis2de12.c ****     default:
2399:../Drivers/BSP/Components/lis2de12/lis2de12.c ****         *val = LIS2DE12_PULL_UP_DISCONNECT;
 7010              		.loc 1 2399 14
 7011 003a 7B68     		ldr	r3, [r7, #4]
 7012 003c 0022     		movs	r2, #0
 7013 003e 1A70     		strb	r2, [r3]
2400:../Drivers/BSP/Components/lis2de12/lis2de12.c ****         break;
 7014              		.loc 1 2400 9
 7015 0040 00BF     		nop
 7016              	.L368:
2401:../Drivers/BSP/Components/lis2de12/lis2de12.c ****     }
2402:../Drivers/BSP/Components/lis2de12/lis2de12.c ****     return ret;
 7017              		.loc 1 2402 12
 7018 0042 FB68     		ldr	r3, [r7, #12]
2403:../Drivers/BSP/Components/lis2de12/lis2de12.c **** }
 7019              		.loc 1 2403 1
 7020 0044 1846     		mov	r0, r3
 7021 0046 1037     		adds	r7, r7, #16
 7022              	.LCFI539:
 7023              		.cfi_def_cfa_offset 8
 7024 0048 BD46     		mov	sp, r7
 7025              	.LCFI540:
 7026              		.cfi_def_cfa_register 13
 7027              		@ sp needed
 7028 004a 80BD     		pop	{r7, pc}
 7029              		.cfi_endproc
 7030              	.LFE697:
 7032              		.section	.text.lis2de12_spi_mode_set,"ax",%progbits
 7033              		.align	1
 7034              		.global	lis2de12_spi_mode_set
 7035              		.syntax unified
 7036              		.thumb
 7037              		.thumb_func
 7038              		.fpu fpv4-sp-d16
 7040              	lis2de12_spi_mode_set:
 7041              	.LFB698:
2404:../Drivers/BSP/Components/lis2de12/lis2de12.c **** 
2405:../Drivers/BSP/Components/lis2de12/lis2de12.c **** /**
2406:../Drivers/BSP/Components/lis2de12/lis2de12.c ****   * @brief  SPI Serial Interface Mode selection.[set]
2407:../Drivers/BSP/Components/lis2de12/lis2de12.c ****   *
2408:../Drivers/BSP/Components/lis2de12/lis2de12.c **** 
2409:../Drivers/BSP/Components/lis2de12/lis2de12.c ****   * @param  val      change the values of sim in reg CTRL_REG4
2410:../Drivers/BSP/Components/lis2de12/lis2de12.c ****   * @retval          interface status (MANDATORY: return 0 -> no Error)
2411:../Drivers/BSP/Components/lis2de12/lis2de12.c ****   *
2412:../Drivers/BSP/Components/lis2de12/lis2de12.c ****   */
ARM GAS  /tmp/ccjphgoR.s 			page 163


2413:../Drivers/BSP/Components/lis2de12/lis2de12.c **** int32_t lis2de12_spi_mode_set( lis2de12_sim_t val )
2414:../Drivers/BSP/Components/lis2de12/lis2de12.c **** {
 7042              		.loc 1 2414 1
 7043              		.cfi_startproc
 7044              		@ args = 0, pretend = 0, frame = 16
 7045              		@ frame_needed = 1, uses_anonymous_args = 0
 7046 0000 80B5     		push	{r7, lr}
 7047              	.LCFI541:
 7048              		.cfi_def_cfa_offset 8
 7049              		.cfi_offset 7, -8
 7050              		.cfi_offset 14, -4
 7051 0002 84B0     		sub	sp, sp, #16
 7052              	.LCFI542:
 7053              		.cfi_def_cfa_offset 24
 7054 0004 00AF     		add	r7, sp, #0
 7055              	.LCFI543:
 7056              		.cfi_def_cfa_register 7
 7057 0006 0346     		mov	r3, r0
 7058 0008 FB71     		strb	r3, [r7, #7]
2415:../Drivers/BSP/Components/lis2de12/lis2de12.c ****     lis2de12_ctrl_reg4_t ctrl_reg4;
2416:../Drivers/BSP/Components/lis2de12/lis2de12.c ****     int32_t              ret;
2417:../Drivers/BSP/Components/lis2de12/lis2de12.c **** 
2418:../Drivers/BSP/Components/lis2de12/lis2de12.c ****     ret = lis2de12_read_reg( LIS2DE12_CTRL_REG4, ( uint8_t* ) &ctrl_reg4, 1 );
 7059              		.loc 1 2418 11
 7060 000a 07F10803 		add	r3, r7, #8
 7061 000e 0122     		movs	r2, #1
 7062 0010 1946     		mov	r1, r3
 7063 0012 2320     		movs	r0, #35
 7064 0014 FFF7FEFF 		bl	lis2de12_read_reg
 7065 0018 F860     		str	r0, [r7, #12]
2419:../Drivers/BSP/Components/lis2de12/lis2de12.c ****     if( ret == 0 )
 7066              		.loc 1 2419 7
 7067 001a FB68     		ldr	r3, [r7, #12]
 7068 001c 002B     		cmp	r3, #0
 7069 001e 0FD1     		bne	.L372
2420:../Drivers/BSP/Components/lis2de12/lis2de12.c ****     {
2421:../Drivers/BSP/Components/lis2de12/lis2de12.c ****         ctrl_reg4.sim = ( uint8_t ) val;
 7070              		.loc 1 2421 25
 7071 0020 FB79     		ldrb	r3, [r7, #7]
 7072 0022 03F00103 		and	r3, r3, #1
 7073 0026 DAB2     		uxtb	r2, r3
 7074              		.loc 1 2421 23
 7075 0028 3B7A     		ldrb	r3, [r7, #8]
 7076 002a 62F30003 		bfi	r3, r2, #0, #1
 7077 002e 3B72     		strb	r3, [r7, #8]
2422:../Drivers/BSP/Components/lis2de12/lis2de12.c ****         ret           = lis2de12_write_reg( LIS2DE12_CTRL_REG4, ( uint8_t* ) &ctrl_reg4, 1 );
 7078              		.loc 1 2422 25
 7079 0030 07F10803 		add	r3, r7, #8
 7080 0034 0122     		movs	r2, #1
 7081 0036 1946     		mov	r1, r3
 7082 0038 2320     		movs	r0, #35
 7083 003a FFF7FEFF 		bl	lis2de12_write_reg
 7084 003e F860     		str	r0, [r7, #12]
 7085              	.L372:
2423:../Drivers/BSP/Components/lis2de12/lis2de12.c ****     }
2424:../Drivers/BSP/Components/lis2de12/lis2de12.c ****     return ret;
 7086              		.loc 1 2424 12
ARM GAS  /tmp/ccjphgoR.s 			page 164


 7087 0040 FB68     		ldr	r3, [r7, #12]
2425:../Drivers/BSP/Components/lis2de12/lis2de12.c **** }
 7088              		.loc 1 2425 1
 7089 0042 1846     		mov	r0, r3
 7090 0044 1037     		adds	r7, r7, #16
 7091              	.LCFI544:
 7092              		.cfi_def_cfa_offset 8
 7093 0046 BD46     		mov	sp, r7
 7094              	.LCFI545:
 7095              		.cfi_def_cfa_register 13
 7096              		@ sp needed
 7097 0048 80BD     		pop	{r7, pc}
 7098              		.cfi_endproc
 7099              	.LFE698:
 7101              		.section	.text.lis2de12_spi_mode_get,"ax",%progbits
 7102              		.align	1
 7103              		.global	lis2de12_spi_mode_get
 7104              		.syntax unified
 7105              		.thumb
 7106              		.thumb_func
 7107              		.fpu fpv4-sp-d16
 7109              	lis2de12_spi_mode_get:
 7110              	.LFB699:
2426:../Drivers/BSP/Components/lis2de12/lis2de12.c **** 
2427:../Drivers/BSP/Components/lis2de12/lis2de12.c **** /**
2428:../Drivers/BSP/Components/lis2de12/lis2de12.c ****   * @brief  SPI Serial Interface Mode selection.[get]
2429:../Drivers/BSP/Components/lis2de12/lis2de12.c ****   *
2430:../Drivers/BSP/Components/lis2de12/lis2de12.c **** 
2431:../Drivers/BSP/Components/lis2de12/lis2de12.c ****   * @param  val      Get the values of sim in reg CTRL_REG4
2432:../Drivers/BSP/Components/lis2de12/lis2de12.c ****   * @retval          interface status (MANDATORY: return 0 -> no Error)
2433:../Drivers/BSP/Components/lis2de12/lis2de12.c ****   *
2434:../Drivers/BSP/Components/lis2de12/lis2de12.c ****   */
2435:../Drivers/BSP/Components/lis2de12/lis2de12.c **** int32_t lis2de12_spi_mode_get( lis2de12_sim_t* val )
2436:../Drivers/BSP/Components/lis2de12/lis2de12.c **** {
 7111              		.loc 1 2436 1
 7112              		.cfi_startproc
 7113              		@ args = 0, pretend = 0, frame = 16
 7114              		@ frame_needed = 1, uses_anonymous_args = 0
 7115 0000 80B5     		push	{r7, lr}
 7116              	.LCFI546:
 7117              		.cfi_def_cfa_offset 8
 7118              		.cfi_offset 7, -8
 7119              		.cfi_offset 14, -4
 7120 0002 84B0     		sub	sp, sp, #16
 7121              	.LCFI547:
 7122              		.cfi_def_cfa_offset 24
 7123 0004 00AF     		add	r7, sp, #0
 7124              	.LCFI548:
 7125              		.cfi_def_cfa_register 7
 7126 0006 7860     		str	r0, [r7, #4]
2437:../Drivers/BSP/Components/lis2de12/lis2de12.c ****     lis2de12_ctrl_reg4_t ctrl_reg4;
2438:../Drivers/BSP/Components/lis2de12/lis2de12.c ****     int32_t              ret;
2439:../Drivers/BSP/Components/lis2de12/lis2de12.c **** 
2440:../Drivers/BSP/Components/lis2de12/lis2de12.c ****     ret = lis2de12_read_reg( LIS2DE12_CTRL_REG4, ( uint8_t* ) &ctrl_reg4, 1 );
 7127              		.loc 1 2440 11
 7128 0008 07F10803 		add	r3, r7, #8
 7129 000c 0122     		movs	r2, #1
ARM GAS  /tmp/ccjphgoR.s 			page 165


 7130 000e 1946     		mov	r1, r3
 7131 0010 2320     		movs	r0, #35
 7132 0012 FFF7FEFF 		bl	lis2de12_read_reg
 7133 0016 F860     		str	r0, [r7, #12]
2441:../Drivers/BSP/Components/lis2de12/lis2de12.c ****     switch( ctrl_reg4.sim )
 7134              		.loc 1 2441 22
 7135 0018 3B7A     		ldrb	r3, [r7, #8]
 7136 001a C3F30003 		ubfx	r3, r3, #0, #1
 7137 001e DBB2     		uxtb	r3, r3
 7138              		.loc 1 2441 5
 7139 0020 002B     		cmp	r3, #0
 7140 0022 02D0     		beq	.L375
 7141 0024 012B     		cmp	r3, #1
 7142 0026 04D0     		beq	.L376
 7143 0028 07E0     		b	.L380
 7144              	.L375:
2442:../Drivers/BSP/Components/lis2de12/lis2de12.c ****     {
2443:../Drivers/BSP/Components/lis2de12/lis2de12.c ****     case LIS2DE12_SPI_4_WIRE:
2444:../Drivers/BSP/Components/lis2de12/lis2de12.c ****         *val = LIS2DE12_SPI_4_WIRE;
 7145              		.loc 1 2444 14
 7146 002a 7B68     		ldr	r3, [r7, #4]
 7147 002c 0022     		movs	r2, #0
 7148 002e 1A70     		strb	r2, [r3]
2445:../Drivers/BSP/Components/lis2de12/lis2de12.c ****         break;
 7149              		.loc 1 2445 9
 7150 0030 07E0     		b	.L378
 7151              	.L376:
2446:../Drivers/BSP/Components/lis2de12/lis2de12.c ****     case LIS2DE12_SPI_3_WIRE:
2447:../Drivers/BSP/Components/lis2de12/lis2de12.c ****         *val = LIS2DE12_SPI_3_WIRE;
 7152              		.loc 1 2447 14
 7153 0032 7B68     		ldr	r3, [r7, #4]
 7154 0034 0122     		movs	r2, #1
 7155 0036 1A70     		strb	r2, [r3]
2448:../Drivers/BSP/Components/lis2de12/lis2de12.c ****         break;
 7156              		.loc 1 2448 9
 7157 0038 03E0     		b	.L378
 7158              	.L380:
2449:../Drivers/BSP/Components/lis2de12/lis2de12.c ****     default:
2450:../Drivers/BSP/Components/lis2de12/lis2de12.c ****         *val = LIS2DE12_SPI_4_WIRE;
 7159              		.loc 1 2450 14
 7160 003a 7B68     		ldr	r3, [r7, #4]
 7161 003c 0022     		movs	r2, #0
 7162 003e 1A70     		strb	r2, [r3]
2451:../Drivers/BSP/Components/lis2de12/lis2de12.c ****         break;
 7163              		.loc 1 2451 9
 7164 0040 00BF     		nop
 7165              	.L378:
2452:../Drivers/BSP/Components/lis2de12/lis2de12.c ****     }
2453:../Drivers/BSP/Components/lis2de12/lis2de12.c ****     return ret;
 7166              		.loc 1 2453 12
 7167 0042 FB68     		ldr	r3, [r7, #12]
2454:../Drivers/BSP/Components/lis2de12/lis2de12.c **** }
 7168              		.loc 1 2454 1
 7169 0044 1846     		mov	r0, r3
 7170 0046 1037     		adds	r7, r7, #16
 7171              	.LCFI549:
 7172              		.cfi_def_cfa_offset 8
ARM GAS  /tmp/ccjphgoR.s 			page 166


 7173 0048 BD46     		mov	sp, r7
 7174              	.LCFI550:
 7175              		.cfi_def_cfa_register 13
 7176              		@ sp needed
 7177 004a 80BD     		pop	{r7, pc}
 7178              		.cfi_endproc
 7179              	.LFE699:
 7181              		.section	.text.accelerometer_irq1_init,"ax",%progbits
 7182              		.align	1
 7183              		.syntax unified
 7184              		.thumb
 7185              		.thumb_func
 7186              		.fpu fpv4-sp-d16
 7188              	accelerometer_irq1_init:
 7189              	.LFB700:
2455:../Drivers/BSP/Components/lis2de12/lis2de12.c **** 
2456:../Drivers/BSP/Components/lis2de12/lis2de12.c **** /***************************************************************************\
2457:../Drivers/BSP/Components/lis2de12/lis2de12.c ****  * Local Function Definition
2458:../Drivers/BSP/Components/lis2de12/lis2de12.c **** \***************************************************************************/
2459:../Drivers/BSP/Components/lis2de12/lis2de12.c **** 
2460:../Drivers/BSP/Components/lis2de12/lis2de12.c **** static void accelerometer_irq1_init( void )
2461:../Drivers/BSP/Components/lis2de12/lis2de12.c **** {
 7190              		.loc 1 2461 1
 7191              		.cfi_startproc
 7192              		@ args = 0, pretend = 0, frame = 0
 7193              		@ frame_needed = 1, uses_anonymous_args = 0
 7194 0000 80B5     		push	{r7, lr}
 7195              	.LCFI551:
 7196              		.cfi_def_cfa_offset 8
 7197              		.cfi_offset 7, -8
 7198              		.cfi_offset 14, -4
 7199 0002 00AF     		add	r7, sp, #0
 7200              	.LCFI552:
 7201              		.cfi_def_cfa_register 7
2462:../Drivers/BSP/Components/lis2de12/lis2de12.c ****     hal_gpio_init_in( lis2de12_int1.pin, HAL_GPIO_PULL_MODE_NONE, HAL_GPIO_IRQ_MODE_RISING, &lis2de
 7202              		.loc 1 2462 5
 7203 0004 044B     		ldr	r3, .L382
 7204 0006 B3F90000 		ldrsh	r0, [r3]
 7205 000a 034B     		ldr	r3, .L382
 7206 000c 0122     		movs	r2, #1
 7207 000e 0021     		movs	r1, #0
 7208 0010 FFF7FEFF 		bl	hal_gpio_init_in
2463:../Drivers/BSP/Components/lis2de12/lis2de12.c **** }
 7209              		.loc 1 2463 1
 7210 0014 00BF     		nop
 7211 0016 80BD     		pop	{r7, pc}
 7212              	.L383:
 7213              		.align	2
 7214              	.L382:
 7215 0018 00000000 		.word	lis2de12_int1
 7216              		.cfi_endproc
 7217              	.LFE700:
 7219              		.section	.text.lis2de12_int1_irq_handler,"ax",%progbits
 7220              		.align	1
 7221              		.global	lis2de12_int1_irq_handler
 7222              		.syntax unified
 7223              		.thumb
ARM GAS  /tmp/ccjphgoR.s 			page 167


 7224              		.thumb_func
 7225              		.fpu fpv4-sp-d16
 7227              	lis2de12_int1_irq_handler:
 7228              	.LFB701:
2464:../Drivers/BSP/Components/lis2de12/lis2de12.c **** 
2465:../Drivers/BSP/Components/lis2de12/lis2de12.c **** void lis2de12_int1_irq_handler( void* obj ) { accelerometer_irq1_state = true; }
 7229              		.loc 1 2465 45
 7230              		.cfi_startproc
 7231              		@ args = 0, pretend = 0, frame = 8
 7232              		@ frame_needed = 1, uses_anonymous_args = 0
 7233              		@ link register save eliminated.
 7234 0000 80B4     		push	{r7}
 7235              	.LCFI553:
 7236              		.cfi_def_cfa_offset 4
 7237              		.cfi_offset 7, -4
 7238 0002 83B0     		sub	sp, sp, #12
 7239              	.LCFI554:
 7240              		.cfi_def_cfa_offset 16
 7241 0004 00AF     		add	r7, sp, #0
 7242              	.LCFI555:
 7243              		.cfi_def_cfa_register 7
 7244 0006 7860     		str	r0, [r7, #4]
 7245              		.loc 1 2465 72
 7246 0008 044B     		ldr	r3, .L385
 7247 000a 0122     		movs	r2, #1
 7248 000c 1A70     		strb	r2, [r3]
 7249              		.loc 1 2465 80
 7250 000e 00BF     		nop
 7251 0010 0C37     		adds	r7, r7, #12
 7252              	.LCFI556:
 7253              		.cfi_def_cfa_offset 4
 7254 0012 BD46     		mov	sp, r7
 7255              	.LCFI557:
 7256              		.cfi_def_cfa_register 13
 7257              		@ sp needed
 7258 0014 5DF8047B 		ldr	r7, [sp], #4
 7259              	.LCFI558:
 7260              		.cfi_restore 7
 7261              		.cfi_def_cfa_offset 0
 7262 0018 7047     		bx	lr
 7263              	.L386:
 7264 001a 00BF     		.align	2
 7265              	.L385:
 7266 001c 00000000 		.word	accelerometer_irq1_state
 7267              		.cfi_endproc
 7268              	.LFE701:
 7270              		.text
 7271              	.Letext0:
 7272              		.file 2 "/usr/lib/gcc/arm-none-eabi/10.3.1/include/stdint.h"
 7273              		.file 3 "/usr/include/newlib/math.h"
 7274              		.file 4 "../Drivers/BSP/Components/lis2de12/lis2de12.h"
 7275              		.file 5 "../Inc/smtc_hal/smtc_hal_gpio_pin_names.h"
 7276              		.file 6 "../Inc/smtc_hal/smtc_hal_gpio.h"
 7277              		.file 7 "../Drivers/CMSIS/Device/ST/STM32L4xx/Include/stm32l4xx.h"
 7278              		.file 8 "../Src/radio/lr1110_modem/src/lr1110_modem_lorawan.h"
ARM GAS  /tmp/ccjphgoR.s 			page 168


DEFINED SYMBOLS
                            *ABS*:0000000000000000 lis2de12.c
     /tmp/ccjphgoR.s:20     .bss.accelerometer_irq1_state:0000000000000000 accelerometer_irq1_state
     /tmp/ccjphgoR.s:21     .bss.accelerometer_irq1_state:0000000000000000 $d
     /tmp/ccjphgoR.s:25     .bss.who_am_i:0000000000000000 who_am_i
     /tmp/ccjphgoR.s:26     .bss.who_am_i:0000000000000000 $d
     /tmp/ccjphgoR.s:32     .bss.data_raw_acceleration:0000000000000000 data_raw_acceleration
     /tmp/ccjphgoR.s:29     .bss.data_raw_acceleration:0000000000000000 $d
     /tmp/ccjphgoR.s:39     .bss.acceleration_mg:0000000000000000 acceleration_mg
     /tmp/ccjphgoR.s:36     .bss.acceleration_mg:0000000000000000 $d
     /tmp/ccjphgoR.s:42     .data.lis2de12_int1:0000000000000000 $d
     /tmp/ccjphgoR.s:45     .data.lis2de12_int1:0000000000000000 lis2de12_int1
     /tmp/ccjphgoR.s:7227   .text.lis2de12_int1_irq_handler:0000000000000000 lis2de12_int1_irq_handler
     /tmp/ccjphgoR.s:51     .text.accelerometer_init:0000000000000000 $t
     /tmp/ccjphgoR.s:59     .text.accelerometer_init:0000000000000000 accelerometer_init
     /tmp/ccjphgoR.s:2934   .text.lis2de12_device_id_get:0000000000000000 lis2de12_device_id_get
     /tmp/ccjphgoR.s:1558   .text.lis2de12_data_rate_set:0000000000000000 lis2de12_data_rate_set
     /tmp/ccjphgoR.s:2411   .text.lis2de12_block_data_update_set:0000000000000000 lis2de12_block_data_update_set
     /tmp/ccjphgoR.s:5431   .text.lis2de12_fifo_mode_set:0000000000000000 lis2de12_fifo_mode_set
     /tmp/ccjphgoR.s:2242   .text.lis2de12_full_scale_set:0000000000000000 lis2de12_full_scale_set
     /tmp/ccjphgoR.s:760    .text.lis2de12_read_reg:0000000000000000 lis2de12_read_reg
     /tmp/ccjphgoR.s:822    .text.lis2de12_write_reg:0000000000000000 lis2de12_write_reg
     /tmp/ccjphgoR.s:4095   .text.lis2de12_high_pass_int_conf_set:0000000000000000 lis2de12_high_pass_int_conf_set
     /tmp/ccjphgoR.s:4296   .text.lis2de12_pin_int1_config_set:0000000000000000 lis2de12_pin_int1_config_set
     /tmp/ccjphgoR.s:4789   .text.lis2de12_int1_pin_notification_mode_set:0000000000000000 lis2de12_int1_pin_notification_mode_set
     /tmp/ccjphgoR.s:3313   .text.lis2de12_int1_gen_conf_set:0000000000000000 lis2de12_int1_gen_conf_set
     /tmp/ccjphgoR.s:3454   .text.lis2de12_int1_gen_threshold_set:0000000000000000 lis2de12_int1_gen_threshold_set
     /tmp/ccjphgoR.s:3579   .text.lis2de12_int1_gen_duration_set:0000000000000000 lis2de12_int1_gen_duration_set
     /tmp/ccjphgoR.s:7188   .text.accelerometer_irq1_init:0000000000000000 accelerometer_irq1_init
     /tmp/ccjphgoR.s:247    .text.accelerometer_init:000000000000012c $d
     /tmp/ccjphgoR.s:252    .text.is_accelerometer_detected_moved:0000000000000000 $t
     /tmp/ccjphgoR.s:259    .text.is_accelerometer_detected_moved:0000000000000000 is_accelerometer_detected_moved
     /tmp/ccjphgoR.s:3407   .text.lis2de12_int1_gen_source_get:0000000000000000 lis2de12_int1_gen_source_get
     /tmp/ccjphgoR.s:326    .text.is_accelerometer_detected_moved:0000000000000048 $d
     /tmp/ccjphgoR.s:331    .text.get_accelerometer_irq1_state:0000000000000000 $t
     /tmp/ccjphgoR.s:338    .text.get_accelerometer_irq1_state:0000000000000000 get_accelerometer_irq1_state
     /tmp/ccjphgoR.s:369    .text.get_accelerometer_irq1_state:0000000000000014 $d
     /tmp/ccjphgoR.s:374    .text.is_accelerometer_double_tap_detected:0000000000000000 $t
     /tmp/ccjphgoR.s:381    .text.is_accelerometer_double_tap_detected:0000000000000000 is_accelerometer_double_tap_detected
     /tmp/ccjphgoR.s:5969   .text.lis2de12_tap_source_get:0000000000000000 lis2de12_tap_source_get
     /tmp/ccjphgoR.s:445    .text.acc_read_raw_data:0000000000000000 $t
     /tmp/ccjphgoR.s:452    .text.acc_read_raw_data:0000000000000000 acc_read_raw_data
     /tmp/ccjphgoR.s:2634   .text.lis2de12_xl_data_ready_get:0000000000000000 lis2de12_xl_data_ready_get
     /tmp/ccjphgoR.s:2746   .text.lis2de12_acceleration_raw_get:0000000000000000 lis2de12_acceleration_raw_get
     /tmp/ccjphgoR.s:2793   .text.lis2de12_acceleration_raw_get_x:0000000000000000 lis2de12_acceleration_raw_get_x
     /tmp/ccjphgoR.s:2840   .text.lis2de12_acceleration_raw_get_y:0000000000000000 lis2de12_acceleration_raw_get_y
     /tmp/ccjphgoR.s:2887   .text.lis2de12_acceleration_raw_get_z:0000000000000000 lis2de12_acceleration_raw_get_z
     /tmp/ccjphgoR.s:884    .text.lis2de12_from_fs2_to_mg:0000000000000000 lis2de12_from_fs2_to_mg
     /tmp/ccjphgoR.s:555    .text.acc_read_raw_data:000000000000009c $d
     /tmp/ccjphgoR.s:563    .text.acc_get_raw_x:0000000000000000 $t
     /tmp/ccjphgoR.s:570    .text.acc_get_raw_x:0000000000000000 acc_get_raw_x
     /tmp/ccjphgoR.s:604    .text.acc_get_raw_x:0000000000000020 $d
     /tmp/ccjphgoR.s:609    .text.acc_get_raw_y:0000000000000000 $t
     /tmp/ccjphgoR.s:616    .text.acc_get_raw_y:0000000000000000 acc_get_raw_y
     /tmp/ccjphgoR.s:650    .text.acc_get_raw_y:0000000000000020 $d
     /tmp/ccjphgoR.s:655    .text.acc_get_raw_z:0000000000000000 $t
     /tmp/ccjphgoR.s:662    .text.acc_get_raw_z:0000000000000000 acc_get_raw_z
ARM GAS  /tmp/ccjphgoR.s 			page 169


     /tmp/ccjphgoR.s:696    .text.acc_get_raw_z:0000000000000020 $d
     /tmp/ccjphgoR.s:701    .text.acc_get_temperature:0000000000000000 $t
     /tmp/ccjphgoR.s:708    .text.acc_get_temperature:0000000000000000 acc_get_temperature
     /tmp/ccjphgoR.s:1224   .text.lis2de12_temp_data_ready_get:0000000000000000 lis2de12_temp_data_ready_get
     /tmp/ccjphgoR.s:1336   .text.lis2de12_temperature_raw_get:0000000000000000 lis2de12_temperature_raw_get
     /tmp/ccjphgoR.s:753    .text.lis2de12_read_reg:0000000000000000 $t
     /tmp/ccjphgoR.s:815    .text.lis2de12_write_reg:0000000000000000 $t
     /tmp/ccjphgoR.s:877    .text.lis2de12_from_fs2_to_mg:0000000000000000 $t
     /tmp/ccjphgoR.s:930    .text.lis2de12_from_fs2_to_mg:0000000000000034 $d
     /tmp/ccjphgoR.s:935    .text.lis2de12_from_fs4_to_mg:0000000000000000 $t
     /tmp/ccjphgoR.s:942    .text.lis2de12_from_fs4_to_mg:0000000000000000 lis2de12_from_fs4_to_mg
     /tmp/ccjphgoR.s:988    .text.lis2de12_from_fs4_to_mg:0000000000000034 $d
     /tmp/ccjphgoR.s:994    .text.lis2de12_from_fs8_to_mg:0000000000000000 $t
     /tmp/ccjphgoR.s:1001   .text.lis2de12_from_fs8_to_mg:0000000000000000 lis2de12_from_fs8_to_mg
     /tmp/ccjphgoR.s:1047   .text.lis2de12_from_fs8_to_mg:0000000000000034 $d
     /tmp/ccjphgoR.s:1053   .text.lis2de12_from_fs16_to_mg:0000000000000000 $t
     /tmp/ccjphgoR.s:1060   .text.lis2de12_from_fs16_to_mg:0000000000000000 lis2de12_from_fs16_to_mg
     /tmp/ccjphgoR.s:1106   .text.lis2de12_from_fs16_to_mg:0000000000000034 $d
     /tmp/ccjphgoR.s:1112   .text.lis2de12_from_lsb_to_celsius:0000000000000000 $t
     /tmp/ccjphgoR.s:1119   .text.lis2de12_from_lsb_to_celsius:0000000000000000 lis2de12_from_lsb_to_celsius
     /tmp/ccjphgoR.s:1165   .text.lis2de12_from_lsb_to_celsius:0000000000000034 $d
     /tmp/ccjphgoR.s:1170   .text.lis2de12_temp_status_reg_get:0000000000000000 $t
     /tmp/ccjphgoR.s:1177   .text.lis2de12_temp_status_reg_get:0000000000000000 lis2de12_temp_status_reg_get
     /tmp/ccjphgoR.s:1217   .text.lis2de12_temp_data_ready_get:0000000000000000 $t
     /tmp/ccjphgoR.s:1273   .text.lis2de12_temp_data_ovr_get:0000000000000000 $t
     /tmp/ccjphgoR.s:1280   .text.lis2de12_temp_data_ovr_get:0000000000000000 lis2de12_temp_data_ovr_get
     /tmp/ccjphgoR.s:1329   .text.lis2de12_temperature_raw_get:0000000000000000 $t
     /tmp/ccjphgoR.s:1402   .text.lis2de12_temperature_meas_set:0000000000000000 $t
     /tmp/ccjphgoR.s:1409   .text.lis2de12_temperature_meas_set:0000000000000000 lis2de12_temperature_meas_set
     /tmp/ccjphgoR.s:1471   .text.lis2de12_temperature_meas_get:0000000000000000 $t
     /tmp/ccjphgoR.s:1478   .text.lis2de12_temperature_meas_get:0000000000000000 lis2de12_temperature_meas_get
     /tmp/ccjphgoR.s:1551   .text.lis2de12_data_rate_set:0000000000000000 $t
     /tmp/ccjphgoR.s:1624   .text.lis2de12_data_rate_get:0000000000000000 $t
     /tmp/ccjphgoR.s:1631   .text.lis2de12_data_rate_get:0000000000000000 lis2de12_data_rate_get
     /tmp/ccjphgoR.s:1667   .text.lis2de12_data_rate_get:000000000000002c $d
     /tmp/ccjphgoR.s:1677   .text.lis2de12_data_rate_get:0000000000000054 $t
     /tmp/ccjphgoR.s:1772   .text.lis2de12_high_pass_on_outputs_set:0000000000000000 $t
     /tmp/ccjphgoR.s:1779   .text.lis2de12_high_pass_on_outputs_set:0000000000000000 lis2de12_high_pass_on_outputs_set
     /tmp/ccjphgoR.s:1840   .text.lis2de12_high_pass_on_outputs_get:0000000000000000 $t
     /tmp/ccjphgoR.s:1847   .text.lis2de12_high_pass_on_outputs_get:0000000000000000 lis2de12_high_pass_on_outputs_get
     /tmp/ccjphgoR.s:1897   .text.lis2de12_high_pass_bandwidth_set:0000000000000000 $t
     /tmp/ccjphgoR.s:1904   .text.lis2de12_high_pass_bandwidth_set:0000000000000000 lis2de12_high_pass_bandwidth_set
     /tmp/ccjphgoR.s:1966   .text.lis2de12_high_pass_bandwidth_get:0000000000000000 $t
     /tmp/ccjphgoR.s:1973   .text.lis2de12_high_pass_bandwidth_get:0000000000000000 lis2de12_high_pass_bandwidth_get
     /tmp/ccjphgoR.s:2009   .text.lis2de12_high_pass_bandwidth_get:000000000000002c $d
     /tmp/ccjphgoR.s:2013   .text.lis2de12_high_pass_bandwidth_get:000000000000003c $t
     /tmp/ccjphgoR.s:2066   .text.lis2de12_high_pass_mode_set:0000000000000000 $t
     /tmp/ccjphgoR.s:2073   .text.lis2de12_high_pass_mode_set:0000000000000000 lis2de12_high_pass_mode_set
     /tmp/ccjphgoR.s:2135   .text.lis2de12_high_pass_mode_get:0000000000000000 $t
     /tmp/ccjphgoR.s:2142   .text.lis2de12_high_pass_mode_get:0000000000000000 lis2de12_high_pass_mode_get
     /tmp/ccjphgoR.s:2178   .text.lis2de12_high_pass_mode_get:000000000000002c $d
     /tmp/ccjphgoR.s:2182   .text.lis2de12_high_pass_mode_get:000000000000003c $t
     /tmp/ccjphgoR.s:2235   .text.lis2de12_full_scale_set:0000000000000000 $t
     /tmp/ccjphgoR.s:2304   .text.lis2de12_full_scale_get:0000000000000000 $t
     /tmp/ccjphgoR.s:2311   .text.lis2de12_full_scale_get:0000000000000000 lis2de12_full_scale_get
     /tmp/ccjphgoR.s:2347   .text.lis2de12_full_scale_get:000000000000002c $d
     /tmp/ccjphgoR.s:2351   .text.lis2de12_full_scale_get:000000000000003c $t
ARM GAS  /tmp/ccjphgoR.s 			page 170


     /tmp/ccjphgoR.s:2404   .text.lis2de12_block_data_update_set:0000000000000000 $t
     /tmp/ccjphgoR.s:2476   .text.lis2de12_block_data_update_get:0000000000000000 $t
     /tmp/ccjphgoR.s:2483   .text.lis2de12_block_data_update_get:0000000000000000 lis2de12_block_data_update_get
     /tmp/ccjphgoR.s:2533   .text.lis2de12_filter_reference_set:0000000000000000 $t
     /tmp/ccjphgoR.s:2540   .text.lis2de12_filter_reference_set:0000000000000000 lis2de12_filter_reference_set
     /tmp/ccjphgoR.s:2580   .text.lis2de12_filter_reference_get:0000000000000000 $t
     /tmp/ccjphgoR.s:2587   .text.lis2de12_filter_reference_get:0000000000000000 lis2de12_filter_reference_get
     /tmp/ccjphgoR.s:2627   .text.lis2de12_xl_data_ready_get:0000000000000000 $t
     /tmp/ccjphgoR.s:2683   .text.lis2de12_xl_data_ovr_get:0000000000000000 $t
     /tmp/ccjphgoR.s:2690   .text.lis2de12_xl_data_ovr_get:0000000000000000 lis2de12_xl_data_ovr_get
     /tmp/ccjphgoR.s:2739   .text.lis2de12_acceleration_raw_get:0000000000000000 $t
     /tmp/ccjphgoR.s:2786   .text.lis2de12_acceleration_raw_get_x:0000000000000000 $t
     /tmp/ccjphgoR.s:2833   .text.lis2de12_acceleration_raw_get_y:0000000000000000 $t
     /tmp/ccjphgoR.s:2880   .text.lis2de12_acceleration_raw_get_z:0000000000000000 $t
     /tmp/ccjphgoR.s:2927   .text.lis2de12_device_id_get:0000000000000000 $t
     /tmp/ccjphgoR.s:2974   .text.lis2de12_self_test_set:0000000000000000 $t
     /tmp/ccjphgoR.s:2981   .text.lis2de12_self_test_set:0000000000000000 lis2de12_self_test_set
     /tmp/ccjphgoR.s:3043   .text.lis2de12_self_test_get:0000000000000000 $t
     /tmp/ccjphgoR.s:3050   .text.lis2de12_self_test_get:0000000000000000 lis2de12_self_test_get
     /tmp/ccjphgoR.s:3134   .text.lis2de12_boot_set:0000000000000000 $t
     /tmp/ccjphgoR.s:3141   .text.lis2de12_boot_set:0000000000000000 lis2de12_boot_set
     /tmp/ccjphgoR.s:3202   .text.lis2de12_boot_get:0000000000000000 $t
     /tmp/ccjphgoR.s:3209   .text.lis2de12_boot_get:0000000000000000 lis2de12_boot_get
     /tmp/ccjphgoR.s:3259   .text.lis2de12_status_get:0000000000000000 $t
     /tmp/ccjphgoR.s:3266   .text.lis2de12_status_get:0000000000000000 lis2de12_status_get
     /tmp/ccjphgoR.s:3306   .text.lis2de12_int1_gen_conf_set:0000000000000000 $t
     /tmp/ccjphgoR.s:3353   .text.lis2de12_int1_gen_conf_get:0000000000000000 $t
     /tmp/ccjphgoR.s:3360   .text.lis2de12_int1_gen_conf_get:0000000000000000 lis2de12_int1_gen_conf_get
     /tmp/ccjphgoR.s:3400   .text.lis2de12_int1_gen_source_get:0000000000000000 $t
     /tmp/ccjphgoR.s:3447   .text.lis2de12_int1_gen_threshold_set:0000000000000000 $t
     /tmp/ccjphgoR.s:3515   .text.lis2de12_int1_gen_threshold_get:0000000000000000 $t
     /tmp/ccjphgoR.s:3522   .text.lis2de12_int1_gen_threshold_get:0000000000000000 lis2de12_int1_gen_threshold_get
     /tmp/ccjphgoR.s:3572   .text.lis2de12_int1_gen_duration_set:0000000000000000 $t
     /tmp/ccjphgoR.s:3640   .text.lis2de12_int1_gen_duration_get:0000000000000000 $t
     /tmp/ccjphgoR.s:3647   .text.lis2de12_int1_gen_duration_get:0000000000000000 lis2de12_int1_gen_duration_get
     /tmp/ccjphgoR.s:3697   .text.lis2de12_int2_gen_conf_set:0000000000000000 $t
     /tmp/ccjphgoR.s:3704   .text.lis2de12_int2_gen_conf_set:0000000000000000 lis2de12_int2_gen_conf_set
     /tmp/ccjphgoR.s:3744   .text.lis2de12_int2_gen_conf_get:0000000000000000 $t
     /tmp/ccjphgoR.s:3751   .text.lis2de12_int2_gen_conf_get:0000000000000000 lis2de12_int2_gen_conf_get
     /tmp/ccjphgoR.s:3791   .text.lis2de12_int2_gen_source_get:0000000000000000 $t
     /tmp/ccjphgoR.s:3798   .text.lis2de12_int2_gen_source_get:0000000000000000 lis2de12_int2_gen_source_get
     /tmp/ccjphgoR.s:3838   .text.lis2de12_int2_gen_threshold_set:0000000000000000 $t
     /tmp/ccjphgoR.s:3845   .text.lis2de12_int2_gen_threshold_set:0000000000000000 lis2de12_int2_gen_threshold_set
     /tmp/ccjphgoR.s:3906   .text.lis2de12_int2_gen_threshold_get:0000000000000000 $t
     /tmp/ccjphgoR.s:3913   .text.lis2de12_int2_gen_threshold_get:0000000000000000 lis2de12_int2_gen_threshold_get
     /tmp/ccjphgoR.s:3963   .text.lis2de12_int2_gen_duration_set:0000000000000000 $t
     /tmp/ccjphgoR.s:3970   .text.lis2de12_int2_gen_duration_set:0000000000000000 lis2de12_int2_gen_duration_set
     /tmp/ccjphgoR.s:4031   .text.lis2de12_int2_gen_duration_get:0000000000000000 $t
     /tmp/ccjphgoR.s:4038   .text.lis2de12_int2_gen_duration_get:0000000000000000 lis2de12_int2_gen_duration_get
     /tmp/ccjphgoR.s:4088   .text.lis2de12_high_pass_int_conf_set:0000000000000000 $t
     /tmp/ccjphgoR.s:4157   .text.lis2de12_high_pass_int_conf_get:0000000000000000 $t
     /tmp/ccjphgoR.s:4164   .text.lis2de12_high_pass_int_conf_get:0000000000000000 lis2de12_high_pass_int_conf_get
     /tmp/ccjphgoR.s:4200   .text.lis2de12_high_pass_int_conf_get:000000000000002c $d
     /tmp/ccjphgoR.s:4208   .text.lis2de12_high_pass_int_conf_get:000000000000004c $t
     /tmp/ccjphgoR.s:4289   .text.lis2de12_pin_int1_config_set:0000000000000000 $t
     /tmp/ccjphgoR.s:4336   .text.lis2de12_pin_int1_config_get:0000000000000000 $t
     /tmp/ccjphgoR.s:4343   .text.lis2de12_pin_int1_config_get:0000000000000000 lis2de12_pin_int1_config_get
ARM GAS  /tmp/ccjphgoR.s 			page 171


     /tmp/ccjphgoR.s:4383   .text.lis2de12_int2_pin_detect_4d_set:0000000000000000 $t
     /tmp/ccjphgoR.s:4390   .text.lis2de12_int2_pin_detect_4d_set:0000000000000000 lis2de12_int2_pin_detect_4d_set
     /tmp/ccjphgoR.s:4451   .text.lis2de12_int2_pin_detect_4d_get:0000000000000000 $t
     /tmp/ccjphgoR.s:4458   .text.lis2de12_int2_pin_detect_4d_get:0000000000000000 lis2de12_int2_pin_detect_4d_get
     /tmp/ccjphgoR.s:4508   .text.lis2de12_int2_pin_notification_mode_set:0000000000000000 $t
     /tmp/ccjphgoR.s:4515   .text.lis2de12_int2_pin_notification_mode_set:0000000000000000 lis2de12_int2_pin_notification_mode_set
     /tmp/ccjphgoR.s:4577   .text.lis2de12_int2_pin_notification_mode_get:0000000000000000 $t
     /tmp/ccjphgoR.s:4584   .text.lis2de12_int2_pin_notification_mode_get:0000000000000000 lis2de12_int2_pin_notification_mode_get
     /tmp/ccjphgoR.s:4657   .text.lis2de12_int1_pin_detect_4d_set:0000000000000000 $t
     /tmp/ccjphgoR.s:4664   .text.lis2de12_int1_pin_detect_4d_set:0000000000000000 lis2de12_int1_pin_detect_4d_set
     /tmp/ccjphgoR.s:4725   .text.lis2de12_int1_pin_detect_4d_get:0000000000000000 $t
     /tmp/ccjphgoR.s:4732   .text.lis2de12_int1_pin_detect_4d_get:0000000000000000 lis2de12_int1_pin_detect_4d_get
     /tmp/ccjphgoR.s:4782   .text.lis2de12_int1_pin_notification_mode_set:0000000000000000 $t
     /tmp/ccjphgoR.s:4851   .text.lis2de12_int1_pin_notification_mode_get:0000000000000000 $t
     /tmp/ccjphgoR.s:4858   .text.lis2de12_int1_pin_notification_mode_get:0000000000000000 lis2de12_int1_pin_notification_mode_get
     /tmp/ccjphgoR.s:4931   .text.lis2de12_pin_int2_config_set:0000000000000000 $t
     /tmp/ccjphgoR.s:4938   .text.lis2de12_pin_int2_config_set:0000000000000000 lis2de12_pin_int2_config_set
     /tmp/ccjphgoR.s:4978   .text.lis2de12_pin_int2_config_get:0000000000000000 $t
     /tmp/ccjphgoR.s:4985   .text.lis2de12_pin_int2_config_get:0000000000000000 lis2de12_pin_int2_config_get
     /tmp/ccjphgoR.s:5025   .text.lis2de12_fifo_set:0000000000000000 $t
     /tmp/ccjphgoR.s:5032   .text.lis2de12_fifo_set:0000000000000000 lis2de12_fifo_set
     /tmp/ccjphgoR.s:5093   .text.lis2de12_fifo_get:0000000000000000 $t
     /tmp/ccjphgoR.s:5100   .text.lis2de12_fifo_get:0000000000000000 lis2de12_fifo_get
     /tmp/ccjphgoR.s:5150   .text.lis2de12_fifo_watermark_set:0000000000000000 $t
     /tmp/ccjphgoR.s:5157   .text.lis2de12_fifo_watermark_set:0000000000000000 lis2de12_fifo_watermark_set
     /tmp/ccjphgoR.s:5218   .text.lis2de12_fifo_watermark_get:0000000000000000 $t
     /tmp/ccjphgoR.s:5225   .text.lis2de12_fifo_watermark_get:0000000000000000 lis2de12_fifo_watermark_get
     /tmp/ccjphgoR.s:5275   .text.lis2de12_fifo_trigger_event_set:0000000000000000 $t
     /tmp/ccjphgoR.s:5282   .text.lis2de12_fifo_trigger_event_set:0000000000000000 lis2de12_fifo_trigger_event_set
     /tmp/ccjphgoR.s:5344   .text.lis2de12_fifo_trigger_event_get:0000000000000000 $t
     /tmp/ccjphgoR.s:5351   .text.lis2de12_fifo_trigger_event_get:0000000000000000 lis2de12_fifo_trigger_event_get
     /tmp/ccjphgoR.s:5424   .text.lis2de12_fifo_mode_set:0000000000000000 $t
     /tmp/ccjphgoR.s:5493   .text.lis2de12_fifo_mode_get:0000000000000000 $t
     /tmp/ccjphgoR.s:5500   .text.lis2de12_fifo_mode_get:0000000000000000 lis2de12_fifo_mode_get
     /tmp/ccjphgoR.s:5536   .text.lis2de12_fifo_mode_get:000000000000002c $d
     /tmp/ccjphgoR.s:5540   .text.lis2de12_fifo_mode_get:000000000000003c $t
     /tmp/ccjphgoR.s:5593   .text.lis2de12_fifo_status_get:0000000000000000 $t
     /tmp/ccjphgoR.s:5600   .text.lis2de12_fifo_status_get:0000000000000000 lis2de12_fifo_status_get
     /tmp/ccjphgoR.s:5640   .text.lis2de12_fifo_data_level_get:0000000000000000 $t
     /tmp/ccjphgoR.s:5647   .text.lis2de12_fifo_data_level_get:0000000000000000 lis2de12_fifo_data_level_get
     /tmp/ccjphgoR.s:5697   .text.lis2de12_fifo_empty_flag_get:0000000000000000 $t
     /tmp/ccjphgoR.s:5704   .text.lis2de12_fifo_empty_flag_get:0000000000000000 lis2de12_fifo_empty_flag_get
     /tmp/ccjphgoR.s:5754   .text.lis2de12_fifo_ovr_flag_get:0000000000000000 $t
     /tmp/ccjphgoR.s:5761   .text.lis2de12_fifo_ovr_flag_get:0000000000000000 lis2de12_fifo_ovr_flag_get
     /tmp/ccjphgoR.s:5811   .text.lis2de12_fifo_fth_flag_get:0000000000000000 $t
     /tmp/ccjphgoR.s:5818   .text.lis2de12_fifo_fth_flag_get:0000000000000000 lis2de12_fifo_fth_flag_get
     /tmp/ccjphgoR.s:5868   .text.lis2de12_tap_conf_set:0000000000000000 $t
     /tmp/ccjphgoR.s:5875   .text.lis2de12_tap_conf_set:0000000000000000 lis2de12_tap_conf_set
     /tmp/ccjphgoR.s:5915   .text.lis2de12_tap_conf_get:0000000000000000 $t
     /tmp/ccjphgoR.s:5922   .text.lis2de12_tap_conf_get:0000000000000000 lis2de12_tap_conf_get
     /tmp/ccjphgoR.s:5962   .text.lis2de12_tap_source_get:0000000000000000 $t
     /tmp/ccjphgoR.s:6009   .text.lis2de12_tap_threshold_set:0000000000000000 $t
     /tmp/ccjphgoR.s:6016   .text.lis2de12_tap_threshold_set:0000000000000000 lis2de12_tap_threshold_set
     /tmp/ccjphgoR.s:6077   .text.lis2de12_tap_threshold_get:0000000000000000 $t
     /tmp/ccjphgoR.s:6084   .text.lis2de12_tap_threshold_get:0000000000000000 lis2de12_tap_threshold_get
     /tmp/ccjphgoR.s:6134   .text.lis2de12_tap_notification_mode_set:0000000000000000 $t
     /tmp/ccjphgoR.s:6141   .text.lis2de12_tap_notification_mode_set:0000000000000000 lis2de12_tap_notification_mode_set
ARM GAS  /tmp/ccjphgoR.s 			page 172


     /tmp/ccjphgoR.s:6203   .text.lis2de12_tap_notification_mode_get:0000000000000000 $t
     /tmp/ccjphgoR.s:6210   .text.lis2de12_tap_notification_mode_get:0000000000000000 lis2de12_tap_notification_mode_get
     /tmp/ccjphgoR.s:6283   .text.lis2de12_shock_dur_set:0000000000000000 $t
     /tmp/ccjphgoR.s:6290   .text.lis2de12_shock_dur_set:0000000000000000 lis2de12_shock_dur_set
     /tmp/ccjphgoR.s:6351   .text.lis2de12_shock_dur_get:0000000000000000 $t
     /tmp/ccjphgoR.s:6358   .text.lis2de12_shock_dur_get:0000000000000000 lis2de12_shock_dur_get
     /tmp/ccjphgoR.s:6408   .text.lis2de12_quiet_dur_set:0000000000000000 $t
     /tmp/ccjphgoR.s:6415   .text.lis2de12_quiet_dur_set:0000000000000000 lis2de12_quiet_dur_set
     /tmp/ccjphgoR.s:6472   .text.lis2de12_quiet_dur_get:0000000000000000 $t
     /tmp/ccjphgoR.s:6479   .text.lis2de12_quiet_dur_get:0000000000000000 lis2de12_quiet_dur_get
     /tmp/ccjphgoR.s:6525   .text.lis2de12_double_tap_timeout_set:0000000000000000 $t
     /tmp/ccjphgoR.s:6532   .text.lis2de12_double_tap_timeout_set:0000000000000000 lis2de12_double_tap_timeout_set
     /tmp/ccjphgoR.s:6589   .text.lis2de12_double_tap_timeout_get:0000000000000000 $t
     /tmp/ccjphgoR.s:6596   .text.lis2de12_double_tap_timeout_get:0000000000000000 lis2de12_double_tap_timeout_get
     /tmp/ccjphgoR.s:6642   .text.lis2de12_act_threshold_set:0000000000000000 $t
     /tmp/ccjphgoR.s:6649   .text.lis2de12_act_threshold_set:0000000000000000 lis2de12_act_threshold_set
     /tmp/ccjphgoR.s:6710   .text.lis2de12_act_threshold_get:0000000000000000 $t
     /tmp/ccjphgoR.s:6717   .text.lis2de12_act_threshold_get:0000000000000000 lis2de12_act_threshold_get
     /tmp/ccjphgoR.s:6767   .text.lis2de12_act_timeout_set:0000000000000000 $t
     /tmp/ccjphgoR.s:6774   .text.lis2de12_act_timeout_set:0000000000000000 lis2de12_act_timeout_set
     /tmp/ccjphgoR.s:6831   .text.lis2de12_act_timeout_get:0000000000000000 $t
     /tmp/ccjphgoR.s:6838   .text.lis2de12_act_timeout_get:0000000000000000 lis2de12_act_timeout_get
     /tmp/ccjphgoR.s:6884   .text.lis2de12_pin_sdo_sa0_mode_set:0000000000000000 $t
     /tmp/ccjphgoR.s:6891   .text.lis2de12_pin_sdo_sa0_mode_set:0000000000000000 lis2de12_pin_sdo_sa0_mode_set
     /tmp/ccjphgoR.s:6953   .text.lis2de12_pin_sdo_sa0_mode_get:0000000000000000 $t
     /tmp/ccjphgoR.s:6960   .text.lis2de12_pin_sdo_sa0_mode_get:0000000000000000 lis2de12_pin_sdo_sa0_mode_get
     /tmp/ccjphgoR.s:7033   .text.lis2de12_spi_mode_set:0000000000000000 $t
     /tmp/ccjphgoR.s:7040   .text.lis2de12_spi_mode_set:0000000000000000 lis2de12_spi_mode_set
     /tmp/ccjphgoR.s:7102   .text.lis2de12_spi_mode_get:0000000000000000 $t
     /tmp/ccjphgoR.s:7109   .text.lis2de12_spi_mode_get:0000000000000000 lis2de12_spi_mode_get
     /tmp/ccjphgoR.s:7182   .text.accelerometer_irq1_init:0000000000000000 $t
     /tmp/ccjphgoR.s:7215   .text.accelerometer_irq1_init:0000000000000018 $d
     /tmp/ccjphgoR.s:7220   .text.lis2de12_int1_irq_handler:0000000000000000 $t
     /tmp/ccjphgoR.s:7266   .text.lis2de12_int1_irq_handler:000000000000001c $d

UNDEFINED SYMBOLS
memset
hal_i2c_read_buffer
hal_i2c_write_buffer
hal_gpio_init_in
