ARM GAS  /tmp/ccAPcP1Z.s 			page 1


   1              		.cpu cortex-m4
   2              		.eabi_attribute 27, 1
   3              		.eabi_attribute 28, 1
   4              		.eabi_attribute 20, 1
   5              		.eabi_attribute 21, 1
   6              		.eabi_attribute 23, 3
   7              		.eabi_attribute 24, 1
   8              		.eabi_attribute 25, 1
   9              		.eabi_attribute 26, 1
  10              		.eabi_attribute 30, 6
  11              		.eabi_attribute 34, 1
  12              		.eabi_attribute 18, 4
  13              		.file	"stm32l4xx_ll_spi.c"
  14              		.text
  15              	.Ltext0:
  16              		.cfi_sections	.debug_frame
  17              		.section	.text.LL_SPI_IsEnabled,"ax",%progbits
  18              		.align	1
  19              		.arch armv7e-m
  20              		.syntax unified
  21              		.thumb
  22              		.thumb_func
  23              		.fpu fpv4-sp-d16
  25              	LL_SPI_IsEnabled:
  26              	.LFB315:
  27              		.file 1 "../Drivers/STM32L4xx_HAL_Driver/Inc/stm32l4xx_ll_spi.h"
   1:../Drivers/STM32L4xx_HAL_Driver/Inc/stm32l4xx_ll_spi.h **** /**
   2:../Drivers/STM32L4xx_HAL_Driver/Inc/stm32l4xx_ll_spi.h ****   ******************************************************************************
   3:../Drivers/STM32L4xx_HAL_Driver/Inc/stm32l4xx_ll_spi.h ****   * @file    stm32l4xx_ll_spi.h
   4:../Drivers/STM32L4xx_HAL_Driver/Inc/stm32l4xx_ll_spi.h ****   * @author  MCD Application Team
   5:../Drivers/STM32L4xx_HAL_Driver/Inc/stm32l4xx_ll_spi.h ****   * @brief   Header file of SPI LL module.
   6:../Drivers/STM32L4xx_HAL_Driver/Inc/stm32l4xx_ll_spi.h ****   ******************************************************************************
   7:../Drivers/STM32L4xx_HAL_Driver/Inc/stm32l4xx_ll_spi.h ****   * @attention
   8:../Drivers/STM32L4xx_HAL_Driver/Inc/stm32l4xx_ll_spi.h ****   *
   9:../Drivers/STM32L4xx_HAL_Driver/Inc/stm32l4xx_ll_spi.h ****   * <h2><center>&copy; Copyright (c) 2017 STMicroelectronics.
  10:../Drivers/STM32L4xx_HAL_Driver/Inc/stm32l4xx_ll_spi.h ****   * All rights reserved.</center></h2>
  11:../Drivers/STM32L4xx_HAL_Driver/Inc/stm32l4xx_ll_spi.h ****   *
  12:../Drivers/STM32L4xx_HAL_Driver/Inc/stm32l4xx_ll_spi.h ****   * This software component is licensed by ST under BSD 3-Clause license,
  13:../Drivers/STM32L4xx_HAL_Driver/Inc/stm32l4xx_ll_spi.h ****   * the "License"; You may not use this file except in compliance with the
  14:../Drivers/STM32L4xx_HAL_Driver/Inc/stm32l4xx_ll_spi.h ****   * License. You may obtain a copy of the License at:
  15:../Drivers/STM32L4xx_HAL_Driver/Inc/stm32l4xx_ll_spi.h ****   *                        opensource.org/licenses/BSD-3-Clause
  16:../Drivers/STM32L4xx_HAL_Driver/Inc/stm32l4xx_ll_spi.h ****   *
  17:../Drivers/STM32L4xx_HAL_Driver/Inc/stm32l4xx_ll_spi.h ****   ******************************************************************************
  18:../Drivers/STM32L4xx_HAL_Driver/Inc/stm32l4xx_ll_spi.h ****   */
  19:../Drivers/STM32L4xx_HAL_Driver/Inc/stm32l4xx_ll_spi.h **** 
  20:../Drivers/STM32L4xx_HAL_Driver/Inc/stm32l4xx_ll_spi.h **** /* Define to prevent recursive inclusion -------------------------------------*/
  21:../Drivers/STM32L4xx_HAL_Driver/Inc/stm32l4xx_ll_spi.h **** #ifndef STM32L4xx_LL_SPI_H
  22:../Drivers/STM32L4xx_HAL_Driver/Inc/stm32l4xx_ll_spi.h **** #define STM32L4xx_LL_SPI_H
  23:../Drivers/STM32L4xx_HAL_Driver/Inc/stm32l4xx_ll_spi.h **** 
  24:../Drivers/STM32L4xx_HAL_Driver/Inc/stm32l4xx_ll_spi.h **** #ifdef __cplusplus
  25:../Drivers/STM32L4xx_HAL_Driver/Inc/stm32l4xx_ll_spi.h **** extern "C" {
  26:../Drivers/STM32L4xx_HAL_Driver/Inc/stm32l4xx_ll_spi.h **** #endif
  27:../Drivers/STM32L4xx_HAL_Driver/Inc/stm32l4xx_ll_spi.h **** 
  28:../Drivers/STM32L4xx_HAL_Driver/Inc/stm32l4xx_ll_spi.h **** /* Includes ------------------------------------------------------------------*/
  29:../Drivers/STM32L4xx_HAL_Driver/Inc/stm32l4xx_ll_spi.h **** #include "stm32l4xx.h"
  30:../Drivers/STM32L4xx_HAL_Driver/Inc/stm32l4xx_ll_spi.h **** 
  31:../Drivers/STM32L4xx_HAL_Driver/Inc/stm32l4xx_ll_spi.h **** /** @addtogroup STM32L4xx_LL_Driver
ARM GAS  /tmp/ccAPcP1Z.s 			page 2


  32:../Drivers/STM32L4xx_HAL_Driver/Inc/stm32l4xx_ll_spi.h ****   * @{
  33:../Drivers/STM32L4xx_HAL_Driver/Inc/stm32l4xx_ll_spi.h ****   */
  34:../Drivers/STM32L4xx_HAL_Driver/Inc/stm32l4xx_ll_spi.h **** 
  35:../Drivers/STM32L4xx_HAL_Driver/Inc/stm32l4xx_ll_spi.h **** #if defined (SPI1) || defined (SPI2) || defined (SPI3)
  36:../Drivers/STM32L4xx_HAL_Driver/Inc/stm32l4xx_ll_spi.h **** 
  37:../Drivers/STM32L4xx_HAL_Driver/Inc/stm32l4xx_ll_spi.h **** /** @defgroup SPI_LL SPI
  38:../Drivers/STM32L4xx_HAL_Driver/Inc/stm32l4xx_ll_spi.h ****   * @{
  39:../Drivers/STM32L4xx_HAL_Driver/Inc/stm32l4xx_ll_spi.h ****   */
  40:../Drivers/STM32L4xx_HAL_Driver/Inc/stm32l4xx_ll_spi.h **** 
  41:../Drivers/STM32L4xx_HAL_Driver/Inc/stm32l4xx_ll_spi.h **** /* Private types -------------------------------------------------------------*/
  42:../Drivers/STM32L4xx_HAL_Driver/Inc/stm32l4xx_ll_spi.h **** /* Private variables ---------------------------------------------------------*/
  43:../Drivers/STM32L4xx_HAL_Driver/Inc/stm32l4xx_ll_spi.h **** /* Private macros ------------------------------------------------------------*/
  44:../Drivers/STM32L4xx_HAL_Driver/Inc/stm32l4xx_ll_spi.h **** 
  45:../Drivers/STM32L4xx_HAL_Driver/Inc/stm32l4xx_ll_spi.h **** /* Exported types ------------------------------------------------------------*/
  46:../Drivers/STM32L4xx_HAL_Driver/Inc/stm32l4xx_ll_spi.h **** #if defined(USE_FULL_LL_DRIVER)
  47:../Drivers/STM32L4xx_HAL_Driver/Inc/stm32l4xx_ll_spi.h **** /** @defgroup SPI_LL_ES_INIT SPI Exported Init structure
  48:../Drivers/STM32L4xx_HAL_Driver/Inc/stm32l4xx_ll_spi.h ****   * @{
  49:../Drivers/STM32L4xx_HAL_Driver/Inc/stm32l4xx_ll_spi.h ****   */
  50:../Drivers/STM32L4xx_HAL_Driver/Inc/stm32l4xx_ll_spi.h **** 
  51:../Drivers/STM32L4xx_HAL_Driver/Inc/stm32l4xx_ll_spi.h **** /**
  52:../Drivers/STM32L4xx_HAL_Driver/Inc/stm32l4xx_ll_spi.h ****   * @brief  SPI Init structures definition
  53:../Drivers/STM32L4xx_HAL_Driver/Inc/stm32l4xx_ll_spi.h ****   */
  54:../Drivers/STM32L4xx_HAL_Driver/Inc/stm32l4xx_ll_spi.h **** typedef struct
  55:../Drivers/STM32L4xx_HAL_Driver/Inc/stm32l4xx_ll_spi.h **** {
  56:../Drivers/STM32L4xx_HAL_Driver/Inc/stm32l4xx_ll_spi.h ****   uint32_t TransferDirection;       /*!< Specifies the SPI unidirectional or bidirectional data mod
  57:../Drivers/STM32L4xx_HAL_Driver/Inc/stm32l4xx_ll_spi.h ****                                          This parameter can be a value of @ref SPI_LL_EC_TRANSFER_M
  58:../Drivers/STM32L4xx_HAL_Driver/Inc/stm32l4xx_ll_spi.h **** 
  59:../Drivers/STM32L4xx_HAL_Driver/Inc/stm32l4xx_ll_spi.h ****                                          This feature can be modified afterwards using unitary func
  60:../Drivers/STM32L4xx_HAL_Driver/Inc/stm32l4xx_ll_spi.h **** 
  61:../Drivers/STM32L4xx_HAL_Driver/Inc/stm32l4xx_ll_spi.h ****   uint32_t Mode;                    /*!< Specifies the SPI mode (Master/Slave).
  62:../Drivers/STM32L4xx_HAL_Driver/Inc/stm32l4xx_ll_spi.h ****                                          This parameter can be a value of @ref SPI_LL_EC_MODE.
  63:../Drivers/STM32L4xx_HAL_Driver/Inc/stm32l4xx_ll_spi.h **** 
  64:../Drivers/STM32L4xx_HAL_Driver/Inc/stm32l4xx_ll_spi.h ****                                          This feature can be modified afterwards using unitary func
  65:../Drivers/STM32L4xx_HAL_Driver/Inc/stm32l4xx_ll_spi.h **** 
  66:../Drivers/STM32L4xx_HAL_Driver/Inc/stm32l4xx_ll_spi.h ****   uint32_t DataWidth;               /*!< Specifies the SPI data width.
  67:../Drivers/STM32L4xx_HAL_Driver/Inc/stm32l4xx_ll_spi.h ****                                          This parameter can be a value of @ref SPI_LL_EC_DATAWIDTH.
  68:../Drivers/STM32L4xx_HAL_Driver/Inc/stm32l4xx_ll_spi.h **** 
  69:../Drivers/STM32L4xx_HAL_Driver/Inc/stm32l4xx_ll_spi.h ****                                          This feature can be modified afterwards using unitary func
  70:../Drivers/STM32L4xx_HAL_Driver/Inc/stm32l4xx_ll_spi.h **** 
  71:../Drivers/STM32L4xx_HAL_Driver/Inc/stm32l4xx_ll_spi.h ****   uint32_t ClockPolarity;           /*!< Specifies the serial clock steady state.
  72:../Drivers/STM32L4xx_HAL_Driver/Inc/stm32l4xx_ll_spi.h ****                                          This parameter can be a value of @ref SPI_LL_EC_POLARITY.
  73:../Drivers/STM32L4xx_HAL_Driver/Inc/stm32l4xx_ll_spi.h **** 
  74:../Drivers/STM32L4xx_HAL_Driver/Inc/stm32l4xx_ll_spi.h ****                                          This feature can be modified afterwards using unitary func
  75:../Drivers/STM32L4xx_HAL_Driver/Inc/stm32l4xx_ll_spi.h **** 
  76:../Drivers/STM32L4xx_HAL_Driver/Inc/stm32l4xx_ll_spi.h ****   uint32_t ClockPhase;              /*!< Specifies the clock active edge for the bit capture.
  77:../Drivers/STM32L4xx_HAL_Driver/Inc/stm32l4xx_ll_spi.h ****                                          This parameter can be a value of @ref SPI_LL_EC_PHASE.
  78:../Drivers/STM32L4xx_HAL_Driver/Inc/stm32l4xx_ll_spi.h **** 
  79:../Drivers/STM32L4xx_HAL_Driver/Inc/stm32l4xx_ll_spi.h ****                                          This feature can be modified afterwards using unitary func
  80:../Drivers/STM32L4xx_HAL_Driver/Inc/stm32l4xx_ll_spi.h **** 
  81:../Drivers/STM32L4xx_HAL_Driver/Inc/stm32l4xx_ll_spi.h ****   uint32_t NSS;                     /*!< Specifies whether the NSS signal is managed by hardware (N
  82:../Drivers/STM32L4xx_HAL_Driver/Inc/stm32l4xx_ll_spi.h ****                                          This parameter can be a value of @ref SPI_LL_EC_NSS_MODE.
  83:../Drivers/STM32L4xx_HAL_Driver/Inc/stm32l4xx_ll_spi.h **** 
  84:../Drivers/STM32L4xx_HAL_Driver/Inc/stm32l4xx_ll_spi.h ****                                          This feature can be modified afterwards using unitary func
  85:../Drivers/STM32L4xx_HAL_Driver/Inc/stm32l4xx_ll_spi.h **** 
  86:../Drivers/STM32L4xx_HAL_Driver/Inc/stm32l4xx_ll_spi.h ****   uint32_t BaudRate;                /*!< Specifies the BaudRate prescaler value which will be used 
  87:../Drivers/STM32L4xx_HAL_Driver/Inc/stm32l4xx_ll_spi.h ****                                          This parameter can be a value of @ref SPI_LL_EC_BAUDRATEPR
  88:../Drivers/STM32L4xx_HAL_Driver/Inc/stm32l4xx_ll_spi.h ****                                          @note The communication clock is derived from the master c
ARM GAS  /tmp/ccAPcP1Z.s 			page 3


  89:../Drivers/STM32L4xx_HAL_Driver/Inc/stm32l4xx_ll_spi.h **** 
  90:../Drivers/STM32L4xx_HAL_Driver/Inc/stm32l4xx_ll_spi.h ****                                          This feature can be modified afterwards using unitary func
  91:../Drivers/STM32L4xx_HAL_Driver/Inc/stm32l4xx_ll_spi.h **** 
  92:../Drivers/STM32L4xx_HAL_Driver/Inc/stm32l4xx_ll_spi.h ****   uint32_t BitOrder;                /*!< Specifies whether data transfers start from MSB or LSB bit
  93:../Drivers/STM32L4xx_HAL_Driver/Inc/stm32l4xx_ll_spi.h ****                                          This parameter can be a value of @ref SPI_LL_EC_BIT_ORDER.
  94:../Drivers/STM32L4xx_HAL_Driver/Inc/stm32l4xx_ll_spi.h **** 
  95:../Drivers/STM32L4xx_HAL_Driver/Inc/stm32l4xx_ll_spi.h ****                                          This feature can be modified afterwards using unitary func
  96:../Drivers/STM32L4xx_HAL_Driver/Inc/stm32l4xx_ll_spi.h **** 
  97:../Drivers/STM32L4xx_HAL_Driver/Inc/stm32l4xx_ll_spi.h ****   uint32_t CRCCalculation;          /*!< Specifies if the CRC calculation is enabled or not.
  98:../Drivers/STM32L4xx_HAL_Driver/Inc/stm32l4xx_ll_spi.h ****                                          This parameter can be a value of @ref SPI_LL_EC_CRC_CALCUL
  99:../Drivers/STM32L4xx_HAL_Driver/Inc/stm32l4xx_ll_spi.h **** 
 100:../Drivers/STM32L4xx_HAL_Driver/Inc/stm32l4xx_ll_spi.h ****                                          This feature can be modified afterwards using unitary func
 101:../Drivers/STM32L4xx_HAL_Driver/Inc/stm32l4xx_ll_spi.h **** 
 102:../Drivers/STM32L4xx_HAL_Driver/Inc/stm32l4xx_ll_spi.h ****   uint32_t CRCPoly;                 /*!< Specifies the polynomial used for the CRC calculation.
 103:../Drivers/STM32L4xx_HAL_Driver/Inc/stm32l4xx_ll_spi.h ****                                          This parameter must be a number between Min_Data = 0x00 an
 104:../Drivers/STM32L4xx_HAL_Driver/Inc/stm32l4xx_ll_spi.h **** 
 105:../Drivers/STM32L4xx_HAL_Driver/Inc/stm32l4xx_ll_spi.h ****                                          This feature can be modified afterwards using unitary func
 106:../Drivers/STM32L4xx_HAL_Driver/Inc/stm32l4xx_ll_spi.h **** 
 107:../Drivers/STM32L4xx_HAL_Driver/Inc/stm32l4xx_ll_spi.h **** } LL_SPI_InitTypeDef;
 108:../Drivers/STM32L4xx_HAL_Driver/Inc/stm32l4xx_ll_spi.h **** 
 109:../Drivers/STM32L4xx_HAL_Driver/Inc/stm32l4xx_ll_spi.h **** /**
 110:../Drivers/STM32L4xx_HAL_Driver/Inc/stm32l4xx_ll_spi.h ****   * @}
 111:../Drivers/STM32L4xx_HAL_Driver/Inc/stm32l4xx_ll_spi.h ****   */
 112:../Drivers/STM32L4xx_HAL_Driver/Inc/stm32l4xx_ll_spi.h **** #endif /* USE_FULL_LL_DRIVER */
 113:../Drivers/STM32L4xx_HAL_Driver/Inc/stm32l4xx_ll_spi.h **** 
 114:../Drivers/STM32L4xx_HAL_Driver/Inc/stm32l4xx_ll_spi.h **** /* Exported constants --------------------------------------------------------*/
 115:../Drivers/STM32L4xx_HAL_Driver/Inc/stm32l4xx_ll_spi.h **** /** @defgroup SPI_LL_Exported_Constants SPI Exported Constants
 116:../Drivers/STM32L4xx_HAL_Driver/Inc/stm32l4xx_ll_spi.h ****   * @{
 117:../Drivers/STM32L4xx_HAL_Driver/Inc/stm32l4xx_ll_spi.h ****   */
 118:../Drivers/STM32L4xx_HAL_Driver/Inc/stm32l4xx_ll_spi.h **** 
 119:../Drivers/STM32L4xx_HAL_Driver/Inc/stm32l4xx_ll_spi.h **** /** @defgroup SPI_LL_EC_GET_FLAG Get Flags Defines
 120:../Drivers/STM32L4xx_HAL_Driver/Inc/stm32l4xx_ll_spi.h ****   * @brief    Flags defines which can be used with LL_SPI_ReadReg function
 121:../Drivers/STM32L4xx_HAL_Driver/Inc/stm32l4xx_ll_spi.h ****   * @{
 122:../Drivers/STM32L4xx_HAL_Driver/Inc/stm32l4xx_ll_spi.h ****   */
 123:../Drivers/STM32L4xx_HAL_Driver/Inc/stm32l4xx_ll_spi.h **** #define LL_SPI_SR_RXNE                     SPI_SR_RXNE               /*!< Rx buffer not empty flag 
 124:../Drivers/STM32L4xx_HAL_Driver/Inc/stm32l4xx_ll_spi.h **** #define LL_SPI_SR_TXE                      SPI_SR_TXE                /*!< Tx buffer empty flag     
 125:../Drivers/STM32L4xx_HAL_Driver/Inc/stm32l4xx_ll_spi.h **** #define LL_SPI_SR_BSY                      SPI_SR_BSY                /*!< Busy flag                
 126:../Drivers/STM32L4xx_HAL_Driver/Inc/stm32l4xx_ll_spi.h **** #define LL_SPI_SR_CRCERR                   SPI_SR_CRCERR             /*!< CRC error flag           
 127:../Drivers/STM32L4xx_HAL_Driver/Inc/stm32l4xx_ll_spi.h **** #define LL_SPI_SR_MODF                     SPI_SR_MODF               /*!< Mode fault flag          
 128:../Drivers/STM32L4xx_HAL_Driver/Inc/stm32l4xx_ll_spi.h **** #define LL_SPI_SR_OVR                      SPI_SR_OVR                /*!< Overrun flag             
 129:../Drivers/STM32L4xx_HAL_Driver/Inc/stm32l4xx_ll_spi.h **** #define LL_SPI_SR_FRE                      SPI_SR_FRE                /*!< TI mode frame format erro
 130:../Drivers/STM32L4xx_HAL_Driver/Inc/stm32l4xx_ll_spi.h **** /**
 131:../Drivers/STM32L4xx_HAL_Driver/Inc/stm32l4xx_ll_spi.h ****   * @}
 132:../Drivers/STM32L4xx_HAL_Driver/Inc/stm32l4xx_ll_spi.h ****   */
 133:../Drivers/STM32L4xx_HAL_Driver/Inc/stm32l4xx_ll_spi.h **** 
 134:../Drivers/STM32L4xx_HAL_Driver/Inc/stm32l4xx_ll_spi.h **** /** @defgroup SPI_LL_EC_IT IT Defines
 135:../Drivers/STM32L4xx_HAL_Driver/Inc/stm32l4xx_ll_spi.h ****   * @brief    IT defines which can be used with LL_SPI_ReadReg and  LL_SPI_WriteReg functions
 136:../Drivers/STM32L4xx_HAL_Driver/Inc/stm32l4xx_ll_spi.h ****   * @{
 137:../Drivers/STM32L4xx_HAL_Driver/Inc/stm32l4xx_ll_spi.h ****   */
 138:../Drivers/STM32L4xx_HAL_Driver/Inc/stm32l4xx_ll_spi.h **** #define LL_SPI_CR2_RXNEIE                  SPI_CR2_RXNEIE            /*!< Rx buffer not empty inter
 139:../Drivers/STM32L4xx_HAL_Driver/Inc/stm32l4xx_ll_spi.h **** #define LL_SPI_CR2_TXEIE                   SPI_CR2_TXEIE             /*!< Tx buffer empty interrupt
 140:../Drivers/STM32L4xx_HAL_Driver/Inc/stm32l4xx_ll_spi.h **** #define LL_SPI_CR2_ERRIE                   SPI_CR2_ERRIE             /*!< Error interrupt enable   
 141:../Drivers/STM32L4xx_HAL_Driver/Inc/stm32l4xx_ll_spi.h **** /**
 142:../Drivers/STM32L4xx_HAL_Driver/Inc/stm32l4xx_ll_spi.h ****   * @}
 143:../Drivers/STM32L4xx_HAL_Driver/Inc/stm32l4xx_ll_spi.h ****   */
 144:../Drivers/STM32L4xx_HAL_Driver/Inc/stm32l4xx_ll_spi.h **** 
 145:../Drivers/STM32L4xx_HAL_Driver/Inc/stm32l4xx_ll_spi.h **** /** @defgroup SPI_LL_EC_MODE Operation Mode
ARM GAS  /tmp/ccAPcP1Z.s 			page 4


 146:../Drivers/STM32L4xx_HAL_Driver/Inc/stm32l4xx_ll_spi.h ****   * @{
 147:../Drivers/STM32L4xx_HAL_Driver/Inc/stm32l4xx_ll_spi.h ****   */
 148:../Drivers/STM32L4xx_HAL_Driver/Inc/stm32l4xx_ll_spi.h **** #define LL_SPI_MODE_MASTER                 (SPI_CR1_MSTR | SPI_CR1_SSI)    /*!< Master configuratio
 149:../Drivers/STM32L4xx_HAL_Driver/Inc/stm32l4xx_ll_spi.h **** #define LL_SPI_MODE_SLAVE                  0x00000000U                     /*!< Slave configuration
 150:../Drivers/STM32L4xx_HAL_Driver/Inc/stm32l4xx_ll_spi.h **** /**
 151:../Drivers/STM32L4xx_HAL_Driver/Inc/stm32l4xx_ll_spi.h ****   * @}
 152:../Drivers/STM32L4xx_HAL_Driver/Inc/stm32l4xx_ll_spi.h ****   */
 153:../Drivers/STM32L4xx_HAL_Driver/Inc/stm32l4xx_ll_spi.h **** 
 154:../Drivers/STM32L4xx_HAL_Driver/Inc/stm32l4xx_ll_spi.h **** /** @defgroup SPI_LL_EC_PROTOCOL Serial Protocol
 155:../Drivers/STM32L4xx_HAL_Driver/Inc/stm32l4xx_ll_spi.h ****   * @{
 156:../Drivers/STM32L4xx_HAL_Driver/Inc/stm32l4xx_ll_spi.h ****   */
 157:../Drivers/STM32L4xx_HAL_Driver/Inc/stm32l4xx_ll_spi.h **** #define LL_SPI_PROTOCOL_MOTOROLA           0x00000000U               /*!< Motorola mode. Used as de
 158:../Drivers/STM32L4xx_HAL_Driver/Inc/stm32l4xx_ll_spi.h **** #define LL_SPI_PROTOCOL_TI                 (SPI_CR2_FRF)             /*!< TI mode                  
 159:../Drivers/STM32L4xx_HAL_Driver/Inc/stm32l4xx_ll_spi.h **** /**
 160:../Drivers/STM32L4xx_HAL_Driver/Inc/stm32l4xx_ll_spi.h ****   * @}
 161:../Drivers/STM32L4xx_HAL_Driver/Inc/stm32l4xx_ll_spi.h ****   */
 162:../Drivers/STM32L4xx_HAL_Driver/Inc/stm32l4xx_ll_spi.h **** 
 163:../Drivers/STM32L4xx_HAL_Driver/Inc/stm32l4xx_ll_spi.h **** /** @defgroup SPI_LL_EC_PHASE Clock Phase
 164:../Drivers/STM32L4xx_HAL_Driver/Inc/stm32l4xx_ll_spi.h ****   * @{
 165:../Drivers/STM32L4xx_HAL_Driver/Inc/stm32l4xx_ll_spi.h ****   */
 166:../Drivers/STM32L4xx_HAL_Driver/Inc/stm32l4xx_ll_spi.h **** #define LL_SPI_PHASE_1EDGE                 0x00000000U               /*!< First clock transition is
 167:../Drivers/STM32L4xx_HAL_Driver/Inc/stm32l4xx_ll_spi.h **** #define LL_SPI_PHASE_2EDGE                 (SPI_CR1_CPHA)            /*!< Second clock transition i
 168:../Drivers/STM32L4xx_HAL_Driver/Inc/stm32l4xx_ll_spi.h **** /**
 169:../Drivers/STM32L4xx_HAL_Driver/Inc/stm32l4xx_ll_spi.h ****   * @}
 170:../Drivers/STM32L4xx_HAL_Driver/Inc/stm32l4xx_ll_spi.h ****   */
 171:../Drivers/STM32L4xx_HAL_Driver/Inc/stm32l4xx_ll_spi.h **** 
 172:../Drivers/STM32L4xx_HAL_Driver/Inc/stm32l4xx_ll_spi.h **** /** @defgroup SPI_LL_EC_POLARITY Clock Polarity
 173:../Drivers/STM32L4xx_HAL_Driver/Inc/stm32l4xx_ll_spi.h ****   * @{
 174:../Drivers/STM32L4xx_HAL_Driver/Inc/stm32l4xx_ll_spi.h ****   */
 175:../Drivers/STM32L4xx_HAL_Driver/Inc/stm32l4xx_ll_spi.h **** #define LL_SPI_POLARITY_LOW                0x00000000U               /*!< Clock to 0 when idle */
 176:../Drivers/STM32L4xx_HAL_Driver/Inc/stm32l4xx_ll_spi.h **** #define LL_SPI_POLARITY_HIGH               (SPI_CR1_CPOL)            /*!< Clock to 1 when idle */
 177:../Drivers/STM32L4xx_HAL_Driver/Inc/stm32l4xx_ll_spi.h **** /**
 178:../Drivers/STM32L4xx_HAL_Driver/Inc/stm32l4xx_ll_spi.h ****   * @}
 179:../Drivers/STM32L4xx_HAL_Driver/Inc/stm32l4xx_ll_spi.h ****   */
 180:../Drivers/STM32L4xx_HAL_Driver/Inc/stm32l4xx_ll_spi.h **** 
 181:../Drivers/STM32L4xx_HAL_Driver/Inc/stm32l4xx_ll_spi.h **** /** @defgroup SPI_LL_EC_BAUDRATEPRESCALER Baud Rate Prescaler
 182:../Drivers/STM32L4xx_HAL_Driver/Inc/stm32l4xx_ll_spi.h ****   * @{
 183:../Drivers/STM32L4xx_HAL_Driver/Inc/stm32l4xx_ll_spi.h ****   */
 184:../Drivers/STM32L4xx_HAL_Driver/Inc/stm32l4xx_ll_spi.h **** #define LL_SPI_BAUDRATEPRESCALER_DIV2      0x00000000U                                    /*!< Baud
 185:../Drivers/STM32L4xx_HAL_Driver/Inc/stm32l4xx_ll_spi.h **** #define LL_SPI_BAUDRATEPRESCALER_DIV4      (SPI_CR1_BR_0)                                 /*!< Baud
 186:../Drivers/STM32L4xx_HAL_Driver/Inc/stm32l4xx_ll_spi.h **** #define LL_SPI_BAUDRATEPRESCALER_DIV8      (SPI_CR1_BR_1)                                 /*!< Baud
 187:../Drivers/STM32L4xx_HAL_Driver/Inc/stm32l4xx_ll_spi.h **** #define LL_SPI_BAUDRATEPRESCALER_DIV16     (SPI_CR1_BR_1 | SPI_CR1_BR_0)                  /*!< Baud
 188:../Drivers/STM32L4xx_HAL_Driver/Inc/stm32l4xx_ll_spi.h **** #define LL_SPI_BAUDRATEPRESCALER_DIV32     (SPI_CR1_BR_2)                                 /*!< Baud
 189:../Drivers/STM32L4xx_HAL_Driver/Inc/stm32l4xx_ll_spi.h **** #define LL_SPI_BAUDRATEPRESCALER_DIV64     (SPI_CR1_BR_2 | SPI_CR1_BR_0)                  /*!< Baud
 190:../Drivers/STM32L4xx_HAL_Driver/Inc/stm32l4xx_ll_spi.h **** #define LL_SPI_BAUDRATEPRESCALER_DIV128    (SPI_CR1_BR_2 | SPI_CR1_BR_1)                  /*!< Baud
 191:../Drivers/STM32L4xx_HAL_Driver/Inc/stm32l4xx_ll_spi.h **** #define LL_SPI_BAUDRATEPRESCALER_DIV256    (SPI_CR1_BR_2 | SPI_CR1_BR_1 | SPI_CR1_BR_0)   /*!< Baud
 192:../Drivers/STM32L4xx_HAL_Driver/Inc/stm32l4xx_ll_spi.h **** /**
 193:../Drivers/STM32L4xx_HAL_Driver/Inc/stm32l4xx_ll_spi.h ****   * @}
 194:../Drivers/STM32L4xx_HAL_Driver/Inc/stm32l4xx_ll_spi.h ****   */
 195:../Drivers/STM32L4xx_HAL_Driver/Inc/stm32l4xx_ll_spi.h **** 
 196:../Drivers/STM32L4xx_HAL_Driver/Inc/stm32l4xx_ll_spi.h **** /** @defgroup SPI_LL_EC_BIT_ORDER Transmission Bit Order
 197:../Drivers/STM32L4xx_HAL_Driver/Inc/stm32l4xx_ll_spi.h ****   * @{
 198:../Drivers/STM32L4xx_HAL_Driver/Inc/stm32l4xx_ll_spi.h ****   */
 199:../Drivers/STM32L4xx_HAL_Driver/Inc/stm32l4xx_ll_spi.h **** #define LL_SPI_LSB_FIRST                   (SPI_CR1_LSBFIRST)        /*!< Data is transmitted/recei
 200:../Drivers/STM32L4xx_HAL_Driver/Inc/stm32l4xx_ll_spi.h **** #define LL_SPI_MSB_FIRST                   0x00000000U               /*!< Data is transmitted/recei
 201:../Drivers/STM32L4xx_HAL_Driver/Inc/stm32l4xx_ll_spi.h **** /**
 202:../Drivers/STM32L4xx_HAL_Driver/Inc/stm32l4xx_ll_spi.h ****   * @}
ARM GAS  /tmp/ccAPcP1Z.s 			page 5


 203:../Drivers/STM32L4xx_HAL_Driver/Inc/stm32l4xx_ll_spi.h ****   */
 204:../Drivers/STM32L4xx_HAL_Driver/Inc/stm32l4xx_ll_spi.h **** 
 205:../Drivers/STM32L4xx_HAL_Driver/Inc/stm32l4xx_ll_spi.h **** /** @defgroup SPI_LL_EC_TRANSFER_MODE Transfer Mode
 206:../Drivers/STM32L4xx_HAL_Driver/Inc/stm32l4xx_ll_spi.h ****   * @{
 207:../Drivers/STM32L4xx_HAL_Driver/Inc/stm32l4xx_ll_spi.h ****   */
 208:../Drivers/STM32L4xx_HAL_Driver/Inc/stm32l4xx_ll_spi.h **** #define LL_SPI_FULL_DUPLEX                 0x00000000U                          /*!< Full-Duplex mo
 209:../Drivers/STM32L4xx_HAL_Driver/Inc/stm32l4xx_ll_spi.h **** #define LL_SPI_SIMPLEX_RX                  (SPI_CR1_RXONLY)                     /*!< Simplex Rx mod
 210:../Drivers/STM32L4xx_HAL_Driver/Inc/stm32l4xx_ll_spi.h **** #define LL_SPI_HALF_DUPLEX_RX              (SPI_CR1_BIDIMODE)                   /*!< Half-Duplex Rx
 211:../Drivers/STM32L4xx_HAL_Driver/Inc/stm32l4xx_ll_spi.h **** #define LL_SPI_HALF_DUPLEX_TX              (SPI_CR1_BIDIMODE | SPI_CR1_BIDIOE)  /*!< Half-Duplex Tx
 212:../Drivers/STM32L4xx_HAL_Driver/Inc/stm32l4xx_ll_spi.h **** /**
 213:../Drivers/STM32L4xx_HAL_Driver/Inc/stm32l4xx_ll_spi.h ****   * @}
 214:../Drivers/STM32L4xx_HAL_Driver/Inc/stm32l4xx_ll_spi.h ****   */
 215:../Drivers/STM32L4xx_HAL_Driver/Inc/stm32l4xx_ll_spi.h **** 
 216:../Drivers/STM32L4xx_HAL_Driver/Inc/stm32l4xx_ll_spi.h **** /** @defgroup SPI_LL_EC_NSS_MODE Slave Select Pin Mode
 217:../Drivers/STM32L4xx_HAL_Driver/Inc/stm32l4xx_ll_spi.h ****   * @{
 218:../Drivers/STM32L4xx_HAL_Driver/Inc/stm32l4xx_ll_spi.h ****   */
 219:../Drivers/STM32L4xx_HAL_Driver/Inc/stm32l4xx_ll_spi.h **** #define LL_SPI_NSS_SOFT                    (SPI_CR1_SSM)                     /*!< NSS managed inter
 220:../Drivers/STM32L4xx_HAL_Driver/Inc/stm32l4xx_ll_spi.h **** #define LL_SPI_NSS_HARD_INPUT              0x00000000U                       /*!< NSS pin used in I
 221:../Drivers/STM32L4xx_HAL_Driver/Inc/stm32l4xx_ll_spi.h **** #define LL_SPI_NSS_HARD_OUTPUT             (((uint32_t)SPI_CR2_SSOE << 16U)) /*!< NSS pin used in O
 222:../Drivers/STM32L4xx_HAL_Driver/Inc/stm32l4xx_ll_spi.h **** /**
 223:../Drivers/STM32L4xx_HAL_Driver/Inc/stm32l4xx_ll_spi.h ****   * @}
 224:../Drivers/STM32L4xx_HAL_Driver/Inc/stm32l4xx_ll_spi.h ****   */
 225:../Drivers/STM32L4xx_HAL_Driver/Inc/stm32l4xx_ll_spi.h **** 
 226:../Drivers/STM32L4xx_HAL_Driver/Inc/stm32l4xx_ll_spi.h **** /** @defgroup SPI_LL_EC_DATAWIDTH Datawidth
 227:../Drivers/STM32L4xx_HAL_Driver/Inc/stm32l4xx_ll_spi.h ****   * @{
 228:../Drivers/STM32L4xx_HAL_Driver/Inc/stm32l4xx_ll_spi.h ****   */
 229:../Drivers/STM32L4xx_HAL_Driver/Inc/stm32l4xx_ll_spi.h **** #define LL_SPI_DATAWIDTH_4BIT              (SPI_CR2_DS_0 | SPI_CR2_DS_1)                           
 230:../Drivers/STM32L4xx_HAL_Driver/Inc/stm32l4xx_ll_spi.h **** #define LL_SPI_DATAWIDTH_5BIT              (SPI_CR2_DS_2)                                          
 231:../Drivers/STM32L4xx_HAL_Driver/Inc/stm32l4xx_ll_spi.h **** #define LL_SPI_DATAWIDTH_6BIT              (SPI_CR2_DS_2 | SPI_CR2_DS_0)                           
 232:../Drivers/STM32L4xx_HAL_Driver/Inc/stm32l4xx_ll_spi.h **** #define LL_SPI_DATAWIDTH_7BIT              (SPI_CR2_DS_2 | SPI_CR2_DS_1)                           
 233:../Drivers/STM32L4xx_HAL_Driver/Inc/stm32l4xx_ll_spi.h **** #define LL_SPI_DATAWIDTH_8BIT              (SPI_CR2_DS_2 | SPI_CR2_DS_1 | SPI_CR2_DS_0)            
 234:../Drivers/STM32L4xx_HAL_Driver/Inc/stm32l4xx_ll_spi.h **** #define LL_SPI_DATAWIDTH_9BIT              (SPI_CR2_DS_3)                                          
 235:../Drivers/STM32L4xx_HAL_Driver/Inc/stm32l4xx_ll_spi.h **** #define LL_SPI_DATAWIDTH_10BIT             (SPI_CR2_DS_3 | SPI_CR2_DS_0)                           
 236:../Drivers/STM32L4xx_HAL_Driver/Inc/stm32l4xx_ll_spi.h **** #define LL_SPI_DATAWIDTH_11BIT             (SPI_CR2_DS_3 | SPI_CR2_DS_1)                           
 237:../Drivers/STM32L4xx_HAL_Driver/Inc/stm32l4xx_ll_spi.h **** #define LL_SPI_DATAWIDTH_12BIT             (SPI_CR2_DS_3 | SPI_CR2_DS_1 | SPI_CR2_DS_0)            
 238:../Drivers/STM32L4xx_HAL_Driver/Inc/stm32l4xx_ll_spi.h **** #define LL_SPI_DATAWIDTH_13BIT             (SPI_CR2_DS_3 | SPI_CR2_DS_2)                           
 239:../Drivers/STM32L4xx_HAL_Driver/Inc/stm32l4xx_ll_spi.h **** #define LL_SPI_DATAWIDTH_14BIT             (SPI_CR2_DS_3 | SPI_CR2_DS_2 | SPI_CR2_DS_0)            
 240:../Drivers/STM32L4xx_HAL_Driver/Inc/stm32l4xx_ll_spi.h **** #define LL_SPI_DATAWIDTH_15BIT             (SPI_CR2_DS_3 | SPI_CR2_DS_2 | SPI_CR2_DS_1)            
 241:../Drivers/STM32L4xx_HAL_Driver/Inc/stm32l4xx_ll_spi.h **** #define LL_SPI_DATAWIDTH_16BIT             (SPI_CR2_DS_3 | SPI_CR2_DS_2 | SPI_CR2_DS_1 | SPI_CR2_DS
 242:../Drivers/STM32L4xx_HAL_Driver/Inc/stm32l4xx_ll_spi.h **** /**
 243:../Drivers/STM32L4xx_HAL_Driver/Inc/stm32l4xx_ll_spi.h ****   * @}
 244:../Drivers/STM32L4xx_HAL_Driver/Inc/stm32l4xx_ll_spi.h ****   */
 245:../Drivers/STM32L4xx_HAL_Driver/Inc/stm32l4xx_ll_spi.h **** #if defined(USE_FULL_LL_DRIVER)
 246:../Drivers/STM32L4xx_HAL_Driver/Inc/stm32l4xx_ll_spi.h **** 
 247:../Drivers/STM32L4xx_HAL_Driver/Inc/stm32l4xx_ll_spi.h **** /** @defgroup SPI_LL_EC_CRC_CALCULATION CRC Calculation
 248:../Drivers/STM32L4xx_HAL_Driver/Inc/stm32l4xx_ll_spi.h ****   * @{
 249:../Drivers/STM32L4xx_HAL_Driver/Inc/stm32l4xx_ll_spi.h ****   */
 250:../Drivers/STM32L4xx_HAL_Driver/Inc/stm32l4xx_ll_spi.h **** #define LL_SPI_CRCCALCULATION_DISABLE      0x00000000U               /*!< CRC calculation disabled 
 251:../Drivers/STM32L4xx_HAL_Driver/Inc/stm32l4xx_ll_spi.h **** #define LL_SPI_CRCCALCULATION_ENABLE       (SPI_CR1_CRCEN)           /*!< CRC calculation enabled  
 252:../Drivers/STM32L4xx_HAL_Driver/Inc/stm32l4xx_ll_spi.h **** /**
 253:../Drivers/STM32L4xx_HAL_Driver/Inc/stm32l4xx_ll_spi.h ****   * @}
 254:../Drivers/STM32L4xx_HAL_Driver/Inc/stm32l4xx_ll_spi.h ****   */
 255:../Drivers/STM32L4xx_HAL_Driver/Inc/stm32l4xx_ll_spi.h **** #endif /* USE_FULL_LL_DRIVER */
 256:../Drivers/STM32L4xx_HAL_Driver/Inc/stm32l4xx_ll_spi.h **** 
 257:../Drivers/STM32L4xx_HAL_Driver/Inc/stm32l4xx_ll_spi.h **** /** @defgroup SPI_LL_EC_CRC_LENGTH CRC Length
 258:../Drivers/STM32L4xx_HAL_Driver/Inc/stm32l4xx_ll_spi.h ****   * @{
 259:../Drivers/STM32L4xx_HAL_Driver/Inc/stm32l4xx_ll_spi.h ****   */
ARM GAS  /tmp/ccAPcP1Z.s 			page 6


 260:../Drivers/STM32L4xx_HAL_Driver/Inc/stm32l4xx_ll_spi.h **** #define LL_SPI_CRC_8BIT                    0x00000000U               /*!<  8-bit CRC length */
 261:../Drivers/STM32L4xx_HAL_Driver/Inc/stm32l4xx_ll_spi.h **** #define LL_SPI_CRC_16BIT                   (SPI_CR1_CRCL)            /*!< 16-bit CRC length */
 262:../Drivers/STM32L4xx_HAL_Driver/Inc/stm32l4xx_ll_spi.h **** /**
 263:../Drivers/STM32L4xx_HAL_Driver/Inc/stm32l4xx_ll_spi.h ****   * @}
 264:../Drivers/STM32L4xx_HAL_Driver/Inc/stm32l4xx_ll_spi.h ****   */
 265:../Drivers/STM32L4xx_HAL_Driver/Inc/stm32l4xx_ll_spi.h **** 
 266:../Drivers/STM32L4xx_HAL_Driver/Inc/stm32l4xx_ll_spi.h **** /** @defgroup SPI_LL_EC_RX_FIFO_TH RX FIFO Threshold
 267:../Drivers/STM32L4xx_HAL_Driver/Inc/stm32l4xx_ll_spi.h ****   * @{
 268:../Drivers/STM32L4xx_HAL_Driver/Inc/stm32l4xx_ll_spi.h ****   */
 269:../Drivers/STM32L4xx_HAL_Driver/Inc/stm32l4xx_ll_spi.h **** #define LL_SPI_RX_FIFO_TH_HALF             0x00000000U               /*!< RXNE event is generated i
 270:../Drivers/STM32L4xx_HAL_Driver/Inc/stm32l4xx_ll_spi.h **** #define LL_SPI_RX_FIFO_TH_QUARTER          (SPI_CR2_FRXTH)           /*!< RXNE event is generated i
 271:../Drivers/STM32L4xx_HAL_Driver/Inc/stm32l4xx_ll_spi.h **** /**
 272:../Drivers/STM32L4xx_HAL_Driver/Inc/stm32l4xx_ll_spi.h ****   * @}
 273:../Drivers/STM32L4xx_HAL_Driver/Inc/stm32l4xx_ll_spi.h ****   */
 274:../Drivers/STM32L4xx_HAL_Driver/Inc/stm32l4xx_ll_spi.h **** 
 275:../Drivers/STM32L4xx_HAL_Driver/Inc/stm32l4xx_ll_spi.h **** /** @defgroup SPI_LL_EC_RX_FIFO RX FIFO Level
 276:../Drivers/STM32L4xx_HAL_Driver/Inc/stm32l4xx_ll_spi.h ****   * @{
 277:../Drivers/STM32L4xx_HAL_Driver/Inc/stm32l4xx_ll_spi.h ****   */
 278:../Drivers/STM32L4xx_HAL_Driver/Inc/stm32l4xx_ll_spi.h **** #define LL_SPI_RX_FIFO_EMPTY               0x00000000U                       /*!< FIFO reception em
 279:../Drivers/STM32L4xx_HAL_Driver/Inc/stm32l4xx_ll_spi.h **** #define LL_SPI_RX_FIFO_QUARTER_FULL        (SPI_SR_FRLVL_0)                  /*!< FIFO reception 1/
 280:../Drivers/STM32L4xx_HAL_Driver/Inc/stm32l4xx_ll_spi.h **** #define LL_SPI_RX_FIFO_HALF_FULL           (SPI_SR_FRLVL_1)                  /*!< FIFO reception 1/
 281:../Drivers/STM32L4xx_HAL_Driver/Inc/stm32l4xx_ll_spi.h **** #define LL_SPI_RX_FIFO_FULL                (SPI_SR_FRLVL_1 | SPI_SR_FRLVL_0) /*!< FIFO reception fu
 282:../Drivers/STM32L4xx_HAL_Driver/Inc/stm32l4xx_ll_spi.h **** /**
 283:../Drivers/STM32L4xx_HAL_Driver/Inc/stm32l4xx_ll_spi.h ****   * @}
 284:../Drivers/STM32L4xx_HAL_Driver/Inc/stm32l4xx_ll_spi.h ****   */
 285:../Drivers/STM32L4xx_HAL_Driver/Inc/stm32l4xx_ll_spi.h **** 
 286:../Drivers/STM32L4xx_HAL_Driver/Inc/stm32l4xx_ll_spi.h **** /** @defgroup SPI_LL_EC_TX_FIFO TX FIFO Level
 287:../Drivers/STM32L4xx_HAL_Driver/Inc/stm32l4xx_ll_spi.h ****   * @{
 288:../Drivers/STM32L4xx_HAL_Driver/Inc/stm32l4xx_ll_spi.h ****   */
 289:../Drivers/STM32L4xx_HAL_Driver/Inc/stm32l4xx_ll_spi.h **** #define LL_SPI_TX_FIFO_EMPTY               0x00000000U                       /*!< FIFO transmission
 290:../Drivers/STM32L4xx_HAL_Driver/Inc/stm32l4xx_ll_spi.h **** #define LL_SPI_TX_FIFO_QUARTER_FULL        (SPI_SR_FTLVL_0)                  /*!< FIFO transmission
 291:../Drivers/STM32L4xx_HAL_Driver/Inc/stm32l4xx_ll_spi.h **** #define LL_SPI_TX_FIFO_HALF_FULL           (SPI_SR_FTLVL_1)                  /*!< FIFO transmission
 292:../Drivers/STM32L4xx_HAL_Driver/Inc/stm32l4xx_ll_spi.h **** #define LL_SPI_TX_FIFO_FULL                (SPI_SR_FTLVL_1 | SPI_SR_FTLVL_0) /*!< FIFO transmission
 293:../Drivers/STM32L4xx_HAL_Driver/Inc/stm32l4xx_ll_spi.h **** /**
 294:../Drivers/STM32L4xx_HAL_Driver/Inc/stm32l4xx_ll_spi.h ****   * @}
 295:../Drivers/STM32L4xx_HAL_Driver/Inc/stm32l4xx_ll_spi.h ****   */
 296:../Drivers/STM32L4xx_HAL_Driver/Inc/stm32l4xx_ll_spi.h **** 
 297:../Drivers/STM32L4xx_HAL_Driver/Inc/stm32l4xx_ll_spi.h **** /** @defgroup SPI_LL_EC_DMA_PARITY DMA Parity
 298:../Drivers/STM32L4xx_HAL_Driver/Inc/stm32l4xx_ll_spi.h ****   * @{
 299:../Drivers/STM32L4xx_HAL_Driver/Inc/stm32l4xx_ll_spi.h ****   */
 300:../Drivers/STM32L4xx_HAL_Driver/Inc/stm32l4xx_ll_spi.h **** #define LL_SPI_DMA_PARITY_EVEN             0x00000000U   /*!< Select DMA parity Even */
 301:../Drivers/STM32L4xx_HAL_Driver/Inc/stm32l4xx_ll_spi.h **** #define LL_SPI_DMA_PARITY_ODD              0x00000001U   /*!< Select DMA parity Odd  */
 302:../Drivers/STM32L4xx_HAL_Driver/Inc/stm32l4xx_ll_spi.h **** 
 303:../Drivers/STM32L4xx_HAL_Driver/Inc/stm32l4xx_ll_spi.h **** /**
 304:../Drivers/STM32L4xx_HAL_Driver/Inc/stm32l4xx_ll_spi.h ****   * @}
 305:../Drivers/STM32L4xx_HAL_Driver/Inc/stm32l4xx_ll_spi.h ****   */
 306:../Drivers/STM32L4xx_HAL_Driver/Inc/stm32l4xx_ll_spi.h **** 
 307:../Drivers/STM32L4xx_HAL_Driver/Inc/stm32l4xx_ll_spi.h **** /**
 308:../Drivers/STM32L4xx_HAL_Driver/Inc/stm32l4xx_ll_spi.h ****   * @}
 309:../Drivers/STM32L4xx_HAL_Driver/Inc/stm32l4xx_ll_spi.h ****   */
 310:../Drivers/STM32L4xx_HAL_Driver/Inc/stm32l4xx_ll_spi.h **** 
 311:../Drivers/STM32L4xx_HAL_Driver/Inc/stm32l4xx_ll_spi.h **** /* Exported macro ------------------------------------------------------------*/
 312:../Drivers/STM32L4xx_HAL_Driver/Inc/stm32l4xx_ll_spi.h **** /** @defgroup SPI_LL_Exported_Macros SPI Exported Macros
 313:../Drivers/STM32L4xx_HAL_Driver/Inc/stm32l4xx_ll_spi.h ****   * @{
 314:../Drivers/STM32L4xx_HAL_Driver/Inc/stm32l4xx_ll_spi.h ****   */
 315:../Drivers/STM32L4xx_HAL_Driver/Inc/stm32l4xx_ll_spi.h **** 
 316:../Drivers/STM32L4xx_HAL_Driver/Inc/stm32l4xx_ll_spi.h **** /** @defgroup SPI_LL_EM_WRITE_READ Common Write and read registers Macros
ARM GAS  /tmp/ccAPcP1Z.s 			page 7


 317:../Drivers/STM32L4xx_HAL_Driver/Inc/stm32l4xx_ll_spi.h ****   * @{
 318:../Drivers/STM32L4xx_HAL_Driver/Inc/stm32l4xx_ll_spi.h ****   */
 319:../Drivers/STM32L4xx_HAL_Driver/Inc/stm32l4xx_ll_spi.h **** 
 320:../Drivers/STM32L4xx_HAL_Driver/Inc/stm32l4xx_ll_spi.h **** /**
 321:../Drivers/STM32L4xx_HAL_Driver/Inc/stm32l4xx_ll_spi.h ****   * @brief  Write a value in SPI register
 322:../Drivers/STM32L4xx_HAL_Driver/Inc/stm32l4xx_ll_spi.h ****   * @param  __INSTANCE__ SPI Instance
 323:../Drivers/STM32L4xx_HAL_Driver/Inc/stm32l4xx_ll_spi.h ****   * @param  __REG__ Register to be written
 324:../Drivers/STM32L4xx_HAL_Driver/Inc/stm32l4xx_ll_spi.h ****   * @param  __VALUE__ Value to be written in the register
 325:../Drivers/STM32L4xx_HAL_Driver/Inc/stm32l4xx_ll_spi.h ****   * @retval None
 326:../Drivers/STM32L4xx_HAL_Driver/Inc/stm32l4xx_ll_spi.h ****   */
 327:../Drivers/STM32L4xx_HAL_Driver/Inc/stm32l4xx_ll_spi.h **** #define LL_SPI_WriteReg(__INSTANCE__, __REG__, __VALUE__) WRITE_REG(__INSTANCE__->__REG__, (__VALUE
 328:../Drivers/STM32L4xx_HAL_Driver/Inc/stm32l4xx_ll_spi.h **** 
 329:../Drivers/STM32L4xx_HAL_Driver/Inc/stm32l4xx_ll_spi.h **** /**
 330:../Drivers/STM32L4xx_HAL_Driver/Inc/stm32l4xx_ll_spi.h ****   * @brief  Read a value in SPI register
 331:../Drivers/STM32L4xx_HAL_Driver/Inc/stm32l4xx_ll_spi.h ****   * @param  __INSTANCE__ SPI Instance
 332:../Drivers/STM32L4xx_HAL_Driver/Inc/stm32l4xx_ll_spi.h ****   * @param  __REG__ Register to be read
 333:../Drivers/STM32L4xx_HAL_Driver/Inc/stm32l4xx_ll_spi.h ****   * @retval Register value
 334:../Drivers/STM32L4xx_HAL_Driver/Inc/stm32l4xx_ll_spi.h ****   */
 335:../Drivers/STM32L4xx_HAL_Driver/Inc/stm32l4xx_ll_spi.h **** #define LL_SPI_ReadReg(__INSTANCE__, __REG__) READ_REG(__INSTANCE__->__REG__)
 336:../Drivers/STM32L4xx_HAL_Driver/Inc/stm32l4xx_ll_spi.h **** /**
 337:../Drivers/STM32L4xx_HAL_Driver/Inc/stm32l4xx_ll_spi.h ****   * @}
 338:../Drivers/STM32L4xx_HAL_Driver/Inc/stm32l4xx_ll_spi.h ****   */
 339:../Drivers/STM32L4xx_HAL_Driver/Inc/stm32l4xx_ll_spi.h **** 
 340:../Drivers/STM32L4xx_HAL_Driver/Inc/stm32l4xx_ll_spi.h **** /**
 341:../Drivers/STM32L4xx_HAL_Driver/Inc/stm32l4xx_ll_spi.h ****   * @}
 342:../Drivers/STM32L4xx_HAL_Driver/Inc/stm32l4xx_ll_spi.h ****   */
 343:../Drivers/STM32L4xx_HAL_Driver/Inc/stm32l4xx_ll_spi.h **** 
 344:../Drivers/STM32L4xx_HAL_Driver/Inc/stm32l4xx_ll_spi.h **** /* Exported functions --------------------------------------------------------*/
 345:../Drivers/STM32L4xx_HAL_Driver/Inc/stm32l4xx_ll_spi.h **** /** @defgroup SPI_LL_Exported_Functions SPI Exported Functions
 346:../Drivers/STM32L4xx_HAL_Driver/Inc/stm32l4xx_ll_spi.h ****   * @{
 347:../Drivers/STM32L4xx_HAL_Driver/Inc/stm32l4xx_ll_spi.h ****   */
 348:../Drivers/STM32L4xx_HAL_Driver/Inc/stm32l4xx_ll_spi.h **** 
 349:../Drivers/STM32L4xx_HAL_Driver/Inc/stm32l4xx_ll_spi.h **** /** @defgroup SPI_LL_EF_Configuration Configuration
 350:../Drivers/STM32L4xx_HAL_Driver/Inc/stm32l4xx_ll_spi.h ****   * @{
 351:../Drivers/STM32L4xx_HAL_Driver/Inc/stm32l4xx_ll_spi.h ****   */
 352:../Drivers/STM32L4xx_HAL_Driver/Inc/stm32l4xx_ll_spi.h **** 
 353:../Drivers/STM32L4xx_HAL_Driver/Inc/stm32l4xx_ll_spi.h **** /**
 354:../Drivers/STM32L4xx_HAL_Driver/Inc/stm32l4xx_ll_spi.h ****   * @brief  Enable SPI peripheral
 355:../Drivers/STM32L4xx_HAL_Driver/Inc/stm32l4xx_ll_spi.h ****   * @rmtoll CR1          SPE           LL_SPI_Enable
 356:../Drivers/STM32L4xx_HAL_Driver/Inc/stm32l4xx_ll_spi.h ****   * @param  SPIx SPI Instance
 357:../Drivers/STM32L4xx_HAL_Driver/Inc/stm32l4xx_ll_spi.h ****   * @retval None
 358:../Drivers/STM32L4xx_HAL_Driver/Inc/stm32l4xx_ll_spi.h ****   */
 359:../Drivers/STM32L4xx_HAL_Driver/Inc/stm32l4xx_ll_spi.h **** __STATIC_INLINE void LL_SPI_Enable(SPI_TypeDef *SPIx)
 360:../Drivers/STM32L4xx_HAL_Driver/Inc/stm32l4xx_ll_spi.h **** {
 361:../Drivers/STM32L4xx_HAL_Driver/Inc/stm32l4xx_ll_spi.h ****   SET_BIT(SPIx->CR1, SPI_CR1_SPE);
 362:../Drivers/STM32L4xx_HAL_Driver/Inc/stm32l4xx_ll_spi.h **** }
 363:../Drivers/STM32L4xx_HAL_Driver/Inc/stm32l4xx_ll_spi.h **** 
 364:../Drivers/STM32L4xx_HAL_Driver/Inc/stm32l4xx_ll_spi.h **** /**
 365:../Drivers/STM32L4xx_HAL_Driver/Inc/stm32l4xx_ll_spi.h ****   * @brief  Disable SPI peripheral
 366:../Drivers/STM32L4xx_HAL_Driver/Inc/stm32l4xx_ll_spi.h ****   * @note   When disabling the SPI, follow the procedure described in the Reference Manual.
 367:../Drivers/STM32L4xx_HAL_Driver/Inc/stm32l4xx_ll_spi.h ****   * @rmtoll CR1          SPE           LL_SPI_Disable
 368:../Drivers/STM32L4xx_HAL_Driver/Inc/stm32l4xx_ll_spi.h ****   * @param  SPIx SPI Instance
 369:../Drivers/STM32L4xx_HAL_Driver/Inc/stm32l4xx_ll_spi.h ****   * @retval None
 370:../Drivers/STM32L4xx_HAL_Driver/Inc/stm32l4xx_ll_spi.h ****   */
 371:../Drivers/STM32L4xx_HAL_Driver/Inc/stm32l4xx_ll_spi.h **** __STATIC_INLINE void LL_SPI_Disable(SPI_TypeDef *SPIx)
 372:../Drivers/STM32L4xx_HAL_Driver/Inc/stm32l4xx_ll_spi.h **** {
 373:../Drivers/STM32L4xx_HAL_Driver/Inc/stm32l4xx_ll_spi.h ****   CLEAR_BIT(SPIx->CR1, SPI_CR1_SPE);
ARM GAS  /tmp/ccAPcP1Z.s 			page 8


 374:../Drivers/STM32L4xx_HAL_Driver/Inc/stm32l4xx_ll_spi.h **** }
 375:../Drivers/STM32L4xx_HAL_Driver/Inc/stm32l4xx_ll_spi.h **** 
 376:../Drivers/STM32L4xx_HAL_Driver/Inc/stm32l4xx_ll_spi.h **** /**
 377:../Drivers/STM32L4xx_HAL_Driver/Inc/stm32l4xx_ll_spi.h ****   * @brief  Check if SPI peripheral is enabled
 378:../Drivers/STM32L4xx_HAL_Driver/Inc/stm32l4xx_ll_spi.h ****   * @rmtoll CR1          SPE           LL_SPI_IsEnabled
 379:../Drivers/STM32L4xx_HAL_Driver/Inc/stm32l4xx_ll_spi.h ****   * @param  SPIx SPI Instance
 380:../Drivers/STM32L4xx_HAL_Driver/Inc/stm32l4xx_ll_spi.h ****   * @retval State of bit (1 or 0).
 381:../Drivers/STM32L4xx_HAL_Driver/Inc/stm32l4xx_ll_spi.h ****   */
 382:../Drivers/STM32L4xx_HAL_Driver/Inc/stm32l4xx_ll_spi.h **** __STATIC_INLINE uint32_t LL_SPI_IsEnabled(SPI_TypeDef *SPIx)
 383:../Drivers/STM32L4xx_HAL_Driver/Inc/stm32l4xx_ll_spi.h **** {
  28              		.loc 1 383 1
  29              		.cfi_startproc
  30              		@ args = 0, pretend = 0, frame = 8
  31              		@ frame_needed = 1, uses_anonymous_args = 0
  32              		@ link register save eliminated.
  33 0000 80B4     		push	{r7}
  34              	.LCFI0:
  35              		.cfi_def_cfa_offset 4
  36              		.cfi_offset 7, -4
  37 0002 83B0     		sub	sp, sp, #12
  38              	.LCFI1:
  39              		.cfi_def_cfa_offset 16
  40 0004 00AF     		add	r7, sp, #0
  41              	.LCFI2:
  42              		.cfi_def_cfa_register 7
  43 0006 7860     		str	r0, [r7, #4]
 384:../Drivers/STM32L4xx_HAL_Driver/Inc/stm32l4xx_ll_spi.h ****   return ((READ_BIT(SPIx->CR1, SPI_CR1_SPE) == (SPI_CR1_SPE)) ? 1UL : 0UL);
  44              		.loc 1 384 12
  45 0008 7B68     		ldr	r3, [r7, #4]
  46 000a 1B68     		ldr	r3, [r3]
  47 000c 03F04003 		and	r3, r3, #64
  48              		.loc 1 384 69
  49 0010 402B     		cmp	r3, #64
  50 0012 01D1     		bne	.L2
  51              		.loc 1 384 69 is_stmt 0 discriminator 1
  52 0014 0123     		movs	r3, #1
  53 0016 00E0     		b	.L4
  54              	.L2:
  55              		.loc 1 384 69 discriminator 2
  56 0018 0023     		movs	r3, #0
  57              	.L4:
 385:../Drivers/STM32L4xx_HAL_Driver/Inc/stm32l4xx_ll_spi.h **** }
  58              		.loc 1 385 1 is_stmt 1 discriminator 5
  59 001a 1846     		mov	r0, r3
  60 001c 0C37     		adds	r7, r7, #12
  61              	.LCFI3:
  62              		.cfi_def_cfa_offset 4
  63 001e BD46     		mov	sp, r7
  64              	.LCFI4:
  65              		.cfi_def_cfa_register 13
  66              		@ sp needed
  67 0020 5DF8047B 		ldr	r7, [sp], #4
  68              	.LCFI5:
  69              		.cfi_restore 7
  70              		.cfi_def_cfa_offset 0
  71 0024 7047     		bx	lr
  72              		.cfi_endproc
ARM GAS  /tmp/ccAPcP1Z.s 			page 9


  73              	.LFE315:
  75              		.section	.text.LL_SPI_SetCRCPolynomial,"ax",%progbits
  76              		.align	1
  77              		.syntax unified
  78              		.thumb
  79              		.thumb_func
  80              		.fpu fpv4-sp-d16
  82              	LL_SPI_SetCRCPolynomial:
  83              	.LFB340:
 386:../Drivers/STM32L4xx_HAL_Driver/Inc/stm32l4xx_ll_spi.h **** 
 387:../Drivers/STM32L4xx_HAL_Driver/Inc/stm32l4xx_ll_spi.h **** /**
 388:../Drivers/STM32L4xx_HAL_Driver/Inc/stm32l4xx_ll_spi.h ****   * @brief  Set SPI operation mode to Master or Slave
 389:../Drivers/STM32L4xx_HAL_Driver/Inc/stm32l4xx_ll_spi.h ****   * @note   This bit should not be changed when communication is ongoing.
 390:../Drivers/STM32L4xx_HAL_Driver/Inc/stm32l4xx_ll_spi.h ****   * @rmtoll CR1          MSTR          LL_SPI_SetMode\n
 391:../Drivers/STM32L4xx_HAL_Driver/Inc/stm32l4xx_ll_spi.h ****   *         CR1          SSI           LL_SPI_SetMode
 392:../Drivers/STM32L4xx_HAL_Driver/Inc/stm32l4xx_ll_spi.h ****   * @param  SPIx SPI Instance
 393:../Drivers/STM32L4xx_HAL_Driver/Inc/stm32l4xx_ll_spi.h ****   * @param  Mode This parameter can be one of the following values:
 394:../Drivers/STM32L4xx_HAL_Driver/Inc/stm32l4xx_ll_spi.h ****   *         @arg @ref LL_SPI_MODE_MASTER
 395:../Drivers/STM32L4xx_HAL_Driver/Inc/stm32l4xx_ll_spi.h ****   *         @arg @ref LL_SPI_MODE_SLAVE
 396:../Drivers/STM32L4xx_HAL_Driver/Inc/stm32l4xx_ll_spi.h ****   * @retval None
 397:../Drivers/STM32L4xx_HAL_Driver/Inc/stm32l4xx_ll_spi.h ****   */
 398:../Drivers/STM32L4xx_HAL_Driver/Inc/stm32l4xx_ll_spi.h **** __STATIC_INLINE void LL_SPI_SetMode(SPI_TypeDef *SPIx, uint32_t Mode)
 399:../Drivers/STM32L4xx_HAL_Driver/Inc/stm32l4xx_ll_spi.h **** {
 400:../Drivers/STM32L4xx_HAL_Driver/Inc/stm32l4xx_ll_spi.h ****   MODIFY_REG(SPIx->CR1, SPI_CR1_MSTR | SPI_CR1_SSI, Mode);
 401:../Drivers/STM32L4xx_HAL_Driver/Inc/stm32l4xx_ll_spi.h **** }
 402:../Drivers/STM32L4xx_HAL_Driver/Inc/stm32l4xx_ll_spi.h **** 
 403:../Drivers/STM32L4xx_HAL_Driver/Inc/stm32l4xx_ll_spi.h **** /**
 404:../Drivers/STM32L4xx_HAL_Driver/Inc/stm32l4xx_ll_spi.h ****   * @brief  Get SPI operation mode (Master or Slave)
 405:../Drivers/STM32L4xx_HAL_Driver/Inc/stm32l4xx_ll_spi.h ****   * @rmtoll CR1          MSTR          LL_SPI_GetMode\n
 406:../Drivers/STM32L4xx_HAL_Driver/Inc/stm32l4xx_ll_spi.h ****   *         CR1          SSI           LL_SPI_GetMode
 407:../Drivers/STM32L4xx_HAL_Driver/Inc/stm32l4xx_ll_spi.h ****   * @param  SPIx SPI Instance
 408:../Drivers/STM32L4xx_HAL_Driver/Inc/stm32l4xx_ll_spi.h ****   * @retval Returned value can be one of the following values:
 409:../Drivers/STM32L4xx_HAL_Driver/Inc/stm32l4xx_ll_spi.h ****   *         @arg @ref LL_SPI_MODE_MASTER
 410:../Drivers/STM32L4xx_HAL_Driver/Inc/stm32l4xx_ll_spi.h ****   *         @arg @ref LL_SPI_MODE_SLAVE
 411:../Drivers/STM32L4xx_HAL_Driver/Inc/stm32l4xx_ll_spi.h ****   */
 412:../Drivers/STM32L4xx_HAL_Driver/Inc/stm32l4xx_ll_spi.h **** __STATIC_INLINE uint32_t LL_SPI_GetMode(SPI_TypeDef *SPIx)
 413:../Drivers/STM32L4xx_HAL_Driver/Inc/stm32l4xx_ll_spi.h **** {
 414:../Drivers/STM32L4xx_HAL_Driver/Inc/stm32l4xx_ll_spi.h ****   return (uint32_t)(READ_BIT(SPIx->CR1, SPI_CR1_MSTR | SPI_CR1_SSI));
 415:../Drivers/STM32L4xx_HAL_Driver/Inc/stm32l4xx_ll_spi.h **** }
 416:../Drivers/STM32L4xx_HAL_Driver/Inc/stm32l4xx_ll_spi.h **** 
 417:../Drivers/STM32L4xx_HAL_Driver/Inc/stm32l4xx_ll_spi.h **** /**
 418:../Drivers/STM32L4xx_HAL_Driver/Inc/stm32l4xx_ll_spi.h ****   * @brief  Set serial protocol used
 419:../Drivers/STM32L4xx_HAL_Driver/Inc/stm32l4xx_ll_spi.h ****   * @note   This bit should be written only when SPI is disabled (SPE = 0) for correct operation.
 420:../Drivers/STM32L4xx_HAL_Driver/Inc/stm32l4xx_ll_spi.h ****   * @rmtoll CR2          FRF           LL_SPI_SetStandard
 421:../Drivers/STM32L4xx_HAL_Driver/Inc/stm32l4xx_ll_spi.h ****   * @param  SPIx SPI Instance
 422:../Drivers/STM32L4xx_HAL_Driver/Inc/stm32l4xx_ll_spi.h ****   * @param  Standard This parameter can be one of the following values:
 423:../Drivers/STM32L4xx_HAL_Driver/Inc/stm32l4xx_ll_spi.h ****   *         @arg @ref LL_SPI_PROTOCOL_MOTOROLA
 424:../Drivers/STM32L4xx_HAL_Driver/Inc/stm32l4xx_ll_spi.h ****   *         @arg @ref LL_SPI_PROTOCOL_TI
 425:../Drivers/STM32L4xx_HAL_Driver/Inc/stm32l4xx_ll_spi.h ****   * @retval None
 426:../Drivers/STM32L4xx_HAL_Driver/Inc/stm32l4xx_ll_spi.h ****   */
 427:../Drivers/STM32L4xx_HAL_Driver/Inc/stm32l4xx_ll_spi.h **** __STATIC_INLINE void LL_SPI_SetStandard(SPI_TypeDef *SPIx, uint32_t Standard)
 428:../Drivers/STM32L4xx_HAL_Driver/Inc/stm32l4xx_ll_spi.h **** {
 429:../Drivers/STM32L4xx_HAL_Driver/Inc/stm32l4xx_ll_spi.h ****   MODIFY_REG(SPIx->CR2, SPI_CR2_FRF, Standard);
 430:../Drivers/STM32L4xx_HAL_Driver/Inc/stm32l4xx_ll_spi.h **** }
 431:../Drivers/STM32L4xx_HAL_Driver/Inc/stm32l4xx_ll_spi.h **** 
 432:../Drivers/STM32L4xx_HAL_Driver/Inc/stm32l4xx_ll_spi.h **** /**
 433:../Drivers/STM32L4xx_HAL_Driver/Inc/stm32l4xx_ll_spi.h ****   * @brief  Get serial protocol used
ARM GAS  /tmp/ccAPcP1Z.s 			page 10


 434:../Drivers/STM32L4xx_HAL_Driver/Inc/stm32l4xx_ll_spi.h ****   * @rmtoll CR2          FRF           LL_SPI_GetStandard
 435:../Drivers/STM32L4xx_HAL_Driver/Inc/stm32l4xx_ll_spi.h ****   * @param  SPIx SPI Instance
 436:../Drivers/STM32L4xx_HAL_Driver/Inc/stm32l4xx_ll_spi.h ****   * @retval Returned value can be one of the following values:
 437:../Drivers/STM32L4xx_HAL_Driver/Inc/stm32l4xx_ll_spi.h ****   *         @arg @ref LL_SPI_PROTOCOL_MOTOROLA
 438:../Drivers/STM32L4xx_HAL_Driver/Inc/stm32l4xx_ll_spi.h ****   *         @arg @ref LL_SPI_PROTOCOL_TI
 439:../Drivers/STM32L4xx_HAL_Driver/Inc/stm32l4xx_ll_spi.h ****   */
 440:../Drivers/STM32L4xx_HAL_Driver/Inc/stm32l4xx_ll_spi.h **** __STATIC_INLINE uint32_t LL_SPI_GetStandard(SPI_TypeDef *SPIx)
 441:../Drivers/STM32L4xx_HAL_Driver/Inc/stm32l4xx_ll_spi.h **** {
 442:../Drivers/STM32L4xx_HAL_Driver/Inc/stm32l4xx_ll_spi.h ****   return (uint32_t)(READ_BIT(SPIx->CR2, SPI_CR2_FRF));
 443:../Drivers/STM32L4xx_HAL_Driver/Inc/stm32l4xx_ll_spi.h **** }
 444:../Drivers/STM32L4xx_HAL_Driver/Inc/stm32l4xx_ll_spi.h **** 
 445:../Drivers/STM32L4xx_HAL_Driver/Inc/stm32l4xx_ll_spi.h **** /**
 446:../Drivers/STM32L4xx_HAL_Driver/Inc/stm32l4xx_ll_spi.h ****   * @brief  Set clock phase
 447:../Drivers/STM32L4xx_HAL_Driver/Inc/stm32l4xx_ll_spi.h ****   * @note   This bit should not be changed when communication is ongoing.
 448:../Drivers/STM32L4xx_HAL_Driver/Inc/stm32l4xx_ll_spi.h ****   *         This bit is not used in SPI TI mode.
 449:../Drivers/STM32L4xx_HAL_Driver/Inc/stm32l4xx_ll_spi.h ****   * @rmtoll CR1          CPHA          LL_SPI_SetClockPhase
 450:../Drivers/STM32L4xx_HAL_Driver/Inc/stm32l4xx_ll_spi.h ****   * @param  SPIx SPI Instance
 451:../Drivers/STM32L4xx_HAL_Driver/Inc/stm32l4xx_ll_spi.h ****   * @param  ClockPhase This parameter can be one of the following values:
 452:../Drivers/STM32L4xx_HAL_Driver/Inc/stm32l4xx_ll_spi.h ****   *         @arg @ref LL_SPI_PHASE_1EDGE
 453:../Drivers/STM32L4xx_HAL_Driver/Inc/stm32l4xx_ll_spi.h ****   *         @arg @ref LL_SPI_PHASE_2EDGE
 454:../Drivers/STM32L4xx_HAL_Driver/Inc/stm32l4xx_ll_spi.h ****   * @retval None
 455:../Drivers/STM32L4xx_HAL_Driver/Inc/stm32l4xx_ll_spi.h ****   */
 456:../Drivers/STM32L4xx_HAL_Driver/Inc/stm32l4xx_ll_spi.h **** __STATIC_INLINE void LL_SPI_SetClockPhase(SPI_TypeDef *SPIx, uint32_t ClockPhase)
 457:../Drivers/STM32L4xx_HAL_Driver/Inc/stm32l4xx_ll_spi.h **** {
 458:../Drivers/STM32L4xx_HAL_Driver/Inc/stm32l4xx_ll_spi.h ****   MODIFY_REG(SPIx->CR1, SPI_CR1_CPHA, ClockPhase);
 459:../Drivers/STM32L4xx_HAL_Driver/Inc/stm32l4xx_ll_spi.h **** }
 460:../Drivers/STM32L4xx_HAL_Driver/Inc/stm32l4xx_ll_spi.h **** 
 461:../Drivers/STM32L4xx_HAL_Driver/Inc/stm32l4xx_ll_spi.h **** /**
 462:../Drivers/STM32L4xx_HAL_Driver/Inc/stm32l4xx_ll_spi.h ****   * @brief  Get clock phase
 463:../Drivers/STM32L4xx_HAL_Driver/Inc/stm32l4xx_ll_spi.h ****   * @rmtoll CR1          CPHA          LL_SPI_GetClockPhase
 464:../Drivers/STM32L4xx_HAL_Driver/Inc/stm32l4xx_ll_spi.h ****   * @param  SPIx SPI Instance
 465:../Drivers/STM32L4xx_HAL_Driver/Inc/stm32l4xx_ll_spi.h ****   * @retval Returned value can be one of the following values:
 466:../Drivers/STM32L4xx_HAL_Driver/Inc/stm32l4xx_ll_spi.h ****   *         @arg @ref LL_SPI_PHASE_1EDGE
 467:../Drivers/STM32L4xx_HAL_Driver/Inc/stm32l4xx_ll_spi.h ****   *         @arg @ref LL_SPI_PHASE_2EDGE
 468:../Drivers/STM32L4xx_HAL_Driver/Inc/stm32l4xx_ll_spi.h ****   */
 469:../Drivers/STM32L4xx_HAL_Driver/Inc/stm32l4xx_ll_spi.h **** __STATIC_INLINE uint32_t LL_SPI_GetClockPhase(SPI_TypeDef *SPIx)
 470:../Drivers/STM32L4xx_HAL_Driver/Inc/stm32l4xx_ll_spi.h **** {
 471:../Drivers/STM32L4xx_HAL_Driver/Inc/stm32l4xx_ll_spi.h ****   return (uint32_t)(READ_BIT(SPIx->CR1, SPI_CR1_CPHA));
 472:../Drivers/STM32L4xx_HAL_Driver/Inc/stm32l4xx_ll_spi.h **** }
 473:../Drivers/STM32L4xx_HAL_Driver/Inc/stm32l4xx_ll_spi.h **** 
 474:../Drivers/STM32L4xx_HAL_Driver/Inc/stm32l4xx_ll_spi.h **** /**
 475:../Drivers/STM32L4xx_HAL_Driver/Inc/stm32l4xx_ll_spi.h ****   * @brief  Set clock polarity
 476:../Drivers/STM32L4xx_HAL_Driver/Inc/stm32l4xx_ll_spi.h ****   * @note   This bit should not be changed when communication is ongoing.
 477:../Drivers/STM32L4xx_HAL_Driver/Inc/stm32l4xx_ll_spi.h ****   *         This bit is not used in SPI TI mode.
 478:../Drivers/STM32L4xx_HAL_Driver/Inc/stm32l4xx_ll_spi.h ****   * @rmtoll CR1          CPOL          LL_SPI_SetClockPolarity
 479:../Drivers/STM32L4xx_HAL_Driver/Inc/stm32l4xx_ll_spi.h ****   * @param  SPIx SPI Instance
 480:../Drivers/STM32L4xx_HAL_Driver/Inc/stm32l4xx_ll_spi.h ****   * @param  ClockPolarity This parameter can be one of the following values:
 481:../Drivers/STM32L4xx_HAL_Driver/Inc/stm32l4xx_ll_spi.h ****   *         @arg @ref LL_SPI_POLARITY_LOW
 482:../Drivers/STM32L4xx_HAL_Driver/Inc/stm32l4xx_ll_spi.h ****   *         @arg @ref LL_SPI_POLARITY_HIGH
 483:../Drivers/STM32L4xx_HAL_Driver/Inc/stm32l4xx_ll_spi.h ****   * @retval None
 484:../Drivers/STM32L4xx_HAL_Driver/Inc/stm32l4xx_ll_spi.h ****   */
 485:../Drivers/STM32L4xx_HAL_Driver/Inc/stm32l4xx_ll_spi.h **** __STATIC_INLINE void LL_SPI_SetClockPolarity(SPI_TypeDef *SPIx, uint32_t ClockPolarity)
 486:../Drivers/STM32L4xx_HAL_Driver/Inc/stm32l4xx_ll_spi.h **** {
 487:../Drivers/STM32L4xx_HAL_Driver/Inc/stm32l4xx_ll_spi.h ****   MODIFY_REG(SPIx->CR1, SPI_CR1_CPOL, ClockPolarity);
 488:../Drivers/STM32L4xx_HAL_Driver/Inc/stm32l4xx_ll_spi.h **** }
 489:../Drivers/STM32L4xx_HAL_Driver/Inc/stm32l4xx_ll_spi.h **** 
 490:../Drivers/STM32L4xx_HAL_Driver/Inc/stm32l4xx_ll_spi.h **** /**
ARM GAS  /tmp/ccAPcP1Z.s 			page 11


 491:../Drivers/STM32L4xx_HAL_Driver/Inc/stm32l4xx_ll_spi.h ****   * @brief  Get clock polarity
 492:../Drivers/STM32L4xx_HAL_Driver/Inc/stm32l4xx_ll_spi.h ****   * @rmtoll CR1          CPOL          LL_SPI_GetClockPolarity
 493:../Drivers/STM32L4xx_HAL_Driver/Inc/stm32l4xx_ll_spi.h ****   * @param  SPIx SPI Instance
 494:../Drivers/STM32L4xx_HAL_Driver/Inc/stm32l4xx_ll_spi.h ****   * @retval Returned value can be one of the following values:
 495:../Drivers/STM32L4xx_HAL_Driver/Inc/stm32l4xx_ll_spi.h ****   *         @arg @ref LL_SPI_POLARITY_LOW
 496:../Drivers/STM32L4xx_HAL_Driver/Inc/stm32l4xx_ll_spi.h ****   *         @arg @ref LL_SPI_POLARITY_HIGH
 497:../Drivers/STM32L4xx_HAL_Driver/Inc/stm32l4xx_ll_spi.h ****   */
 498:../Drivers/STM32L4xx_HAL_Driver/Inc/stm32l4xx_ll_spi.h **** __STATIC_INLINE uint32_t LL_SPI_GetClockPolarity(SPI_TypeDef *SPIx)
 499:../Drivers/STM32L4xx_HAL_Driver/Inc/stm32l4xx_ll_spi.h **** {
 500:../Drivers/STM32L4xx_HAL_Driver/Inc/stm32l4xx_ll_spi.h ****   return (uint32_t)(READ_BIT(SPIx->CR1, SPI_CR1_CPOL));
 501:../Drivers/STM32L4xx_HAL_Driver/Inc/stm32l4xx_ll_spi.h **** }
 502:../Drivers/STM32L4xx_HAL_Driver/Inc/stm32l4xx_ll_spi.h **** 
 503:../Drivers/STM32L4xx_HAL_Driver/Inc/stm32l4xx_ll_spi.h **** /**
 504:../Drivers/STM32L4xx_HAL_Driver/Inc/stm32l4xx_ll_spi.h ****   * @brief  Set baud rate prescaler
 505:../Drivers/STM32L4xx_HAL_Driver/Inc/stm32l4xx_ll_spi.h ****   * @note   These bits should not be changed when communication is ongoing. SPI BaudRate = fPCLK/Pr
 506:../Drivers/STM32L4xx_HAL_Driver/Inc/stm32l4xx_ll_spi.h ****   * @rmtoll CR1          BR            LL_SPI_SetBaudRatePrescaler
 507:../Drivers/STM32L4xx_HAL_Driver/Inc/stm32l4xx_ll_spi.h ****   * @param  SPIx SPI Instance
 508:../Drivers/STM32L4xx_HAL_Driver/Inc/stm32l4xx_ll_spi.h ****   * @param  BaudRate This parameter can be one of the following values:
 509:../Drivers/STM32L4xx_HAL_Driver/Inc/stm32l4xx_ll_spi.h ****   *         @arg @ref LL_SPI_BAUDRATEPRESCALER_DIV2
 510:../Drivers/STM32L4xx_HAL_Driver/Inc/stm32l4xx_ll_spi.h ****   *         @arg @ref LL_SPI_BAUDRATEPRESCALER_DIV4
 511:../Drivers/STM32L4xx_HAL_Driver/Inc/stm32l4xx_ll_spi.h ****   *         @arg @ref LL_SPI_BAUDRATEPRESCALER_DIV8
 512:../Drivers/STM32L4xx_HAL_Driver/Inc/stm32l4xx_ll_spi.h ****   *         @arg @ref LL_SPI_BAUDRATEPRESCALER_DIV16
 513:../Drivers/STM32L4xx_HAL_Driver/Inc/stm32l4xx_ll_spi.h ****   *         @arg @ref LL_SPI_BAUDRATEPRESCALER_DIV32
 514:../Drivers/STM32L4xx_HAL_Driver/Inc/stm32l4xx_ll_spi.h ****   *         @arg @ref LL_SPI_BAUDRATEPRESCALER_DIV64
 515:../Drivers/STM32L4xx_HAL_Driver/Inc/stm32l4xx_ll_spi.h ****   *         @arg @ref LL_SPI_BAUDRATEPRESCALER_DIV128
 516:../Drivers/STM32L4xx_HAL_Driver/Inc/stm32l4xx_ll_spi.h ****   *         @arg @ref LL_SPI_BAUDRATEPRESCALER_DIV256
 517:../Drivers/STM32L4xx_HAL_Driver/Inc/stm32l4xx_ll_spi.h ****   * @retval None
 518:../Drivers/STM32L4xx_HAL_Driver/Inc/stm32l4xx_ll_spi.h ****   */
 519:../Drivers/STM32L4xx_HAL_Driver/Inc/stm32l4xx_ll_spi.h **** __STATIC_INLINE void LL_SPI_SetBaudRatePrescaler(SPI_TypeDef *SPIx, uint32_t BaudRate)
 520:../Drivers/STM32L4xx_HAL_Driver/Inc/stm32l4xx_ll_spi.h **** {
 521:../Drivers/STM32L4xx_HAL_Driver/Inc/stm32l4xx_ll_spi.h ****   MODIFY_REG(SPIx->CR1, SPI_CR1_BR, BaudRate);
 522:../Drivers/STM32L4xx_HAL_Driver/Inc/stm32l4xx_ll_spi.h **** }
 523:../Drivers/STM32L4xx_HAL_Driver/Inc/stm32l4xx_ll_spi.h **** 
 524:../Drivers/STM32L4xx_HAL_Driver/Inc/stm32l4xx_ll_spi.h **** /**
 525:../Drivers/STM32L4xx_HAL_Driver/Inc/stm32l4xx_ll_spi.h ****   * @brief  Get baud rate prescaler
 526:../Drivers/STM32L4xx_HAL_Driver/Inc/stm32l4xx_ll_spi.h ****   * @rmtoll CR1          BR            LL_SPI_GetBaudRatePrescaler
 527:../Drivers/STM32L4xx_HAL_Driver/Inc/stm32l4xx_ll_spi.h ****   * @param  SPIx SPI Instance
 528:../Drivers/STM32L4xx_HAL_Driver/Inc/stm32l4xx_ll_spi.h ****   * @retval Returned value can be one of the following values:
 529:../Drivers/STM32L4xx_HAL_Driver/Inc/stm32l4xx_ll_spi.h ****   *         @arg @ref LL_SPI_BAUDRATEPRESCALER_DIV2
 530:../Drivers/STM32L4xx_HAL_Driver/Inc/stm32l4xx_ll_spi.h ****   *         @arg @ref LL_SPI_BAUDRATEPRESCALER_DIV4
 531:../Drivers/STM32L4xx_HAL_Driver/Inc/stm32l4xx_ll_spi.h ****   *         @arg @ref LL_SPI_BAUDRATEPRESCALER_DIV8
 532:../Drivers/STM32L4xx_HAL_Driver/Inc/stm32l4xx_ll_spi.h ****   *         @arg @ref LL_SPI_BAUDRATEPRESCALER_DIV16
 533:../Drivers/STM32L4xx_HAL_Driver/Inc/stm32l4xx_ll_spi.h ****   *         @arg @ref LL_SPI_BAUDRATEPRESCALER_DIV32
 534:../Drivers/STM32L4xx_HAL_Driver/Inc/stm32l4xx_ll_spi.h ****   *         @arg @ref LL_SPI_BAUDRATEPRESCALER_DIV64
 535:../Drivers/STM32L4xx_HAL_Driver/Inc/stm32l4xx_ll_spi.h ****   *         @arg @ref LL_SPI_BAUDRATEPRESCALER_DIV128
 536:../Drivers/STM32L4xx_HAL_Driver/Inc/stm32l4xx_ll_spi.h ****   *         @arg @ref LL_SPI_BAUDRATEPRESCALER_DIV256
 537:../Drivers/STM32L4xx_HAL_Driver/Inc/stm32l4xx_ll_spi.h ****   */
 538:../Drivers/STM32L4xx_HAL_Driver/Inc/stm32l4xx_ll_spi.h **** __STATIC_INLINE uint32_t LL_SPI_GetBaudRatePrescaler(SPI_TypeDef *SPIx)
 539:../Drivers/STM32L4xx_HAL_Driver/Inc/stm32l4xx_ll_spi.h **** {
 540:../Drivers/STM32L4xx_HAL_Driver/Inc/stm32l4xx_ll_spi.h ****   return (uint32_t)(READ_BIT(SPIx->CR1, SPI_CR1_BR));
 541:../Drivers/STM32L4xx_HAL_Driver/Inc/stm32l4xx_ll_spi.h **** }
 542:../Drivers/STM32L4xx_HAL_Driver/Inc/stm32l4xx_ll_spi.h **** 
 543:../Drivers/STM32L4xx_HAL_Driver/Inc/stm32l4xx_ll_spi.h **** /**
 544:../Drivers/STM32L4xx_HAL_Driver/Inc/stm32l4xx_ll_spi.h ****   * @brief  Set transfer bit order
 545:../Drivers/STM32L4xx_HAL_Driver/Inc/stm32l4xx_ll_spi.h ****   * @note   This bit should not be changed when communication is ongoing. This bit is not used in S
 546:../Drivers/STM32L4xx_HAL_Driver/Inc/stm32l4xx_ll_spi.h ****   * @rmtoll CR1          LSBFIRST      LL_SPI_SetTransferBitOrder
 547:../Drivers/STM32L4xx_HAL_Driver/Inc/stm32l4xx_ll_spi.h ****   * @param  SPIx SPI Instance
ARM GAS  /tmp/ccAPcP1Z.s 			page 12


 548:../Drivers/STM32L4xx_HAL_Driver/Inc/stm32l4xx_ll_spi.h ****   * @param  BitOrder This parameter can be one of the following values:
 549:../Drivers/STM32L4xx_HAL_Driver/Inc/stm32l4xx_ll_spi.h ****   *         @arg @ref LL_SPI_LSB_FIRST
 550:../Drivers/STM32L4xx_HAL_Driver/Inc/stm32l4xx_ll_spi.h ****   *         @arg @ref LL_SPI_MSB_FIRST
 551:../Drivers/STM32L4xx_HAL_Driver/Inc/stm32l4xx_ll_spi.h ****   * @retval None
 552:../Drivers/STM32L4xx_HAL_Driver/Inc/stm32l4xx_ll_spi.h ****   */
 553:../Drivers/STM32L4xx_HAL_Driver/Inc/stm32l4xx_ll_spi.h **** __STATIC_INLINE void LL_SPI_SetTransferBitOrder(SPI_TypeDef *SPIx, uint32_t BitOrder)
 554:../Drivers/STM32L4xx_HAL_Driver/Inc/stm32l4xx_ll_spi.h **** {
 555:../Drivers/STM32L4xx_HAL_Driver/Inc/stm32l4xx_ll_spi.h ****   MODIFY_REG(SPIx->CR1, SPI_CR1_LSBFIRST, BitOrder);
 556:../Drivers/STM32L4xx_HAL_Driver/Inc/stm32l4xx_ll_spi.h **** }
 557:../Drivers/STM32L4xx_HAL_Driver/Inc/stm32l4xx_ll_spi.h **** 
 558:../Drivers/STM32L4xx_HAL_Driver/Inc/stm32l4xx_ll_spi.h **** /**
 559:../Drivers/STM32L4xx_HAL_Driver/Inc/stm32l4xx_ll_spi.h ****   * @brief  Get transfer bit order
 560:../Drivers/STM32L4xx_HAL_Driver/Inc/stm32l4xx_ll_spi.h ****   * @rmtoll CR1          LSBFIRST      LL_SPI_GetTransferBitOrder
 561:../Drivers/STM32L4xx_HAL_Driver/Inc/stm32l4xx_ll_spi.h ****   * @param  SPIx SPI Instance
 562:../Drivers/STM32L4xx_HAL_Driver/Inc/stm32l4xx_ll_spi.h ****   * @retval Returned value can be one of the following values:
 563:../Drivers/STM32L4xx_HAL_Driver/Inc/stm32l4xx_ll_spi.h ****   *         @arg @ref LL_SPI_LSB_FIRST
 564:../Drivers/STM32L4xx_HAL_Driver/Inc/stm32l4xx_ll_spi.h ****   *         @arg @ref LL_SPI_MSB_FIRST
 565:../Drivers/STM32L4xx_HAL_Driver/Inc/stm32l4xx_ll_spi.h ****   */
 566:../Drivers/STM32L4xx_HAL_Driver/Inc/stm32l4xx_ll_spi.h **** __STATIC_INLINE uint32_t LL_SPI_GetTransferBitOrder(SPI_TypeDef *SPIx)
 567:../Drivers/STM32L4xx_HAL_Driver/Inc/stm32l4xx_ll_spi.h **** {
 568:../Drivers/STM32L4xx_HAL_Driver/Inc/stm32l4xx_ll_spi.h ****   return (uint32_t)(READ_BIT(SPIx->CR1, SPI_CR1_LSBFIRST));
 569:../Drivers/STM32L4xx_HAL_Driver/Inc/stm32l4xx_ll_spi.h **** }
 570:../Drivers/STM32L4xx_HAL_Driver/Inc/stm32l4xx_ll_spi.h **** 
 571:../Drivers/STM32L4xx_HAL_Driver/Inc/stm32l4xx_ll_spi.h **** /**
 572:../Drivers/STM32L4xx_HAL_Driver/Inc/stm32l4xx_ll_spi.h ****   * @brief  Set transfer direction mode
 573:../Drivers/STM32L4xx_HAL_Driver/Inc/stm32l4xx_ll_spi.h ****   * @note   For Half-Duplex mode, Rx Direction is set by default.
 574:../Drivers/STM32L4xx_HAL_Driver/Inc/stm32l4xx_ll_spi.h ****   *         In master mode, the MOSI pin is used and in slave mode, the MISO pin is used for Half-D
 575:../Drivers/STM32L4xx_HAL_Driver/Inc/stm32l4xx_ll_spi.h ****   * @rmtoll CR1          RXONLY        LL_SPI_SetTransferDirection\n
 576:../Drivers/STM32L4xx_HAL_Driver/Inc/stm32l4xx_ll_spi.h ****   *         CR1          BIDIMODE      LL_SPI_SetTransferDirection\n
 577:../Drivers/STM32L4xx_HAL_Driver/Inc/stm32l4xx_ll_spi.h ****   *         CR1          BIDIOE        LL_SPI_SetTransferDirection
 578:../Drivers/STM32L4xx_HAL_Driver/Inc/stm32l4xx_ll_spi.h ****   * @param  SPIx SPI Instance
 579:../Drivers/STM32L4xx_HAL_Driver/Inc/stm32l4xx_ll_spi.h ****   * @param  TransferDirection This parameter can be one of the following values:
 580:../Drivers/STM32L4xx_HAL_Driver/Inc/stm32l4xx_ll_spi.h ****   *         @arg @ref LL_SPI_FULL_DUPLEX
 581:../Drivers/STM32L4xx_HAL_Driver/Inc/stm32l4xx_ll_spi.h ****   *         @arg @ref LL_SPI_SIMPLEX_RX
 582:../Drivers/STM32L4xx_HAL_Driver/Inc/stm32l4xx_ll_spi.h ****   *         @arg @ref LL_SPI_HALF_DUPLEX_RX
 583:../Drivers/STM32L4xx_HAL_Driver/Inc/stm32l4xx_ll_spi.h ****   *         @arg @ref LL_SPI_HALF_DUPLEX_TX
 584:../Drivers/STM32L4xx_HAL_Driver/Inc/stm32l4xx_ll_spi.h ****   * @retval None
 585:../Drivers/STM32L4xx_HAL_Driver/Inc/stm32l4xx_ll_spi.h ****   */
 586:../Drivers/STM32L4xx_HAL_Driver/Inc/stm32l4xx_ll_spi.h **** __STATIC_INLINE void LL_SPI_SetTransferDirection(SPI_TypeDef *SPIx, uint32_t TransferDirection)
 587:../Drivers/STM32L4xx_HAL_Driver/Inc/stm32l4xx_ll_spi.h **** {
 588:../Drivers/STM32L4xx_HAL_Driver/Inc/stm32l4xx_ll_spi.h ****   MODIFY_REG(SPIx->CR1, SPI_CR1_RXONLY | SPI_CR1_BIDIMODE | SPI_CR1_BIDIOE, TransferDirection);
 589:../Drivers/STM32L4xx_HAL_Driver/Inc/stm32l4xx_ll_spi.h **** }
 590:../Drivers/STM32L4xx_HAL_Driver/Inc/stm32l4xx_ll_spi.h **** 
 591:../Drivers/STM32L4xx_HAL_Driver/Inc/stm32l4xx_ll_spi.h **** /**
 592:../Drivers/STM32L4xx_HAL_Driver/Inc/stm32l4xx_ll_spi.h ****   * @brief  Get transfer direction mode
 593:../Drivers/STM32L4xx_HAL_Driver/Inc/stm32l4xx_ll_spi.h ****   * @rmtoll CR1          RXONLY        LL_SPI_GetTransferDirection\n
 594:../Drivers/STM32L4xx_HAL_Driver/Inc/stm32l4xx_ll_spi.h ****   *         CR1          BIDIMODE      LL_SPI_GetTransferDirection\n
 595:../Drivers/STM32L4xx_HAL_Driver/Inc/stm32l4xx_ll_spi.h ****   *         CR1          BIDIOE        LL_SPI_GetTransferDirection
 596:../Drivers/STM32L4xx_HAL_Driver/Inc/stm32l4xx_ll_spi.h ****   * @param  SPIx SPI Instance
 597:../Drivers/STM32L4xx_HAL_Driver/Inc/stm32l4xx_ll_spi.h ****   * @retval Returned value can be one of the following values:
 598:../Drivers/STM32L4xx_HAL_Driver/Inc/stm32l4xx_ll_spi.h ****   *         @arg @ref LL_SPI_FULL_DUPLEX
 599:../Drivers/STM32L4xx_HAL_Driver/Inc/stm32l4xx_ll_spi.h ****   *         @arg @ref LL_SPI_SIMPLEX_RX
 600:../Drivers/STM32L4xx_HAL_Driver/Inc/stm32l4xx_ll_spi.h ****   *         @arg @ref LL_SPI_HALF_DUPLEX_RX
 601:../Drivers/STM32L4xx_HAL_Driver/Inc/stm32l4xx_ll_spi.h ****   *         @arg @ref LL_SPI_HALF_DUPLEX_TX
 602:../Drivers/STM32L4xx_HAL_Driver/Inc/stm32l4xx_ll_spi.h ****   */
 603:../Drivers/STM32L4xx_HAL_Driver/Inc/stm32l4xx_ll_spi.h **** __STATIC_INLINE uint32_t LL_SPI_GetTransferDirection(SPI_TypeDef *SPIx)
 604:../Drivers/STM32L4xx_HAL_Driver/Inc/stm32l4xx_ll_spi.h **** {
ARM GAS  /tmp/ccAPcP1Z.s 			page 13


 605:../Drivers/STM32L4xx_HAL_Driver/Inc/stm32l4xx_ll_spi.h ****   return (uint32_t)(READ_BIT(SPIx->CR1, SPI_CR1_RXONLY | SPI_CR1_BIDIMODE | SPI_CR1_BIDIOE));
 606:../Drivers/STM32L4xx_HAL_Driver/Inc/stm32l4xx_ll_spi.h **** }
 607:../Drivers/STM32L4xx_HAL_Driver/Inc/stm32l4xx_ll_spi.h **** 
 608:../Drivers/STM32L4xx_HAL_Driver/Inc/stm32l4xx_ll_spi.h **** /**
 609:../Drivers/STM32L4xx_HAL_Driver/Inc/stm32l4xx_ll_spi.h ****   * @brief  Set frame data width
 610:../Drivers/STM32L4xx_HAL_Driver/Inc/stm32l4xx_ll_spi.h ****   * @rmtoll CR2          DS            LL_SPI_SetDataWidth
 611:../Drivers/STM32L4xx_HAL_Driver/Inc/stm32l4xx_ll_spi.h ****   * @param  SPIx SPI Instance
 612:../Drivers/STM32L4xx_HAL_Driver/Inc/stm32l4xx_ll_spi.h ****   * @param  DataWidth This parameter can be one of the following values:
 613:../Drivers/STM32L4xx_HAL_Driver/Inc/stm32l4xx_ll_spi.h ****   *         @arg @ref LL_SPI_DATAWIDTH_4BIT
 614:../Drivers/STM32L4xx_HAL_Driver/Inc/stm32l4xx_ll_spi.h ****   *         @arg @ref LL_SPI_DATAWIDTH_5BIT
 615:../Drivers/STM32L4xx_HAL_Driver/Inc/stm32l4xx_ll_spi.h ****   *         @arg @ref LL_SPI_DATAWIDTH_6BIT
 616:../Drivers/STM32L4xx_HAL_Driver/Inc/stm32l4xx_ll_spi.h ****   *         @arg @ref LL_SPI_DATAWIDTH_7BIT
 617:../Drivers/STM32L4xx_HAL_Driver/Inc/stm32l4xx_ll_spi.h ****   *         @arg @ref LL_SPI_DATAWIDTH_8BIT
 618:../Drivers/STM32L4xx_HAL_Driver/Inc/stm32l4xx_ll_spi.h ****   *         @arg @ref LL_SPI_DATAWIDTH_9BIT
 619:../Drivers/STM32L4xx_HAL_Driver/Inc/stm32l4xx_ll_spi.h ****   *         @arg @ref LL_SPI_DATAWIDTH_10BIT
 620:../Drivers/STM32L4xx_HAL_Driver/Inc/stm32l4xx_ll_spi.h ****   *         @arg @ref LL_SPI_DATAWIDTH_11BIT
 621:../Drivers/STM32L4xx_HAL_Driver/Inc/stm32l4xx_ll_spi.h ****   *         @arg @ref LL_SPI_DATAWIDTH_12BIT
 622:../Drivers/STM32L4xx_HAL_Driver/Inc/stm32l4xx_ll_spi.h ****   *         @arg @ref LL_SPI_DATAWIDTH_13BIT
 623:../Drivers/STM32L4xx_HAL_Driver/Inc/stm32l4xx_ll_spi.h ****   *         @arg @ref LL_SPI_DATAWIDTH_14BIT
 624:../Drivers/STM32L4xx_HAL_Driver/Inc/stm32l4xx_ll_spi.h ****   *         @arg @ref LL_SPI_DATAWIDTH_15BIT
 625:../Drivers/STM32L4xx_HAL_Driver/Inc/stm32l4xx_ll_spi.h ****   *         @arg @ref LL_SPI_DATAWIDTH_16BIT
 626:../Drivers/STM32L4xx_HAL_Driver/Inc/stm32l4xx_ll_spi.h ****   * @retval None
 627:../Drivers/STM32L4xx_HAL_Driver/Inc/stm32l4xx_ll_spi.h ****   */
 628:../Drivers/STM32L4xx_HAL_Driver/Inc/stm32l4xx_ll_spi.h **** __STATIC_INLINE void LL_SPI_SetDataWidth(SPI_TypeDef *SPIx, uint32_t DataWidth)
 629:../Drivers/STM32L4xx_HAL_Driver/Inc/stm32l4xx_ll_spi.h **** {
 630:../Drivers/STM32L4xx_HAL_Driver/Inc/stm32l4xx_ll_spi.h ****   MODIFY_REG(SPIx->CR2, SPI_CR2_DS, DataWidth);
 631:../Drivers/STM32L4xx_HAL_Driver/Inc/stm32l4xx_ll_spi.h **** }
 632:../Drivers/STM32L4xx_HAL_Driver/Inc/stm32l4xx_ll_spi.h **** 
 633:../Drivers/STM32L4xx_HAL_Driver/Inc/stm32l4xx_ll_spi.h **** /**
 634:../Drivers/STM32L4xx_HAL_Driver/Inc/stm32l4xx_ll_spi.h ****   * @brief  Get frame data width
 635:../Drivers/STM32L4xx_HAL_Driver/Inc/stm32l4xx_ll_spi.h ****   * @rmtoll CR2          DS            LL_SPI_GetDataWidth
 636:../Drivers/STM32L4xx_HAL_Driver/Inc/stm32l4xx_ll_spi.h ****   * @param  SPIx SPI Instance
 637:../Drivers/STM32L4xx_HAL_Driver/Inc/stm32l4xx_ll_spi.h ****   * @retval Returned value can be one of the following values:
 638:../Drivers/STM32L4xx_HAL_Driver/Inc/stm32l4xx_ll_spi.h ****   *         @arg @ref LL_SPI_DATAWIDTH_4BIT
 639:../Drivers/STM32L4xx_HAL_Driver/Inc/stm32l4xx_ll_spi.h ****   *         @arg @ref LL_SPI_DATAWIDTH_5BIT
 640:../Drivers/STM32L4xx_HAL_Driver/Inc/stm32l4xx_ll_spi.h ****   *         @arg @ref LL_SPI_DATAWIDTH_6BIT
 641:../Drivers/STM32L4xx_HAL_Driver/Inc/stm32l4xx_ll_spi.h ****   *         @arg @ref LL_SPI_DATAWIDTH_7BIT
 642:../Drivers/STM32L4xx_HAL_Driver/Inc/stm32l4xx_ll_spi.h ****   *         @arg @ref LL_SPI_DATAWIDTH_8BIT
 643:../Drivers/STM32L4xx_HAL_Driver/Inc/stm32l4xx_ll_spi.h ****   *         @arg @ref LL_SPI_DATAWIDTH_9BIT
 644:../Drivers/STM32L4xx_HAL_Driver/Inc/stm32l4xx_ll_spi.h ****   *         @arg @ref LL_SPI_DATAWIDTH_10BIT
 645:../Drivers/STM32L4xx_HAL_Driver/Inc/stm32l4xx_ll_spi.h ****   *         @arg @ref LL_SPI_DATAWIDTH_11BIT
 646:../Drivers/STM32L4xx_HAL_Driver/Inc/stm32l4xx_ll_spi.h ****   *         @arg @ref LL_SPI_DATAWIDTH_12BIT
 647:../Drivers/STM32L4xx_HAL_Driver/Inc/stm32l4xx_ll_spi.h ****   *         @arg @ref LL_SPI_DATAWIDTH_13BIT
 648:../Drivers/STM32L4xx_HAL_Driver/Inc/stm32l4xx_ll_spi.h ****   *         @arg @ref LL_SPI_DATAWIDTH_14BIT
 649:../Drivers/STM32L4xx_HAL_Driver/Inc/stm32l4xx_ll_spi.h ****   *         @arg @ref LL_SPI_DATAWIDTH_15BIT
 650:../Drivers/STM32L4xx_HAL_Driver/Inc/stm32l4xx_ll_spi.h ****   *         @arg @ref LL_SPI_DATAWIDTH_16BIT
 651:../Drivers/STM32L4xx_HAL_Driver/Inc/stm32l4xx_ll_spi.h ****   */
 652:../Drivers/STM32L4xx_HAL_Driver/Inc/stm32l4xx_ll_spi.h **** __STATIC_INLINE uint32_t LL_SPI_GetDataWidth(SPI_TypeDef *SPIx)
 653:../Drivers/STM32L4xx_HAL_Driver/Inc/stm32l4xx_ll_spi.h **** {
 654:../Drivers/STM32L4xx_HAL_Driver/Inc/stm32l4xx_ll_spi.h ****   return (uint32_t)(READ_BIT(SPIx->CR2, SPI_CR2_DS));
 655:../Drivers/STM32L4xx_HAL_Driver/Inc/stm32l4xx_ll_spi.h **** }
 656:../Drivers/STM32L4xx_HAL_Driver/Inc/stm32l4xx_ll_spi.h **** 
 657:../Drivers/STM32L4xx_HAL_Driver/Inc/stm32l4xx_ll_spi.h **** /**
 658:../Drivers/STM32L4xx_HAL_Driver/Inc/stm32l4xx_ll_spi.h ****   * @brief  Set threshold of RXFIFO that triggers an RXNE event
 659:../Drivers/STM32L4xx_HAL_Driver/Inc/stm32l4xx_ll_spi.h ****   * @rmtoll CR2          FRXTH         LL_SPI_SetRxFIFOThreshold
 660:../Drivers/STM32L4xx_HAL_Driver/Inc/stm32l4xx_ll_spi.h ****   * @param  SPIx SPI Instance
 661:../Drivers/STM32L4xx_HAL_Driver/Inc/stm32l4xx_ll_spi.h ****   * @param  Threshold This parameter can be one of the following values:
ARM GAS  /tmp/ccAPcP1Z.s 			page 14


 662:../Drivers/STM32L4xx_HAL_Driver/Inc/stm32l4xx_ll_spi.h ****   *         @arg @ref LL_SPI_RX_FIFO_TH_HALF
 663:../Drivers/STM32L4xx_HAL_Driver/Inc/stm32l4xx_ll_spi.h ****   *         @arg @ref LL_SPI_RX_FIFO_TH_QUARTER
 664:../Drivers/STM32L4xx_HAL_Driver/Inc/stm32l4xx_ll_spi.h ****   * @retval None
 665:../Drivers/STM32L4xx_HAL_Driver/Inc/stm32l4xx_ll_spi.h ****   */
 666:../Drivers/STM32L4xx_HAL_Driver/Inc/stm32l4xx_ll_spi.h **** __STATIC_INLINE void LL_SPI_SetRxFIFOThreshold(SPI_TypeDef *SPIx, uint32_t Threshold)
 667:../Drivers/STM32L4xx_HAL_Driver/Inc/stm32l4xx_ll_spi.h **** {
 668:../Drivers/STM32L4xx_HAL_Driver/Inc/stm32l4xx_ll_spi.h ****   MODIFY_REG(SPIx->CR2, SPI_CR2_FRXTH, Threshold);
 669:../Drivers/STM32L4xx_HAL_Driver/Inc/stm32l4xx_ll_spi.h **** }
 670:../Drivers/STM32L4xx_HAL_Driver/Inc/stm32l4xx_ll_spi.h **** 
 671:../Drivers/STM32L4xx_HAL_Driver/Inc/stm32l4xx_ll_spi.h **** /**
 672:../Drivers/STM32L4xx_HAL_Driver/Inc/stm32l4xx_ll_spi.h ****   * @brief  Get threshold of RXFIFO that triggers an RXNE event
 673:../Drivers/STM32L4xx_HAL_Driver/Inc/stm32l4xx_ll_spi.h ****   * @rmtoll CR2          FRXTH         LL_SPI_GetRxFIFOThreshold
 674:../Drivers/STM32L4xx_HAL_Driver/Inc/stm32l4xx_ll_spi.h ****   * @param  SPIx SPI Instance
 675:../Drivers/STM32L4xx_HAL_Driver/Inc/stm32l4xx_ll_spi.h ****   * @retval Returned value can be one of the following values:
 676:../Drivers/STM32L4xx_HAL_Driver/Inc/stm32l4xx_ll_spi.h ****   *         @arg @ref LL_SPI_RX_FIFO_TH_HALF
 677:../Drivers/STM32L4xx_HAL_Driver/Inc/stm32l4xx_ll_spi.h ****   *         @arg @ref LL_SPI_RX_FIFO_TH_QUARTER
 678:../Drivers/STM32L4xx_HAL_Driver/Inc/stm32l4xx_ll_spi.h ****   */
 679:../Drivers/STM32L4xx_HAL_Driver/Inc/stm32l4xx_ll_spi.h **** __STATIC_INLINE uint32_t LL_SPI_GetRxFIFOThreshold(SPI_TypeDef *SPIx)
 680:../Drivers/STM32L4xx_HAL_Driver/Inc/stm32l4xx_ll_spi.h **** {
 681:../Drivers/STM32L4xx_HAL_Driver/Inc/stm32l4xx_ll_spi.h ****   return (uint32_t)(READ_BIT(SPIx->CR2, SPI_CR2_FRXTH));
 682:../Drivers/STM32L4xx_HAL_Driver/Inc/stm32l4xx_ll_spi.h **** }
 683:../Drivers/STM32L4xx_HAL_Driver/Inc/stm32l4xx_ll_spi.h **** 
 684:../Drivers/STM32L4xx_HAL_Driver/Inc/stm32l4xx_ll_spi.h **** /**
 685:../Drivers/STM32L4xx_HAL_Driver/Inc/stm32l4xx_ll_spi.h ****   * @}
 686:../Drivers/STM32L4xx_HAL_Driver/Inc/stm32l4xx_ll_spi.h ****   */
 687:../Drivers/STM32L4xx_HAL_Driver/Inc/stm32l4xx_ll_spi.h **** 
 688:../Drivers/STM32L4xx_HAL_Driver/Inc/stm32l4xx_ll_spi.h **** /** @defgroup SPI_LL_EF_CRC_Management CRC Management
 689:../Drivers/STM32L4xx_HAL_Driver/Inc/stm32l4xx_ll_spi.h ****   * @{
 690:../Drivers/STM32L4xx_HAL_Driver/Inc/stm32l4xx_ll_spi.h ****   */
 691:../Drivers/STM32L4xx_HAL_Driver/Inc/stm32l4xx_ll_spi.h **** 
 692:../Drivers/STM32L4xx_HAL_Driver/Inc/stm32l4xx_ll_spi.h **** /**
 693:../Drivers/STM32L4xx_HAL_Driver/Inc/stm32l4xx_ll_spi.h ****   * @brief  Enable CRC
 694:../Drivers/STM32L4xx_HAL_Driver/Inc/stm32l4xx_ll_spi.h ****   * @note   This bit should be written only when SPI is disabled (SPE = 0) for correct operation.
 695:../Drivers/STM32L4xx_HAL_Driver/Inc/stm32l4xx_ll_spi.h ****   * @rmtoll CR1          CRCEN         LL_SPI_EnableCRC
 696:../Drivers/STM32L4xx_HAL_Driver/Inc/stm32l4xx_ll_spi.h ****   * @param  SPIx SPI Instance
 697:../Drivers/STM32L4xx_HAL_Driver/Inc/stm32l4xx_ll_spi.h ****   * @retval None
 698:../Drivers/STM32L4xx_HAL_Driver/Inc/stm32l4xx_ll_spi.h ****   */
 699:../Drivers/STM32L4xx_HAL_Driver/Inc/stm32l4xx_ll_spi.h **** __STATIC_INLINE void LL_SPI_EnableCRC(SPI_TypeDef *SPIx)
 700:../Drivers/STM32L4xx_HAL_Driver/Inc/stm32l4xx_ll_spi.h **** {
 701:../Drivers/STM32L4xx_HAL_Driver/Inc/stm32l4xx_ll_spi.h ****   SET_BIT(SPIx->CR1, SPI_CR1_CRCEN);
 702:../Drivers/STM32L4xx_HAL_Driver/Inc/stm32l4xx_ll_spi.h **** }
 703:../Drivers/STM32L4xx_HAL_Driver/Inc/stm32l4xx_ll_spi.h **** 
 704:../Drivers/STM32L4xx_HAL_Driver/Inc/stm32l4xx_ll_spi.h **** /**
 705:../Drivers/STM32L4xx_HAL_Driver/Inc/stm32l4xx_ll_spi.h ****   * @brief  Disable CRC
 706:../Drivers/STM32L4xx_HAL_Driver/Inc/stm32l4xx_ll_spi.h ****   * @note   This bit should be written only when SPI is disabled (SPE = 0) for correct operation.
 707:../Drivers/STM32L4xx_HAL_Driver/Inc/stm32l4xx_ll_spi.h ****   * @rmtoll CR1          CRCEN         LL_SPI_DisableCRC
 708:../Drivers/STM32L4xx_HAL_Driver/Inc/stm32l4xx_ll_spi.h ****   * @param  SPIx SPI Instance
 709:../Drivers/STM32L4xx_HAL_Driver/Inc/stm32l4xx_ll_spi.h ****   * @retval None
 710:../Drivers/STM32L4xx_HAL_Driver/Inc/stm32l4xx_ll_spi.h ****   */
 711:../Drivers/STM32L4xx_HAL_Driver/Inc/stm32l4xx_ll_spi.h **** __STATIC_INLINE void LL_SPI_DisableCRC(SPI_TypeDef *SPIx)
 712:../Drivers/STM32L4xx_HAL_Driver/Inc/stm32l4xx_ll_spi.h **** {
 713:../Drivers/STM32L4xx_HAL_Driver/Inc/stm32l4xx_ll_spi.h ****   CLEAR_BIT(SPIx->CR1, SPI_CR1_CRCEN);
 714:../Drivers/STM32L4xx_HAL_Driver/Inc/stm32l4xx_ll_spi.h **** }
 715:../Drivers/STM32L4xx_HAL_Driver/Inc/stm32l4xx_ll_spi.h **** 
 716:../Drivers/STM32L4xx_HAL_Driver/Inc/stm32l4xx_ll_spi.h **** /**
 717:../Drivers/STM32L4xx_HAL_Driver/Inc/stm32l4xx_ll_spi.h ****   * @brief  Check if CRC is enabled
 718:../Drivers/STM32L4xx_HAL_Driver/Inc/stm32l4xx_ll_spi.h ****   * @note   This bit should be written only when SPI is disabled (SPE = 0) for correct operation.
ARM GAS  /tmp/ccAPcP1Z.s 			page 15


 719:../Drivers/STM32L4xx_HAL_Driver/Inc/stm32l4xx_ll_spi.h ****   * @rmtoll CR1          CRCEN         LL_SPI_IsEnabledCRC
 720:../Drivers/STM32L4xx_HAL_Driver/Inc/stm32l4xx_ll_spi.h ****   * @param  SPIx SPI Instance
 721:../Drivers/STM32L4xx_HAL_Driver/Inc/stm32l4xx_ll_spi.h ****   * @retval State of bit (1 or 0).
 722:../Drivers/STM32L4xx_HAL_Driver/Inc/stm32l4xx_ll_spi.h ****   */
 723:../Drivers/STM32L4xx_HAL_Driver/Inc/stm32l4xx_ll_spi.h **** __STATIC_INLINE uint32_t LL_SPI_IsEnabledCRC(SPI_TypeDef *SPIx)
 724:../Drivers/STM32L4xx_HAL_Driver/Inc/stm32l4xx_ll_spi.h **** {
 725:../Drivers/STM32L4xx_HAL_Driver/Inc/stm32l4xx_ll_spi.h ****   return ((READ_BIT(SPIx->CR1, SPI_CR1_CRCEN) == (SPI_CR1_CRCEN)) ? 1UL : 0UL);
 726:../Drivers/STM32L4xx_HAL_Driver/Inc/stm32l4xx_ll_spi.h **** }
 727:../Drivers/STM32L4xx_HAL_Driver/Inc/stm32l4xx_ll_spi.h **** 
 728:../Drivers/STM32L4xx_HAL_Driver/Inc/stm32l4xx_ll_spi.h **** /**
 729:../Drivers/STM32L4xx_HAL_Driver/Inc/stm32l4xx_ll_spi.h ****   * @brief  Set CRC Length
 730:../Drivers/STM32L4xx_HAL_Driver/Inc/stm32l4xx_ll_spi.h ****   * @note   This bit should be written only when SPI is disabled (SPE = 0) for correct operation.
 731:../Drivers/STM32L4xx_HAL_Driver/Inc/stm32l4xx_ll_spi.h ****   * @rmtoll CR1          CRCL          LL_SPI_SetCRCWidth
 732:../Drivers/STM32L4xx_HAL_Driver/Inc/stm32l4xx_ll_spi.h ****   * @param  SPIx SPI Instance
 733:../Drivers/STM32L4xx_HAL_Driver/Inc/stm32l4xx_ll_spi.h ****   * @param  CRCLength This parameter can be one of the following values:
 734:../Drivers/STM32L4xx_HAL_Driver/Inc/stm32l4xx_ll_spi.h ****   *         @arg @ref LL_SPI_CRC_8BIT
 735:../Drivers/STM32L4xx_HAL_Driver/Inc/stm32l4xx_ll_spi.h ****   *         @arg @ref LL_SPI_CRC_16BIT
 736:../Drivers/STM32L4xx_HAL_Driver/Inc/stm32l4xx_ll_spi.h ****   * @retval None
 737:../Drivers/STM32L4xx_HAL_Driver/Inc/stm32l4xx_ll_spi.h ****   */
 738:../Drivers/STM32L4xx_HAL_Driver/Inc/stm32l4xx_ll_spi.h **** __STATIC_INLINE void LL_SPI_SetCRCWidth(SPI_TypeDef *SPIx, uint32_t CRCLength)
 739:../Drivers/STM32L4xx_HAL_Driver/Inc/stm32l4xx_ll_spi.h **** {
 740:../Drivers/STM32L4xx_HAL_Driver/Inc/stm32l4xx_ll_spi.h ****   MODIFY_REG(SPIx->CR1, SPI_CR1_CRCL, CRCLength);
 741:../Drivers/STM32L4xx_HAL_Driver/Inc/stm32l4xx_ll_spi.h **** }
 742:../Drivers/STM32L4xx_HAL_Driver/Inc/stm32l4xx_ll_spi.h **** 
 743:../Drivers/STM32L4xx_HAL_Driver/Inc/stm32l4xx_ll_spi.h **** /**
 744:../Drivers/STM32L4xx_HAL_Driver/Inc/stm32l4xx_ll_spi.h ****   * @brief  Get CRC Length
 745:../Drivers/STM32L4xx_HAL_Driver/Inc/stm32l4xx_ll_spi.h ****   * @rmtoll CR1          CRCL          LL_SPI_GetCRCWidth
 746:../Drivers/STM32L4xx_HAL_Driver/Inc/stm32l4xx_ll_spi.h ****   * @param  SPIx SPI Instance
 747:../Drivers/STM32L4xx_HAL_Driver/Inc/stm32l4xx_ll_spi.h ****   * @retval Returned value can be one of the following values:
 748:../Drivers/STM32L4xx_HAL_Driver/Inc/stm32l4xx_ll_spi.h ****   *         @arg @ref LL_SPI_CRC_8BIT
 749:../Drivers/STM32L4xx_HAL_Driver/Inc/stm32l4xx_ll_spi.h ****   *         @arg @ref LL_SPI_CRC_16BIT
 750:../Drivers/STM32L4xx_HAL_Driver/Inc/stm32l4xx_ll_spi.h ****   */
 751:../Drivers/STM32L4xx_HAL_Driver/Inc/stm32l4xx_ll_spi.h **** __STATIC_INLINE uint32_t LL_SPI_GetCRCWidth(SPI_TypeDef *SPIx)
 752:../Drivers/STM32L4xx_HAL_Driver/Inc/stm32l4xx_ll_spi.h **** {
 753:../Drivers/STM32L4xx_HAL_Driver/Inc/stm32l4xx_ll_spi.h ****   return (uint32_t)(READ_BIT(SPIx->CR1, SPI_CR1_CRCL));
 754:../Drivers/STM32L4xx_HAL_Driver/Inc/stm32l4xx_ll_spi.h **** }
 755:../Drivers/STM32L4xx_HAL_Driver/Inc/stm32l4xx_ll_spi.h **** 
 756:../Drivers/STM32L4xx_HAL_Driver/Inc/stm32l4xx_ll_spi.h **** /**
 757:../Drivers/STM32L4xx_HAL_Driver/Inc/stm32l4xx_ll_spi.h ****   * @brief  Set CRCNext to transfer CRC on the line
 758:../Drivers/STM32L4xx_HAL_Driver/Inc/stm32l4xx_ll_spi.h ****   * @note   This bit has to be written as soon as the last data is written in the SPIx_DR register.
 759:../Drivers/STM32L4xx_HAL_Driver/Inc/stm32l4xx_ll_spi.h ****   * @rmtoll CR1          CRCNEXT       LL_SPI_SetCRCNext
 760:../Drivers/STM32L4xx_HAL_Driver/Inc/stm32l4xx_ll_spi.h ****   * @param  SPIx SPI Instance
 761:../Drivers/STM32L4xx_HAL_Driver/Inc/stm32l4xx_ll_spi.h ****   * @retval None
 762:../Drivers/STM32L4xx_HAL_Driver/Inc/stm32l4xx_ll_spi.h ****   */
 763:../Drivers/STM32L4xx_HAL_Driver/Inc/stm32l4xx_ll_spi.h **** __STATIC_INLINE void LL_SPI_SetCRCNext(SPI_TypeDef *SPIx)
 764:../Drivers/STM32L4xx_HAL_Driver/Inc/stm32l4xx_ll_spi.h **** {
 765:../Drivers/STM32L4xx_HAL_Driver/Inc/stm32l4xx_ll_spi.h ****   SET_BIT(SPIx->CR1, SPI_CR1_CRCNEXT);
 766:../Drivers/STM32L4xx_HAL_Driver/Inc/stm32l4xx_ll_spi.h **** }
 767:../Drivers/STM32L4xx_HAL_Driver/Inc/stm32l4xx_ll_spi.h **** 
 768:../Drivers/STM32L4xx_HAL_Driver/Inc/stm32l4xx_ll_spi.h **** /**
 769:../Drivers/STM32L4xx_HAL_Driver/Inc/stm32l4xx_ll_spi.h ****   * @brief  Set polynomial for CRC calculation
 770:../Drivers/STM32L4xx_HAL_Driver/Inc/stm32l4xx_ll_spi.h ****   * @rmtoll CRCPR        CRCPOLY       LL_SPI_SetCRCPolynomial
 771:../Drivers/STM32L4xx_HAL_Driver/Inc/stm32l4xx_ll_spi.h ****   * @param  SPIx SPI Instance
 772:../Drivers/STM32L4xx_HAL_Driver/Inc/stm32l4xx_ll_spi.h ****   * @param  CRCPoly This parameter must be a number between Min_Data = 0x00 and Max_Data = 0xFFFF
 773:../Drivers/STM32L4xx_HAL_Driver/Inc/stm32l4xx_ll_spi.h ****   * @retval None
 774:../Drivers/STM32L4xx_HAL_Driver/Inc/stm32l4xx_ll_spi.h ****   */
 775:../Drivers/STM32L4xx_HAL_Driver/Inc/stm32l4xx_ll_spi.h **** __STATIC_INLINE void LL_SPI_SetCRCPolynomial(SPI_TypeDef *SPIx, uint32_t CRCPoly)
ARM GAS  /tmp/ccAPcP1Z.s 			page 16


 776:../Drivers/STM32L4xx_HAL_Driver/Inc/stm32l4xx_ll_spi.h **** {
  84              		.loc 1 776 1
  85              		.cfi_startproc
  86              		@ args = 0, pretend = 0, frame = 8
  87              		@ frame_needed = 1, uses_anonymous_args = 0
  88              		@ link register save eliminated.
  89 0000 80B4     		push	{r7}
  90              	.LCFI6:
  91              		.cfi_def_cfa_offset 4
  92              		.cfi_offset 7, -4
  93 0002 83B0     		sub	sp, sp, #12
  94              	.LCFI7:
  95              		.cfi_def_cfa_offset 16
  96 0004 00AF     		add	r7, sp, #0
  97              	.LCFI8:
  98              		.cfi_def_cfa_register 7
  99 0006 7860     		str	r0, [r7, #4]
 100 0008 3960     		str	r1, [r7]
 777:../Drivers/STM32L4xx_HAL_Driver/Inc/stm32l4xx_ll_spi.h ****   WRITE_REG(SPIx->CRCPR, (uint16_t)CRCPoly);
 101              		.loc 1 777 3
 102 000a 3B68     		ldr	r3, [r7]
 103 000c 9BB2     		uxth	r3, r3
 104 000e 1A46     		mov	r2, r3
 105 0010 7B68     		ldr	r3, [r7, #4]
 106 0012 1A61     		str	r2, [r3, #16]
 778:../Drivers/STM32L4xx_HAL_Driver/Inc/stm32l4xx_ll_spi.h **** }
 107              		.loc 1 778 1
 108 0014 00BF     		nop
 109 0016 0C37     		adds	r7, r7, #12
 110              	.LCFI9:
 111              		.cfi_def_cfa_offset 4
 112 0018 BD46     		mov	sp, r7
 113              	.LCFI10:
 114              		.cfi_def_cfa_register 13
 115              		@ sp needed
 116 001a 5DF8047B 		ldr	r7, [sp], #4
 117              	.LCFI11:
 118              		.cfi_restore 7
 119              		.cfi_def_cfa_offset 0
 120 001e 7047     		bx	lr
 121              		.cfi_endproc
 122              	.LFE340:
 124              		.section	.text.LL_APB1_GRP1_ForceReset,"ax",%progbits
 125              		.align	1
 126              		.syntax unified
 127              		.thumb
 128              		.thumb_func
 129              		.fpu fpv4-sp-d16
 131              	LL_APB1_GRP1_ForceReset:
 132              	.LFB413:
 133              		.file 2 "../Drivers/STM32L4xx_HAL_Driver/Inc/stm32l4xx_ll_bus.h"
   1:../Drivers/STM32L4xx_HAL_Driver/Inc/stm32l4xx_ll_bus.h **** /**
   2:../Drivers/STM32L4xx_HAL_Driver/Inc/stm32l4xx_ll_bus.h ****   ******************************************************************************
   3:../Drivers/STM32L4xx_HAL_Driver/Inc/stm32l4xx_ll_bus.h ****   * @file    stm32l4xx_ll_bus.h
   4:../Drivers/STM32L4xx_HAL_Driver/Inc/stm32l4xx_ll_bus.h ****   * @author  MCD Application Team
   5:../Drivers/STM32L4xx_HAL_Driver/Inc/stm32l4xx_ll_bus.h ****   * @brief   Header file of BUS LL module.
   6:../Drivers/STM32L4xx_HAL_Driver/Inc/stm32l4xx_ll_bus.h **** 
ARM GAS  /tmp/ccAPcP1Z.s 			page 17


   7:../Drivers/STM32L4xx_HAL_Driver/Inc/stm32l4xx_ll_bus.h ****   @verbatim
   8:../Drivers/STM32L4xx_HAL_Driver/Inc/stm32l4xx_ll_bus.h ****                       ##### RCC Limitations #####
   9:../Drivers/STM32L4xx_HAL_Driver/Inc/stm32l4xx_ll_bus.h ****   ==============================================================================
  10:../Drivers/STM32L4xx_HAL_Driver/Inc/stm32l4xx_ll_bus.h ****     [..]
  11:../Drivers/STM32L4xx_HAL_Driver/Inc/stm32l4xx_ll_bus.h ****       A delay between an RCC peripheral clock enable and the effective peripheral
  12:../Drivers/STM32L4xx_HAL_Driver/Inc/stm32l4xx_ll_bus.h ****       enabling should be taken into account in order to manage the peripheral read/write
  13:../Drivers/STM32L4xx_HAL_Driver/Inc/stm32l4xx_ll_bus.h ****       from/to registers.
  14:../Drivers/STM32L4xx_HAL_Driver/Inc/stm32l4xx_ll_bus.h ****       (+) This delay depends on the peripheral mapping.
  15:../Drivers/STM32L4xx_HAL_Driver/Inc/stm32l4xx_ll_bus.h ****         (++) AHB & APB peripherals, 1 dummy read is necessary
  16:../Drivers/STM32L4xx_HAL_Driver/Inc/stm32l4xx_ll_bus.h **** 
  17:../Drivers/STM32L4xx_HAL_Driver/Inc/stm32l4xx_ll_bus.h ****     [..]
  18:../Drivers/STM32L4xx_HAL_Driver/Inc/stm32l4xx_ll_bus.h ****       Workarounds:
  19:../Drivers/STM32L4xx_HAL_Driver/Inc/stm32l4xx_ll_bus.h ****       (#) For AHB & APB peripherals, a dummy read to the peripheral register has been
  20:../Drivers/STM32L4xx_HAL_Driver/Inc/stm32l4xx_ll_bus.h ****           inserted in each LL_{BUS}_GRP{x}_EnableClock() function.
  21:../Drivers/STM32L4xx_HAL_Driver/Inc/stm32l4xx_ll_bus.h **** 
  22:../Drivers/STM32L4xx_HAL_Driver/Inc/stm32l4xx_ll_bus.h ****   @endverbatim
  23:../Drivers/STM32L4xx_HAL_Driver/Inc/stm32l4xx_ll_bus.h ****   ******************************************************************************
  24:../Drivers/STM32L4xx_HAL_Driver/Inc/stm32l4xx_ll_bus.h ****   * @attention
  25:../Drivers/STM32L4xx_HAL_Driver/Inc/stm32l4xx_ll_bus.h ****   *
  26:../Drivers/STM32L4xx_HAL_Driver/Inc/stm32l4xx_ll_bus.h ****   * <h2><center>&copy; Copyright (c) 2017 STMicroelectronics.
  27:../Drivers/STM32L4xx_HAL_Driver/Inc/stm32l4xx_ll_bus.h ****   * All rights reserved.</center></h2>
  28:../Drivers/STM32L4xx_HAL_Driver/Inc/stm32l4xx_ll_bus.h ****   *
  29:../Drivers/STM32L4xx_HAL_Driver/Inc/stm32l4xx_ll_bus.h ****   * This software component is licensed by ST under BSD 3-Clause license,
  30:../Drivers/STM32L4xx_HAL_Driver/Inc/stm32l4xx_ll_bus.h ****   * the "License"; You may not use this file except in compliance with the
  31:../Drivers/STM32L4xx_HAL_Driver/Inc/stm32l4xx_ll_bus.h ****   * License. You may obtain a copy of the License at:
  32:../Drivers/STM32L4xx_HAL_Driver/Inc/stm32l4xx_ll_bus.h ****   *                        opensource.org/licenses/BSD-3-Clause
  33:../Drivers/STM32L4xx_HAL_Driver/Inc/stm32l4xx_ll_bus.h ****   *
  34:../Drivers/STM32L4xx_HAL_Driver/Inc/stm32l4xx_ll_bus.h ****   ******************************************************************************
  35:../Drivers/STM32L4xx_HAL_Driver/Inc/stm32l4xx_ll_bus.h ****   */
  36:../Drivers/STM32L4xx_HAL_Driver/Inc/stm32l4xx_ll_bus.h **** 
  37:../Drivers/STM32L4xx_HAL_Driver/Inc/stm32l4xx_ll_bus.h **** /* Define to prevent recursive inclusion -------------------------------------*/
  38:../Drivers/STM32L4xx_HAL_Driver/Inc/stm32l4xx_ll_bus.h **** #ifndef STM32L4xx_LL_BUS_H
  39:../Drivers/STM32L4xx_HAL_Driver/Inc/stm32l4xx_ll_bus.h **** #define STM32L4xx_LL_BUS_H
  40:../Drivers/STM32L4xx_HAL_Driver/Inc/stm32l4xx_ll_bus.h **** 
  41:../Drivers/STM32L4xx_HAL_Driver/Inc/stm32l4xx_ll_bus.h **** #ifdef __cplusplus
  42:../Drivers/STM32L4xx_HAL_Driver/Inc/stm32l4xx_ll_bus.h **** extern "C" {
  43:../Drivers/STM32L4xx_HAL_Driver/Inc/stm32l4xx_ll_bus.h **** #endif
  44:../Drivers/STM32L4xx_HAL_Driver/Inc/stm32l4xx_ll_bus.h **** 
  45:../Drivers/STM32L4xx_HAL_Driver/Inc/stm32l4xx_ll_bus.h **** /* Includes ------------------------------------------------------------------*/
  46:../Drivers/STM32L4xx_HAL_Driver/Inc/stm32l4xx_ll_bus.h **** #include "stm32l4xx.h"
  47:../Drivers/STM32L4xx_HAL_Driver/Inc/stm32l4xx_ll_bus.h **** 
  48:../Drivers/STM32L4xx_HAL_Driver/Inc/stm32l4xx_ll_bus.h **** /** @addtogroup STM32L4xx_LL_Driver
  49:../Drivers/STM32L4xx_HAL_Driver/Inc/stm32l4xx_ll_bus.h ****   * @{
  50:../Drivers/STM32L4xx_HAL_Driver/Inc/stm32l4xx_ll_bus.h ****   */
  51:../Drivers/STM32L4xx_HAL_Driver/Inc/stm32l4xx_ll_bus.h **** 
  52:../Drivers/STM32L4xx_HAL_Driver/Inc/stm32l4xx_ll_bus.h **** #if defined(RCC)
  53:../Drivers/STM32L4xx_HAL_Driver/Inc/stm32l4xx_ll_bus.h **** 
  54:../Drivers/STM32L4xx_HAL_Driver/Inc/stm32l4xx_ll_bus.h **** /** @defgroup BUS_LL BUS
  55:../Drivers/STM32L4xx_HAL_Driver/Inc/stm32l4xx_ll_bus.h ****   * @{
  56:../Drivers/STM32L4xx_HAL_Driver/Inc/stm32l4xx_ll_bus.h ****   */
  57:../Drivers/STM32L4xx_HAL_Driver/Inc/stm32l4xx_ll_bus.h **** 
  58:../Drivers/STM32L4xx_HAL_Driver/Inc/stm32l4xx_ll_bus.h **** /* Private types -------------------------------------------------------------*/
  59:../Drivers/STM32L4xx_HAL_Driver/Inc/stm32l4xx_ll_bus.h **** /* Private variables ---------------------------------------------------------*/
  60:../Drivers/STM32L4xx_HAL_Driver/Inc/stm32l4xx_ll_bus.h **** 
  61:../Drivers/STM32L4xx_HAL_Driver/Inc/stm32l4xx_ll_bus.h **** /* Private constants ---------------------------------------------------------*/
  62:../Drivers/STM32L4xx_HAL_Driver/Inc/stm32l4xx_ll_bus.h **** 
  63:../Drivers/STM32L4xx_HAL_Driver/Inc/stm32l4xx_ll_bus.h **** /* Private macros ------------------------------------------------------------*/
ARM GAS  /tmp/ccAPcP1Z.s 			page 18


  64:../Drivers/STM32L4xx_HAL_Driver/Inc/stm32l4xx_ll_bus.h **** 
  65:../Drivers/STM32L4xx_HAL_Driver/Inc/stm32l4xx_ll_bus.h **** /* Exported types ------------------------------------------------------------*/
  66:../Drivers/STM32L4xx_HAL_Driver/Inc/stm32l4xx_ll_bus.h **** /* Exported constants --------------------------------------------------------*/
  67:../Drivers/STM32L4xx_HAL_Driver/Inc/stm32l4xx_ll_bus.h **** /** @defgroup BUS_LL_Exported_Constants BUS Exported Constants
  68:../Drivers/STM32L4xx_HAL_Driver/Inc/stm32l4xx_ll_bus.h ****   * @{
  69:../Drivers/STM32L4xx_HAL_Driver/Inc/stm32l4xx_ll_bus.h ****   */
  70:../Drivers/STM32L4xx_HAL_Driver/Inc/stm32l4xx_ll_bus.h **** 
  71:../Drivers/STM32L4xx_HAL_Driver/Inc/stm32l4xx_ll_bus.h **** /** @defgroup BUS_LL_EC_AHB1_GRP1_PERIPH  AHB1 GRP1 PERIPH
  72:../Drivers/STM32L4xx_HAL_Driver/Inc/stm32l4xx_ll_bus.h ****   * @{
  73:../Drivers/STM32L4xx_HAL_Driver/Inc/stm32l4xx_ll_bus.h ****   */
  74:../Drivers/STM32L4xx_HAL_Driver/Inc/stm32l4xx_ll_bus.h **** #define LL_AHB1_GRP1_PERIPH_ALL            0xFFFFFFFFU
  75:../Drivers/STM32L4xx_HAL_Driver/Inc/stm32l4xx_ll_bus.h **** #define LL_AHB1_GRP1_PERIPH_DMA1           RCC_AHB1ENR_DMA1EN
  76:../Drivers/STM32L4xx_HAL_Driver/Inc/stm32l4xx_ll_bus.h **** #define LL_AHB1_GRP1_PERIPH_DMA2           RCC_AHB1ENR_DMA2EN
  77:../Drivers/STM32L4xx_HAL_Driver/Inc/stm32l4xx_ll_bus.h **** #if defined(DMAMUX1)
  78:../Drivers/STM32L4xx_HAL_Driver/Inc/stm32l4xx_ll_bus.h **** #define LL_AHB1_GRP1_PERIPH_DMAMUX1        RCC_AHB1ENR_DMAMUX1EN
  79:../Drivers/STM32L4xx_HAL_Driver/Inc/stm32l4xx_ll_bus.h **** #endif /* DMAMUX1 */
  80:../Drivers/STM32L4xx_HAL_Driver/Inc/stm32l4xx_ll_bus.h **** #define LL_AHB1_GRP1_PERIPH_FLASH          RCC_AHB1ENR_FLASHEN
  81:../Drivers/STM32L4xx_HAL_Driver/Inc/stm32l4xx_ll_bus.h **** #define LL_AHB1_GRP1_PERIPH_CRC            RCC_AHB1ENR_CRCEN
  82:../Drivers/STM32L4xx_HAL_Driver/Inc/stm32l4xx_ll_bus.h **** #define LL_AHB1_GRP1_PERIPH_TSC            RCC_AHB1ENR_TSCEN
  83:../Drivers/STM32L4xx_HAL_Driver/Inc/stm32l4xx_ll_bus.h **** #if defined(DMA2D)
  84:../Drivers/STM32L4xx_HAL_Driver/Inc/stm32l4xx_ll_bus.h **** #define LL_AHB1_GRP1_PERIPH_DMA2D          RCC_AHB1ENR_DMA2DEN
  85:../Drivers/STM32L4xx_HAL_Driver/Inc/stm32l4xx_ll_bus.h **** #endif /* DMA2D */
  86:../Drivers/STM32L4xx_HAL_Driver/Inc/stm32l4xx_ll_bus.h **** #if defined(GFXMMU)
  87:../Drivers/STM32L4xx_HAL_Driver/Inc/stm32l4xx_ll_bus.h **** #define LL_AHB1_GRP1_PERIPH_GFXMMU         RCC_AHB1ENR_GFXMMUEN
  88:../Drivers/STM32L4xx_HAL_Driver/Inc/stm32l4xx_ll_bus.h **** #endif /* GFXMMU */
  89:../Drivers/STM32L4xx_HAL_Driver/Inc/stm32l4xx_ll_bus.h **** #define LL_AHB1_GRP1_PERIPH_SRAM1          RCC_AHB1SMENR_SRAM1SMEN
  90:../Drivers/STM32L4xx_HAL_Driver/Inc/stm32l4xx_ll_bus.h **** /**
  91:../Drivers/STM32L4xx_HAL_Driver/Inc/stm32l4xx_ll_bus.h ****   * @}
  92:../Drivers/STM32L4xx_HAL_Driver/Inc/stm32l4xx_ll_bus.h ****   */
  93:../Drivers/STM32L4xx_HAL_Driver/Inc/stm32l4xx_ll_bus.h **** 
  94:../Drivers/STM32L4xx_HAL_Driver/Inc/stm32l4xx_ll_bus.h **** /** @defgroup BUS_LL_EC_AHB2_GRP1_PERIPH  AHB2 GRP1 PERIPH
  95:../Drivers/STM32L4xx_HAL_Driver/Inc/stm32l4xx_ll_bus.h ****   * @{
  96:../Drivers/STM32L4xx_HAL_Driver/Inc/stm32l4xx_ll_bus.h ****   */
  97:../Drivers/STM32L4xx_HAL_Driver/Inc/stm32l4xx_ll_bus.h **** #define LL_AHB2_GRP1_PERIPH_ALL            0xFFFFFFFFU
  98:../Drivers/STM32L4xx_HAL_Driver/Inc/stm32l4xx_ll_bus.h **** #define LL_AHB2_GRP1_PERIPH_GPIOA          RCC_AHB2ENR_GPIOAEN
  99:../Drivers/STM32L4xx_HAL_Driver/Inc/stm32l4xx_ll_bus.h **** #define LL_AHB2_GRP1_PERIPH_GPIOB          RCC_AHB2ENR_GPIOBEN
 100:../Drivers/STM32L4xx_HAL_Driver/Inc/stm32l4xx_ll_bus.h **** #define LL_AHB2_GRP1_PERIPH_GPIOC          RCC_AHB2ENR_GPIOCEN
 101:../Drivers/STM32L4xx_HAL_Driver/Inc/stm32l4xx_ll_bus.h **** #if defined(GPIOD)
 102:../Drivers/STM32L4xx_HAL_Driver/Inc/stm32l4xx_ll_bus.h **** #define LL_AHB2_GRP1_PERIPH_GPIOD          RCC_AHB2ENR_GPIODEN
 103:../Drivers/STM32L4xx_HAL_Driver/Inc/stm32l4xx_ll_bus.h **** #endif /*GPIOD*/
 104:../Drivers/STM32L4xx_HAL_Driver/Inc/stm32l4xx_ll_bus.h **** #if defined(GPIOE)
 105:../Drivers/STM32L4xx_HAL_Driver/Inc/stm32l4xx_ll_bus.h **** #define LL_AHB2_GRP1_PERIPH_GPIOE          RCC_AHB2ENR_GPIOEEN
 106:../Drivers/STM32L4xx_HAL_Driver/Inc/stm32l4xx_ll_bus.h **** #endif /*GPIOE*/
 107:../Drivers/STM32L4xx_HAL_Driver/Inc/stm32l4xx_ll_bus.h **** #if defined(GPIOF)
 108:../Drivers/STM32L4xx_HAL_Driver/Inc/stm32l4xx_ll_bus.h **** #define LL_AHB2_GRP1_PERIPH_GPIOF          RCC_AHB2ENR_GPIOFEN
 109:../Drivers/STM32L4xx_HAL_Driver/Inc/stm32l4xx_ll_bus.h **** #endif /* GPIOF */
 110:../Drivers/STM32L4xx_HAL_Driver/Inc/stm32l4xx_ll_bus.h **** #if defined(GPIOG)
 111:../Drivers/STM32L4xx_HAL_Driver/Inc/stm32l4xx_ll_bus.h **** #define LL_AHB2_GRP1_PERIPH_GPIOG          RCC_AHB2ENR_GPIOGEN
 112:../Drivers/STM32L4xx_HAL_Driver/Inc/stm32l4xx_ll_bus.h **** #endif /* GPIOG */
 113:../Drivers/STM32L4xx_HAL_Driver/Inc/stm32l4xx_ll_bus.h **** #define LL_AHB2_GRP1_PERIPH_GPIOH          RCC_AHB2ENR_GPIOHEN
 114:../Drivers/STM32L4xx_HAL_Driver/Inc/stm32l4xx_ll_bus.h **** #if defined(GPIOI)
 115:../Drivers/STM32L4xx_HAL_Driver/Inc/stm32l4xx_ll_bus.h **** #define LL_AHB2_GRP1_PERIPH_GPIOI          RCC_AHB2ENR_GPIOIEN
 116:../Drivers/STM32L4xx_HAL_Driver/Inc/stm32l4xx_ll_bus.h **** #endif /* GPIOI */
 117:../Drivers/STM32L4xx_HAL_Driver/Inc/stm32l4xx_ll_bus.h **** #if defined(USB_OTG_FS)
 118:../Drivers/STM32L4xx_HAL_Driver/Inc/stm32l4xx_ll_bus.h **** #define LL_AHB2_GRP1_PERIPH_OTGFS          RCC_AHB2ENR_OTGFSEN
 119:../Drivers/STM32L4xx_HAL_Driver/Inc/stm32l4xx_ll_bus.h **** #endif /* USB_OTG_FS */
 120:../Drivers/STM32L4xx_HAL_Driver/Inc/stm32l4xx_ll_bus.h **** #define LL_AHB2_GRP1_PERIPH_ADC            RCC_AHB2ENR_ADCEN
ARM GAS  /tmp/ccAPcP1Z.s 			page 19


 121:../Drivers/STM32L4xx_HAL_Driver/Inc/stm32l4xx_ll_bus.h **** #if defined(DCMI)
 122:../Drivers/STM32L4xx_HAL_Driver/Inc/stm32l4xx_ll_bus.h **** #define LL_AHB2_GRP1_PERIPH_DCMI           RCC_AHB2ENR_DCMIEN
 123:../Drivers/STM32L4xx_HAL_Driver/Inc/stm32l4xx_ll_bus.h **** #endif /* DCMI */
 124:../Drivers/STM32L4xx_HAL_Driver/Inc/stm32l4xx_ll_bus.h **** #if defined(AES)
 125:../Drivers/STM32L4xx_HAL_Driver/Inc/stm32l4xx_ll_bus.h **** #define LL_AHB2_GRP1_PERIPH_AES            RCC_AHB2ENR_AESEN
 126:../Drivers/STM32L4xx_HAL_Driver/Inc/stm32l4xx_ll_bus.h **** #endif /* AES */
 127:../Drivers/STM32L4xx_HAL_Driver/Inc/stm32l4xx_ll_bus.h **** #if defined(HASH)
 128:../Drivers/STM32L4xx_HAL_Driver/Inc/stm32l4xx_ll_bus.h **** #define LL_AHB2_GRP1_PERIPH_HASH           RCC_AHB2ENR_HASHEN
 129:../Drivers/STM32L4xx_HAL_Driver/Inc/stm32l4xx_ll_bus.h **** #endif /* HASH */
 130:../Drivers/STM32L4xx_HAL_Driver/Inc/stm32l4xx_ll_bus.h **** #define LL_AHB2_GRP1_PERIPH_RNG            RCC_AHB2ENR_RNGEN
 131:../Drivers/STM32L4xx_HAL_Driver/Inc/stm32l4xx_ll_bus.h **** #if defined(OCTOSPIM)
 132:../Drivers/STM32L4xx_HAL_Driver/Inc/stm32l4xx_ll_bus.h **** #define LL_AHB2_GRP1_PERIPH_OSPIM          RCC_AHB2ENR_OSPIMEN
 133:../Drivers/STM32L4xx_HAL_Driver/Inc/stm32l4xx_ll_bus.h **** #endif /* OCTOSPIM */
 134:../Drivers/STM32L4xx_HAL_Driver/Inc/stm32l4xx_ll_bus.h **** #if defined(SDMMC1) && defined(RCC_AHB2ENR_SDMMC1EN)
 135:../Drivers/STM32L4xx_HAL_Driver/Inc/stm32l4xx_ll_bus.h **** #define LL_AHB2_GRP1_PERIPH_SDMMC1         RCC_AHB2ENR_SDMMC1EN
 136:../Drivers/STM32L4xx_HAL_Driver/Inc/stm32l4xx_ll_bus.h **** #endif /* SDMMC1 && RCC_AHB2ENR_SDMMC1EN */
 137:../Drivers/STM32L4xx_HAL_Driver/Inc/stm32l4xx_ll_bus.h **** #define LL_AHB2_GRP1_PERIPH_SRAM2          RCC_AHB2SMENR_SRAM2SMEN
 138:../Drivers/STM32L4xx_HAL_Driver/Inc/stm32l4xx_ll_bus.h **** #if defined(SRAM3_BASE)
 139:../Drivers/STM32L4xx_HAL_Driver/Inc/stm32l4xx_ll_bus.h **** #define LL_AHB2_GRP1_PERIPH_SRAM3          RCC_AHB2SMENR_SRAM3SMEN
 140:../Drivers/STM32L4xx_HAL_Driver/Inc/stm32l4xx_ll_bus.h **** #endif /* SRAM3_BASE */
 141:../Drivers/STM32L4xx_HAL_Driver/Inc/stm32l4xx_ll_bus.h **** /**
 142:../Drivers/STM32L4xx_HAL_Driver/Inc/stm32l4xx_ll_bus.h ****   * @}
 143:../Drivers/STM32L4xx_HAL_Driver/Inc/stm32l4xx_ll_bus.h ****   */
 144:../Drivers/STM32L4xx_HAL_Driver/Inc/stm32l4xx_ll_bus.h **** 
 145:../Drivers/STM32L4xx_HAL_Driver/Inc/stm32l4xx_ll_bus.h **** /** @defgroup BUS_LL_EC_AHB3_GRP1_PERIPH  AHB3 GRP1 PERIPH
 146:../Drivers/STM32L4xx_HAL_Driver/Inc/stm32l4xx_ll_bus.h ****   * @{
 147:../Drivers/STM32L4xx_HAL_Driver/Inc/stm32l4xx_ll_bus.h ****   */
 148:../Drivers/STM32L4xx_HAL_Driver/Inc/stm32l4xx_ll_bus.h **** #define LL_AHB3_GRP1_PERIPH_ALL            0xFFFFFFFFU
 149:../Drivers/STM32L4xx_HAL_Driver/Inc/stm32l4xx_ll_bus.h **** #if defined(FMC_Bank1_R)
 150:../Drivers/STM32L4xx_HAL_Driver/Inc/stm32l4xx_ll_bus.h **** #define LL_AHB3_GRP1_PERIPH_FMC            RCC_AHB3ENR_FMCEN
 151:../Drivers/STM32L4xx_HAL_Driver/Inc/stm32l4xx_ll_bus.h **** #endif /* FMC_Bank1_R */
 152:../Drivers/STM32L4xx_HAL_Driver/Inc/stm32l4xx_ll_bus.h **** #if defined(QUADSPI)
 153:../Drivers/STM32L4xx_HAL_Driver/Inc/stm32l4xx_ll_bus.h **** #define LL_AHB3_GRP1_PERIPH_QSPI           RCC_AHB3ENR_QSPIEN
 154:../Drivers/STM32L4xx_HAL_Driver/Inc/stm32l4xx_ll_bus.h **** #endif /* QUADSPI */
 155:../Drivers/STM32L4xx_HAL_Driver/Inc/stm32l4xx_ll_bus.h **** #if defined(OCTOSPI1)
 156:../Drivers/STM32L4xx_HAL_Driver/Inc/stm32l4xx_ll_bus.h **** #define LL_AHB3_GRP1_PERIPH_OSPI1          RCC_AHB3ENR_OSPI1EN
 157:../Drivers/STM32L4xx_HAL_Driver/Inc/stm32l4xx_ll_bus.h **** #endif /* OCTOSPI1 */
 158:../Drivers/STM32L4xx_HAL_Driver/Inc/stm32l4xx_ll_bus.h **** #if defined(OCTOSPI2)
 159:../Drivers/STM32L4xx_HAL_Driver/Inc/stm32l4xx_ll_bus.h **** #define LL_AHB3_GRP1_PERIPH_OSPI2          RCC_AHB3ENR_OSPI2EN
 160:../Drivers/STM32L4xx_HAL_Driver/Inc/stm32l4xx_ll_bus.h **** #endif /* OCTOSPI2 */
 161:../Drivers/STM32L4xx_HAL_Driver/Inc/stm32l4xx_ll_bus.h **** /**
 162:../Drivers/STM32L4xx_HAL_Driver/Inc/stm32l4xx_ll_bus.h ****   * @}
 163:../Drivers/STM32L4xx_HAL_Driver/Inc/stm32l4xx_ll_bus.h ****   */
 164:../Drivers/STM32L4xx_HAL_Driver/Inc/stm32l4xx_ll_bus.h **** 
 165:../Drivers/STM32L4xx_HAL_Driver/Inc/stm32l4xx_ll_bus.h **** /** @defgroup BUS_LL_EC_APB1_GRP1_PERIPH  APB1 GRP1 PERIPH
 166:../Drivers/STM32L4xx_HAL_Driver/Inc/stm32l4xx_ll_bus.h ****   * @{
 167:../Drivers/STM32L4xx_HAL_Driver/Inc/stm32l4xx_ll_bus.h ****   */
 168:../Drivers/STM32L4xx_HAL_Driver/Inc/stm32l4xx_ll_bus.h **** #define LL_APB1_GRP1_PERIPH_ALL            0xFFFFFFFFU
 169:../Drivers/STM32L4xx_HAL_Driver/Inc/stm32l4xx_ll_bus.h **** #define LL_APB1_GRP1_PERIPH_TIM2           RCC_APB1ENR1_TIM2EN
 170:../Drivers/STM32L4xx_HAL_Driver/Inc/stm32l4xx_ll_bus.h **** #if defined(TIM3)
 171:../Drivers/STM32L4xx_HAL_Driver/Inc/stm32l4xx_ll_bus.h **** #define LL_APB1_GRP1_PERIPH_TIM3           RCC_APB1ENR1_TIM3EN
 172:../Drivers/STM32L4xx_HAL_Driver/Inc/stm32l4xx_ll_bus.h **** #endif /* TIM3 */
 173:../Drivers/STM32L4xx_HAL_Driver/Inc/stm32l4xx_ll_bus.h **** #if defined(TIM4)
 174:../Drivers/STM32L4xx_HAL_Driver/Inc/stm32l4xx_ll_bus.h **** #define LL_APB1_GRP1_PERIPH_TIM4           RCC_APB1ENR1_TIM4EN
 175:../Drivers/STM32L4xx_HAL_Driver/Inc/stm32l4xx_ll_bus.h **** #endif /* TIM4 */
 176:../Drivers/STM32L4xx_HAL_Driver/Inc/stm32l4xx_ll_bus.h **** #if defined(TIM5)
 177:../Drivers/STM32L4xx_HAL_Driver/Inc/stm32l4xx_ll_bus.h **** #define LL_APB1_GRP1_PERIPH_TIM5           RCC_APB1ENR1_TIM5EN
ARM GAS  /tmp/ccAPcP1Z.s 			page 20


 178:../Drivers/STM32L4xx_HAL_Driver/Inc/stm32l4xx_ll_bus.h **** #endif /* TIM5 */
 179:../Drivers/STM32L4xx_HAL_Driver/Inc/stm32l4xx_ll_bus.h **** #define LL_APB1_GRP1_PERIPH_TIM6           RCC_APB1ENR1_TIM6EN
 180:../Drivers/STM32L4xx_HAL_Driver/Inc/stm32l4xx_ll_bus.h **** #define LL_APB1_GRP1_PERIPH_TIM7           RCC_APB1ENR1_TIM7EN
 181:../Drivers/STM32L4xx_HAL_Driver/Inc/stm32l4xx_ll_bus.h **** #if defined(LCD)
 182:../Drivers/STM32L4xx_HAL_Driver/Inc/stm32l4xx_ll_bus.h **** #define LL_APB1_GRP1_PERIPH_LCD            RCC_APB1ENR1_LCDEN
 183:../Drivers/STM32L4xx_HAL_Driver/Inc/stm32l4xx_ll_bus.h **** #endif /* LCD */
 184:../Drivers/STM32L4xx_HAL_Driver/Inc/stm32l4xx_ll_bus.h **** #if defined(RCC_APB1ENR1_RTCAPBEN)
 185:../Drivers/STM32L4xx_HAL_Driver/Inc/stm32l4xx_ll_bus.h **** #define LL_APB1_GRP1_PERIPH_RTCAPB         RCC_APB1ENR1_RTCAPBEN
 186:../Drivers/STM32L4xx_HAL_Driver/Inc/stm32l4xx_ll_bus.h **** #endif /* RCC_APB1ENR1_RTCAPBEN */
 187:../Drivers/STM32L4xx_HAL_Driver/Inc/stm32l4xx_ll_bus.h **** #define LL_APB1_GRP1_PERIPH_WWDG           RCC_APB1ENR1_WWDGEN
 188:../Drivers/STM32L4xx_HAL_Driver/Inc/stm32l4xx_ll_bus.h **** #if defined(SPI2)
 189:../Drivers/STM32L4xx_HAL_Driver/Inc/stm32l4xx_ll_bus.h **** #define LL_APB1_GRP1_PERIPH_SPI2           RCC_APB1ENR1_SPI2EN
 190:../Drivers/STM32L4xx_HAL_Driver/Inc/stm32l4xx_ll_bus.h **** #endif /* SPI2 */
 191:../Drivers/STM32L4xx_HAL_Driver/Inc/stm32l4xx_ll_bus.h **** #define LL_APB1_GRP1_PERIPH_SPI3           RCC_APB1ENR1_SPI3EN
 192:../Drivers/STM32L4xx_HAL_Driver/Inc/stm32l4xx_ll_bus.h **** #define LL_APB1_GRP1_PERIPH_USART2         RCC_APB1ENR1_USART2EN
 193:../Drivers/STM32L4xx_HAL_Driver/Inc/stm32l4xx_ll_bus.h **** #if defined(USART3)
 194:../Drivers/STM32L4xx_HAL_Driver/Inc/stm32l4xx_ll_bus.h **** #define LL_APB1_GRP1_PERIPH_USART3         RCC_APB1ENR1_USART3EN
 195:../Drivers/STM32L4xx_HAL_Driver/Inc/stm32l4xx_ll_bus.h **** #endif /* USART3 */
 196:../Drivers/STM32L4xx_HAL_Driver/Inc/stm32l4xx_ll_bus.h **** #if defined(UART4)
 197:../Drivers/STM32L4xx_HAL_Driver/Inc/stm32l4xx_ll_bus.h **** #define LL_APB1_GRP1_PERIPH_UART4          RCC_APB1ENR1_UART4EN
 198:../Drivers/STM32L4xx_HAL_Driver/Inc/stm32l4xx_ll_bus.h **** #endif /* UART4 */
 199:../Drivers/STM32L4xx_HAL_Driver/Inc/stm32l4xx_ll_bus.h **** #if defined(UART5)
 200:../Drivers/STM32L4xx_HAL_Driver/Inc/stm32l4xx_ll_bus.h **** #define LL_APB1_GRP1_PERIPH_UART5          RCC_APB1ENR1_UART5EN
 201:../Drivers/STM32L4xx_HAL_Driver/Inc/stm32l4xx_ll_bus.h **** #endif /* UART5 */
 202:../Drivers/STM32L4xx_HAL_Driver/Inc/stm32l4xx_ll_bus.h **** #define LL_APB1_GRP1_PERIPH_I2C1           RCC_APB1ENR1_I2C1EN
 203:../Drivers/STM32L4xx_HAL_Driver/Inc/stm32l4xx_ll_bus.h **** #if defined(I2C2)
 204:../Drivers/STM32L4xx_HAL_Driver/Inc/stm32l4xx_ll_bus.h **** #define LL_APB1_GRP1_PERIPH_I2C2           RCC_APB1ENR1_I2C2EN
 205:../Drivers/STM32L4xx_HAL_Driver/Inc/stm32l4xx_ll_bus.h **** #endif /* I2C2 */
 206:../Drivers/STM32L4xx_HAL_Driver/Inc/stm32l4xx_ll_bus.h **** #define LL_APB1_GRP1_PERIPH_I2C3           RCC_APB1ENR1_I2C3EN
 207:../Drivers/STM32L4xx_HAL_Driver/Inc/stm32l4xx_ll_bus.h **** #if defined(CRS)
 208:../Drivers/STM32L4xx_HAL_Driver/Inc/stm32l4xx_ll_bus.h **** #define LL_APB1_GRP1_PERIPH_CRS            RCC_APB1ENR1_CRSEN
 209:../Drivers/STM32L4xx_HAL_Driver/Inc/stm32l4xx_ll_bus.h **** #endif /* CRS */
 210:../Drivers/STM32L4xx_HAL_Driver/Inc/stm32l4xx_ll_bus.h **** #define LL_APB1_GRP1_PERIPH_CAN1           RCC_APB1ENR1_CAN1EN
 211:../Drivers/STM32L4xx_HAL_Driver/Inc/stm32l4xx_ll_bus.h **** #if defined(CAN2)
 212:../Drivers/STM32L4xx_HAL_Driver/Inc/stm32l4xx_ll_bus.h **** #define LL_APB1_GRP1_PERIPH_CAN2           RCC_APB1ENR1_CAN2EN
 213:../Drivers/STM32L4xx_HAL_Driver/Inc/stm32l4xx_ll_bus.h **** #endif /* CAN2 */
 214:../Drivers/STM32L4xx_HAL_Driver/Inc/stm32l4xx_ll_bus.h **** #if defined(USB)
 215:../Drivers/STM32L4xx_HAL_Driver/Inc/stm32l4xx_ll_bus.h **** #define LL_APB1_GRP1_PERIPH_USB            RCC_APB1ENR1_USBFSEN
 216:../Drivers/STM32L4xx_HAL_Driver/Inc/stm32l4xx_ll_bus.h **** #endif /* USB */
 217:../Drivers/STM32L4xx_HAL_Driver/Inc/stm32l4xx_ll_bus.h **** #define LL_APB1_GRP1_PERIPH_PWR            RCC_APB1ENR1_PWREN
 218:../Drivers/STM32L4xx_HAL_Driver/Inc/stm32l4xx_ll_bus.h **** #define LL_APB1_GRP1_PERIPH_DAC1           RCC_APB1ENR1_DAC1EN
 219:../Drivers/STM32L4xx_HAL_Driver/Inc/stm32l4xx_ll_bus.h **** #define LL_APB1_GRP1_PERIPH_OPAMP          RCC_APB1ENR1_OPAMPEN
 220:../Drivers/STM32L4xx_HAL_Driver/Inc/stm32l4xx_ll_bus.h **** #define LL_APB1_GRP1_PERIPH_LPTIM1         RCC_APB1ENR1_LPTIM1EN
 221:../Drivers/STM32L4xx_HAL_Driver/Inc/stm32l4xx_ll_bus.h **** /**
 222:../Drivers/STM32L4xx_HAL_Driver/Inc/stm32l4xx_ll_bus.h ****   * @}
 223:../Drivers/STM32L4xx_HAL_Driver/Inc/stm32l4xx_ll_bus.h ****   */
 224:../Drivers/STM32L4xx_HAL_Driver/Inc/stm32l4xx_ll_bus.h **** 
 225:../Drivers/STM32L4xx_HAL_Driver/Inc/stm32l4xx_ll_bus.h **** 
 226:../Drivers/STM32L4xx_HAL_Driver/Inc/stm32l4xx_ll_bus.h **** /** @defgroup BUS_LL_EC_APB1_GRP2_PERIPH  APB1 GRP2 PERIPH
 227:../Drivers/STM32L4xx_HAL_Driver/Inc/stm32l4xx_ll_bus.h ****   * @{
 228:../Drivers/STM32L4xx_HAL_Driver/Inc/stm32l4xx_ll_bus.h ****   */
 229:../Drivers/STM32L4xx_HAL_Driver/Inc/stm32l4xx_ll_bus.h **** #define LL_APB1_GRP2_PERIPH_ALL            0xFFFFFFFFU
 230:../Drivers/STM32L4xx_HAL_Driver/Inc/stm32l4xx_ll_bus.h **** #define LL_APB1_GRP2_PERIPH_LPUART1        RCC_APB1ENR2_LPUART1EN
 231:../Drivers/STM32L4xx_HAL_Driver/Inc/stm32l4xx_ll_bus.h **** #if defined(I2C4)
 232:../Drivers/STM32L4xx_HAL_Driver/Inc/stm32l4xx_ll_bus.h **** #define LL_APB1_GRP2_PERIPH_I2C4           RCC_APB1ENR2_I2C4EN
 233:../Drivers/STM32L4xx_HAL_Driver/Inc/stm32l4xx_ll_bus.h **** #endif /* I2C4 */
 234:../Drivers/STM32L4xx_HAL_Driver/Inc/stm32l4xx_ll_bus.h **** #if defined(SWPMI1)
ARM GAS  /tmp/ccAPcP1Z.s 			page 21


 235:../Drivers/STM32L4xx_HAL_Driver/Inc/stm32l4xx_ll_bus.h **** #define LL_APB1_GRP2_PERIPH_SWPMI1         RCC_APB1ENR2_SWPMI1EN
 236:../Drivers/STM32L4xx_HAL_Driver/Inc/stm32l4xx_ll_bus.h **** #endif /* SWPMI1 */
 237:../Drivers/STM32L4xx_HAL_Driver/Inc/stm32l4xx_ll_bus.h **** #define LL_APB1_GRP2_PERIPH_LPTIM2         RCC_APB1ENR2_LPTIM2EN
 238:../Drivers/STM32L4xx_HAL_Driver/Inc/stm32l4xx_ll_bus.h **** /**
 239:../Drivers/STM32L4xx_HAL_Driver/Inc/stm32l4xx_ll_bus.h ****   * @}
 240:../Drivers/STM32L4xx_HAL_Driver/Inc/stm32l4xx_ll_bus.h ****   */
 241:../Drivers/STM32L4xx_HAL_Driver/Inc/stm32l4xx_ll_bus.h **** 
 242:../Drivers/STM32L4xx_HAL_Driver/Inc/stm32l4xx_ll_bus.h **** /** @defgroup BUS_LL_EC_APB2_GRP1_PERIPH  APB2 GRP1 PERIPH
 243:../Drivers/STM32L4xx_HAL_Driver/Inc/stm32l4xx_ll_bus.h ****   * @{
 244:../Drivers/STM32L4xx_HAL_Driver/Inc/stm32l4xx_ll_bus.h ****   */
 245:../Drivers/STM32L4xx_HAL_Driver/Inc/stm32l4xx_ll_bus.h **** #define LL_APB2_GRP1_PERIPH_ALL            0xFFFFFFFFU
 246:../Drivers/STM32L4xx_HAL_Driver/Inc/stm32l4xx_ll_bus.h **** #define LL_APB2_GRP1_PERIPH_SYSCFG         RCC_APB2ENR_SYSCFGEN
 247:../Drivers/STM32L4xx_HAL_Driver/Inc/stm32l4xx_ll_bus.h **** #define LL_APB2_GRP1_PERIPH_FW             RCC_APB2ENR_FWEN
 248:../Drivers/STM32L4xx_HAL_Driver/Inc/stm32l4xx_ll_bus.h **** #if defined(SDMMC1) && defined(RCC_APB2ENR_SDMMC1EN)
 249:../Drivers/STM32L4xx_HAL_Driver/Inc/stm32l4xx_ll_bus.h **** #define LL_APB2_GRP1_PERIPH_SDMMC1         RCC_APB2ENR_SDMMC1EN
 250:../Drivers/STM32L4xx_HAL_Driver/Inc/stm32l4xx_ll_bus.h **** #endif /* SDMMC1 && RCC_APB2ENR_SDMMC1EN */
 251:../Drivers/STM32L4xx_HAL_Driver/Inc/stm32l4xx_ll_bus.h **** #define LL_APB2_GRP1_PERIPH_TIM1           RCC_APB2ENR_TIM1EN
 252:../Drivers/STM32L4xx_HAL_Driver/Inc/stm32l4xx_ll_bus.h **** #define LL_APB2_GRP1_PERIPH_SPI1           RCC_APB2ENR_SPI1EN
 253:../Drivers/STM32L4xx_HAL_Driver/Inc/stm32l4xx_ll_bus.h **** #if defined(TIM8)
 254:../Drivers/STM32L4xx_HAL_Driver/Inc/stm32l4xx_ll_bus.h **** #define LL_APB2_GRP1_PERIPH_TIM8           RCC_APB2ENR_TIM8EN
 255:../Drivers/STM32L4xx_HAL_Driver/Inc/stm32l4xx_ll_bus.h **** #endif /* TIM8 */
 256:../Drivers/STM32L4xx_HAL_Driver/Inc/stm32l4xx_ll_bus.h **** #define LL_APB2_GRP1_PERIPH_USART1         RCC_APB2ENR_USART1EN
 257:../Drivers/STM32L4xx_HAL_Driver/Inc/stm32l4xx_ll_bus.h **** #define LL_APB2_GRP1_PERIPH_TIM15          RCC_APB2ENR_TIM15EN
 258:../Drivers/STM32L4xx_HAL_Driver/Inc/stm32l4xx_ll_bus.h **** #define LL_APB2_GRP1_PERIPH_TIM16          RCC_APB2ENR_TIM16EN
 259:../Drivers/STM32L4xx_HAL_Driver/Inc/stm32l4xx_ll_bus.h **** #if defined(TIM17)
 260:../Drivers/STM32L4xx_HAL_Driver/Inc/stm32l4xx_ll_bus.h **** #define LL_APB2_GRP1_PERIPH_TIM17          RCC_APB2ENR_TIM17EN
 261:../Drivers/STM32L4xx_HAL_Driver/Inc/stm32l4xx_ll_bus.h **** #endif /* TIM17 */
 262:../Drivers/STM32L4xx_HAL_Driver/Inc/stm32l4xx_ll_bus.h **** #define LL_APB2_GRP1_PERIPH_SAI1           RCC_APB2ENR_SAI1EN
 263:../Drivers/STM32L4xx_HAL_Driver/Inc/stm32l4xx_ll_bus.h **** #if defined(SAI2)
 264:../Drivers/STM32L4xx_HAL_Driver/Inc/stm32l4xx_ll_bus.h **** #define LL_APB2_GRP1_PERIPH_SAI2           RCC_APB2ENR_SAI2EN
 265:../Drivers/STM32L4xx_HAL_Driver/Inc/stm32l4xx_ll_bus.h **** #endif /* SAI2 */
 266:../Drivers/STM32L4xx_HAL_Driver/Inc/stm32l4xx_ll_bus.h **** #if defined(DFSDM1_Channel0)
 267:../Drivers/STM32L4xx_HAL_Driver/Inc/stm32l4xx_ll_bus.h **** #define LL_APB2_GRP1_PERIPH_DFSDM1         RCC_APB2ENR_DFSDM1EN
 268:../Drivers/STM32L4xx_HAL_Driver/Inc/stm32l4xx_ll_bus.h **** #endif /* DFSDM1_Channel0 */
 269:../Drivers/STM32L4xx_HAL_Driver/Inc/stm32l4xx_ll_bus.h **** #if defined(LTDC)
 270:../Drivers/STM32L4xx_HAL_Driver/Inc/stm32l4xx_ll_bus.h **** #define LL_APB2_GRP1_PERIPH_LTDC           RCC_APB2ENR_LTDCEN
 271:../Drivers/STM32L4xx_HAL_Driver/Inc/stm32l4xx_ll_bus.h **** #endif /* LTDC */
 272:../Drivers/STM32L4xx_HAL_Driver/Inc/stm32l4xx_ll_bus.h **** #if defined(DSI)
 273:../Drivers/STM32L4xx_HAL_Driver/Inc/stm32l4xx_ll_bus.h **** #define LL_APB2_GRP1_PERIPH_DSI            RCC_APB2ENR_DSIEN
 274:../Drivers/STM32L4xx_HAL_Driver/Inc/stm32l4xx_ll_bus.h **** #endif /* DSI */
 275:../Drivers/STM32L4xx_HAL_Driver/Inc/stm32l4xx_ll_bus.h **** /**
 276:../Drivers/STM32L4xx_HAL_Driver/Inc/stm32l4xx_ll_bus.h ****   * @}
 277:../Drivers/STM32L4xx_HAL_Driver/Inc/stm32l4xx_ll_bus.h ****   */
 278:../Drivers/STM32L4xx_HAL_Driver/Inc/stm32l4xx_ll_bus.h **** 
 279:../Drivers/STM32L4xx_HAL_Driver/Inc/stm32l4xx_ll_bus.h **** /** Legacy definitions for compatibility purpose
 280:../Drivers/STM32L4xx_HAL_Driver/Inc/stm32l4xx_ll_bus.h **** @cond 0
 281:../Drivers/STM32L4xx_HAL_Driver/Inc/stm32l4xx_ll_bus.h **** */
 282:../Drivers/STM32L4xx_HAL_Driver/Inc/stm32l4xx_ll_bus.h **** #if defined(DFSDM1_Channel0)
 283:../Drivers/STM32L4xx_HAL_Driver/Inc/stm32l4xx_ll_bus.h **** #define LL_APB2_GRP1_PERIPH_DFSDM          LL_APB2_GRP1_PERIPH_DFSDM1
 284:../Drivers/STM32L4xx_HAL_Driver/Inc/stm32l4xx_ll_bus.h **** #endif /* DFSDM1_Channel0 */
 285:../Drivers/STM32L4xx_HAL_Driver/Inc/stm32l4xx_ll_bus.h **** /**
 286:../Drivers/STM32L4xx_HAL_Driver/Inc/stm32l4xx_ll_bus.h **** @endcond
 287:../Drivers/STM32L4xx_HAL_Driver/Inc/stm32l4xx_ll_bus.h ****   */
 288:../Drivers/STM32L4xx_HAL_Driver/Inc/stm32l4xx_ll_bus.h **** 
 289:../Drivers/STM32L4xx_HAL_Driver/Inc/stm32l4xx_ll_bus.h **** /**
 290:../Drivers/STM32L4xx_HAL_Driver/Inc/stm32l4xx_ll_bus.h ****   * @}
 291:../Drivers/STM32L4xx_HAL_Driver/Inc/stm32l4xx_ll_bus.h ****   */
ARM GAS  /tmp/ccAPcP1Z.s 			page 22


 292:../Drivers/STM32L4xx_HAL_Driver/Inc/stm32l4xx_ll_bus.h **** 
 293:../Drivers/STM32L4xx_HAL_Driver/Inc/stm32l4xx_ll_bus.h **** /* Exported macro ------------------------------------------------------------*/
 294:../Drivers/STM32L4xx_HAL_Driver/Inc/stm32l4xx_ll_bus.h **** /* Exported functions --------------------------------------------------------*/
 295:../Drivers/STM32L4xx_HAL_Driver/Inc/stm32l4xx_ll_bus.h **** /** @defgroup BUS_LL_Exported_Functions BUS Exported Functions
 296:../Drivers/STM32L4xx_HAL_Driver/Inc/stm32l4xx_ll_bus.h ****   * @{
 297:../Drivers/STM32L4xx_HAL_Driver/Inc/stm32l4xx_ll_bus.h ****   */
 298:../Drivers/STM32L4xx_HAL_Driver/Inc/stm32l4xx_ll_bus.h **** 
 299:../Drivers/STM32L4xx_HAL_Driver/Inc/stm32l4xx_ll_bus.h **** /** @defgroup BUS_LL_EF_AHB1 AHB1
 300:../Drivers/STM32L4xx_HAL_Driver/Inc/stm32l4xx_ll_bus.h ****   * @{
 301:../Drivers/STM32L4xx_HAL_Driver/Inc/stm32l4xx_ll_bus.h ****   */
 302:../Drivers/STM32L4xx_HAL_Driver/Inc/stm32l4xx_ll_bus.h **** 
 303:../Drivers/STM32L4xx_HAL_Driver/Inc/stm32l4xx_ll_bus.h **** /**
 304:../Drivers/STM32L4xx_HAL_Driver/Inc/stm32l4xx_ll_bus.h ****   * @brief  Enable AHB1 peripherals clock.
 305:../Drivers/STM32L4xx_HAL_Driver/Inc/stm32l4xx_ll_bus.h ****   * @rmtoll AHB1ENR      DMA1EN        LL_AHB1_GRP1_EnableClock\n
 306:../Drivers/STM32L4xx_HAL_Driver/Inc/stm32l4xx_ll_bus.h ****   *         AHB1ENR      DMA2EN        LL_AHB1_GRP1_EnableClock\n
 307:../Drivers/STM32L4xx_HAL_Driver/Inc/stm32l4xx_ll_bus.h ****   *         AHB1ENR      DMAMUX1EN     LL_AHB1_GRP1_EnableClock\n
 308:../Drivers/STM32L4xx_HAL_Driver/Inc/stm32l4xx_ll_bus.h ****   *         AHB1ENR      FLASHEN       LL_AHB1_GRP1_EnableClock\n
 309:../Drivers/STM32L4xx_HAL_Driver/Inc/stm32l4xx_ll_bus.h ****   *         AHB1ENR      CRCEN         LL_AHB1_GRP1_EnableClock\n
 310:../Drivers/STM32L4xx_HAL_Driver/Inc/stm32l4xx_ll_bus.h ****   *         AHB1ENR      TSCEN         LL_AHB1_GRP1_EnableClock\n
 311:../Drivers/STM32L4xx_HAL_Driver/Inc/stm32l4xx_ll_bus.h ****   *         AHB1ENR      DMA2DEN       LL_AHB1_GRP1_EnableClock\n
 312:../Drivers/STM32L4xx_HAL_Driver/Inc/stm32l4xx_ll_bus.h ****   *         AHB1ENR      GFXMMUEN      LL_AHB1_GRP1_EnableClock
 313:../Drivers/STM32L4xx_HAL_Driver/Inc/stm32l4xx_ll_bus.h ****   * @param  Periphs This parameter can be a combination of the following values:
 314:../Drivers/STM32L4xx_HAL_Driver/Inc/stm32l4xx_ll_bus.h ****   *         @arg @ref LL_AHB1_GRP1_PERIPH_DMA1
 315:../Drivers/STM32L4xx_HAL_Driver/Inc/stm32l4xx_ll_bus.h ****   *         @arg @ref LL_AHB1_GRP1_PERIPH_DMA2
 316:../Drivers/STM32L4xx_HAL_Driver/Inc/stm32l4xx_ll_bus.h ****   *         @arg @ref LL_AHB1_GRP1_PERIPH_DMAMUX1 (*)
 317:../Drivers/STM32L4xx_HAL_Driver/Inc/stm32l4xx_ll_bus.h ****   *         @arg @ref LL_AHB1_GRP1_PERIPH_FLASH
 318:../Drivers/STM32L4xx_HAL_Driver/Inc/stm32l4xx_ll_bus.h ****   *         @arg @ref LL_AHB1_GRP1_PERIPH_CRC
 319:../Drivers/STM32L4xx_HAL_Driver/Inc/stm32l4xx_ll_bus.h ****   *         @arg @ref LL_AHB1_GRP1_PERIPH_TSC
 320:../Drivers/STM32L4xx_HAL_Driver/Inc/stm32l4xx_ll_bus.h ****   *         @arg @ref LL_AHB1_GRP1_PERIPH_DMA2D (*)
 321:../Drivers/STM32L4xx_HAL_Driver/Inc/stm32l4xx_ll_bus.h ****   *         @arg @ref LL_AHB1_GRP1_PERIPH_GFXMMU (*)
 322:../Drivers/STM32L4xx_HAL_Driver/Inc/stm32l4xx_ll_bus.h ****   *
 323:../Drivers/STM32L4xx_HAL_Driver/Inc/stm32l4xx_ll_bus.h ****   *         (*) value not defined in all devices.
 324:../Drivers/STM32L4xx_HAL_Driver/Inc/stm32l4xx_ll_bus.h ****   * @retval None
 325:../Drivers/STM32L4xx_HAL_Driver/Inc/stm32l4xx_ll_bus.h **** */
 326:../Drivers/STM32L4xx_HAL_Driver/Inc/stm32l4xx_ll_bus.h **** __STATIC_INLINE void LL_AHB1_GRP1_EnableClock(uint32_t Periphs)
 327:../Drivers/STM32L4xx_HAL_Driver/Inc/stm32l4xx_ll_bus.h **** {
 328:../Drivers/STM32L4xx_HAL_Driver/Inc/stm32l4xx_ll_bus.h ****   __IO uint32_t tmpreg;
 329:../Drivers/STM32L4xx_HAL_Driver/Inc/stm32l4xx_ll_bus.h ****   SET_BIT(RCC->AHB1ENR, Periphs);
 330:../Drivers/STM32L4xx_HAL_Driver/Inc/stm32l4xx_ll_bus.h ****   /* Delay after an RCC peripheral clock enabling */
 331:../Drivers/STM32L4xx_HAL_Driver/Inc/stm32l4xx_ll_bus.h ****   tmpreg = READ_BIT(RCC->AHB1ENR, Periphs);
 332:../Drivers/STM32L4xx_HAL_Driver/Inc/stm32l4xx_ll_bus.h ****   (void)tmpreg;
 333:../Drivers/STM32L4xx_HAL_Driver/Inc/stm32l4xx_ll_bus.h **** }
 334:../Drivers/STM32L4xx_HAL_Driver/Inc/stm32l4xx_ll_bus.h **** 
 335:../Drivers/STM32L4xx_HAL_Driver/Inc/stm32l4xx_ll_bus.h **** /**
 336:../Drivers/STM32L4xx_HAL_Driver/Inc/stm32l4xx_ll_bus.h ****   * @brief  Check if AHB1 peripheral clock is enabled or not
 337:../Drivers/STM32L4xx_HAL_Driver/Inc/stm32l4xx_ll_bus.h ****   * @rmtoll AHB1ENR      DMA1EN        LL_AHB1_GRP1_IsEnabledClock\n
 338:../Drivers/STM32L4xx_HAL_Driver/Inc/stm32l4xx_ll_bus.h ****   *         AHB1ENR      DMA2EN        LL_AHB1_GRP1_IsEnabledClock\n
 339:../Drivers/STM32L4xx_HAL_Driver/Inc/stm32l4xx_ll_bus.h ****   *         AHB1ENR      DMAMUX1EN     LL_AHB1_GRP1_IsEnabledClock\n
 340:../Drivers/STM32L4xx_HAL_Driver/Inc/stm32l4xx_ll_bus.h ****   *         AHB1ENR      FLASHEN       LL_AHB1_GRP1_IsEnabledClock\n
 341:../Drivers/STM32L4xx_HAL_Driver/Inc/stm32l4xx_ll_bus.h ****   *         AHB1ENR      CRCEN         LL_AHB1_GRP1_IsEnabledClock\n
 342:../Drivers/STM32L4xx_HAL_Driver/Inc/stm32l4xx_ll_bus.h ****   *         AHB1ENR      TSCEN         LL_AHB1_GRP1_IsEnabledClock\n
 343:../Drivers/STM32L4xx_HAL_Driver/Inc/stm32l4xx_ll_bus.h ****   *         AHB1ENR      DMA2DEN       LL_AHB1_GRP1_IsEnabledClock\n
 344:../Drivers/STM32L4xx_HAL_Driver/Inc/stm32l4xx_ll_bus.h ****   *         AHB1ENR      GFXMMUEN      LL_AHB1_GRP1_IsEnabledClock
 345:../Drivers/STM32L4xx_HAL_Driver/Inc/stm32l4xx_ll_bus.h ****   * @param  Periphs This parameter can be a combination of the following values:
 346:../Drivers/STM32L4xx_HAL_Driver/Inc/stm32l4xx_ll_bus.h ****   *         @arg @ref LL_AHB1_GRP1_PERIPH_DMA1
 347:../Drivers/STM32L4xx_HAL_Driver/Inc/stm32l4xx_ll_bus.h ****   *         @arg @ref LL_AHB1_GRP1_PERIPH_DMA2
 348:../Drivers/STM32L4xx_HAL_Driver/Inc/stm32l4xx_ll_bus.h ****   *         @arg @ref LL_AHB1_GRP1_PERIPH_DMAMUX1 (*)
ARM GAS  /tmp/ccAPcP1Z.s 			page 23


 349:../Drivers/STM32L4xx_HAL_Driver/Inc/stm32l4xx_ll_bus.h ****   *         @arg @ref LL_AHB1_GRP1_PERIPH_FLASH
 350:../Drivers/STM32L4xx_HAL_Driver/Inc/stm32l4xx_ll_bus.h ****   *         @arg @ref LL_AHB1_GRP1_PERIPH_CRC
 351:../Drivers/STM32L4xx_HAL_Driver/Inc/stm32l4xx_ll_bus.h ****   *         @arg @ref LL_AHB1_GRP1_PERIPH_TSC
 352:../Drivers/STM32L4xx_HAL_Driver/Inc/stm32l4xx_ll_bus.h ****   *         @arg @ref LL_AHB1_GRP1_PERIPH_DMA2D (*)
 353:../Drivers/STM32L4xx_HAL_Driver/Inc/stm32l4xx_ll_bus.h ****   *         @arg @ref LL_AHB1_GRP1_PERIPH_GFXMMU (*)
 354:../Drivers/STM32L4xx_HAL_Driver/Inc/stm32l4xx_ll_bus.h ****   *
 355:../Drivers/STM32L4xx_HAL_Driver/Inc/stm32l4xx_ll_bus.h ****   *         (*) value not defined in all devices.
 356:../Drivers/STM32L4xx_HAL_Driver/Inc/stm32l4xx_ll_bus.h ****   * @retval State of Periphs (1 or 0).
 357:../Drivers/STM32L4xx_HAL_Driver/Inc/stm32l4xx_ll_bus.h **** */
 358:../Drivers/STM32L4xx_HAL_Driver/Inc/stm32l4xx_ll_bus.h **** __STATIC_INLINE uint32_t LL_AHB1_GRP1_IsEnabledClock(uint32_t Periphs)
 359:../Drivers/STM32L4xx_HAL_Driver/Inc/stm32l4xx_ll_bus.h **** {
 360:../Drivers/STM32L4xx_HAL_Driver/Inc/stm32l4xx_ll_bus.h ****   return ((READ_BIT(RCC->AHB1ENR, Periphs) == Periphs) ? 1UL : 0UL);
 361:../Drivers/STM32L4xx_HAL_Driver/Inc/stm32l4xx_ll_bus.h **** }
 362:../Drivers/STM32L4xx_HAL_Driver/Inc/stm32l4xx_ll_bus.h **** 
 363:../Drivers/STM32L4xx_HAL_Driver/Inc/stm32l4xx_ll_bus.h **** /**
 364:../Drivers/STM32L4xx_HAL_Driver/Inc/stm32l4xx_ll_bus.h ****   * @brief  Disable AHB1 peripherals clock.
 365:../Drivers/STM32L4xx_HAL_Driver/Inc/stm32l4xx_ll_bus.h ****   * @rmtoll AHB1ENR      DMA1EN        LL_AHB1_GRP1_DisableClock\n
 366:../Drivers/STM32L4xx_HAL_Driver/Inc/stm32l4xx_ll_bus.h ****   *         AHB1ENR      DMA2EN        LL_AHB1_GRP1_DisableClock\n
 367:../Drivers/STM32L4xx_HAL_Driver/Inc/stm32l4xx_ll_bus.h ****   *         AHB1ENR      DMAMUX1EN     LL_AHB1_GRP1_DisableClock\n
 368:../Drivers/STM32L4xx_HAL_Driver/Inc/stm32l4xx_ll_bus.h ****   *         AHB1ENR      FLASHEN       LL_AHB1_GRP1_DisableClock\n
 369:../Drivers/STM32L4xx_HAL_Driver/Inc/stm32l4xx_ll_bus.h ****   *         AHB1ENR      CRCEN         LL_AHB1_GRP1_DisableClock\n
 370:../Drivers/STM32L4xx_HAL_Driver/Inc/stm32l4xx_ll_bus.h ****   *         AHB1ENR      TSCEN         LL_AHB1_GRP1_DisableClock\n
 371:../Drivers/STM32L4xx_HAL_Driver/Inc/stm32l4xx_ll_bus.h ****   *         AHB1ENR      DMA2DEN       LL_AHB1_GRP1_DisableClock\n
 372:../Drivers/STM32L4xx_HAL_Driver/Inc/stm32l4xx_ll_bus.h ****   *         AHB1ENR      GFXMMUEN      LL_AHB1_GRP1_DisableClock
 373:../Drivers/STM32L4xx_HAL_Driver/Inc/stm32l4xx_ll_bus.h ****   * @param  Periphs This parameter can be a combination of the following values:
 374:../Drivers/STM32L4xx_HAL_Driver/Inc/stm32l4xx_ll_bus.h ****   *         @arg @ref LL_AHB1_GRP1_PERIPH_DMA1
 375:../Drivers/STM32L4xx_HAL_Driver/Inc/stm32l4xx_ll_bus.h ****   *         @arg @ref LL_AHB1_GRP1_PERIPH_DMA2
 376:../Drivers/STM32L4xx_HAL_Driver/Inc/stm32l4xx_ll_bus.h ****   *         @arg @ref LL_AHB1_GRP1_PERIPH_DMAMUX1 (*)
 377:../Drivers/STM32L4xx_HAL_Driver/Inc/stm32l4xx_ll_bus.h ****   *         @arg @ref LL_AHB1_GRP1_PERIPH_FLASH
 378:../Drivers/STM32L4xx_HAL_Driver/Inc/stm32l4xx_ll_bus.h ****   *         @arg @ref LL_AHB1_GRP1_PERIPH_CRC
 379:../Drivers/STM32L4xx_HAL_Driver/Inc/stm32l4xx_ll_bus.h ****   *         @arg @ref LL_AHB1_GRP1_PERIPH_TSC
 380:../Drivers/STM32L4xx_HAL_Driver/Inc/stm32l4xx_ll_bus.h ****   *         @arg @ref LL_AHB1_GRP1_PERIPH_DMA2D (*)
 381:../Drivers/STM32L4xx_HAL_Driver/Inc/stm32l4xx_ll_bus.h ****   *         @arg @ref LL_AHB1_GRP1_PERIPH_GFXMMU (*)
 382:../Drivers/STM32L4xx_HAL_Driver/Inc/stm32l4xx_ll_bus.h ****   *
 383:../Drivers/STM32L4xx_HAL_Driver/Inc/stm32l4xx_ll_bus.h ****   *         (*) value not defined in all devices.
 384:../Drivers/STM32L4xx_HAL_Driver/Inc/stm32l4xx_ll_bus.h ****   * @retval None
 385:../Drivers/STM32L4xx_HAL_Driver/Inc/stm32l4xx_ll_bus.h **** */
 386:../Drivers/STM32L4xx_HAL_Driver/Inc/stm32l4xx_ll_bus.h **** __STATIC_INLINE void LL_AHB1_GRP1_DisableClock(uint32_t Periphs)
 387:../Drivers/STM32L4xx_HAL_Driver/Inc/stm32l4xx_ll_bus.h **** {
 388:../Drivers/STM32L4xx_HAL_Driver/Inc/stm32l4xx_ll_bus.h ****   CLEAR_BIT(RCC->AHB1ENR, Periphs);
 389:../Drivers/STM32L4xx_HAL_Driver/Inc/stm32l4xx_ll_bus.h **** }
 390:../Drivers/STM32L4xx_HAL_Driver/Inc/stm32l4xx_ll_bus.h **** 
 391:../Drivers/STM32L4xx_HAL_Driver/Inc/stm32l4xx_ll_bus.h **** /**
 392:../Drivers/STM32L4xx_HAL_Driver/Inc/stm32l4xx_ll_bus.h ****   * @brief  Force AHB1 peripherals reset.
 393:../Drivers/STM32L4xx_HAL_Driver/Inc/stm32l4xx_ll_bus.h ****   * @rmtoll AHB1RSTR     DMA1RST       LL_AHB1_GRP1_ForceReset\n
 394:../Drivers/STM32L4xx_HAL_Driver/Inc/stm32l4xx_ll_bus.h ****   *         AHB1RSTR     DMA2RST       LL_AHB1_GRP1_ForceReset\n
 395:../Drivers/STM32L4xx_HAL_Driver/Inc/stm32l4xx_ll_bus.h ****   *         AHB1RSTR     DMAMUX1RST     LL_AHB1_GRP1_ForceReset\n
 396:../Drivers/STM32L4xx_HAL_Driver/Inc/stm32l4xx_ll_bus.h ****   *         AHB1RSTR     FLASHRST      LL_AHB1_GRP1_ForceReset\n
 397:../Drivers/STM32L4xx_HAL_Driver/Inc/stm32l4xx_ll_bus.h ****   *         AHB1RSTR     CRCRST        LL_AHB1_GRP1_ForceReset\n
 398:../Drivers/STM32L4xx_HAL_Driver/Inc/stm32l4xx_ll_bus.h ****   *         AHB1RSTR     TSCRST        LL_AHB1_GRP1_ForceReset\n
 399:../Drivers/STM32L4xx_HAL_Driver/Inc/stm32l4xx_ll_bus.h ****   *         AHB1RSTR     DMA2DRST      LL_AHB1_GRP1_ForceReset\n
 400:../Drivers/STM32L4xx_HAL_Driver/Inc/stm32l4xx_ll_bus.h ****   *         AHB1RSTR     GFXMMURST     LL_AHB1_GRP1_ForceReset
 401:../Drivers/STM32L4xx_HAL_Driver/Inc/stm32l4xx_ll_bus.h ****   * @param  Periphs This parameter can be a combination of the following values:
 402:../Drivers/STM32L4xx_HAL_Driver/Inc/stm32l4xx_ll_bus.h ****   *         @arg @ref LL_AHB1_GRP1_PERIPH_ALL
 403:../Drivers/STM32L4xx_HAL_Driver/Inc/stm32l4xx_ll_bus.h ****   *         @arg @ref LL_AHB1_GRP1_PERIPH_DMA1
 404:../Drivers/STM32L4xx_HAL_Driver/Inc/stm32l4xx_ll_bus.h ****   *         @arg @ref LL_AHB1_GRP1_PERIPH_DMA2
 405:../Drivers/STM32L4xx_HAL_Driver/Inc/stm32l4xx_ll_bus.h ****   *         @arg @ref LL_AHB1_GRP1_PERIPH_DMAMUX1 (*)
ARM GAS  /tmp/ccAPcP1Z.s 			page 24


 406:../Drivers/STM32L4xx_HAL_Driver/Inc/stm32l4xx_ll_bus.h ****   *         @arg @ref LL_AHB1_GRP1_PERIPH_FLASH
 407:../Drivers/STM32L4xx_HAL_Driver/Inc/stm32l4xx_ll_bus.h ****   *         @arg @ref LL_AHB1_GRP1_PERIPH_CRC
 408:../Drivers/STM32L4xx_HAL_Driver/Inc/stm32l4xx_ll_bus.h ****   *         @arg @ref LL_AHB1_GRP1_PERIPH_TSC
 409:../Drivers/STM32L4xx_HAL_Driver/Inc/stm32l4xx_ll_bus.h ****   *         @arg @ref LL_AHB1_GRP1_PERIPH_DMA2D (*)
 410:../Drivers/STM32L4xx_HAL_Driver/Inc/stm32l4xx_ll_bus.h ****   *         @arg @ref LL_AHB1_GRP1_PERIPH_GFXMMU (*)
 411:../Drivers/STM32L4xx_HAL_Driver/Inc/stm32l4xx_ll_bus.h ****   *
 412:../Drivers/STM32L4xx_HAL_Driver/Inc/stm32l4xx_ll_bus.h ****   *         (*) value not defined in all devices.
 413:../Drivers/STM32L4xx_HAL_Driver/Inc/stm32l4xx_ll_bus.h ****   * @retval None
 414:../Drivers/STM32L4xx_HAL_Driver/Inc/stm32l4xx_ll_bus.h **** */
 415:../Drivers/STM32L4xx_HAL_Driver/Inc/stm32l4xx_ll_bus.h **** __STATIC_INLINE void LL_AHB1_GRP1_ForceReset(uint32_t Periphs)
 416:../Drivers/STM32L4xx_HAL_Driver/Inc/stm32l4xx_ll_bus.h **** {
 417:../Drivers/STM32L4xx_HAL_Driver/Inc/stm32l4xx_ll_bus.h ****   SET_BIT(RCC->AHB1RSTR, Periphs);
 418:../Drivers/STM32L4xx_HAL_Driver/Inc/stm32l4xx_ll_bus.h **** }
 419:../Drivers/STM32L4xx_HAL_Driver/Inc/stm32l4xx_ll_bus.h **** 
 420:../Drivers/STM32L4xx_HAL_Driver/Inc/stm32l4xx_ll_bus.h **** /**
 421:../Drivers/STM32L4xx_HAL_Driver/Inc/stm32l4xx_ll_bus.h ****   * @brief  Release AHB1 peripherals reset.
 422:../Drivers/STM32L4xx_HAL_Driver/Inc/stm32l4xx_ll_bus.h ****   * @rmtoll AHB1RSTR     DMA1RST       LL_AHB1_GRP1_ReleaseReset\n
 423:../Drivers/STM32L4xx_HAL_Driver/Inc/stm32l4xx_ll_bus.h ****   *         AHB1RSTR     DMA2RST       LL_AHB1_GRP1_ReleaseReset\n
 424:../Drivers/STM32L4xx_HAL_Driver/Inc/stm32l4xx_ll_bus.h ****   *         AHB1RSTR     DMAMUX1RST     LL_AHB1_GRP1_ReleaseReset\n
 425:../Drivers/STM32L4xx_HAL_Driver/Inc/stm32l4xx_ll_bus.h ****   *         AHB1RSTR     FLASHRST      LL_AHB1_GRP1_ReleaseReset\n
 426:../Drivers/STM32L4xx_HAL_Driver/Inc/stm32l4xx_ll_bus.h ****   *         AHB1RSTR     CRCRST        LL_AHB1_GRP1_ReleaseReset\n
 427:../Drivers/STM32L4xx_HAL_Driver/Inc/stm32l4xx_ll_bus.h ****   *         AHB1RSTR     TSCRST        LL_AHB1_GRP1_ReleaseReset\n
 428:../Drivers/STM32L4xx_HAL_Driver/Inc/stm32l4xx_ll_bus.h ****   *         AHB1RSTR     DMA2DRST      LL_AHB1_GRP1_ReleaseReset\n
 429:../Drivers/STM32L4xx_HAL_Driver/Inc/stm32l4xx_ll_bus.h ****   *         AHB1RSTR     GFXMMURST     LL_AHB1_GRP1_ReleaseReset
 430:../Drivers/STM32L4xx_HAL_Driver/Inc/stm32l4xx_ll_bus.h ****   * @param  Periphs This parameter can be a combination of the following values:
 431:../Drivers/STM32L4xx_HAL_Driver/Inc/stm32l4xx_ll_bus.h ****   *         @arg @ref LL_AHB1_GRP1_PERIPH_ALL
 432:../Drivers/STM32L4xx_HAL_Driver/Inc/stm32l4xx_ll_bus.h ****   *         @arg @ref LL_AHB1_GRP1_PERIPH_DMA1
 433:../Drivers/STM32L4xx_HAL_Driver/Inc/stm32l4xx_ll_bus.h ****   *         @arg @ref LL_AHB1_GRP1_PERIPH_DMA2
 434:../Drivers/STM32L4xx_HAL_Driver/Inc/stm32l4xx_ll_bus.h ****   *         @arg @ref LL_AHB1_GRP1_PERIPH_DMAMUX1 (*)
 435:../Drivers/STM32L4xx_HAL_Driver/Inc/stm32l4xx_ll_bus.h ****   *         @arg @ref LL_AHB1_GRP1_PERIPH_FLASH
 436:../Drivers/STM32L4xx_HAL_Driver/Inc/stm32l4xx_ll_bus.h ****   *         @arg @ref LL_AHB1_GRP1_PERIPH_CRC
 437:../Drivers/STM32L4xx_HAL_Driver/Inc/stm32l4xx_ll_bus.h ****   *         @arg @ref LL_AHB1_GRP1_PERIPH_TSC
 438:../Drivers/STM32L4xx_HAL_Driver/Inc/stm32l4xx_ll_bus.h ****   *         @arg @ref LL_AHB1_GRP1_PERIPH_DMA2D (*)
 439:../Drivers/STM32L4xx_HAL_Driver/Inc/stm32l4xx_ll_bus.h ****   *         @arg @ref LL_AHB1_GRP1_PERIPH_GFXMMU (*)
 440:../Drivers/STM32L4xx_HAL_Driver/Inc/stm32l4xx_ll_bus.h ****   *
 441:../Drivers/STM32L4xx_HAL_Driver/Inc/stm32l4xx_ll_bus.h ****   *         (*) value not defined in all devices.
 442:../Drivers/STM32L4xx_HAL_Driver/Inc/stm32l4xx_ll_bus.h ****   * @retval None
 443:../Drivers/STM32L4xx_HAL_Driver/Inc/stm32l4xx_ll_bus.h **** */
 444:../Drivers/STM32L4xx_HAL_Driver/Inc/stm32l4xx_ll_bus.h **** __STATIC_INLINE void LL_AHB1_GRP1_ReleaseReset(uint32_t Periphs)
 445:../Drivers/STM32L4xx_HAL_Driver/Inc/stm32l4xx_ll_bus.h **** {
 446:../Drivers/STM32L4xx_HAL_Driver/Inc/stm32l4xx_ll_bus.h ****   CLEAR_BIT(RCC->AHB1RSTR, Periphs);
 447:../Drivers/STM32L4xx_HAL_Driver/Inc/stm32l4xx_ll_bus.h **** }
 448:../Drivers/STM32L4xx_HAL_Driver/Inc/stm32l4xx_ll_bus.h **** 
 449:../Drivers/STM32L4xx_HAL_Driver/Inc/stm32l4xx_ll_bus.h **** /**
 450:../Drivers/STM32L4xx_HAL_Driver/Inc/stm32l4xx_ll_bus.h ****   * @brief  Enable AHB1 peripheral clocks in Sleep and Stop modes
 451:../Drivers/STM32L4xx_HAL_Driver/Inc/stm32l4xx_ll_bus.h ****   * @rmtoll AHB1SMENR    DMA1SMEN      LL_AHB1_GRP1_EnableClockStopSleep\n
 452:../Drivers/STM32L4xx_HAL_Driver/Inc/stm32l4xx_ll_bus.h ****   *         AHB1SMENR    DMA2SMEN      LL_AHB1_GRP1_EnableClockStopSleep\n
 453:../Drivers/STM32L4xx_HAL_Driver/Inc/stm32l4xx_ll_bus.h ****   *         AHB1SMENR    DMAMUX1SMEN   LL_AHB1_GRP1_EnableClockStopSleep\n
 454:../Drivers/STM32L4xx_HAL_Driver/Inc/stm32l4xx_ll_bus.h ****   *         AHB1SMENR    FLASHSMEN     LL_AHB1_GRP1_EnableClockStopSleep\n
 455:../Drivers/STM32L4xx_HAL_Driver/Inc/stm32l4xx_ll_bus.h ****   *         AHB1SMENR    SRAM1SMEN     LL_AHB1_GRP1_EnableClockStopSleep\n
 456:../Drivers/STM32L4xx_HAL_Driver/Inc/stm32l4xx_ll_bus.h ****   *         AHB1SMENR    CRCSMEN       LL_AHB1_GRP1_EnableClockStopSleep\n
 457:../Drivers/STM32L4xx_HAL_Driver/Inc/stm32l4xx_ll_bus.h ****   *         AHB1SMENR    TSCSMEN       LL_AHB1_GRP1_EnableClockStopSleep\n
 458:../Drivers/STM32L4xx_HAL_Driver/Inc/stm32l4xx_ll_bus.h ****   *         AHB1SMENR    DMA2DSMEN     LL_AHB1_GRP1_EnableClockStopSleep\n
 459:../Drivers/STM32L4xx_HAL_Driver/Inc/stm32l4xx_ll_bus.h ****   *         AHB1SMENR    GFXMMUSMEN    LL_AHB1_GRP1_EnableClockStopSleep
 460:../Drivers/STM32L4xx_HAL_Driver/Inc/stm32l4xx_ll_bus.h ****   * @param  Periphs This parameter can be a combination of the following values:
 461:../Drivers/STM32L4xx_HAL_Driver/Inc/stm32l4xx_ll_bus.h ****   *         @arg @ref LL_AHB1_GRP1_PERIPH_DMA1
 462:../Drivers/STM32L4xx_HAL_Driver/Inc/stm32l4xx_ll_bus.h ****   *         @arg @ref LL_AHB1_GRP1_PERIPH_DMA2
ARM GAS  /tmp/ccAPcP1Z.s 			page 25


 463:../Drivers/STM32L4xx_HAL_Driver/Inc/stm32l4xx_ll_bus.h ****   *         @arg @ref LL_AHB1_GRP1_PERIPH_DMAMUX1 (*)
 464:../Drivers/STM32L4xx_HAL_Driver/Inc/stm32l4xx_ll_bus.h ****   *         @arg @ref LL_AHB1_GRP1_PERIPH_FLASH
 465:../Drivers/STM32L4xx_HAL_Driver/Inc/stm32l4xx_ll_bus.h ****   *         @arg @ref LL_AHB1_GRP1_PERIPH_SRAM1
 466:../Drivers/STM32L4xx_HAL_Driver/Inc/stm32l4xx_ll_bus.h ****   *         @arg @ref LL_AHB1_GRP1_PERIPH_CRC
 467:../Drivers/STM32L4xx_HAL_Driver/Inc/stm32l4xx_ll_bus.h ****   *         @arg @ref LL_AHB1_GRP1_PERIPH_TSC
 468:../Drivers/STM32L4xx_HAL_Driver/Inc/stm32l4xx_ll_bus.h ****   *         @arg @ref LL_AHB1_GRP1_PERIPH_DMA2D (*)
 469:../Drivers/STM32L4xx_HAL_Driver/Inc/stm32l4xx_ll_bus.h ****   *         @arg @ref LL_AHB1_GRP1_PERIPH_GFXMMU (*)
 470:../Drivers/STM32L4xx_HAL_Driver/Inc/stm32l4xx_ll_bus.h ****   *
 471:../Drivers/STM32L4xx_HAL_Driver/Inc/stm32l4xx_ll_bus.h ****   *         (*) value not defined in all devices.
 472:../Drivers/STM32L4xx_HAL_Driver/Inc/stm32l4xx_ll_bus.h ****   * @retval None
 473:../Drivers/STM32L4xx_HAL_Driver/Inc/stm32l4xx_ll_bus.h **** */
 474:../Drivers/STM32L4xx_HAL_Driver/Inc/stm32l4xx_ll_bus.h **** __STATIC_INLINE void LL_AHB1_GRP1_EnableClockStopSleep(uint32_t Periphs)
 475:../Drivers/STM32L4xx_HAL_Driver/Inc/stm32l4xx_ll_bus.h **** {
 476:../Drivers/STM32L4xx_HAL_Driver/Inc/stm32l4xx_ll_bus.h ****   __IO uint32_t tmpreg;
 477:../Drivers/STM32L4xx_HAL_Driver/Inc/stm32l4xx_ll_bus.h ****   SET_BIT(RCC->AHB1SMENR, Periphs);
 478:../Drivers/STM32L4xx_HAL_Driver/Inc/stm32l4xx_ll_bus.h ****   /* Delay after an RCC peripheral clock enabling */
 479:../Drivers/STM32L4xx_HAL_Driver/Inc/stm32l4xx_ll_bus.h ****   tmpreg = READ_BIT(RCC->AHB1SMENR, Periphs);
 480:../Drivers/STM32L4xx_HAL_Driver/Inc/stm32l4xx_ll_bus.h ****   (void)tmpreg;
 481:../Drivers/STM32L4xx_HAL_Driver/Inc/stm32l4xx_ll_bus.h **** }
 482:../Drivers/STM32L4xx_HAL_Driver/Inc/stm32l4xx_ll_bus.h **** 
 483:../Drivers/STM32L4xx_HAL_Driver/Inc/stm32l4xx_ll_bus.h **** /**
 484:../Drivers/STM32L4xx_HAL_Driver/Inc/stm32l4xx_ll_bus.h ****   * @brief  Disable AHB1 peripheral clocks in Sleep and Stop modes
 485:../Drivers/STM32L4xx_HAL_Driver/Inc/stm32l4xx_ll_bus.h ****   * @rmtoll AHB1SMENR    DMA1SMEN      LL_AHB1_GRP1_DisableClockStopSleep\n
 486:../Drivers/STM32L4xx_HAL_Driver/Inc/stm32l4xx_ll_bus.h ****   *         AHB1SMENR    DMA2SMEN      LL_AHB1_GRP1_DisableClockStopSleep\n
 487:../Drivers/STM32L4xx_HAL_Driver/Inc/stm32l4xx_ll_bus.h ****   *         AHB1SMENR    DMAMUX1SMEN   LL_AHB1_GRP1_DisableClockStopSleep\n
 488:../Drivers/STM32L4xx_HAL_Driver/Inc/stm32l4xx_ll_bus.h ****   *         AHB1SMENR    FLASHSMEN     LL_AHB1_GRP1_DisableClockStopSleep\n
 489:../Drivers/STM32L4xx_HAL_Driver/Inc/stm32l4xx_ll_bus.h ****   *         AHB1SMENR    SRAM1SMEN     LL_AHB1_GRP1_DisableClockStopSleep\n
 490:../Drivers/STM32L4xx_HAL_Driver/Inc/stm32l4xx_ll_bus.h ****   *         AHB1SMENR    CRCSMEN       LL_AHB1_GRP1_DisableClockStopSleep\n
 491:../Drivers/STM32L4xx_HAL_Driver/Inc/stm32l4xx_ll_bus.h ****   *         AHB1SMENR    TSCSMEN       LL_AHB1_GRP1_DisableClockStopSleep\n
 492:../Drivers/STM32L4xx_HAL_Driver/Inc/stm32l4xx_ll_bus.h ****   *         AHB1SMENR    DMA2DSMEN     LL_AHB1_GRP1_DisableClockStopSleep\n
 493:../Drivers/STM32L4xx_HAL_Driver/Inc/stm32l4xx_ll_bus.h ****   *         AHB1SMENR    GFXMMUSMEN    LL_AHB1_GRP1_DisableClockStopSleep
 494:../Drivers/STM32L4xx_HAL_Driver/Inc/stm32l4xx_ll_bus.h ****   * @param  Periphs This parameter can be a combination of the following values:
 495:../Drivers/STM32L4xx_HAL_Driver/Inc/stm32l4xx_ll_bus.h ****   *         @arg @ref LL_AHB1_GRP1_PERIPH_DMA1
 496:../Drivers/STM32L4xx_HAL_Driver/Inc/stm32l4xx_ll_bus.h ****   *         @arg @ref LL_AHB1_GRP1_PERIPH_DMA2
 497:../Drivers/STM32L4xx_HAL_Driver/Inc/stm32l4xx_ll_bus.h ****   *         @arg @ref LL_AHB1_GRP1_PERIPH_DMAMUX1 (*)
 498:../Drivers/STM32L4xx_HAL_Driver/Inc/stm32l4xx_ll_bus.h ****   *         @arg @ref LL_AHB1_GRP1_PERIPH_FLASH
 499:../Drivers/STM32L4xx_HAL_Driver/Inc/stm32l4xx_ll_bus.h ****   *         @arg @ref LL_AHB1_GRP1_PERIPH_SRAM1
 500:../Drivers/STM32L4xx_HAL_Driver/Inc/stm32l4xx_ll_bus.h ****   *         @arg @ref LL_AHB1_GRP1_PERIPH_CRC
 501:../Drivers/STM32L4xx_HAL_Driver/Inc/stm32l4xx_ll_bus.h ****   *         @arg @ref LL_AHB1_GRP1_PERIPH_TSC
 502:../Drivers/STM32L4xx_HAL_Driver/Inc/stm32l4xx_ll_bus.h ****   *         @arg @ref LL_AHB1_GRP1_PERIPH_DMA2D (*)
 503:../Drivers/STM32L4xx_HAL_Driver/Inc/stm32l4xx_ll_bus.h ****   *         @arg @ref LL_AHB1_GRP1_PERIPH_GFXMMU (*)
 504:../Drivers/STM32L4xx_HAL_Driver/Inc/stm32l4xx_ll_bus.h ****   *
 505:../Drivers/STM32L4xx_HAL_Driver/Inc/stm32l4xx_ll_bus.h ****   *         (*) value not defined in all devices.
 506:../Drivers/STM32L4xx_HAL_Driver/Inc/stm32l4xx_ll_bus.h ****   * @retval None
 507:../Drivers/STM32L4xx_HAL_Driver/Inc/stm32l4xx_ll_bus.h **** */
 508:../Drivers/STM32L4xx_HAL_Driver/Inc/stm32l4xx_ll_bus.h **** __STATIC_INLINE void LL_AHB1_GRP1_DisableClockStopSleep(uint32_t Periphs)
 509:../Drivers/STM32L4xx_HAL_Driver/Inc/stm32l4xx_ll_bus.h **** {
 510:../Drivers/STM32L4xx_HAL_Driver/Inc/stm32l4xx_ll_bus.h ****   CLEAR_BIT(RCC->AHB1SMENR, Periphs);
 511:../Drivers/STM32L4xx_HAL_Driver/Inc/stm32l4xx_ll_bus.h **** }
 512:../Drivers/STM32L4xx_HAL_Driver/Inc/stm32l4xx_ll_bus.h **** 
 513:../Drivers/STM32L4xx_HAL_Driver/Inc/stm32l4xx_ll_bus.h **** /**
 514:../Drivers/STM32L4xx_HAL_Driver/Inc/stm32l4xx_ll_bus.h ****   * @}
 515:../Drivers/STM32L4xx_HAL_Driver/Inc/stm32l4xx_ll_bus.h ****   */
 516:../Drivers/STM32L4xx_HAL_Driver/Inc/stm32l4xx_ll_bus.h **** 
 517:../Drivers/STM32L4xx_HAL_Driver/Inc/stm32l4xx_ll_bus.h **** /** @defgroup BUS_LL_EF_AHB2 AHB2
 518:../Drivers/STM32L4xx_HAL_Driver/Inc/stm32l4xx_ll_bus.h ****   * @{
 519:../Drivers/STM32L4xx_HAL_Driver/Inc/stm32l4xx_ll_bus.h ****   */
ARM GAS  /tmp/ccAPcP1Z.s 			page 26


 520:../Drivers/STM32L4xx_HAL_Driver/Inc/stm32l4xx_ll_bus.h **** 
 521:../Drivers/STM32L4xx_HAL_Driver/Inc/stm32l4xx_ll_bus.h **** /**
 522:../Drivers/STM32L4xx_HAL_Driver/Inc/stm32l4xx_ll_bus.h ****   * @brief  Enable AHB2 peripherals clock.
 523:../Drivers/STM32L4xx_HAL_Driver/Inc/stm32l4xx_ll_bus.h ****   * @rmtoll AHB2ENR      GPIOAEN       LL_AHB2_GRP1_EnableClock\n
 524:../Drivers/STM32L4xx_HAL_Driver/Inc/stm32l4xx_ll_bus.h ****   *         AHB2ENR      GPIOBEN       LL_AHB2_GRP1_EnableClock\n
 525:../Drivers/STM32L4xx_HAL_Driver/Inc/stm32l4xx_ll_bus.h ****   *         AHB2ENR      GPIOCEN       LL_AHB2_GRP1_EnableClock\n
 526:../Drivers/STM32L4xx_HAL_Driver/Inc/stm32l4xx_ll_bus.h ****   *         AHB2ENR      GPIODEN       LL_AHB2_GRP1_EnableClock\n
 527:../Drivers/STM32L4xx_HAL_Driver/Inc/stm32l4xx_ll_bus.h ****   *         AHB2ENR      GPIOEEN       LL_AHB2_GRP1_EnableClock\n
 528:../Drivers/STM32L4xx_HAL_Driver/Inc/stm32l4xx_ll_bus.h ****   *         AHB2ENR      GPIOFEN       LL_AHB2_GRP1_EnableClock\n
 529:../Drivers/STM32L4xx_HAL_Driver/Inc/stm32l4xx_ll_bus.h ****   *         AHB2ENR      GPIOGEN       LL_AHB2_GRP1_EnableClock\n
 530:../Drivers/STM32L4xx_HAL_Driver/Inc/stm32l4xx_ll_bus.h ****   *         AHB2ENR      GPIOHEN       LL_AHB2_GRP1_EnableClock\n
 531:../Drivers/STM32L4xx_HAL_Driver/Inc/stm32l4xx_ll_bus.h ****   *         AHB2ENR      GPIOIEN       LL_AHB2_GRP1_EnableClock\n
 532:../Drivers/STM32L4xx_HAL_Driver/Inc/stm32l4xx_ll_bus.h ****   *         AHB2ENR      OTGFSEN       LL_AHB2_GRP1_EnableClock\n
 533:../Drivers/STM32L4xx_HAL_Driver/Inc/stm32l4xx_ll_bus.h ****   *         AHB2ENR      ADCEN         LL_AHB2_GRP1_EnableClock\n
 534:../Drivers/STM32L4xx_HAL_Driver/Inc/stm32l4xx_ll_bus.h ****   *         AHB2ENR      DCMIEN        LL_AHB2_GRP1_EnableClock\n
 535:../Drivers/STM32L4xx_HAL_Driver/Inc/stm32l4xx_ll_bus.h ****   *         AHB2ENR      AESEN         LL_AHB2_GRP1_EnableClock\n
 536:../Drivers/STM32L4xx_HAL_Driver/Inc/stm32l4xx_ll_bus.h ****   *         AHB2ENR      HASHEN        LL_AHB2_GRP1_EnableClock\n
 537:../Drivers/STM32L4xx_HAL_Driver/Inc/stm32l4xx_ll_bus.h ****   *         AHB2ENR      RNGEN         LL_AHB2_GRP1_EnableClock\n
 538:../Drivers/STM32L4xx_HAL_Driver/Inc/stm32l4xx_ll_bus.h ****   *         AHB2ENR      OSPIMEN       LL_AHB2_GRP1_EnableClock\n
 539:../Drivers/STM32L4xx_HAL_Driver/Inc/stm32l4xx_ll_bus.h ****   *         AHB2ENR      SDMMC1EN      LL_AHB2_GRP1_EnableClock
 540:../Drivers/STM32L4xx_HAL_Driver/Inc/stm32l4xx_ll_bus.h ****   * @param  Periphs This parameter can be a combination of the following values:
 541:../Drivers/STM32L4xx_HAL_Driver/Inc/stm32l4xx_ll_bus.h ****   *         @arg @ref LL_AHB2_GRP1_PERIPH_GPIOA
 542:../Drivers/STM32L4xx_HAL_Driver/Inc/stm32l4xx_ll_bus.h ****   *         @arg @ref LL_AHB2_GRP1_PERIPH_GPIOB
 543:../Drivers/STM32L4xx_HAL_Driver/Inc/stm32l4xx_ll_bus.h ****   *         @arg @ref LL_AHB2_GRP1_PERIPH_GPIOC
 544:../Drivers/STM32L4xx_HAL_Driver/Inc/stm32l4xx_ll_bus.h ****   *         @arg @ref LL_AHB2_GRP1_PERIPH_GPIOD (*)
 545:../Drivers/STM32L4xx_HAL_Driver/Inc/stm32l4xx_ll_bus.h ****   *         @arg @ref LL_AHB2_GRP1_PERIPH_GPIOE (*)
 546:../Drivers/STM32L4xx_HAL_Driver/Inc/stm32l4xx_ll_bus.h ****   *         @arg @ref LL_AHB2_GRP1_PERIPH_GPIOF (*)
 547:../Drivers/STM32L4xx_HAL_Driver/Inc/stm32l4xx_ll_bus.h ****   *         @arg @ref LL_AHB2_GRP1_PERIPH_GPIOG (*)
 548:../Drivers/STM32L4xx_HAL_Driver/Inc/stm32l4xx_ll_bus.h ****   *         @arg @ref LL_AHB2_GRP1_PERIPH_GPIOH
 549:../Drivers/STM32L4xx_HAL_Driver/Inc/stm32l4xx_ll_bus.h ****   *         @arg @ref LL_AHB2_GRP1_PERIPH_GPIOI (*)
 550:../Drivers/STM32L4xx_HAL_Driver/Inc/stm32l4xx_ll_bus.h ****   *         @arg @ref LL_AHB2_GRP1_PERIPH_OTGFS (*)
 551:../Drivers/STM32L4xx_HAL_Driver/Inc/stm32l4xx_ll_bus.h ****   *         @arg @ref LL_AHB2_GRP1_PERIPH_ADC
 552:../Drivers/STM32L4xx_HAL_Driver/Inc/stm32l4xx_ll_bus.h ****   *         @arg @ref LL_AHB2_GRP1_PERIPH_DCMI (*)
 553:../Drivers/STM32L4xx_HAL_Driver/Inc/stm32l4xx_ll_bus.h ****   *         @arg @ref LL_AHB2_GRP1_PERIPH_AES (*)
 554:../Drivers/STM32L4xx_HAL_Driver/Inc/stm32l4xx_ll_bus.h ****   *         @arg @ref LL_AHB2_GRP1_PERIPH_HASH (*)
 555:../Drivers/STM32L4xx_HAL_Driver/Inc/stm32l4xx_ll_bus.h ****   *         @arg @ref LL_AHB2_GRP1_PERIPH_RNG
 556:../Drivers/STM32L4xx_HAL_Driver/Inc/stm32l4xx_ll_bus.h ****   *         @arg @ref LL_AHB2_GRP1_PERIPH_OSPIM (*)
 557:../Drivers/STM32L4xx_HAL_Driver/Inc/stm32l4xx_ll_bus.h ****   *         @arg @ref LL_AHB2_GRP1_PERIPH_SDMMC1 (*)
 558:../Drivers/STM32L4xx_HAL_Driver/Inc/stm32l4xx_ll_bus.h ****   *
 559:../Drivers/STM32L4xx_HAL_Driver/Inc/stm32l4xx_ll_bus.h ****   *         (*) value not defined in all devices.
 560:../Drivers/STM32L4xx_HAL_Driver/Inc/stm32l4xx_ll_bus.h ****   * @retval None
 561:../Drivers/STM32L4xx_HAL_Driver/Inc/stm32l4xx_ll_bus.h **** */
 562:../Drivers/STM32L4xx_HAL_Driver/Inc/stm32l4xx_ll_bus.h **** __STATIC_INLINE void LL_AHB2_GRP1_EnableClock(uint32_t Periphs)
 563:../Drivers/STM32L4xx_HAL_Driver/Inc/stm32l4xx_ll_bus.h **** {
 564:../Drivers/STM32L4xx_HAL_Driver/Inc/stm32l4xx_ll_bus.h ****   __IO uint32_t tmpreg;
 565:../Drivers/STM32L4xx_HAL_Driver/Inc/stm32l4xx_ll_bus.h ****   SET_BIT(RCC->AHB2ENR, Periphs);
 566:../Drivers/STM32L4xx_HAL_Driver/Inc/stm32l4xx_ll_bus.h ****   /* Delay after an RCC peripheral clock enabling */
 567:../Drivers/STM32L4xx_HAL_Driver/Inc/stm32l4xx_ll_bus.h ****   tmpreg = READ_BIT(RCC->AHB2ENR, Periphs);
 568:../Drivers/STM32L4xx_HAL_Driver/Inc/stm32l4xx_ll_bus.h ****   (void)tmpreg;
 569:../Drivers/STM32L4xx_HAL_Driver/Inc/stm32l4xx_ll_bus.h **** }
 570:../Drivers/STM32L4xx_HAL_Driver/Inc/stm32l4xx_ll_bus.h **** 
 571:../Drivers/STM32L4xx_HAL_Driver/Inc/stm32l4xx_ll_bus.h **** /**
 572:../Drivers/STM32L4xx_HAL_Driver/Inc/stm32l4xx_ll_bus.h ****   * @brief  Check if AHB2 peripheral clock is enabled or not
 573:../Drivers/STM32L4xx_HAL_Driver/Inc/stm32l4xx_ll_bus.h ****   * @rmtoll AHB2ENR      GPIOAEN       LL_AHB2_GRP1_IsEnabledClock\n
 574:../Drivers/STM32L4xx_HAL_Driver/Inc/stm32l4xx_ll_bus.h ****   *         AHB2ENR      GPIOBEN       LL_AHB2_GRP1_IsEnabledClock\n
 575:../Drivers/STM32L4xx_HAL_Driver/Inc/stm32l4xx_ll_bus.h ****   *         AHB2ENR      GPIOCEN       LL_AHB2_GRP1_IsEnabledClock\n
 576:../Drivers/STM32L4xx_HAL_Driver/Inc/stm32l4xx_ll_bus.h ****   *         AHB2ENR      GPIODEN       LL_AHB2_GRP1_IsEnabledClock\n
ARM GAS  /tmp/ccAPcP1Z.s 			page 27


 577:../Drivers/STM32L4xx_HAL_Driver/Inc/stm32l4xx_ll_bus.h ****   *         AHB2ENR      GPIOEEN       LL_AHB2_GRP1_IsEnabledClock\n
 578:../Drivers/STM32L4xx_HAL_Driver/Inc/stm32l4xx_ll_bus.h ****   *         AHB2ENR      GPIOFEN       LL_AHB2_GRP1_IsEnabledClock\n
 579:../Drivers/STM32L4xx_HAL_Driver/Inc/stm32l4xx_ll_bus.h ****   *         AHB2ENR      GPIOGEN       LL_AHB2_GRP1_IsEnabledClock\n
 580:../Drivers/STM32L4xx_HAL_Driver/Inc/stm32l4xx_ll_bus.h ****   *         AHB2ENR      GPIOHEN       LL_AHB2_GRP1_IsEnabledClock\n
 581:../Drivers/STM32L4xx_HAL_Driver/Inc/stm32l4xx_ll_bus.h ****   *         AHB2ENR      GPIOIEN       LL_AHB2_GRP1_IsEnabledClock\n
 582:../Drivers/STM32L4xx_HAL_Driver/Inc/stm32l4xx_ll_bus.h ****   *         AHB2ENR      OTGFSEN       LL_AHB2_GRP1_IsEnabledClock\n
 583:../Drivers/STM32L4xx_HAL_Driver/Inc/stm32l4xx_ll_bus.h ****   *         AHB2ENR      ADCEN         LL_AHB2_GRP1_IsEnabledClock\n
 584:../Drivers/STM32L4xx_HAL_Driver/Inc/stm32l4xx_ll_bus.h ****   *         AHB2ENR      DCMIEN        LL_AHB2_GRP1_IsEnabledClock\n
 585:../Drivers/STM32L4xx_HAL_Driver/Inc/stm32l4xx_ll_bus.h ****   *         AHB2ENR      AESEN         LL_AHB2_GRP1_IsEnabledClock\n
 586:../Drivers/STM32L4xx_HAL_Driver/Inc/stm32l4xx_ll_bus.h ****   *         AHB2ENR      HASHEN        LL_AHB2_GRP1_IsEnabledClock\n
 587:../Drivers/STM32L4xx_HAL_Driver/Inc/stm32l4xx_ll_bus.h ****   *         AHB2ENR      RNGEN         LL_AHB2_GRP1_IsEnabledClock\n
 588:../Drivers/STM32L4xx_HAL_Driver/Inc/stm32l4xx_ll_bus.h ****   *         AHB2ENR      OSPIMEN       LL_AHB2_GRP1_IsEnabledClock\n
 589:../Drivers/STM32L4xx_HAL_Driver/Inc/stm32l4xx_ll_bus.h ****   *         AHB2ENR      SDMMC1EN      LL_AHB2_GRP1_IsEnabledClock
 590:../Drivers/STM32L4xx_HAL_Driver/Inc/stm32l4xx_ll_bus.h ****   * @param  Periphs This parameter can be a combination of the following values:
 591:../Drivers/STM32L4xx_HAL_Driver/Inc/stm32l4xx_ll_bus.h ****   *         @arg @ref LL_AHB2_GRP1_PERIPH_GPIOA
 592:../Drivers/STM32L4xx_HAL_Driver/Inc/stm32l4xx_ll_bus.h ****   *         @arg @ref LL_AHB2_GRP1_PERIPH_GPIOB
 593:../Drivers/STM32L4xx_HAL_Driver/Inc/stm32l4xx_ll_bus.h ****   *         @arg @ref LL_AHB2_GRP1_PERIPH_GPIOC
 594:../Drivers/STM32L4xx_HAL_Driver/Inc/stm32l4xx_ll_bus.h ****   *         @arg @ref LL_AHB2_GRP1_PERIPH_GPIOD (*)
 595:../Drivers/STM32L4xx_HAL_Driver/Inc/stm32l4xx_ll_bus.h ****   *         @arg @ref LL_AHB2_GRP1_PERIPH_GPIOE (*)
 596:../Drivers/STM32L4xx_HAL_Driver/Inc/stm32l4xx_ll_bus.h ****   *         @arg @ref LL_AHB2_GRP1_PERIPH_GPIOF (*)
 597:../Drivers/STM32L4xx_HAL_Driver/Inc/stm32l4xx_ll_bus.h ****   *         @arg @ref LL_AHB2_GRP1_PERIPH_GPIOG (*)
 598:../Drivers/STM32L4xx_HAL_Driver/Inc/stm32l4xx_ll_bus.h ****   *         @arg @ref LL_AHB2_GRP1_PERIPH_GPIOH
 599:../Drivers/STM32L4xx_HAL_Driver/Inc/stm32l4xx_ll_bus.h ****   *         @arg @ref LL_AHB2_GRP1_PERIPH_GPIOI (*)
 600:../Drivers/STM32L4xx_HAL_Driver/Inc/stm32l4xx_ll_bus.h ****   *         @arg @ref LL_AHB2_GRP1_PERIPH_OTGFS (*)
 601:../Drivers/STM32L4xx_HAL_Driver/Inc/stm32l4xx_ll_bus.h ****   *         @arg @ref LL_AHB2_GRP1_PERIPH_ADC
 602:../Drivers/STM32L4xx_HAL_Driver/Inc/stm32l4xx_ll_bus.h ****   *         @arg @ref LL_AHB2_GRP1_PERIPH_DCMI (*)
 603:../Drivers/STM32L4xx_HAL_Driver/Inc/stm32l4xx_ll_bus.h ****   *         @arg @ref LL_AHB2_GRP1_PERIPH_AES (*)
 604:../Drivers/STM32L4xx_HAL_Driver/Inc/stm32l4xx_ll_bus.h ****   *         @arg @ref LL_AHB2_GRP1_PERIPH_HASH (*)
 605:../Drivers/STM32L4xx_HAL_Driver/Inc/stm32l4xx_ll_bus.h ****   *         @arg @ref LL_AHB2_GRP1_PERIPH_RNG
 606:../Drivers/STM32L4xx_HAL_Driver/Inc/stm32l4xx_ll_bus.h ****   *         @arg @ref LL_AHB2_GRP1_PERIPH_OSPIM (*)
 607:../Drivers/STM32L4xx_HAL_Driver/Inc/stm32l4xx_ll_bus.h ****   *         @arg @ref LL_AHB2_GRP1_PERIPH_SDMMC1 (*)
 608:../Drivers/STM32L4xx_HAL_Driver/Inc/stm32l4xx_ll_bus.h ****   *
 609:../Drivers/STM32L4xx_HAL_Driver/Inc/stm32l4xx_ll_bus.h ****   *         (*) value not defined in all devices.
 610:../Drivers/STM32L4xx_HAL_Driver/Inc/stm32l4xx_ll_bus.h ****   * @retval State of Periphs (1 or 0).
 611:../Drivers/STM32L4xx_HAL_Driver/Inc/stm32l4xx_ll_bus.h **** */
 612:../Drivers/STM32L4xx_HAL_Driver/Inc/stm32l4xx_ll_bus.h **** __STATIC_INLINE uint32_t LL_AHB2_GRP1_IsEnabledClock(uint32_t Periphs)
 613:../Drivers/STM32L4xx_HAL_Driver/Inc/stm32l4xx_ll_bus.h **** {
 614:../Drivers/STM32L4xx_HAL_Driver/Inc/stm32l4xx_ll_bus.h ****   return ((READ_BIT(RCC->AHB2ENR, Periphs) == Periphs) ? 1UL : 0UL);
 615:../Drivers/STM32L4xx_HAL_Driver/Inc/stm32l4xx_ll_bus.h **** }
 616:../Drivers/STM32L4xx_HAL_Driver/Inc/stm32l4xx_ll_bus.h **** 
 617:../Drivers/STM32L4xx_HAL_Driver/Inc/stm32l4xx_ll_bus.h **** /**
 618:../Drivers/STM32L4xx_HAL_Driver/Inc/stm32l4xx_ll_bus.h ****   * @brief  Disable AHB2 peripherals clock.
 619:../Drivers/STM32L4xx_HAL_Driver/Inc/stm32l4xx_ll_bus.h ****   * @rmtoll AHB2ENR      GPIOAEN       LL_AHB2_GRP1_DisableClock\n
 620:../Drivers/STM32L4xx_HAL_Driver/Inc/stm32l4xx_ll_bus.h ****   *         AHB2ENR      GPIOBEN       LL_AHB2_GRP1_DisableClock\n
 621:../Drivers/STM32L4xx_HAL_Driver/Inc/stm32l4xx_ll_bus.h ****   *         AHB2ENR      GPIOCEN       LL_AHB2_GRP1_DisableClock\n
 622:../Drivers/STM32L4xx_HAL_Driver/Inc/stm32l4xx_ll_bus.h ****   *         AHB2ENR      GPIODEN       LL_AHB2_GRP1_DisableClock\n
 623:../Drivers/STM32L4xx_HAL_Driver/Inc/stm32l4xx_ll_bus.h ****   *         AHB2ENR      GPIOEEN       LL_AHB2_GRP1_DisableClock\n
 624:../Drivers/STM32L4xx_HAL_Driver/Inc/stm32l4xx_ll_bus.h ****   *         AHB2ENR      GPIOFEN       LL_AHB2_GRP1_DisableClock\n
 625:../Drivers/STM32L4xx_HAL_Driver/Inc/stm32l4xx_ll_bus.h ****   *         AHB2ENR      GPIOGEN       LL_AHB2_GRP1_DisableClock\n
 626:../Drivers/STM32L4xx_HAL_Driver/Inc/stm32l4xx_ll_bus.h ****   *         AHB2ENR      GPIOHEN       LL_AHB2_GRP1_DisableClock\n
 627:../Drivers/STM32L4xx_HAL_Driver/Inc/stm32l4xx_ll_bus.h ****   *         AHB2ENR      GPIOIEN       LL_AHB2_GRP1_DisableClock\n
 628:../Drivers/STM32L4xx_HAL_Driver/Inc/stm32l4xx_ll_bus.h ****   *         AHB2ENR      OTGFSEN       LL_AHB2_GRP1_DisableClock\n
 629:../Drivers/STM32L4xx_HAL_Driver/Inc/stm32l4xx_ll_bus.h ****   *         AHB2ENR      ADCEN         LL_AHB2_GRP1_DisableClock\n
 630:../Drivers/STM32L4xx_HAL_Driver/Inc/stm32l4xx_ll_bus.h ****   *         AHB2ENR      DCMIEN        LL_AHB2_GRP1_DisableClock\n
 631:../Drivers/STM32L4xx_HAL_Driver/Inc/stm32l4xx_ll_bus.h ****   *         AHB2ENR      AESEN         LL_AHB2_GRP1_DisableClock\n
 632:../Drivers/STM32L4xx_HAL_Driver/Inc/stm32l4xx_ll_bus.h ****   *         AHB2ENR      HASHEN        LL_AHB2_GRP1_DisableClock\n
 633:../Drivers/STM32L4xx_HAL_Driver/Inc/stm32l4xx_ll_bus.h ****   *         AHB2ENR      RNGEN         LL_AHB2_GRP1_DisableClock\n
ARM GAS  /tmp/ccAPcP1Z.s 			page 28


 634:../Drivers/STM32L4xx_HAL_Driver/Inc/stm32l4xx_ll_bus.h ****   *         AHB2ENR      OSPIMEN       LL_AHB2_GRP1_DisableClock\n
 635:../Drivers/STM32L4xx_HAL_Driver/Inc/stm32l4xx_ll_bus.h ****   *         AHB2ENR      SDMMC1EN      LL_AHB2_GRP1_DisableClock
 636:../Drivers/STM32L4xx_HAL_Driver/Inc/stm32l4xx_ll_bus.h ****   * @param  Periphs This parameter can be a combination of the following values:
 637:../Drivers/STM32L4xx_HAL_Driver/Inc/stm32l4xx_ll_bus.h ****   *         @arg @ref LL_AHB2_GRP1_PERIPH_GPIOA
 638:../Drivers/STM32L4xx_HAL_Driver/Inc/stm32l4xx_ll_bus.h ****   *         @arg @ref LL_AHB2_GRP1_PERIPH_GPIOB
 639:../Drivers/STM32L4xx_HAL_Driver/Inc/stm32l4xx_ll_bus.h ****   *         @arg @ref LL_AHB2_GRP1_PERIPH_GPIOC
 640:../Drivers/STM32L4xx_HAL_Driver/Inc/stm32l4xx_ll_bus.h ****   *         @arg @ref LL_AHB2_GRP1_PERIPH_GPIOD (*)
 641:../Drivers/STM32L4xx_HAL_Driver/Inc/stm32l4xx_ll_bus.h ****   *         @arg @ref LL_AHB2_GRP1_PERIPH_GPIOE (*)
 642:../Drivers/STM32L4xx_HAL_Driver/Inc/stm32l4xx_ll_bus.h ****   *         @arg @ref LL_AHB2_GRP1_PERIPH_GPIOF (*)
 643:../Drivers/STM32L4xx_HAL_Driver/Inc/stm32l4xx_ll_bus.h ****   *         @arg @ref LL_AHB2_GRP1_PERIPH_GPIOG (*)
 644:../Drivers/STM32L4xx_HAL_Driver/Inc/stm32l4xx_ll_bus.h ****   *         @arg @ref LL_AHB2_GRP1_PERIPH_GPIOH
 645:../Drivers/STM32L4xx_HAL_Driver/Inc/stm32l4xx_ll_bus.h ****   *         @arg @ref LL_AHB2_GRP1_PERIPH_GPIOI (*)
 646:../Drivers/STM32L4xx_HAL_Driver/Inc/stm32l4xx_ll_bus.h ****   *         @arg @ref LL_AHB2_GRP1_PERIPH_OTGFS (*)
 647:../Drivers/STM32L4xx_HAL_Driver/Inc/stm32l4xx_ll_bus.h ****   *         @arg @ref LL_AHB2_GRP1_PERIPH_ADC
 648:../Drivers/STM32L4xx_HAL_Driver/Inc/stm32l4xx_ll_bus.h ****   *         @arg @ref LL_AHB2_GRP1_PERIPH_DCMI (*)
 649:../Drivers/STM32L4xx_HAL_Driver/Inc/stm32l4xx_ll_bus.h ****   *         @arg @ref LL_AHB2_GRP1_PERIPH_AES (*)
 650:../Drivers/STM32L4xx_HAL_Driver/Inc/stm32l4xx_ll_bus.h ****   *         @arg @ref LL_AHB2_GRP1_PERIPH_HASH (*)
 651:../Drivers/STM32L4xx_HAL_Driver/Inc/stm32l4xx_ll_bus.h ****   *         @arg @ref LL_AHB2_GRP1_PERIPH_RNG
 652:../Drivers/STM32L4xx_HAL_Driver/Inc/stm32l4xx_ll_bus.h ****   *         @arg @ref LL_AHB2_GRP1_PERIPH_OSPIM (*)
 653:../Drivers/STM32L4xx_HAL_Driver/Inc/stm32l4xx_ll_bus.h ****   *         @arg @ref LL_AHB2_GRP1_PERIPH_SDMMC1 (*)
 654:../Drivers/STM32L4xx_HAL_Driver/Inc/stm32l4xx_ll_bus.h ****   *
 655:../Drivers/STM32L4xx_HAL_Driver/Inc/stm32l4xx_ll_bus.h ****   *         (*) value not defined in all devices.
 656:../Drivers/STM32L4xx_HAL_Driver/Inc/stm32l4xx_ll_bus.h ****   * @retval None
 657:../Drivers/STM32L4xx_HAL_Driver/Inc/stm32l4xx_ll_bus.h **** */
 658:../Drivers/STM32L4xx_HAL_Driver/Inc/stm32l4xx_ll_bus.h **** __STATIC_INLINE void LL_AHB2_GRP1_DisableClock(uint32_t Periphs)
 659:../Drivers/STM32L4xx_HAL_Driver/Inc/stm32l4xx_ll_bus.h **** {
 660:../Drivers/STM32L4xx_HAL_Driver/Inc/stm32l4xx_ll_bus.h ****   CLEAR_BIT(RCC->AHB2ENR, Periphs);
 661:../Drivers/STM32L4xx_HAL_Driver/Inc/stm32l4xx_ll_bus.h **** }
 662:../Drivers/STM32L4xx_HAL_Driver/Inc/stm32l4xx_ll_bus.h **** 
 663:../Drivers/STM32L4xx_HAL_Driver/Inc/stm32l4xx_ll_bus.h **** /**
 664:../Drivers/STM32L4xx_HAL_Driver/Inc/stm32l4xx_ll_bus.h ****   * @brief  Force AHB2 peripherals reset.
 665:../Drivers/STM32L4xx_HAL_Driver/Inc/stm32l4xx_ll_bus.h ****   * @rmtoll AHB2RSTR     GPIOARST      LL_AHB2_GRP1_ForceReset\n
 666:../Drivers/STM32L4xx_HAL_Driver/Inc/stm32l4xx_ll_bus.h ****   *         AHB2RSTR     GPIOBRST      LL_AHB2_GRP1_ForceReset\n
 667:../Drivers/STM32L4xx_HAL_Driver/Inc/stm32l4xx_ll_bus.h ****   *         AHB2RSTR     GPIOCRST      LL_AHB2_GRP1_ForceReset\n
 668:../Drivers/STM32L4xx_HAL_Driver/Inc/stm32l4xx_ll_bus.h ****   *         AHB2RSTR     GPIODRST      LL_AHB2_GRP1_ForceReset\n
 669:../Drivers/STM32L4xx_HAL_Driver/Inc/stm32l4xx_ll_bus.h ****   *         AHB2RSTR     GPIOERST      LL_AHB2_GRP1_ForceReset\n
 670:../Drivers/STM32L4xx_HAL_Driver/Inc/stm32l4xx_ll_bus.h ****   *         AHB2RSTR     GPIOFRST      LL_AHB2_GRP1_ForceReset\n
 671:../Drivers/STM32L4xx_HAL_Driver/Inc/stm32l4xx_ll_bus.h ****   *         AHB2RSTR     GPIOGRST      LL_AHB2_GRP1_ForceReset\n
 672:../Drivers/STM32L4xx_HAL_Driver/Inc/stm32l4xx_ll_bus.h ****   *         AHB2RSTR     GPIOHRST      LL_AHB2_GRP1_ForceReset\n
 673:../Drivers/STM32L4xx_HAL_Driver/Inc/stm32l4xx_ll_bus.h ****   *         AHB2RSTR     GPIOIRST      LL_AHB2_GRP1_ForceReset\n
 674:../Drivers/STM32L4xx_HAL_Driver/Inc/stm32l4xx_ll_bus.h ****   *         AHB2RSTR     OTGFSRST      LL_AHB2_GRP1_ForceReset\n
 675:../Drivers/STM32L4xx_HAL_Driver/Inc/stm32l4xx_ll_bus.h ****   *         AHB2RSTR     ADCRST        LL_AHB2_GRP1_ForceReset\n
 676:../Drivers/STM32L4xx_HAL_Driver/Inc/stm32l4xx_ll_bus.h ****   *         AHB2RSTR     DCMIRST       LL_AHB2_GRP1_ForceReset\n
 677:../Drivers/STM32L4xx_HAL_Driver/Inc/stm32l4xx_ll_bus.h ****   *         AHB2RSTR     AESRST        LL_AHB2_GRP1_ForceReset\n
 678:../Drivers/STM32L4xx_HAL_Driver/Inc/stm32l4xx_ll_bus.h ****   *         AHB2RSTR     HASHRST       LL_AHB2_GRP1_ForceReset\n
 679:../Drivers/STM32L4xx_HAL_Driver/Inc/stm32l4xx_ll_bus.h ****   *         AHB2RSTR     RNGRST        LL_AHB2_GRP1_ForceReset\n
 680:../Drivers/STM32L4xx_HAL_Driver/Inc/stm32l4xx_ll_bus.h ****   *         AHB2RSTR     OSPIMRST      LL_AHB2_GRP1_ForceReset\n
 681:../Drivers/STM32L4xx_HAL_Driver/Inc/stm32l4xx_ll_bus.h ****   *         AHB2RSTR     SDMMC1RST     LL_AHB2_GRP1_ForceReset
 682:../Drivers/STM32L4xx_HAL_Driver/Inc/stm32l4xx_ll_bus.h ****   * @param  Periphs This parameter can be a combination of the following values:
 683:../Drivers/STM32L4xx_HAL_Driver/Inc/stm32l4xx_ll_bus.h ****   *         @arg @ref LL_AHB2_GRP1_PERIPH_ALL
 684:../Drivers/STM32L4xx_HAL_Driver/Inc/stm32l4xx_ll_bus.h ****   *         @arg @ref LL_AHB2_GRP1_PERIPH_GPIOA
 685:../Drivers/STM32L4xx_HAL_Driver/Inc/stm32l4xx_ll_bus.h ****   *         @arg @ref LL_AHB2_GRP1_PERIPH_GPIOB
 686:../Drivers/STM32L4xx_HAL_Driver/Inc/stm32l4xx_ll_bus.h ****   *         @arg @ref LL_AHB2_GRP1_PERIPH_GPIOC
 687:../Drivers/STM32L4xx_HAL_Driver/Inc/stm32l4xx_ll_bus.h ****   *         @arg @ref LL_AHB2_GRP1_PERIPH_GPIOD (*)
 688:../Drivers/STM32L4xx_HAL_Driver/Inc/stm32l4xx_ll_bus.h ****   *         @arg @ref LL_AHB2_GRP1_PERIPH_GPIOE (*)
 689:../Drivers/STM32L4xx_HAL_Driver/Inc/stm32l4xx_ll_bus.h ****   *         @arg @ref LL_AHB2_GRP1_PERIPH_GPIOF (*)
 690:../Drivers/STM32L4xx_HAL_Driver/Inc/stm32l4xx_ll_bus.h ****   *         @arg @ref LL_AHB2_GRP1_PERIPH_GPIOG (*)
ARM GAS  /tmp/ccAPcP1Z.s 			page 29


 691:../Drivers/STM32L4xx_HAL_Driver/Inc/stm32l4xx_ll_bus.h ****   *         @arg @ref LL_AHB2_GRP1_PERIPH_GPIOH
 692:../Drivers/STM32L4xx_HAL_Driver/Inc/stm32l4xx_ll_bus.h ****   *         @arg @ref LL_AHB2_GRP1_PERIPH_GPIOI (*)
 693:../Drivers/STM32L4xx_HAL_Driver/Inc/stm32l4xx_ll_bus.h ****   *         @arg @ref LL_AHB2_GRP1_PERIPH_OTGFS (*)
 694:../Drivers/STM32L4xx_HAL_Driver/Inc/stm32l4xx_ll_bus.h ****   *         @arg @ref LL_AHB2_GRP1_PERIPH_ADC
 695:../Drivers/STM32L4xx_HAL_Driver/Inc/stm32l4xx_ll_bus.h ****   *         @arg @ref LL_AHB2_GRP1_PERIPH_DCMI (*)
 696:../Drivers/STM32L4xx_HAL_Driver/Inc/stm32l4xx_ll_bus.h ****   *         @arg @ref LL_AHB2_GRP1_PERIPH_AES (*)
 697:../Drivers/STM32L4xx_HAL_Driver/Inc/stm32l4xx_ll_bus.h ****   *         @arg @ref LL_AHB2_GRP1_PERIPH_HASH (*)
 698:../Drivers/STM32L4xx_HAL_Driver/Inc/stm32l4xx_ll_bus.h ****   *         @arg @ref LL_AHB2_GRP1_PERIPH_RNG
 699:../Drivers/STM32L4xx_HAL_Driver/Inc/stm32l4xx_ll_bus.h ****   *         @arg @ref LL_AHB2_GRP1_PERIPH_OSPIM (*)
 700:../Drivers/STM32L4xx_HAL_Driver/Inc/stm32l4xx_ll_bus.h ****   *         @arg @ref LL_AHB2_GRP1_PERIPH_SDMMC1 (*)
 701:../Drivers/STM32L4xx_HAL_Driver/Inc/stm32l4xx_ll_bus.h ****   *
 702:../Drivers/STM32L4xx_HAL_Driver/Inc/stm32l4xx_ll_bus.h ****   *         (*) value not defined in all devices.
 703:../Drivers/STM32L4xx_HAL_Driver/Inc/stm32l4xx_ll_bus.h ****   * @retval None
 704:../Drivers/STM32L4xx_HAL_Driver/Inc/stm32l4xx_ll_bus.h **** */
 705:../Drivers/STM32L4xx_HAL_Driver/Inc/stm32l4xx_ll_bus.h **** __STATIC_INLINE void LL_AHB2_GRP1_ForceReset(uint32_t Periphs)
 706:../Drivers/STM32L4xx_HAL_Driver/Inc/stm32l4xx_ll_bus.h **** {
 707:../Drivers/STM32L4xx_HAL_Driver/Inc/stm32l4xx_ll_bus.h ****   SET_BIT(RCC->AHB2RSTR, Periphs);
 708:../Drivers/STM32L4xx_HAL_Driver/Inc/stm32l4xx_ll_bus.h **** }
 709:../Drivers/STM32L4xx_HAL_Driver/Inc/stm32l4xx_ll_bus.h **** 
 710:../Drivers/STM32L4xx_HAL_Driver/Inc/stm32l4xx_ll_bus.h **** /**
 711:../Drivers/STM32L4xx_HAL_Driver/Inc/stm32l4xx_ll_bus.h ****   * @brief  Release AHB2 peripherals reset.
 712:../Drivers/STM32L4xx_HAL_Driver/Inc/stm32l4xx_ll_bus.h ****   * @rmtoll AHB2RSTR     GPIOARST      LL_AHB2_GRP1_ReleaseReset\n
 713:../Drivers/STM32L4xx_HAL_Driver/Inc/stm32l4xx_ll_bus.h ****   *         AHB2RSTR     GPIOBRST      LL_AHB2_GRP1_ReleaseReset\n
 714:../Drivers/STM32L4xx_HAL_Driver/Inc/stm32l4xx_ll_bus.h ****   *         AHB2RSTR     GPIOCRST      LL_AHB2_GRP1_ReleaseReset\n
 715:../Drivers/STM32L4xx_HAL_Driver/Inc/stm32l4xx_ll_bus.h ****   *         AHB2RSTR     GPIODRST      LL_AHB2_GRP1_ReleaseReset\n
 716:../Drivers/STM32L4xx_HAL_Driver/Inc/stm32l4xx_ll_bus.h ****   *         AHB2RSTR     GPIOERST      LL_AHB2_GRP1_ReleaseReset\n
 717:../Drivers/STM32L4xx_HAL_Driver/Inc/stm32l4xx_ll_bus.h ****   *         AHB2RSTR     GPIOFRST      LL_AHB2_GRP1_ReleaseReset\n
 718:../Drivers/STM32L4xx_HAL_Driver/Inc/stm32l4xx_ll_bus.h ****   *         AHB2RSTR     GPIOGRST      LL_AHB2_GRP1_ReleaseReset\n
 719:../Drivers/STM32L4xx_HAL_Driver/Inc/stm32l4xx_ll_bus.h ****   *         AHB2RSTR     GPIOHRST      LL_AHB2_GRP1_ReleaseReset\n
 720:../Drivers/STM32L4xx_HAL_Driver/Inc/stm32l4xx_ll_bus.h ****   *         AHB2RSTR     GPIOIRST      LL_AHB2_GRP1_ReleaseReset\n
 721:../Drivers/STM32L4xx_HAL_Driver/Inc/stm32l4xx_ll_bus.h ****   *         AHB2RSTR     OTGFSRST      LL_AHB2_GRP1_ReleaseReset\n
 722:../Drivers/STM32L4xx_HAL_Driver/Inc/stm32l4xx_ll_bus.h ****   *         AHB2RSTR     ADCRST        LL_AHB2_GRP1_ReleaseReset\n
 723:../Drivers/STM32L4xx_HAL_Driver/Inc/stm32l4xx_ll_bus.h ****   *         AHB2RSTR     DCMIRST       LL_AHB2_GRP1_ReleaseReset\n
 724:../Drivers/STM32L4xx_HAL_Driver/Inc/stm32l4xx_ll_bus.h ****   *         AHB2RSTR     AESRST        LL_AHB2_GRP1_ReleaseReset\n
 725:../Drivers/STM32L4xx_HAL_Driver/Inc/stm32l4xx_ll_bus.h ****   *         AHB2RSTR     HASHRST       LL_AHB2_GRP1_ReleaseReset\n
 726:../Drivers/STM32L4xx_HAL_Driver/Inc/stm32l4xx_ll_bus.h ****   *         AHB2RSTR     RNGRST        LL_AHB2_GRP1_ReleaseReset\n
 727:../Drivers/STM32L4xx_HAL_Driver/Inc/stm32l4xx_ll_bus.h ****   *         AHB2RSTR     OSPIMRST      LL_AHB2_GRP1_ReleaseReset\n
 728:../Drivers/STM32L4xx_HAL_Driver/Inc/stm32l4xx_ll_bus.h ****   *         AHB2RSTR     SDMMC1RST     LL_AHB2_GRP1_ReleaseReset
 729:../Drivers/STM32L4xx_HAL_Driver/Inc/stm32l4xx_ll_bus.h ****   * @param  Periphs This parameter can be a combination of the following values:
 730:../Drivers/STM32L4xx_HAL_Driver/Inc/stm32l4xx_ll_bus.h ****   *         @arg @ref LL_AHB2_GRP1_PERIPH_ALL
 731:../Drivers/STM32L4xx_HAL_Driver/Inc/stm32l4xx_ll_bus.h ****   *         @arg @ref LL_AHB2_GRP1_PERIPH_GPIOA
 732:../Drivers/STM32L4xx_HAL_Driver/Inc/stm32l4xx_ll_bus.h ****   *         @arg @ref LL_AHB2_GRP1_PERIPH_GPIOB
 733:../Drivers/STM32L4xx_HAL_Driver/Inc/stm32l4xx_ll_bus.h ****   *         @arg @ref LL_AHB2_GRP1_PERIPH_GPIOC
 734:../Drivers/STM32L4xx_HAL_Driver/Inc/stm32l4xx_ll_bus.h ****   *         @arg @ref LL_AHB2_GRP1_PERIPH_GPIOD (*)
 735:../Drivers/STM32L4xx_HAL_Driver/Inc/stm32l4xx_ll_bus.h ****   *         @arg @ref LL_AHB2_GRP1_PERIPH_GPIOE (*)
 736:../Drivers/STM32L4xx_HAL_Driver/Inc/stm32l4xx_ll_bus.h ****   *         @arg @ref LL_AHB2_GRP1_PERIPH_GPIOF (*)
 737:../Drivers/STM32L4xx_HAL_Driver/Inc/stm32l4xx_ll_bus.h ****   *         @arg @ref LL_AHB2_GRP1_PERIPH_GPIOG (*)
 738:../Drivers/STM32L4xx_HAL_Driver/Inc/stm32l4xx_ll_bus.h ****   *         @arg @ref LL_AHB2_GRP1_PERIPH_GPIOH
 739:../Drivers/STM32L4xx_HAL_Driver/Inc/stm32l4xx_ll_bus.h ****   *         @arg @ref LL_AHB2_GRP1_PERIPH_GPIOI (*)
 740:../Drivers/STM32L4xx_HAL_Driver/Inc/stm32l4xx_ll_bus.h ****   *         @arg @ref LL_AHB2_GRP1_PERIPH_OTGFS (*)
 741:../Drivers/STM32L4xx_HAL_Driver/Inc/stm32l4xx_ll_bus.h ****   *         @arg @ref LL_AHB2_GRP1_PERIPH_ADC
 742:../Drivers/STM32L4xx_HAL_Driver/Inc/stm32l4xx_ll_bus.h ****   *         @arg @ref LL_AHB2_GRP1_PERIPH_DCMI (*)
 743:../Drivers/STM32L4xx_HAL_Driver/Inc/stm32l4xx_ll_bus.h ****   *         @arg @ref LL_AHB2_GRP1_PERIPH_AES (*)
 744:../Drivers/STM32L4xx_HAL_Driver/Inc/stm32l4xx_ll_bus.h ****   *         @arg @ref LL_AHB2_GRP1_PERIPH_HASH (*)
 745:../Drivers/STM32L4xx_HAL_Driver/Inc/stm32l4xx_ll_bus.h ****   *         @arg @ref LL_AHB2_GRP1_PERIPH_RNG
 746:../Drivers/STM32L4xx_HAL_Driver/Inc/stm32l4xx_ll_bus.h ****   *         @arg @ref LL_AHB2_GRP1_PERIPH_OSPIM (*)
 747:../Drivers/STM32L4xx_HAL_Driver/Inc/stm32l4xx_ll_bus.h ****   *         @arg @ref LL_AHB2_GRP1_PERIPH_SDMMC1 (*)
ARM GAS  /tmp/ccAPcP1Z.s 			page 30


 748:../Drivers/STM32L4xx_HAL_Driver/Inc/stm32l4xx_ll_bus.h ****   *
 749:../Drivers/STM32L4xx_HAL_Driver/Inc/stm32l4xx_ll_bus.h ****   *         (*) value not defined in all devices.
 750:../Drivers/STM32L4xx_HAL_Driver/Inc/stm32l4xx_ll_bus.h ****   * @retval None
 751:../Drivers/STM32L4xx_HAL_Driver/Inc/stm32l4xx_ll_bus.h **** */
 752:../Drivers/STM32L4xx_HAL_Driver/Inc/stm32l4xx_ll_bus.h **** __STATIC_INLINE void LL_AHB2_GRP1_ReleaseReset(uint32_t Periphs)
 753:../Drivers/STM32L4xx_HAL_Driver/Inc/stm32l4xx_ll_bus.h **** {
 754:../Drivers/STM32L4xx_HAL_Driver/Inc/stm32l4xx_ll_bus.h ****   CLEAR_BIT(RCC->AHB2RSTR, Periphs);
 755:../Drivers/STM32L4xx_HAL_Driver/Inc/stm32l4xx_ll_bus.h **** }
 756:../Drivers/STM32L4xx_HAL_Driver/Inc/stm32l4xx_ll_bus.h **** 
 757:../Drivers/STM32L4xx_HAL_Driver/Inc/stm32l4xx_ll_bus.h **** /**
 758:../Drivers/STM32L4xx_HAL_Driver/Inc/stm32l4xx_ll_bus.h ****   * @brief  Enable AHB2 peripheral clocks in Sleep and Stop modes
 759:../Drivers/STM32L4xx_HAL_Driver/Inc/stm32l4xx_ll_bus.h ****   * @rmtoll AHB2SMENR    GPIOASMEN     LL_AHB2_GRP1_EnableClockStopSleep\n
 760:../Drivers/STM32L4xx_HAL_Driver/Inc/stm32l4xx_ll_bus.h ****   *         AHB2SMENR    GPIOBSMEN     LL_AHB2_GRP1_EnableClockStopSleep\n
 761:../Drivers/STM32L4xx_HAL_Driver/Inc/stm32l4xx_ll_bus.h ****   *         AHB2SMENR    GPIOCSMEN     LL_AHB2_GRP1_EnableClockStopSleep\n
 762:../Drivers/STM32L4xx_HAL_Driver/Inc/stm32l4xx_ll_bus.h ****   *         AHB2SMENR    GPIODSMEN     LL_AHB2_GRP1_EnableClockStopSleep\n
 763:../Drivers/STM32L4xx_HAL_Driver/Inc/stm32l4xx_ll_bus.h ****   *         AHB2SMENR    GPIOESMEN     LL_AHB2_GRP1_EnableClockStopSleep\n
 764:../Drivers/STM32L4xx_HAL_Driver/Inc/stm32l4xx_ll_bus.h ****   *         AHB2SMENR    GPIOFSMEN     LL_AHB2_GRP1_EnableClockStopSleep\n
 765:../Drivers/STM32L4xx_HAL_Driver/Inc/stm32l4xx_ll_bus.h ****   *         AHB2SMENR    GPIOGSMEN     LL_AHB2_GRP1_EnableClockStopSleep\n
 766:../Drivers/STM32L4xx_HAL_Driver/Inc/stm32l4xx_ll_bus.h ****   *         AHB2SMENR    GPIOHSMEN     LL_AHB2_GRP1_EnableClockStopSleep\n
 767:../Drivers/STM32L4xx_HAL_Driver/Inc/stm32l4xx_ll_bus.h ****   *         AHB2SMENR    GPIOISMEN     LL_AHB2_GRP1_EnableClockStopSleep\n
 768:../Drivers/STM32L4xx_HAL_Driver/Inc/stm32l4xx_ll_bus.h ****   *         AHB2SMENR    SRAM2SMEN     LL_AHB2_GRP1_EnableClockStopSleep\n
 769:../Drivers/STM32L4xx_HAL_Driver/Inc/stm32l4xx_ll_bus.h ****   *         AHB2SMENR    SRAM3SMEN     LL_AHB2_GRP1_EnableClockStopSleep\n
 770:../Drivers/STM32L4xx_HAL_Driver/Inc/stm32l4xx_ll_bus.h ****   *         AHB2SMENR    OTGFSSMEN     LL_AHB2_GRP1_EnableClockStopSleep\n
 771:../Drivers/STM32L4xx_HAL_Driver/Inc/stm32l4xx_ll_bus.h ****   *         AHB2SMENR    ADCSMEN       LL_AHB2_GRP1_EnableClockStopSleep\n
 772:../Drivers/STM32L4xx_HAL_Driver/Inc/stm32l4xx_ll_bus.h ****   *         AHB2SMENR    DCMISMEN      LL_AHB2_GRP1_EnableClockStopSleep\n
 773:../Drivers/STM32L4xx_HAL_Driver/Inc/stm32l4xx_ll_bus.h ****   *         AHB2SMENR    AESSMEN       LL_AHB2_GRP1_EnableClockStopSleep\n
 774:../Drivers/STM32L4xx_HAL_Driver/Inc/stm32l4xx_ll_bus.h ****   *         AHB2SMENR    HASHSMEN      LL_AHB2_GRP1_EnableClockStopSleep\n
 775:../Drivers/STM32L4xx_HAL_Driver/Inc/stm32l4xx_ll_bus.h ****   *         AHB2SMENR    RNGSMEN       LL_AHB2_GRP1_EnableClockStopSleep\n
 776:../Drivers/STM32L4xx_HAL_Driver/Inc/stm32l4xx_ll_bus.h ****   *         AHB2SMENR    OSPIMSMEN     LL_AHB2_GRP1_EnableClockStopSleep\n
 777:../Drivers/STM32L4xx_HAL_Driver/Inc/stm32l4xx_ll_bus.h ****   *         AHB2SMENR    SDMMC1SMEN    LL_AHB2_GRP1_EnableClockStopSleep
 778:../Drivers/STM32L4xx_HAL_Driver/Inc/stm32l4xx_ll_bus.h ****   * @param  Periphs This parameter can be a combination of the following values:
 779:../Drivers/STM32L4xx_HAL_Driver/Inc/stm32l4xx_ll_bus.h ****   *         @arg @ref LL_AHB2_GRP1_PERIPH_GPIOA
 780:../Drivers/STM32L4xx_HAL_Driver/Inc/stm32l4xx_ll_bus.h ****   *         @arg @ref LL_AHB2_GRP1_PERIPH_GPIOB
 781:../Drivers/STM32L4xx_HAL_Driver/Inc/stm32l4xx_ll_bus.h ****   *         @arg @ref LL_AHB2_GRP1_PERIPH_GPIOC
 782:../Drivers/STM32L4xx_HAL_Driver/Inc/stm32l4xx_ll_bus.h ****   *         @arg @ref LL_AHB2_GRP1_PERIPH_GPIOD (*)
 783:../Drivers/STM32L4xx_HAL_Driver/Inc/stm32l4xx_ll_bus.h ****   *         @arg @ref LL_AHB2_GRP1_PERIPH_GPIOE (*)
 784:../Drivers/STM32L4xx_HAL_Driver/Inc/stm32l4xx_ll_bus.h ****   *         @arg @ref LL_AHB2_GRP1_PERIPH_GPIOF (*)
 785:../Drivers/STM32L4xx_HAL_Driver/Inc/stm32l4xx_ll_bus.h ****   *         @arg @ref LL_AHB2_GRP1_PERIPH_GPIOG (*)
 786:../Drivers/STM32L4xx_HAL_Driver/Inc/stm32l4xx_ll_bus.h ****   *         @arg @ref LL_AHB2_GRP1_PERIPH_GPIOH
 787:../Drivers/STM32L4xx_HAL_Driver/Inc/stm32l4xx_ll_bus.h ****   *         @arg @ref LL_AHB2_GRP1_PERIPH_GPIOI (*)
 788:../Drivers/STM32L4xx_HAL_Driver/Inc/stm32l4xx_ll_bus.h ****   *         @arg @ref LL_AHB2_GRP1_PERIPH_SRAM2
 789:../Drivers/STM32L4xx_HAL_Driver/Inc/stm32l4xx_ll_bus.h ****   *         @arg @ref LL_AHB2_GRP1_PERIPH_SRAM3 (*)
 790:../Drivers/STM32L4xx_HAL_Driver/Inc/stm32l4xx_ll_bus.h ****   *         @arg @ref LL_AHB2_GRP1_PERIPH_OTGFS (*)
 791:../Drivers/STM32L4xx_HAL_Driver/Inc/stm32l4xx_ll_bus.h ****   *         @arg @ref LL_AHB2_GRP1_PERIPH_ADC
 792:../Drivers/STM32L4xx_HAL_Driver/Inc/stm32l4xx_ll_bus.h ****   *         @arg @ref LL_AHB2_GRP1_PERIPH_DCMI (*)
 793:../Drivers/STM32L4xx_HAL_Driver/Inc/stm32l4xx_ll_bus.h ****   *         @arg @ref LL_AHB2_GRP1_PERIPH_AES (*)
 794:../Drivers/STM32L4xx_HAL_Driver/Inc/stm32l4xx_ll_bus.h ****   *         @arg @ref LL_AHB2_GRP1_PERIPH_HASH (*)
 795:../Drivers/STM32L4xx_HAL_Driver/Inc/stm32l4xx_ll_bus.h ****   *         @arg @ref LL_AHB2_GRP1_PERIPH_RNG
 796:../Drivers/STM32L4xx_HAL_Driver/Inc/stm32l4xx_ll_bus.h ****   *         @arg @ref LL_AHB2_GRP1_PERIPH_OSPIM (*)
 797:../Drivers/STM32L4xx_HAL_Driver/Inc/stm32l4xx_ll_bus.h ****   *         @arg @ref LL_AHB2_GRP1_PERIPH_SDMMC1 (*)
 798:../Drivers/STM32L4xx_HAL_Driver/Inc/stm32l4xx_ll_bus.h ****   *
 799:../Drivers/STM32L4xx_HAL_Driver/Inc/stm32l4xx_ll_bus.h ****   *         (*) value not defined in all devices.
 800:../Drivers/STM32L4xx_HAL_Driver/Inc/stm32l4xx_ll_bus.h ****   * @retval None
 801:../Drivers/STM32L4xx_HAL_Driver/Inc/stm32l4xx_ll_bus.h **** */
 802:../Drivers/STM32L4xx_HAL_Driver/Inc/stm32l4xx_ll_bus.h **** __STATIC_INLINE void LL_AHB2_GRP1_EnableClockStopSleep(uint32_t Periphs)
 803:../Drivers/STM32L4xx_HAL_Driver/Inc/stm32l4xx_ll_bus.h **** {
 804:../Drivers/STM32L4xx_HAL_Driver/Inc/stm32l4xx_ll_bus.h ****   __IO uint32_t tmpreg;
ARM GAS  /tmp/ccAPcP1Z.s 			page 31


 805:../Drivers/STM32L4xx_HAL_Driver/Inc/stm32l4xx_ll_bus.h ****   SET_BIT(RCC->AHB2SMENR, Periphs);
 806:../Drivers/STM32L4xx_HAL_Driver/Inc/stm32l4xx_ll_bus.h ****   /* Delay after an RCC peripheral clock enabling */
 807:../Drivers/STM32L4xx_HAL_Driver/Inc/stm32l4xx_ll_bus.h ****   tmpreg = READ_BIT(RCC->AHB2SMENR, Periphs);
 808:../Drivers/STM32L4xx_HAL_Driver/Inc/stm32l4xx_ll_bus.h ****   (void)tmpreg;
 809:../Drivers/STM32L4xx_HAL_Driver/Inc/stm32l4xx_ll_bus.h **** }
 810:../Drivers/STM32L4xx_HAL_Driver/Inc/stm32l4xx_ll_bus.h **** 
 811:../Drivers/STM32L4xx_HAL_Driver/Inc/stm32l4xx_ll_bus.h **** /**
 812:../Drivers/STM32L4xx_HAL_Driver/Inc/stm32l4xx_ll_bus.h ****   * @brief  Disable AHB2 peripheral clocks in Sleep and Stop modes
 813:../Drivers/STM32L4xx_HAL_Driver/Inc/stm32l4xx_ll_bus.h ****   * @rmtoll AHB2SMENR    GPIOASMEN     LL_AHB2_GRP1_DisableClockStopSleep\n
 814:../Drivers/STM32L4xx_HAL_Driver/Inc/stm32l4xx_ll_bus.h ****   *         AHB2SMENR    GPIOBSMEN     LL_AHB2_GRP1_DisableClockStopSleep\n
 815:../Drivers/STM32L4xx_HAL_Driver/Inc/stm32l4xx_ll_bus.h ****   *         AHB2SMENR    GPIOCSMEN     LL_AHB2_GRP1_DisableClockStopSleep\n
 816:../Drivers/STM32L4xx_HAL_Driver/Inc/stm32l4xx_ll_bus.h ****   *         AHB2SMENR    GPIODSMEN     LL_AHB2_GRP1_DisableClockStopSleep\n
 817:../Drivers/STM32L4xx_HAL_Driver/Inc/stm32l4xx_ll_bus.h ****   *         AHB2SMENR    GPIOESMEN     LL_AHB2_GRP1_DisableClockStopSleep\n
 818:../Drivers/STM32L4xx_HAL_Driver/Inc/stm32l4xx_ll_bus.h ****   *         AHB2SMENR    GPIOFSMEN     LL_AHB2_GRP1_DisableClockStopSleep\n
 819:../Drivers/STM32L4xx_HAL_Driver/Inc/stm32l4xx_ll_bus.h ****   *         AHB2SMENR    GPIOGSMEN     LL_AHB2_GRP1_DisableClockStopSleep\n
 820:../Drivers/STM32L4xx_HAL_Driver/Inc/stm32l4xx_ll_bus.h ****   *         AHB2SMENR    GPIOHSMEN     LL_AHB2_GRP1_DisableClockStopSleep\n
 821:../Drivers/STM32L4xx_HAL_Driver/Inc/stm32l4xx_ll_bus.h ****   *         AHB2SMENR    GPIOISMEN     LL_AHB2_GRP1_DisableClockStopSleep\n
 822:../Drivers/STM32L4xx_HAL_Driver/Inc/stm32l4xx_ll_bus.h ****   *         AHB2SMENR    SRAM2SMEN     LL_AHB2_GRP1_DisableClockStopSleep\n
 823:../Drivers/STM32L4xx_HAL_Driver/Inc/stm32l4xx_ll_bus.h ****   *         AHB2SMENR    SRAM3SMEN     LL_AHB2_GRP1_DisableClockStopSleep\n
 824:../Drivers/STM32L4xx_HAL_Driver/Inc/stm32l4xx_ll_bus.h ****   *         AHB2SMENR    OTGFSSMEN     LL_AHB2_GRP1_DisableClockStopSleep\n
 825:../Drivers/STM32L4xx_HAL_Driver/Inc/stm32l4xx_ll_bus.h ****   *         AHB2SMENR    ADCSMEN       LL_AHB2_GRP1_DisableClockStopSleep\n
 826:../Drivers/STM32L4xx_HAL_Driver/Inc/stm32l4xx_ll_bus.h ****   *         AHB2SMENR    DCMISMEN      LL_AHB2_GRP1_DisableClockStopSleep\n
 827:../Drivers/STM32L4xx_HAL_Driver/Inc/stm32l4xx_ll_bus.h ****   *         AHB2SMENR    AESSMEN       LL_AHB2_GRP1_DisableClockStopSleep\n
 828:../Drivers/STM32L4xx_HAL_Driver/Inc/stm32l4xx_ll_bus.h ****   *         AHB2SMENR    HASHSMEN      LL_AHB2_GRP1_DisableClockStopSleep\n
 829:../Drivers/STM32L4xx_HAL_Driver/Inc/stm32l4xx_ll_bus.h ****   *         AHB2SMENR    RNGSMEN       LL_AHB2_GRP1_DisableClockStopSleep\n
 830:../Drivers/STM32L4xx_HAL_Driver/Inc/stm32l4xx_ll_bus.h ****   *         AHB2SMENR    OSPIMSMEN     LL_AHB2_GRP1_DisableClockStopSleep\n
 831:../Drivers/STM32L4xx_HAL_Driver/Inc/stm32l4xx_ll_bus.h ****   *         AHB2SMENR    SDMMC1SMEN    LL_AHB2_GRP1_DisableClockStopSleep
 832:../Drivers/STM32L4xx_HAL_Driver/Inc/stm32l4xx_ll_bus.h ****   * @param  Periphs This parameter can be a combination of the following values:
 833:../Drivers/STM32L4xx_HAL_Driver/Inc/stm32l4xx_ll_bus.h ****   *         @arg @ref LL_AHB2_GRP1_PERIPH_GPIOA
 834:../Drivers/STM32L4xx_HAL_Driver/Inc/stm32l4xx_ll_bus.h ****   *         @arg @ref LL_AHB2_GRP1_PERIPH_GPIOB
 835:../Drivers/STM32L4xx_HAL_Driver/Inc/stm32l4xx_ll_bus.h ****   *         @arg @ref LL_AHB2_GRP1_PERIPH_GPIOC
 836:../Drivers/STM32L4xx_HAL_Driver/Inc/stm32l4xx_ll_bus.h ****   *         @arg @ref LL_AHB2_GRP1_PERIPH_GPIOD (*)
 837:../Drivers/STM32L4xx_HAL_Driver/Inc/stm32l4xx_ll_bus.h ****   *         @arg @ref LL_AHB2_GRP1_PERIPH_GPIOE (*)
 838:../Drivers/STM32L4xx_HAL_Driver/Inc/stm32l4xx_ll_bus.h ****   *         @arg @ref LL_AHB2_GRP1_PERIPH_GPIOF (*)
 839:../Drivers/STM32L4xx_HAL_Driver/Inc/stm32l4xx_ll_bus.h ****   *         @arg @ref LL_AHB2_GRP1_PERIPH_GPIOG (*)
 840:../Drivers/STM32L4xx_HAL_Driver/Inc/stm32l4xx_ll_bus.h ****   *         @arg @ref LL_AHB2_GRP1_PERIPH_GPIOH
 841:../Drivers/STM32L4xx_HAL_Driver/Inc/stm32l4xx_ll_bus.h ****   *         @arg @ref LL_AHB2_GRP1_PERIPH_GPIOI (*)
 842:../Drivers/STM32L4xx_HAL_Driver/Inc/stm32l4xx_ll_bus.h ****   *         @arg @ref LL_AHB2_GRP1_PERIPH_SRAM2
 843:../Drivers/STM32L4xx_HAL_Driver/Inc/stm32l4xx_ll_bus.h ****   *         @arg @ref LL_AHB2_GRP1_PERIPH_SRAM3 (*)
 844:../Drivers/STM32L4xx_HAL_Driver/Inc/stm32l4xx_ll_bus.h ****   *         @arg @ref LL_AHB2_GRP1_PERIPH_OTGFS (*)
 845:../Drivers/STM32L4xx_HAL_Driver/Inc/stm32l4xx_ll_bus.h ****   *         @arg @ref LL_AHB2_GRP1_PERIPH_ADC
 846:../Drivers/STM32L4xx_HAL_Driver/Inc/stm32l4xx_ll_bus.h ****   *         @arg @ref LL_AHB2_GRP1_PERIPH_DCMI (*)
 847:../Drivers/STM32L4xx_HAL_Driver/Inc/stm32l4xx_ll_bus.h ****   *         @arg @ref LL_AHB2_GRP1_PERIPH_AES (*)
 848:../Drivers/STM32L4xx_HAL_Driver/Inc/stm32l4xx_ll_bus.h ****   *         @arg @ref LL_AHB2_GRP1_PERIPH_HASH (*)
 849:../Drivers/STM32L4xx_HAL_Driver/Inc/stm32l4xx_ll_bus.h ****   *         @arg @ref LL_AHB2_GRP1_PERIPH_RNG
 850:../Drivers/STM32L4xx_HAL_Driver/Inc/stm32l4xx_ll_bus.h ****   *         @arg @ref LL_AHB2_GRP1_PERIPH_OSPIM (*)
 851:../Drivers/STM32L4xx_HAL_Driver/Inc/stm32l4xx_ll_bus.h ****   *         @arg @ref LL_AHB2_GRP1_PERIPH_SDMMC1 (*)
 852:../Drivers/STM32L4xx_HAL_Driver/Inc/stm32l4xx_ll_bus.h ****   *
 853:../Drivers/STM32L4xx_HAL_Driver/Inc/stm32l4xx_ll_bus.h ****   *         (*) value not defined in all devices.
 854:../Drivers/STM32L4xx_HAL_Driver/Inc/stm32l4xx_ll_bus.h ****   * @retval None
 855:../Drivers/STM32L4xx_HAL_Driver/Inc/stm32l4xx_ll_bus.h **** */
 856:../Drivers/STM32L4xx_HAL_Driver/Inc/stm32l4xx_ll_bus.h **** __STATIC_INLINE void LL_AHB2_GRP1_DisableClockStopSleep(uint32_t Periphs)
 857:../Drivers/STM32L4xx_HAL_Driver/Inc/stm32l4xx_ll_bus.h **** {
 858:../Drivers/STM32L4xx_HAL_Driver/Inc/stm32l4xx_ll_bus.h ****   CLEAR_BIT(RCC->AHB2SMENR, Periphs);
 859:../Drivers/STM32L4xx_HAL_Driver/Inc/stm32l4xx_ll_bus.h **** }
 860:../Drivers/STM32L4xx_HAL_Driver/Inc/stm32l4xx_ll_bus.h **** 
 861:../Drivers/STM32L4xx_HAL_Driver/Inc/stm32l4xx_ll_bus.h **** /**
ARM GAS  /tmp/ccAPcP1Z.s 			page 32


 862:../Drivers/STM32L4xx_HAL_Driver/Inc/stm32l4xx_ll_bus.h ****   * @}
 863:../Drivers/STM32L4xx_HAL_Driver/Inc/stm32l4xx_ll_bus.h ****   */
 864:../Drivers/STM32L4xx_HAL_Driver/Inc/stm32l4xx_ll_bus.h **** 
 865:../Drivers/STM32L4xx_HAL_Driver/Inc/stm32l4xx_ll_bus.h **** /** @defgroup BUS_LL_EF_AHB3 AHB3
 866:../Drivers/STM32L4xx_HAL_Driver/Inc/stm32l4xx_ll_bus.h ****   * @{
 867:../Drivers/STM32L4xx_HAL_Driver/Inc/stm32l4xx_ll_bus.h ****   */
 868:../Drivers/STM32L4xx_HAL_Driver/Inc/stm32l4xx_ll_bus.h **** 
 869:../Drivers/STM32L4xx_HAL_Driver/Inc/stm32l4xx_ll_bus.h **** /**
 870:../Drivers/STM32L4xx_HAL_Driver/Inc/stm32l4xx_ll_bus.h ****   * @brief  Enable AHB3 peripherals clock.
 871:../Drivers/STM32L4xx_HAL_Driver/Inc/stm32l4xx_ll_bus.h ****   * @rmtoll AHB3ENR      FMCEN         LL_AHB3_GRP1_EnableClock\n
 872:../Drivers/STM32L4xx_HAL_Driver/Inc/stm32l4xx_ll_bus.h ****   *         AHB3ENR      QSPIEN        LL_AHB3_GRP1_EnableClock\n
 873:../Drivers/STM32L4xx_HAL_Driver/Inc/stm32l4xx_ll_bus.h ****   *         AHB3ENR      OSPI1EN       LL_AHB3_GRP1_EnableClock\n
 874:../Drivers/STM32L4xx_HAL_Driver/Inc/stm32l4xx_ll_bus.h ****   *         AHB3ENR      OSPI2EN       LL_AHB3_GRP1_EnableClock
 875:../Drivers/STM32L4xx_HAL_Driver/Inc/stm32l4xx_ll_bus.h ****   * @param  Periphs This parameter can be a combination of the following values:
 876:../Drivers/STM32L4xx_HAL_Driver/Inc/stm32l4xx_ll_bus.h ****   *         @arg @ref LL_AHB3_GRP1_PERIPH_FMC (*)
 877:../Drivers/STM32L4xx_HAL_Driver/Inc/stm32l4xx_ll_bus.h ****   *         @arg @ref LL_AHB3_GRP1_PERIPH_QSPI (*)
 878:../Drivers/STM32L4xx_HAL_Driver/Inc/stm32l4xx_ll_bus.h ****   *         @arg @ref LL_AHB3_GRP1_PERIPH_OSPI1 (*)
 879:../Drivers/STM32L4xx_HAL_Driver/Inc/stm32l4xx_ll_bus.h ****   *         @arg @ref LL_AHB3_GRP1_PERIPH_OSPI2 (*)
 880:../Drivers/STM32L4xx_HAL_Driver/Inc/stm32l4xx_ll_bus.h ****   *
 881:../Drivers/STM32L4xx_HAL_Driver/Inc/stm32l4xx_ll_bus.h ****   *         (*) value not defined in all devices.
 882:../Drivers/STM32L4xx_HAL_Driver/Inc/stm32l4xx_ll_bus.h ****   * @retval None
 883:../Drivers/STM32L4xx_HAL_Driver/Inc/stm32l4xx_ll_bus.h **** */
 884:../Drivers/STM32L4xx_HAL_Driver/Inc/stm32l4xx_ll_bus.h **** __STATIC_INLINE void LL_AHB3_GRP1_EnableClock(uint32_t Periphs)
 885:../Drivers/STM32L4xx_HAL_Driver/Inc/stm32l4xx_ll_bus.h **** {
 886:../Drivers/STM32L4xx_HAL_Driver/Inc/stm32l4xx_ll_bus.h ****   __IO uint32_t tmpreg;
 887:../Drivers/STM32L4xx_HAL_Driver/Inc/stm32l4xx_ll_bus.h ****   SET_BIT(RCC->AHB3ENR, Periphs);
 888:../Drivers/STM32L4xx_HAL_Driver/Inc/stm32l4xx_ll_bus.h ****   /* Delay after an RCC peripheral clock enabling */
 889:../Drivers/STM32L4xx_HAL_Driver/Inc/stm32l4xx_ll_bus.h ****   tmpreg = READ_BIT(RCC->AHB3ENR, Periphs);
 890:../Drivers/STM32L4xx_HAL_Driver/Inc/stm32l4xx_ll_bus.h ****   (void)tmpreg;
 891:../Drivers/STM32L4xx_HAL_Driver/Inc/stm32l4xx_ll_bus.h **** }
 892:../Drivers/STM32L4xx_HAL_Driver/Inc/stm32l4xx_ll_bus.h **** 
 893:../Drivers/STM32L4xx_HAL_Driver/Inc/stm32l4xx_ll_bus.h **** /**
 894:../Drivers/STM32L4xx_HAL_Driver/Inc/stm32l4xx_ll_bus.h ****   * @brief  Check if AHB3 peripheral clock is enabled or not
 895:../Drivers/STM32L4xx_HAL_Driver/Inc/stm32l4xx_ll_bus.h ****   * @rmtoll AHB3ENR      FMCEN         LL_AHB3_GRP1_IsEnabledClock\n
 896:../Drivers/STM32L4xx_HAL_Driver/Inc/stm32l4xx_ll_bus.h ****   *         AHB3ENR      QSPIEN        LL_AHB3_GRP1_IsEnabledClock\n
 897:../Drivers/STM32L4xx_HAL_Driver/Inc/stm32l4xx_ll_bus.h ****   *         AHB3ENR      OSPI1EN       LL_AHB3_GRP1_IsEnabledClock\n
 898:../Drivers/STM32L4xx_HAL_Driver/Inc/stm32l4xx_ll_bus.h ****   *         AHB3ENR      OSPI2EN       LL_AHB3_GRP1_IsEnabledClock
 899:../Drivers/STM32L4xx_HAL_Driver/Inc/stm32l4xx_ll_bus.h ****   * @param  Periphs This parameter can be a combination of the following values:
 900:../Drivers/STM32L4xx_HAL_Driver/Inc/stm32l4xx_ll_bus.h ****   *         @arg @ref LL_AHB3_GRP1_PERIPH_FMC (*)
 901:../Drivers/STM32L4xx_HAL_Driver/Inc/stm32l4xx_ll_bus.h ****   *         @arg @ref LL_AHB3_GRP1_PERIPH_QSPI (*)
 902:../Drivers/STM32L4xx_HAL_Driver/Inc/stm32l4xx_ll_bus.h ****   *         @arg @ref LL_AHB3_GRP1_PERIPH_OSPI1 (*)
 903:../Drivers/STM32L4xx_HAL_Driver/Inc/stm32l4xx_ll_bus.h ****   *         @arg @ref LL_AHB3_GRP1_PERIPH_OSPI2 (*)
 904:../Drivers/STM32L4xx_HAL_Driver/Inc/stm32l4xx_ll_bus.h ****   *
 905:../Drivers/STM32L4xx_HAL_Driver/Inc/stm32l4xx_ll_bus.h ****   *         (*) value not defined in all devices.
 906:../Drivers/STM32L4xx_HAL_Driver/Inc/stm32l4xx_ll_bus.h ****   * @retval State of Periphs (1 or 0).
 907:../Drivers/STM32L4xx_HAL_Driver/Inc/stm32l4xx_ll_bus.h **** */
 908:../Drivers/STM32L4xx_HAL_Driver/Inc/stm32l4xx_ll_bus.h **** __STATIC_INLINE uint32_t LL_AHB3_GRP1_IsEnabledClock(uint32_t Periphs)
 909:../Drivers/STM32L4xx_HAL_Driver/Inc/stm32l4xx_ll_bus.h **** {
 910:../Drivers/STM32L4xx_HAL_Driver/Inc/stm32l4xx_ll_bus.h ****   return ((READ_BIT(RCC->AHB3ENR, Periphs) == Periphs) ? 1UL : 0UL);
 911:../Drivers/STM32L4xx_HAL_Driver/Inc/stm32l4xx_ll_bus.h **** }
 912:../Drivers/STM32L4xx_HAL_Driver/Inc/stm32l4xx_ll_bus.h **** 
 913:../Drivers/STM32L4xx_HAL_Driver/Inc/stm32l4xx_ll_bus.h **** /**
 914:../Drivers/STM32L4xx_HAL_Driver/Inc/stm32l4xx_ll_bus.h ****   * @brief  Disable AHB3 peripherals clock.
 915:../Drivers/STM32L4xx_HAL_Driver/Inc/stm32l4xx_ll_bus.h ****   * @rmtoll AHB3ENR      FMCEN         LL_AHB3_GRP1_DisableClock\n
 916:../Drivers/STM32L4xx_HAL_Driver/Inc/stm32l4xx_ll_bus.h ****   *         AHB3ENR      QSPIEN        LL_AHB3_GRP1_DisableClock\n
 917:../Drivers/STM32L4xx_HAL_Driver/Inc/stm32l4xx_ll_bus.h ****   *         AHB3ENR      OSPI1EN       LL_AHB3_GRP1_DisableClock\n
 918:../Drivers/STM32L4xx_HAL_Driver/Inc/stm32l4xx_ll_bus.h ****   *         AHB3ENR      OSPI2EN       LL_AHB3_GRP1_DisableClock
ARM GAS  /tmp/ccAPcP1Z.s 			page 33


 919:../Drivers/STM32L4xx_HAL_Driver/Inc/stm32l4xx_ll_bus.h ****   * @param  Periphs This parameter can be a combination of the following values:
 920:../Drivers/STM32L4xx_HAL_Driver/Inc/stm32l4xx_ll_bus.h ****   *         @arg @ref LL_AHB3_GRP1_PERIPH_FMC (*)
 921:../Drivers/STM32L4xx_HAL_Driver/Inc/stm32l4xx_ll_bus.h ****   *         @arg @ref LL_AHB3_GRP1_PERIPH_QSPI (*)
 922:../Drivers/STM32L4xx_HAL_Driver/Inc/stm32l4xx_ll_bus.h ****   *         @arg @ref LL_AHB3_GRP1_PERIPH_OSPI1 (*)
 923:../Drivers/STM32L4xx_HAL_Driver/Inc/stm32l4xx_ll_bus.h ****   *         @arg @ref LL_AHB3_GRP1_PERIPH_OSPI2 (*)
 924:../Drivers/STM32L4xx_HAL_Driver/Inc/stm32l4xx_ll_bus.h ****   *
 925:../Drivers/STM32L4xx_HAL_Driver/Inc/stm32l4xx_ll_bus.h ****   *         (*) value not defined in all devices.
 926:../Drivers/STM32L4xx_HAL_Driver/Inc/stm32l4xx_ll_bus.h ****   * @retval None
 927:../Drivers/STM32L4xx_HAL_Driver/Inc/stm32l4xx_ll_bus.h **** */
 928:../Drivers/STM32L4xx_HAL_Driver/Inc/stm32l4xx_ll_bus.h **** __STATIC_INLINE void LL_AHB3_GRP1_DisableClock(uint32_t Periphs)
 929:../Drivers/STM32L4xx_HAL_Driver/Inc/stm32l4xx_ll_bus.h **** {
 930:../Drivers/STM32L4xx_HAL_Driver/Inc/stm32l4xx_ll_bus.h ****   CLEAR_BIT(RCC->AHB3ENR, Periphs);
 931:../Drivers/STM32L4xx_HAL_Driver/Inc/stm32l4xx_ll_bus.h **** }
 932:../Drivers/STM32L4xx_HAL_Driver/Inc/stm32l4xx_ll_bus.h **** 
 933:../Drivers/STM32L4xx_HAL_Driver/Inc/stm32l4xx_ll_bus.h **** /**
 934:../Drivers/STM32L4xx_HAL_Driver/Inc/stm32l4xx_ll_bus.h ****   * @brief  Force AHB3 peripherals reset.
 935:../Drivers/STM32L4xx_HAL_Driver/Inc/stm32l4xx_ll_bus.h ****   * @rmtoll AHB3RSTR     FMCRST        LL_AHB3_GRP1_ForceReset\n
 936:../Drivers/STM32L4xx_HAL_Driver/Inc/stm32l4xx_ll_bus.h ****   *         AHB3RSTR     QSPIRST       LL_AHB3_GRP1_ForceReset\n
 937:../Drivers/STM32L4xx_HAL_Driver/Inc/stm32l4xx_ll_bus.h ****   *         AHB3RSTR     OSPI1RST      LL_AHB3_GRP1_ForceReset\n
 938:../Drivers/STM32L4xx_HAL_Driver/Inc/stm32l4xx_ll_bus.h ****   *         AHB3RSTR     OSPI2RST      LL_AHB3_GRP1_ForceReset
 939:../Drivers/STM32L4xx_HAL_Driver/Inc/stm32l4xx_ll_bus.h ****   * @param  Periphs This parameter can be a combination of the following values:
 940:../Drivers/STM32L4xx_HAL_Driver/Inc/stm32l4xx_ll_bus.h ****   *         @arg @ref LL_AHB3_GRP1_PERIPH_ALL
 941:../Drivers/STM32L4xx_HAL_Driver/Inc/stm32l4xx_ll_bus.h ****   *         @arg @ref LL_AHB3_GRP1_PERIPH_FMC (*)
 942:../Drivers/STM32L4xx_HAL_Driver/Inc/stm32l4xx_ll_bus.h ****   *         @arg @ref LL_AHB3_GRP1_PERIPH_QSPI (*)
 943:../Drivers/STM32L4xx_HAL_Driver/Inc/stm32l4xx_ll_bus.h ****   *         @arg @ref LL_AHB3_GRP1_PERIPH_OSPI1 (*)
 944:../Drivers/STM32L4xx_HAL_Driver/Inc/stm32l4xx_ll_bus.h ****   *         @arg @ref LL_AHB3_GRP1_PERIPH_OSPI2 (*)
 945:../Drivers/STM32L4xx_HAL_Driver/Inc/stm32l4xx_ll_bus.h ****   *
 946:../Drivers/STM32L4xx_HAL_Driver/Inc/stm32l4xx_ll_bus.h ****   *         (*) value not defined in all devices.
 947:../Drivers/STM32L4xx_HAL_Driver/Inc/stm32l4xx_ll_bus.h ****   * @retval None
 948:../Drivers/STM32L4xx_HAL_Driver/Inc/stm32l4xx_ll_bus.h **** */
 949:../Drivers/STM32L4xx_HAL_Driver/Inc/stm32l4xx_ll_bus.h **** __STATIC_INLINE void LL_AHB3_GRP1_ForceReset(uint32_t Periphs)
 950:../Drivers/STM32L4xx_HAL_Driver/Inc/stm32l4xx_ll_bus.h **** {
 951:../Drivers/STM32L4xx_HAL_Driver/Inc/stm32l4xx_ll_bus.h ****   SET_BIT(RCC->AHB3RSTR, Periphs);
 952:../Drivers/STM32L4xx_HAL_Driver/Inc/stm32l4xx_ll_bus.h **** }
 953:../Drivers/STM32L4xx_HAL_Driver/Inc/stm32l4xx_ll_bus.h **** 
 954:../Drivers/STM32L4xx_HAL_Driver/Inc/stm32l4xx_ll_bus.h **** /**
 955:../Drivers/STM32L4xx_HAL_Driver/Inc/stm32l4xx_ll_bus.h ****   * @brief  Release AHB3 peripherals reset.
 956:../Drivers/STM32L4xx_HAL_Driver/Inc/stm32l4xx_ll_bus.h ****   * @rmtoll AHB3RSTR     FMCRST        LL_AHB3_GRP1_ReleaseReset\n
 957:../Drivers/STM32L4xx_HAL_Driver/Inc/stm32l4xx_ll_bus.h ****   *         AHB3RSTR     QSPIRST       LL_AHB3_GRP1_ReleaseReset\n
 958:../Drivers/STM32L4xx_HAL_Driver/Inc/stm32l4xx_ll_bus.h ****   *         AHB3RSTR     OSPI1RST      LL_AHB3_GRP1_ReleaseReset\n
 959:../Drivers/STM32L4xx_HAL_Driver/Inc/stm32l4xx_ll_bus.h ****   *         AHB3RSTR     OSPI2RST      LL_AHB3_GRP1_ReleaseReset
 960:../Drivers/STM32L4xx_HAL_Driver/Inc/stm32l4xx_ll_bus.h ****   * @param  Periphs This parameter can be a combination of the following values:
 961:../Drivers/STM32L4xx_HAL_Driver/Inc/stm32l4xx_ll_bus.h ****   *         @arg @ref LL_AHB2_GRP1_PERIPH_ALL
 962:../Drivers/STM32L4xx_HAL_Driver/Inc/stm32l4xx_ll_bus.h ****   *         @arg @ref LL_AHB3_GRP1_PERIPH_FMC (*)
 963:../Drivers/STM32L4xx_HAL_Driver/Inc/stm32l4xx_ll_bus.h ****   *         @arg @ref LL_AHB3_GRP1_PERIPH_QSPI (*)
 964:../Drivers/STM32L4xx_HAL_Driver/Inc/stm32l4xx_ll_bus.h ****   *         @arg @ref LL_AHB3_GRP1_PERIPH_OSPI1 (*)
 965:../Drivers/STM32L4xx_HAL_Driver/Inc/stm32l4xx_ll_bus.h ****   *         @arg @ref LL_AHB3_GRP1_PERIPH_OSPI2 (*)
 966:../Drivers/STM32L4xx_HAL_Driver/Inc/stm32l4xx_ll_bus.h ****   *
 967:../Drivers/STM32L4xx_HAL_Driver/Inc/stm32l4xx_ll_bus.h ****   *         (*) value not defined in all devices.
 968:../Drivers/STM32L4xx_HAL_Driver/Inc/stm32l4xx_ll_bus.h ****   * @retval None
 969:../Drivers/STM32L4xx_HAL_Driver/Inc/stm32l4xx_ll_bus.h **** */
 970:../Drivers/STM32L4xx_HAL_Driver/Inc/stm32l4xx_ll_bus.h **** __STATIC_INLINE void LL_AHB3_GRP1_ReleaseReset(uint32_t Periphs)
 971:../Drivers/STM32L4xx_HAL_Driver/Inc/stm32l4xx_ll_bus.h **** {
 972:../Drivers/STM32L4xx_HAL_Driver/Inc/stm32l4xx_ll_bus.h ****   CLEAR_BIT(RCC->AHB3RSTR, Periphs);
 973:../Drivers/STM32L4xx_HAL_Driver/Inc/stm32l4xx_ll_bus.h **** }
 974:../Drivers/STM32L4xx_HAL_Driver/Inc/stm32l4xx_ll_bus.h **** 
 975:../Drivers/STM32L4xx_HAL_Driver/Inc/stm32l4xx_ll_bus.h **** /**
ARM GAS  /tmp/ccAPcP1Z.s 			page 34


 976:../Drivers/STM32L4xx_HAL_Driver/Inc/stm32l4xx_ll_bus.h ****   * @brief  Enable AHB3 peripheral clocks in Sleep and Stop modes
 977:../Drivers/STM32L4xx_HAL_Driver/Inc/stm32l4xx_ll_bus.h ****   * @rmtoll AHB3SMENR    FMCSMEN       LL_AHB3_GRP1_EnableClockStopSleep\n
 978:../Drivers/STM32L4xx_HAL_Driver/Inc/stm32l4xx_ll_bus.h ****   *         AHB3SMENR    QSPISMEN      LL_AHB3_GRP1_EnableClockStopSleep\n
 979:../Drivers/STM32L4xx_HAL_Driver/Inc/stm32l4xx_ll_bus.h ****   *         AHB3SMENR    OSPI1SMEN     LL_AHB3_GRP1_EnableClockStopSleep\n
 980:../Drivers/STM32L4xx_HAL_Driver/Inc/stm32l4xx_ll_bus.h ****   *         AHB3SMENR    OSPI2SMEN     LL_AHB3_GRP1_EnableClockStopSleep
 981:../Drivers/STM32L4xx_HAL_Driver/Inc/stm32l4xx_ll_bus.h ****   * @param  Periphs This parameter can be a combination of the following values:
 982:../Drivers/STM32L4xx_HAL_Driver/Inc/stm32l4xx_ll_bus.h ****   *         @arg @ref LL_AHB3_GRP1_PERIPH_FMC (*)
 983:../Drivers/STM32L4xx_HAL_Driver/Inc/stm32l4xx_ll_bus.h ****   *         @arg @ref LL_AHB3_GRP1_PERIPH_QSPI (*)
 984:../Drivers/STM32L4xx_HAL_Driver/Inc/stm32l4xx_ll_bus.h ****   *         @arg @ref LL_AHB3_GRP1_PERIPH_OSPI1 (*)
 985:../Drivers/STM32L4xx_HAL_Driver/Inc/stm32l4xx_ll_bus.h ****   *         @arg @ref LL_AHB3_GRP1_PERIPH_OSPI2 (*)
 986:../Drivers/STM32L4xx_HAL_Driver/Inc/stm32l4xx_ll_bus.h ****   *
 987:../Drivers/STM32L4xx_HAL_Driver/Inc/stm32l4xx_ll_bus.h ****   *         (*) value not defined in all devices.
 988:../Drivers/STM32L4xx_HAL_Driver/Inc/stm32l4xx_ll_bus.h ****   * @retval None
 989:../Drivers/STM32L4xx_HAL_Driver/Inc/stm32l4xx_ll_bus.h **** */
 990:../Drivers/STM32L4xx_HAL_Driver/Inc/stm32l4xx_ll_bus.h **** __STATIC_INLINE void LL_AHB3_GRP1_EnableClockStopSleep(uint32_t Periphs)
 991:../Drivers/STM32L4xx_HAL_Driver/Inc/stm32l4xx_ll_bus.h **** {
 992:../Drivers/STM32L4xx_HAL_Driver/Inc/stm32l4xx_ll_bus.h ****   __IO uint32_t tmpreg;
 993:../Drivers/STM32L4xx_HAL_Driver/Inc/stm32l4xx_ll_bus.h ****   SET_BIT(RCC->AHB3SMENR, Periphs);
 994:../Drivers/STM32L4xx_HAL_Driver/Inc/stm32l4xx_ll_bus.h ****   /* Delay after an RCC peripheral clock enabling */
 995:../Drivers/STM32L4xx_HAL_Driver/Inc/stm32l4xx_ll_bus.h ****   tmpreg = READ_BIT(RCC->AHB3SMENR, Periphs);
 996:../Drivers/STM32L4xx_HAL_Driver/Inc/stm32l4xx_ll_bus.h ****   (void)tmpreg;
 997:../Drivers/STM32L4xx_HAL_Driver/Inc/stm32l4xx_ll_bus.h **** }
 998:../Drivers/STM32L4xx_HAL_Driver/Inc/stm32l4xx_ll_bus.h **** 
 999:../Drivers/STM32L4xx_HAL_Driver/Inc/stm32l4xx_ll_bus.h **** /**
1000:../Drivers/STM32L4xx_HAL_Driver/Inc/stm32l4xx_ll_bus.h ****   * @brief  Disable AHB3 peripheral clocks in Sleep and Stop modes
1001:../Drivers/STM32L4xx_HAL_Driver/Inc/stm32l4xx_ll_bus.h ****   * @rmtoll AHB3SMENR    FMCSMEN       LL_AHB3_GRP1_DisableClockStopSleep\n
1002:../Drivers/STM32L4xx_HAL_Driver/Inc/stm32l4xx_ll_bus.h ****   *         AHB3SMENR    QSPISMEN      LL_AHB3_GRP1_DisableClockStopSleep\n
1003:../Drivers/STM32L4xx_HAL_Driver/Inc/stm32l4xx_ll_bus.h ****   *         AHB3SMENR    OSPI1SMEN     LL_AHB3_GRP1_DisableClockStopSleep\n
1004:../Drivers/STM32L4xx_HAL_Driver/Inc/stm32l4xx_ll_bus.h ****   *         AHB3SMENR    OSPI2SMEN     LL_AHB3_GRP1_DisableClockStopSleep\n
1005:../Drivers/STM32L4xx_HAL_Driver/Inc/stm32l4xx_ll_bus.h ****   * @param  Periphs This parameter can be a combination of the following values:
1006:../Drivers/STM32L4xx_HAL_Driver/Inc/stm32l4xx_ll_bus.h ****   *         @arg @ref LL_AHB3_GRP1_PERIPH_FMC (*)
1007:../Drivers/STM32L4xx_HAL_Driver/Inc/stm32l4xx_ll_bus.h ****   *         @arg @ref LL_AHB3_GRP1_PERIPH_QSPI (*)
1008:../Drivers/STM32L4xx_HAL_Driver/Inc/stm32l4xx_ll_bus.h ****   *         @arg @ref LL_AHB3_GRP1_PERIPH_OSPI1 (*)
1009:../Drivers/STM32L4xx_HAL_Driver/Inc/stm32l4xx_ll_bus.h ****   *         @arg @ref LL_AHB3_GRP1_PERIPH_OSPI2 (*)
1010:../Drivers/STM32L4xx_HAL_Driver/Inc/stm32l4xx_ll_bus.h ****   *
1011:../Drivers/STM32L4xx_HAL_Driver/Inc/stm32l4xx_ll_bus.h ****   *         (*) value not defined in all devices.
1012:../Drivers/STM32L4xx_HAL_Driver/Inc/stm32l4xx_ll_bus.h ****   * @retval None
1013:../Drivers/STM32L4xx_HAL_Driver/Inc/stm32l4xx_ll_bus.h **** */
1014:../Drivers/STM32L4xx_HAL_Driver/Inc/stm32l4xx_ll_bus.h **** __STATIC_INLINE void LL_AHB3_GRP1_DisableClockStopSleep(uint32_t Periphs)
1015:../Drivers/STM32L4xx_HAL_Driver/Inc/stm32l4xx_ll_bus.h **** {
1016:../Drivers/STM32L4xx_HAL_Driver/Inc/stm32l4xx_ll_bus.h ****   CLEAR_BIT(RCC->AHB3SMENR, Periphs);
1017:../Drivers/STM32L4xx_HAL_Driver/Inc/stm32l4xx_ll_bus.h **** }
1018:../Drivers/STM32L4xx_HAL_Driver/Inc/stm32l4xx_ll_bus.h **** 
1019:../Drivers/STM32L4xx_HAL_Driver/Inc/stm32l4xx_ll_bus.h **** /**
1020:../Drivers/STM32L4xx_HAL_Driver/Inc/stm32l4xx_ll_bus.h ****   * @}
1021:../Drivers/STM32L4xx_HAL_Driver/Inc/stm32l4xx_ll_bus.h ****   */
1022:../Drivers/STM32L4xx_HAL_Driver/Inc/stm32l4xx_ll_bus.h **** 
1023:../Drivers/STM32L4xx_HAL_Driver/Inc/stm32l4xx_ll_bus.h **** /** @defgroup BUS_LL_EF_APB1 APB1
1024:../Drivers/STM32L4xx_HAL_Driver/Inc/stm32l4xx_ll_bus.h ****   * @{
1025:../Drivers/STM32L4xx_HAL_Driver/Inc/stm32l4xx_ll_bus.h ****   */
1026:../Drivers/STM32L4xx_HAL_Driver/Inc/stm32l4xx_ll_bus.h **** 
1027:../Drivers/STM32L4xx_HAL_Driver/Inc/stm32l4xx_ll_bus.h **** /**
1028:../Drivers/STM32L4xx_HAL_Driver/Inc/stm32l4xx_ll_bus.h ****   * @brief  Enable APB1 peripherals clock.
1029:../Drivers/STM32L4xx_HAL_Driver/Inc/stm32l4xx_ll_bus.h ****   * @rmtoll APB1ENR1     TIM2EN        LL_APB1_GRP1_EnableClock\n
1030:../Drivers/STM32L4xx_HAL_Driver/Inc/stm32l4xx_ll_bus.h ****   *         APB1ENR1     TIM3EN        LL_APB1_GRP1_EnableClock\n
1031:../Drivers/STM32L4xx_HAL_Driver/Inc/stm32l4xx_ll_bus.h ****   *         APB1ENR1     TIM4EN        LL_APB1_GRP1_EnableClock\n
1032:../Drivers/STM32L4xx_HAL_Driver/Inc/stm32l4xx_ll_bus.h ****   *         APB1ENR1     TIM5EN        LL_APB1_GRP1_EnableClock\n
ARM GAS  /tmp/ccAPcP1Z.s 			page 35


1033:../Drivers/STM32L4xx_HAL_Driver/Inc/stm32l4xx_ll_bus.h ****   *         APB1ENR1     TIM6EN        LL_APB1_GRP1_EnableClock\n
1034:../Drivers/STM32L4xx_HAL_Driver/Inc/stm32l4xx_ll_bus.h ****   *         APB1ENR1     TIM7EN        LL_APB1_GRP1_EnableClock\n
1035:../Drivers/STM32L4xx_HAL_Driver/Inc/stm32l4xx_ll_bus.h ****   *         APB1ENR1     LCDEN         LL_APB1_GRP1_EnableClock\n
1036:../Drivers/STM32L4xx_HAL_Driver/Inc/stm32l4xx_ll_bus.h ****   *         APB1ENR1     RTCAPBEN      LL_APB1_GRP1_EnableClock\n
1037:../Drivers/STM32L4xx_HAL_Driver/Inc/stm32l4xx_ll_bus.h ****   *         APB1ENR1     WWDGEN        LL_APB1_GRP1_EnableClock\n
1038:../Drivers/STM32L4xx_HAL_Driver/Inc/stm32l4xx_ll_bus.h ****   *         APB1ENR1     SPI2EN        LL_APB1_GRP1_EnableClock\n
1039:../Drivers/STM32L4xx_HAL_Driver/Inc/stm32l4xx_ll_bus.h ****   *         APB1ENR1     SPI3EN        LL_APB1_GRP1_EnableClock\n
1040:../Drivers/STM32L4xx_HAL_Driver/Inc/stm32l4xx_ll_bus.h ****   *         APB1ENR1     USART2EN      LL_APB1_GRP1_EnableClock\n
1041:../Drivers/STM32L4xx_HAL_Driver/Inc/stm32l4xx_ll_bus.h ****   *         APB1ENR1     USART3EN      LL_APB1_GRP1_EnableClock\n
1042:../Drivers/STM32L4xx_HAL_Driver/Inc/stm32l4xx_ll_bus.h ****   *         APB1ENR1     UART4EN       LL_APB1_GRP1_EnableClock\n
1043:../Drivers/STM32L4xx_HAL_Driver/Inc/stm32l4xx_ll_bus.h ****   *         APB1ENR1     UART5EN       LL_APB1_GRP1_EnableClock\n
1044:../Drivers/STM32L4xx_HAL_Driver/Inc/stm32l4xx_ll_bus.h ****   *         APB1ENR1     I2C1EN        LL_APB1_GRP1_EnableClock\n
1045:../Drivers/STM32L4xx_HAL_Driver/Inc/stm32l4xx_ll_bus.h ****   *         APB1ENR1     I2C2EN        LL_APB1_GRP1_EnableClock\n
1046:../Drivers/STM32L4xx_HAL_Driver/Inc/stm32l4xx_ll_bus.h ****   *         APB1ENR1     I2C3EN        LL_APB1_GRP1_EnableClock\n
1047:../Drivers/STM32L4xx_HAL_Driver/Inc/stm32l4xx_ll_bus.h ****   *         APB1ENR1     CRSEN         LL_APB1_GRP1_EnableClock\n
1048:../Drivers/STM32L4xx_HAL_Driver/Inc/stm32l4xx_ll_bus.h ****   *         APB1ENR1     CAN1EN        LL_APB1_GRP1_EnableClock\n
1049:../Drivers/STM32L4xx_HAL_Driver/Inc/stm32l4xx_ll_bus.h ****   *         APB1ENR1     USBFSEN       LL_APB1_GRP1_EnableClock\n
1050:../Drivers/STM32L4xx_HAL_Driver/Inc/stm32l4xx_ll_bus.h ****   *         APB1ENR1     CAN2EN        LL_APB1_GRP1_EnableClock\n
1051:../Drivers/STM32L4xx_HAL_Driver/Inc/stm32l4xx_ll_bus.h ****   *         APB1ENR1     PWREN         LL_APB1_GRP1_EnableClock\n
1052:../Drivers/STM32L4xx_HAL_Driver/Inc/stm32l4xx_ll_bus.h ****   *         APB1ENR1     DAC1EN        LL_APB1_GRP1_EnableClock\n
1053:../Drivers/STM32L4xx_HAL_Driver/Inc/stm32l4xx_ll_bus.h ****   *         APB1ENR1     OPAMPEN       LL_APB1_GRP1_EnableClock\n
1054:../Drivers/STM32L4xx_HAL_Driver/Inc/stm32l4xx_ll_bus.h ****   *         APB1ENR1     LPTIM1EN      LL_APB1_GRP1_EnableClock
1055:../Drivers/STM32L4xx_HAL_Driver/Inc/stm32l4xx_ll_bus.h ****   * @param  Periphs This parameter can be a combination of the following values:
1056:../Drivers/STM32L4xx_HAL_Driver/Inc/stm32l4xx_ll_bus.h ****   *         @arg @ref LL_APB1_GRP1_PERIPH_TIM2
1057:../Drivers/STM32L4xx_HAL_Driver/Inc/stm32l4xx_ll_bus.h ****   *         @arg @ref LL_APB1_GRP1_PERIPH_TIM3 (*)
1058:../Drivers/STM32L4xx_HAL_Driver/Inc/stm32l4xx_ll_bus.h ****   *         @arg @ref LL_APB1_GRP1_PERIPH_TIM4 (*)
1059:../Drivers/STM32L4xx_HAL_Driver/Inc/stm32l4xx_ll_bus.h ****   *         @arg @ref LL_APB1_GRP1_PERIPH_TIM5 (*)
1060:../Drivers/STM32L4xx_HAL_Driver/Inc/stm32l4xx_ll_bus.h ****   *         @arg @ref LL_APB1_GRP1_PERIPH_TIM6
1061:../Drivers/STM32L4xx_HAL_Driver/Inc/stm32l4xx_ll_bus.h ****   *         @arg @ref LL_APB1_GRP1_PERIPH_TIM7
1062:../Drivers/STM32L4xx_HAL_Driver/Inc/stm32l4xx_ll_bus.h ****   *         @arg @ref LL_APB1_GRP1_PERIPH_LCD (*)
1063:../Drivers/STM32L4xx_HAL_Driver/Inc/stm32l4xx_ll_bus.h ****   *         @arg @ref LL_APB1_GRP1_PERIPH_RTCAPB (*)
1064:../Drivers/STM32L4xx_HAL_Driver/Inc/stm32l4xx_ll_bus.h ****   *         @arg @ref LL_APB1_GRP1_PERIPH_WWDG
1065:../Drivers/STM32L4xx_HAL_Driver/Inc/stm32l4xx_ll_bus.h ****   *         @arg @ref LL_APB1_GRP1_PERIPH_SPI2 (*)
1066:../Drivers/STM32L4xx_HAL_Driver/Inc/stm32l4xx_ll_bus.h ****   *         @arg @ref LL_APB1_GRP1_PERIPH_SPI3
1067:../Drivers/STM32L4xx_HAL_Driver/Inc/stm32l4xx_ll_bus.h ****   *         @arg @ref LL_APB1_GRP1_PERIPH_USART2
1068:../Drivers/STM32L4xx_HAL_Driver/Inc/stm32l4xx_ll_bus.h ****   *         @arg @ref LL_APB1_GRP1_PERIPH_USART3 (*)
1069:../Drivers/STM32L4xx_HAL_Driver/Inc/stm32l4xx_ll_bus.h ****   *         @arg @ref LL_APB1_GRP1_PERIPH_UART4 (*)
1070:../Drivers/STM32L4xx_HAL_Driver/Inc/stm32l4xx_ll_bus.h ****   *         @arg @ref LL_APB1_GRP1_PERIPH_UART5 (*)
1071:../Drivers/STM32L4xx_HAL_Driver/Inc/stm32l4xx_ll_bus.h ****   *         @arg @ref LL_APB1_GRP1_PERIPH_I2C1
1072:../Drivers/STM32L4xx_HAL_Driver/Inc/stm32l4xx_ll_bus.h ****   *         @arg @ref LL_APB1_GRP1_PERIPH_I2C2 (*)
1073:../Drivers/STM32L4xx_HAL_Driver/Inc/stm32l4xx_ll_bus.h ****   *         @arg @ref LL_APB1_GRP1_PERIPH_I2C3
1074:../Drivers/STM32L4xx_HAL_Driver/Inc/stm32l4xx_ll_bus.h ****   *         @arg @ref LL_APB1_GRP1_PERIPH_CRS (*)
1075:../Drivers/STM32L4xx_HAL_Driver/Inc/stm32l4xx_ll_bus.h ****   *         @arg @ref LL_APB1_GRP1_PERIPH_CAN1
1076:../Drivers/STM32L4xx_HAL_Driver/Inc/stm32l4xx_ll_bus.h ****   *         @arg @ref LL_APB1_GRP1_PERIPH_CAN2 (*)
1077:../Drivers/STM32L4xx_HAL_Driver/Inc/stm32l4xx_ll_bus.h ****   *         @arg @ref LL_APB1_GRP1_PERIPH_USB (*)
1078:../Drivers/STM32L4xx_HAL_Driver/Inc/stm32l4xx_ll_bus.h ****   *         @arg @ref LL_APB1_GRP1_PERIPH_PWR
1079:../Drivers/STM32L4xx_HAL_Driver/Inc/stm32l4xx_ll_bus.h ****   *         @arg @ref LL_APB1_GRP1_PERIPH_DAC1
1080:../Drivers/STM32L4xx_HAL_Driver/Inc/stm32l4xx_ll_bus.h ****   *         @arg @ref LL_APB1_GRP1_PERIPH_OPAMP
1081:../Drivers/STM32L4xx_HAL_Driver/Inc/stm32l4xx_ll_bus.h ****   *         @arg @ref LL_APB1_GRP1_PERIPH_LPTIM1
1082:../Drivers/STM32L4xx_HAL_Driver/Inc/stm32l4xx_ll_bus.h ****   *
1083:../Drivers/STM32L4xx_HAL_Driver/Inc/stm32l4xx_ll_bus.h ****   *         (*) value not defined in all devices.
1084:../Drivers/STM32L4xx_HAL_Driver/Inc/stm32l4xx_ll_bus.h ****   * @retval None
1085:../Drivers/STM32L4xx_HAL_Driver/Inc/stm32l4xx_ll_bus.h **** */
1086:../Drivers/STM32L4xx_HAL_Driver/Inc/stm32l4xx_ll_bus.h **** __STATIC_INLINE void LL_APB1_GRP1_EnableClock(uint32_t Periphs)
1087:../Drivers/STM32L4xx_HAL_Driver/Inc/stm32l4xx_ll_bus.h **** {
1088:../Drivers/STM32L4xx_HAL_Driver/Inc/stm32l4xx_ll_bus.h ****   __IO uint32_t tmpreg;
1089:../Drivers/STM32L4xx_HAL_Driver/Inc/stm32l4xx_ll_bus.h ****   SET_BIT(RCC->APB1ENR1, Periphs);
ARM GAS  /tmp/ccAPcP1Z.s 			page 36


1090:../Drivers/STM32L4xx_HAL_Driver/Inc/stm32l4xx_ll_bus.h ****   /* Delay after an RCC peripheral clock enabling */
1091:../Drivers/STM32L4xx_HAL_Driver/Inc/stm32l4xx_ll_bus.h ****   tmpreg = READ_BIT(RCC->APB1ENR1, Periphs);
1092:../Drivers/STM32L4xx_HAL_Driver/Inc/stm32l4xx_ll_bus.h ****   (void)tmpreg;
1093:../Drivers/STM32L4xx_HAL_Driver/Inc/stm32l4xx_ll_bus.h **** }
1094:../Drivers/STM32L4xx_HAL_Driver/Inc/stm32l4xx_ll_bus.h **** 
1095:../Drivers/STM32L4xx_HAL_Driver/Inc/stm32l4xx_ll_bus.h **** /**
1096:../Drivers/STM32L4xx_HAL_Driver/Inc/stm32l4xx_ll_bus.h ****   * @brief  Enable APB1 peripherals clock.
1097:../Drivers/STM32L4xx_HAL_Driver/Inc/stm32l4xx_ll_bus.h ****   * @rmtoll APB1ENR2     LPUART1EN     LL_APB1_GRP2_EnableClock\n
1098:../Drivers/STM32L4xx_HAL_Driver/Inc/stm32l4xx_ll_bus.h ****   *         APB1ENR2     I2C4EN        LL_APB1_GRP2_EnableClock\n
1099:../Drivers/STM32L4xx_HAL_Driver/Inc/stm32l4xx_ll_bus.h ****   *         APB1ENR2     SWPMI1EN      LL_APB1_GRP2_EnableClock\n
1100:../Drivers/STM32L4xx_HAL_Driver/Inc/stm32l4xx_ll_bus.h ****   *         APB1ENR2     LPTIM2EN      LL_APB1_GRP2_EnableClock
1101:../Drivers/STM32L4xx_HAL_Driver/Inc/stm32l4xx_ll_bus.h ****   * @param  Periphs This parameter can be a combination of the following values:
1102:../Drivers/STM32L4xx_HAL_Driver/Inc/stm32l4xx_ll_bus.h ****   *         @arg @ref LL_APB1_GRP2_PERIPH_LPUART1
1103:../Drivers/STM32L4xx_HAL_Driver/Inc/stm32l4xx_ll_bus.h ****   *         @arg @ref LL_APB1_GRP2_PERIPH_I2C4 (*)
1104:../Drivers/STM32L4xx_HAL_Driver/Inc/stm32l4xx_ll_bus.h ****   *         @arg @ref LL_APB1_GRP2_PERIPH_SWPMI1 (*)
1105:../Drivers/STM32L4xx_HAL_Driver/Inc/stm32l4xx_ll_bus.h ****   *         @arg @ref LL_APB1_GRP2_PERIPH_LPTIM2
1106:../Drivers/STM32L4xx_HAL_Driver/Inc/stm32l4xx_ll_bus.h ****   *
1107:../Drivers/STM32L4xx_HAL_Driver/Inc/stm32l4xx_ll_bus.h ****   *         (*) value not defined in all devices.
1108:../Drivers/STM32L4xx_HAL_Driver/Inc/stm32l4xx_ll_bus.h ****   * @retval None
1109:../Drivers/STM32L4xx_HAL_Driver/Inc/stm32l4xx_ll_bus.h **** */
1110:../Drivers/STM32L4xx_HAL_Driver/Inc/stm32l4xx_ll_bus.h **** __STATIC_INLINE void LL_APB1_GRP2_EnableClock(uint32_t Periphs)
1111:../Drivers/STM32L4xx_HAL_Driver/Inc/stm32l4xx_ll_bus.h **** {
1112:../Drivers/STM32L4xx_HAL_Driver/Inc/stm32l4xx_ll_bus.h ****   __IO uint32_t tmpreg;
1113:../Drivers/STM32L4xx_HAL_Driver/Inc/stm32l4xx_ll_bus.h ****   SET_BIT(RCC->APB1ENR2, Periphs);
1114:../Drivers/STM32L4xx_HAL_Driver/Inc/stm32l4xx_ll_bus.h ****   /* Delay after an RCC peripheral clock enabling */
1115:../Drivers/STM32L4xx_HAL_Driver/Inc/stm32l4xx_ll_bus.h ****   tmpreg = READ_BIT(RCC->APB1ENR2, Periphs);
1116:../Drivers/STM32L4xx_HAL_Driver/Inc/stm32l4xx_ll_bus.h ****   (void)tmpreg;
1117:../Drivers/STM32L4xx_HAL_Driver/Inc/stm32l4xx_ll_bus.h **** }
1118:../Drivers/STM32L4xx_HAL_Driver/Inc/stm32l4xx_ll_bus.h **** 
1119:../Drivers/STM32L4xx_HAL_Driver/Inc/stm32l4xx_ll_bus.h **** /**
1120:../Drivers/STM32L4xx_HAL_Driver/Inc/stm32l4xx_ll_bus.h ****   * @brief  Check if APB1 peripheral clock is enabled or not
1121:../Drivers/STM32L4xx_HAL_Driver/Inc/stm32l4xx_ll_bus.h ****   * @rmtoll APB1ENR1     TIM2EN        LL_APB1_GRP1_IsEnabledClock\n
1122:../Drivers/STM32L4xx_HAL_Driver/Inc/stm32l4xx_ll_bus.h ****   *         APB1ENR1     TIM3EN        LL_APB1_GRP1_IsEnabledClock\n
1123:../Drivers/STM32L4xx_HAL_Driver/Inc/stm32l4xx_ll_bus.h ****   *         APB1ENR1     TIM4EN        LL_APB1_GRP1_IsEnabledClock\n
1124:../Drivers/STM32L4xx_HAL_Driver/Inc/stm32l4xx_ll_bus.h ****   *         APB1ENR1     TIM5EN        LL_APB1_GRP1_IsEnabledClock\n
1125:../Drivers/STM32L4xx_HAL_Driver/Inc/stm32l4xx_ll_bus.h ****   *         APB1ENR1     TIM6EN        LL_APB1_GRP1_IsEnabledClock\n
1126:../Drivers/STM32L4xx_HAL_Driver/Inc/stm32l4xx_ll_bus.h ****   *         APB1ENR1     TIM7EN        LL_APB1_GRP1_IsEnabledClock\n
1127:../Drivers/STM32L4xx_HAL_Driver/Inc/stm32l4xx_ll_bus.h ****   *         APB1ENR1     LCDEN         LL_APB1_GRP1_IsEnabledClock\n
1128:../Drivers/STM32L4xx_HAL_Driver/Inc/stm32l4xx_ll_bus.h ****   *         APB1ENR1     RTCAPBEN      LL_APB1_GRP1_IsEnabledClock\n
1129:../Drivers/STM32L4xx_HAL_Driver/Inc/stm32l4xx_ll_bus.h ****   *         APB1ENR1     WWDGEN        LL_APB1_GRP1_IsEnabledClock\n
1130:../Drivers/STM32L4xx_HAL_Driver/Inc/stm32l4xx_ll_bus.h ****   *         APB1ENR1     SPI2EN        LL_APB1_GRP1_IsEnabledClock\n
1131:../Drivers/STM32L4xx_HAL_Driver/Inc/stm32l4xx_ll_bus.h ****   *         APB1ENR1     SPI3EN        LL_APB1_GRP1_IsEnabledClock\n
1132:../Drivers/STM32L4xx_HAL_Driver/Inc/stm32l4xx_ll_bus.h ****   *         APB1ENR1     USART2EN      LL_APB1_GRP1_IsEnabledClock\n
1133:../Drivers/STM32L4xx_HAL_Driver/Inc/stm32l4xx_ll_bus.h ****   *         APB1ENR1     USART3EN      LL_APB1_GRP1_IsEnabledClock\n
1134:../Drivers/STM32L4xx_HAL_Driver/Inc/stm32l4xx_ll_bus.h ****   *         APB1ENR1     UART4EN       LL_APB1_GRP1_IsEnabledClock\n
1135:../Drivers/STM32L4xx_HAL_Driver/Inc/stm32l4xx_ll_bus.h ****   *         APB1ENR1     UART5EN       LL_APB1_GRP1_IsEnabledClock\n
1136:../Drivers/STM32L4xx_HAL_Driver/Inc/stm32l4xx_ll_bus.h ****   *         APB1ENR1     I2C1EN        LL_APB1_GRP1_IsEnabledClock\n
1137:../Drivers/STM32L4xx_HAL_Driver/Inc/stm32l4xx_ll_bus.h ****   *         APB1ENR1     I2C2EN        LL_APB1_GRP1_IsEnabledClock\n
1138:../Drivers/STM32L4xx_HAL_Driver/Inc/stm32l4xx_ll_bus.h ****   *         APB1ENR1     I2C3EN        LL_APB1_GRP1_IsEnabledClock\n
1139:../Drivers/STM32L4xx_HAL_Driver/Inc/stm32l4xx_ll_bus.h ****   *         APB1ENR1     CRSEN         LL_APB1_GRP1_IsEnabledClock\n
1140:../Drivers/STM32L4xx_HAL_Driver/Inc/stm32l4xx_ll_bus.h ****   *         APB1ENR1     CAN1EN        LL_APB1_GRP1_IsEnabledClock\n
1141:../Drivers/STM32L4xx_HAL_Driver/Inc/stm32l4xx_ll_bus.h ****   *         APB1ENR1     USBFSEN       LL_APB1_GRP1_IsEnabledClock\n
1142:../Drivers/STM32L4xx_HAL_Driver/Inc/stm32l4xx_ll_bus.h ****   *         APB1ENR1     CAN2EN        LL_APB1_GRP1_IsEnabledClock\n
1143:../Drivers/STM32L4xx_HAL_Driver/Inc/stm32l4xx_ll_bus.h ****   *         APB1ENR1     PWREN         LL_APB1_GRP1_IsEnabledClock\n
1144:../Drivers/STM32L4xx_HAL_Driver/Inc/stm32l4xx_ll_bus.h ****   *         APB1ENR1     DAC1EN        LL_APB1_GRP1_IsEnabledClock\n
1145:../Drivers/STM32L4xx_HAL_Driver/Inc/stm32l4xx_ll_bus.h ****   *         APB1ENR1     OPAMPEN       LL_APB1_GRP1_IsEnabledClock\n
1146:../Drivers/STM32L4xx_HAL_Driver/Inc/stm32l4xx_ll_bus.h ****   *         APB1ENR1     LPTIM1EN      LL_APB1_GRP1_IsEnabledClock
ARM GAS  /tmp/ccAPcP1Z.s 			page 37


1147:../Drivers/STM32L4xx_HAL_Driver/Inc/stm32l4xx_ll_bus.h ****   * @param  Periphs This parameter can be a combination of the following values:
1148:../Drivers/STM32L4xx_HAL_Driver/Inc/stm32l4xx_ll_bus.h ****   *         @arg @ref LL_APB1_GRP1_PERIPH_TIM2
1149:../Drivers/STM32L4xx_HAL_Driver/Inc/stm32l4xx_ll_bus.h ****   *         @arg @ref LL_APB1_GRP1_PERIPH_TIM3 (*)
1150:../Drivers/STM32L4xx_HAL_Driver/Inc/stm32l4xx_ll_bus.h ****   *         @arg @ref LL_APB1_GRP1_PERIPH_TIM4 (*)
1151:../Drivers/STM32L4xx_HAL_Driver/Inc/stm32l4xx_ll_bus.h ****   *         @arg @ref LL_APB1_GRP1_PERIPH_TIM5 (*)
1152:../Drivers/STM32L4xx_HAL_Driver/Inc/stm32l4xx_ll_bus.h ****   *         @arg @ref LL_APB1_GRP1_PERIPH_TIM6
1153:../Drivers/STM32L4xx_HAL_Driver/Inc/stm32l4xx_ll_bus.h ****   *         @arg @ref LL_APB1_GRP1_PERIPH_TIM7
1154:../Drivers/STM32L4xx_HAL_Driver/Inc/stm32l4xx_ll_bus.h ****   *         @arg @ref LL_APB1_GRP1_PERIPH_LCD (*)
1155:../Drivers/STM32L4xx_HAL_Driver/Inc/stm32l4xx_ll_bus.h ****   *         @arg @ref LL_APB1_GRP1_PERIPH_RTCAPB (*)
1156:../Drivers/STM32L4xx_HAL_Driver/Inc/stm32l4xx_ll_bus.h ****   *         @arg @ref LL_APB1_GRP1_PERIPH_WWDG
1157:../Drivers/STM32L4xx_HAL_Driver/Inc/stm32l4xx_ll_bus.h ****   *         @arg @ref LL_APB1_GRP1_PERIPH_SPI2 (*)
1158:../Drivers/STM32L4xx_HAL_Driver/Inc/stm32l4xx_ll_bus.h ****   *         @arg @ref LL_APB1_GRP1_PERIPH_SPI3
1159:../Drivers/STM32L4xx_HAL_Driver/Inc/stm32l4xx_ll_bus.h ****   *         @arg @ref LL_APB1_GRP1_PERIPH_USART2
1160:../Drivers/STM32L4xx_HAL_Driver/Inc/stm32l4xx_ll_bus.h ****   *         @arg @ref LL_APB1_GRP1_PERIPH_USART3 (*)
1161:../Drivers/STM32L4xx_HAL_Driver/Inc/stm32l4xx_ll_bus.h ****   *         @arg @ref LL_APB1_GRP1_PERIPH_UART4 (*)
1162:../Drivers/STM32L4xx_HAL_Driver/Inc/stm32l4xx_ll_bus.h ****   *         @arg @ref LL_APB1_GRP1_PERIPH_UART5 (*)
1163:../Drivers/STM32L4xx_HAL_Driver/Inc/stm32l4xx_ll_bus.h ****   *         @arg @ref LL_APB1_GRP1_PERIPH_I2C1
1164:../Drivers/STM32L4xx_HAL_Driver/Inc/stm32l4xx_ll_bus.h ****   *         @arg @ref LL_APB1_GRP1_PERIPH_I2C2 (*)
1165:../Drivers/STM32L4xx_HAL_Driver/Inc/stm32l4xx_ll_bus.h ****   *         @arg @ref LL_APB1_GRP1_PERIPH_I2C3
1166:../Drivers/STM32L4xx_HAL_Driver/Inc/stm32l4xx_ll_bus.h ****   *         @arg @ref LL_APB1_GRP1_PERIPH_CRS (*)
1167:../Drivers/STM32L4xx_HAL_Driver/Inc/stm32l4xx_ll_bus.h ****   *         @arg @ref LL_APB1_GRP1_PERIPH_CAN1
1168:../Drivers/STM32L4xx_HAL_Driver/Inc/stm32l4xx_ll_bus.h ****   *         @arg @ref LL_APB1_GRP1_PERIPH_CAN2 (*)
1169:../Drivers/STM32L4xx_HAL_Driver/Inc/stm32l4xx_ll_bus.h ****   *         @arg @ref LL_APB1_GRP1_PERIPH_USB (*)
1170:../Drivers/STM32L4xx_HAL_Driver/Inc/stm32l4xx_ll_bus.h ****   *         @arg @ref LL_APB1_GRP1_PERIPH_PWR
1171:../Drivers/STM32L4xx_HAL_Driver/Inc/stm32l4xx_ll_bus.h ****   *         @arg @ref LL_APB1_GRP1_PERIPH_DAC1
1172:../Drivers/STM32L4xx_HAL_Driver/Inc/stm32l4xx_ll_bus.h ****   *         @arg @ref LL_APB1_GRP1_PERIPH_OPAMP
1173:../Drivers/STM32L4xx_HAL_Driver/Inc/stm32l4xx_ll_bus.h ****   *         @arg @ref LL_APB1_GRP1_PERIPH_LPTIM1
1174:../Drivers/STM32L4xx_HAL_Driver/Inc/stm32l4xx_ll_bus.h ****   *
1175:../Drivers/STM32L4xx_HAL_Driver/Inc/stm32l4xx_ll_bus.h ****   *         (*) value not defined in all devices.
1176:../Drivers/STM32L4xx_HAL_Driver/Inc/stm32l4xx_ll_bus.h ****   * @retval State of Periphs (1 or 0).
1177:../Drivers/STM32L4xx_HAL_Driver/Inc/stm32l4xx_ll_bus.h **** */
1178:../Drivers/STM32L4xx_HAL_Driver/Inc/stm32l4xx_ll_bus.h **** __STATIC_INLINE uint32_t LL_APB1_GRP1_IsEnabledClock(uint32_t Periphs)
1179:../Drivers/STM32L4xx_HAL_Driver/Inc/stm32l4xx_ll_bus.h **** {
1180:../Drivers/STM32L4xx_HAL_Driver/Inc/stm32l4xx_ll_bus.h ****   return ((READ_BIT(RCC->APB1ENR1, Periphs) == Periphs) ? 1UL : 0UL);
1181:../Drivers/STM32L4xx_HAL_Driver/Inc/stm32l4xx_ll_bus.h **** }
1182:../Drivers/STM32L4xx_HAL_Driver/Inc/stm32l4xx_ll_bus.h **** 
1183:../Drivers/STM32L4xx_HAL_Driver/Inc/stm32l4xx_ll_bus.h **** /**
1184:../Drivers/STM32L4xx_HAL_Driver/Inc/stm32l4xx_ll_bus.h ****   * @brief  Check if APB1 peripheral clock is enabled or not
1185:../Drivers/STM32L4xx_HAL_Driver/Inc/stm32l4xx_ll_bus.h ****   * @rmtoll APB1ENR2     LPUART1EN     LL_APB1_GRP2_IsEnabledClock\n
1186:../Drivers/STM32L4xx_HAL_Driver/Inc/stm32l4xx_ll_bus.h ****   *         APB1ENR2     I2C4EN        LL_APB1_GRP2_IsEnabledClock\n
1187:../Drivers/STM32L4xx_HAL_Driver/Inc/stm32l4xx_ll_bus.h ****   *         APB1ENR2     SWPMI1EN      LL_APB1_GRP2_IsEnabledClock\n
1188:../Drivers/STM32L4xx_HAL_Driver/Inc/stm32l4xx_ll_bus.h ****   *         APB1ENR2     LPTIM2EN      LL_APB1_GRP2_IsEnabledClock
1189:../Drivers/STM32L4xx_HAL_Driver/Inc/stm32l4xx_ll_bus.h ****   * @param  Periphs This parameter can be a combination of the following values:
1190:../Drivers/STM32L4xx_HAL_Driver/Inc/stm32l4xx_ll_bus.h ****   *         @arg @ref LL_APB1_GRP2_PERIPH_LPUART1
1191:../Drivers/STM32L4xx_HAL_Driver/Inc/stm32l4xx_ll_bus.h ****   *         @arg @ref LL_APB1_GRP2_PERIPH_I2C4 (*)
1192:../Drivers/STM32L4xx_HAL_Driver/Inc/stm32l4xx_ll_bus.h ****   *         @arg @ref LL_APB1_GRP2_PERIPH_SWPMI1 (*)
1193:../Drivers/STM32L4xx_HAL_Driver/Inc/stm32l4xx_ll_bus.h ****   *         @arg @ref LL_APB1_GRP2_PERIPH_LPTIM2
1194:../Drivers/STM32L4xx_HAL_Driver/Inc/stm32l4xx_ll_bus.h ****   *
1195:../Drivers/STM32L4xx_HAL_Driver/Inc/stm32l4xx_ll_bus.h ****   *         (*) value not defined in all devices.
1196:../Drivers/STM32L4xx_HAL_Driver/Inc/stm32l4xx_ll_bus.h ****   * @retval State of Periphs (1 or 0).
1197:../Drivers/STM32L4xx_HAL_Driver/Inc/stm32l4xx_ll_bus.h **** */
1198:../Drivers/STM32L4xx_HAL_Driver/Inc/stm32l4xx_ll_bus.h **** __STATIC_INLINE uint32_t LL_APB1_GRP2_IsEnabledClock(uint32_t Periphs)
1199:../Drivers/STM32L4xx_HAL_Driver/Inc/stm32l4xx_ll_bus.h **** {
1200:../Drivers/STM32L4xx_HAL_Driver/Inc/stm32l4xx_ll_bus.h ****   return ((READ_BIT(RCC->APB1ENR2, Periphs) == Periphs) ? 1UL : 0UL);
1201:../Drivers/STM32L4xx_HAL_Driver/Inc/stm32l4xx_ll_bus.h **** }
1202:../Drivers/STM32L4xx_HAL_Driver/Inc/stm32l4xx_ll_bus.h **** 
1203:../Drivers/STM32L4xx_HAL_Driver/Inc/stm32l4xx_ll_bus.h **** /**
ARM GAS  /tmp/ccAPcP1Z.s 			page 38


1204:../Drivers/STM32L4xx_HAL_Driver/Inc/stm32l4xx_ll_bus.h ****   * @brief  Disable APB1 peripherals clock.
1205:../Drivers/STM32L4xx_HAL_Driver/Inc/stm32l4xx_ll_bus.h ****   * @rmtoll APB1ENR1     TIM2EN        LL_APB1_GRP1_DisableClock\n
1206:../Drivers/STM32L4xx_HAL_Driver/Inc/stm32l4xx_ll_bus.h ****   *         APB1ENR1     TIM3EN        LL_APB1_GRP1_DisableClock\n
1207:../Drivers/STM32L4xx_HAL_Driver/Inc/stm32l4xx_ll_bus.h ****   *         APB1ENR1     TIM4EN        LL_APB1_GRP1_DisableClock\n
1208:../Drivers/STM32L4xx_HAL_Driver/Inc/stm32l4xx_ll_bus.h ****   *         APB1ENR1     TIM5EN        LL_APB1_GRP1_DisableClock\n
1209:../Drivers/STM32L4xx_HAL_Driver/Inc/stm32l4xx_ll_bus.h ****   *         APB1ENR1     TIM6EN        LL_APB1_GRP1_DisableClock\n
1210:../Drivers/STM32L4xx_HAL_Driver/Inc/stm32l4xx_ll_bus.h ****   *         APB1ENR1     TIM7EN        LL_APB1_GRP1_DisableClock\n
1211:../Drivers/STM32L4xx_HAL_Driver/Inc/stm32l4xx_ll_bus.h ****   *         APB1ENR1     LCDEN         LL_APB1_GRP1_DisableClock\n
1212:../Drivers/STM32L4xx_HAL_Driver/Inc/stm32l4xx_ll_bus.h ****   *         APB1ENR1     RTCAPBEN      LL_APB1_GRP1_DisableClock\n
1213:../Drivers/STM32L4xx_HAL_Driver/Inc/stm32l4xx_ll_bus.h ****   *         APB1ENR1     WWDGEN        LL_APB1_GRP1_DisableClock\n
1214:../Drivers/STM32L4xx_HAL_Driver/Inc/stm32l4xx_ll_bus.h ****   *         APB1ENR1     SPI2EN        LL_APB1_GRP1_DisableClock\n
1215:../Drivers/STM32L4xx_HAL_Driver/Inc/stm32l4xx_ll_bus.h ****   *         APB1ENR1     SPI3EN        LL_APB1_GRP1_DisableClock\n
1216:../Drivers/STM32L4xx_HAL_Driver/Inc/stm32l4xx_ll_bus.h ****   *         APB1ENR1     USART2EN      LL_APB1_GRP1_DisableClock\n
1217:../Drivers/STM32L4xx_HAL_Driver/Inc/stm32l4xx_ll_bus.h ****   *         APB1ENR1     USART3EN      LL_APB1_GRP1_DisableClock\n
1218:../Drivers/STM32L4xx_HAL_Driver/Inc/stm32l4xx_ll_bus.h ****   *         APB1ENR1     UART4EN       LL_APB1_GRP1_DisableClock\n
1219:../Drivers/STM32L4xx_HAL_Driver/Inc/stm32l4xx_ll_bus.h ****   *         APB1ENR1     UART5EN       LL_APB1_GRP1_DisableClock\n
1220:../Drivers/STM32L4xx_HAL_Driver/Inc/stm32l4xx_ll_bus.h ****   *         APB1ENR1     I2C1EN        LL_APB1_GRP1_DisableClock\n
1221:../Drivers/STM32L4xx_HAL_Driver/Inc/stm32l4xx_ll_bus.h ****   *         APB1ENR1     I2C2EN        LL_APB1_GRP1_DisableClock\n
1222:../Drivers/STM32L4xx_HAL_Driver/Inc/stm32l4xx_ll_bus.h ****   *         APB1ENR1     I2C3EN        LL_APB1_GRP1_DisableClock\n
1223:../Drivers/STM32L4xx_HAL_Driver/Inc/stm32l4xx_ll_bus.h ****   *         APB1ENR1     CRSEN         LL_APB1_GRP1_DisableClock\n
1224:../Drivers/STM32L4xx_HAL_Driver/Inc/stm32l4xx_ll_bus.h ****   *         APB1ENR1     CAN1EN        LL_APB1_GRP1_DisableClock\n
1225:../Drivers/STM32L4xx_HAL_Driver/Inc/stm32l4xx_ll_bus.h ****   *         APB1ENR1     USBFSEN       LL_APB1_GRP1_DisableClock\n
1226:../Drivers/STM32L4xx_HAL_Driver/Inc/stm32l4xx_ll_bus.h ****   *         APB1ENR1     CAN2EN        LL_APB1_GRP1_DisableClock\n
1227:../Drivers/STM32L4xx_HAL_Driver/Inc/stm32l4xx_ll_bus.h ****   *         APB1ENR1     PWREN         LL_APB1_GRP1_DisableClock\n
1228:../Drivers/STM32L4xx_HAL_Driver/Inc/stm32l4xx_ll_bus.h ****   *         APB1ENR1     DAC1EN        LL_APB1_GRP1_DisableClock\n
1229:../Drivers/STM32L4xx_HAL_Driver/Inc/stm32l4xx_ll_bus.h ****   *         APB1ENR1     OPAMPEN       LL_APB1_GRP1_DisableClock\n
1230:../Drivers/STM32L4xx_HAL_Driver/Inc/stm32l4xx_ll_bus.h ****   *         APB1ENR1     LPTIM1EN      LL_APB1_GRP1_DisableClock
1231:../Drivers/STM32L4xx_HAL_Driver/Inc/stm32l4xx_ll_bus.h ****   * @param  Periphs This parameter can be a combination of the following values:
1232:../Drivers/STM32L4xx_HAL_Driver/Inc/stm32l4xx_ll_bus.h ****   *         @arg @ref LL_APB1_GRP1_PERIPH_TIM2
1233:../Drivers/STM32L4xx_HAL_Driver/Inc/stm32l4xx_ll_bus.h ****   *         @arg @ref LL_APB1_GRP1_PERIPH_TIM3 (*)
1234:../Drivers/STM32L4xx_HAL_Driver/Inc/stm32l4xx_ll_bus.h ****   *         @arg @ref LL_APB1_GRP1_PERIPH_TIM4 (*)
1235:../Drivers/STM32L4xx_HAL_Driver/Inc/stm32l4xx_ll_bus.h ****   *         @arg @ref LL_APB1_GRP1_PERIPH_TIM5 (*)
1236:../Drivers/STM32L4xx_HAL_Driver/Inc/stm32l4xx_ll_bus.h ****   *         @arg @ref LL_APB1_GRP1_PERIPH_TIM6
1237:../Drivers/STM32L4xx_HAL_Driver/Inc/stm32l4xx_ll_bus.h ****   *         @arg @ref LL_APB1_GRP1_PERIPH_TIM7
1238:../Drivers/STM32L4xx_HAL_Driver/Inc/stm32l4xx_ll_bus.h ****   *         @arg @ref LL_APB1_GRP1_PERIPH_LCD (*)
1239:../Drivers/STM32L4xx_HAL_Driver/Inc/stm32l4xx_ll_bus.h ****   *         @arg @ref LL_APB1_GRP1_PERIPH_RTCAPB (*)
1240:../Drivers/STM32L4xx_HAL_Driver/Inc/stm32l4xx_ll_bus.h ****   *         @arg @ref LL_APB1_GRP1_PERIPH_WWDG
1241:../Drivers/STM32L4xx_HAL_Driver/Inc/stm32l4xx_ll_bus.h ****   *         @arg @ref LL_APB1_GRP1_PERIPH_SPI2 (*)
1242:../Drivers/STM32L4xx_HAL_Driver/Inc/stm32l4xx_ll_bus.h ****   *         @arg @ref LL_APB1_GRP1_PERIPH_SPI3
1243:../Drivers/STM32L4xx_HAL_Driver/Inc/stm32l4xx_ll_bus.h ****   *         @arg @ref LL_APB1_GRP1_PERIPH_USART2
1244:../Drivers/STM32L4xx_HAL_Driver/Inc/stm32l4xx_ll_bus.h ****   *         @arg @ref LL_APB1_GRP1_PERIPH_USART3 (*)
1245:../Drivers/STM32L4xx_HAL_Driver/Inc/stm32l4xx_ll_bus.h ****   *         @arg @ref LL_APB1_GRP1_PERIPH_UART4 (*)
1246:../Drivers/STM32L4xx_HAL_Driver/Inc/stm32l4xx_ll_bus.h ****   *         @arg @ref LL_APB1_GRP1_PERIPH_UART5 (*)
1247:../Drivers/STM32L4xx_HAL_Driver/Inc/stm32l4xx_ll_bus.h ****   *         @arg @ref LL_APB1_GRP1_PERIPH_I2C1
1248:../Drivers/STM32L4xx_HAL_Driver/Inc/stm32l4xx_ll_bus.h ****   *         @arg @ref LL_APB1_GRP1_PERIPH_I2C2 (*)
1249:../Drivers/STM32L4xx_HAL_Driver/Inc/stm32l4xx_ll_bus.h ****   *         @arg @ref LL_APB1_GRP1_PERIPH_I2C3
1250:../Drivers/STM32L4xx_HAL_Driver/Inc/stm32l4xx_ll_bus.h ****   *         @arg @ref LL_APB1_GRP1_PERIPH_CRS (*)
1251:../Drivers/STM32L4xx_HAL_Driver/Inc/stm32l4xx_ll_bus.h ****   *         @arg @ref LL_APB1_GRP1_PERIPH_CAN1
1252:../Drivers/STM32L4xx_HAL_Driver/Inc/stm32l4xx_ll_bus.h ****   *         @arg @ref LL_APB1_GRP1_PERIPH_CAN2 (*)
1253:../Drivers/STM32L4xx_HAL_Driver/Inc/stm32l4xx_ll_bus.h ****   *         @arg @ref LL_APB1_GRP1_PERIPH_USB (*)
1254:../Drivers/STM32L4xx_HAL_Driver/Inc/stm32l4xx_ll_bus.h ****   *         @arg @ref LL_APB1_GRP1_PERIPH_PWR
1255:../Drivers/STM32L4xx_HAL_Driver/Inc/stm32l4xx_ll_bus.h ****   *         @arg @ref LL_APB1_GRP1_PERIPH_DAC1
1256:../Drivers/STM32L4xx_HAL_Driver/Inc/stm32l4xx_ll_bus.h ****   *         @arg @ref LL_APB1_GRP1_PERIPH_OPAMP
1257:../Drivers/STM32L4xx_HAL_Driver/Inc/stm32l4xx_ll_bus.h ****   *         @arg @ref LL_APB1_GRP1_PERIPH_LPTIM1
1258:../Drivers/STM32L4xx_HAL_Driver/Inc/stm32l4xx_ll_bus.h ****   *
1259:../Drivers/STM32L4xx_HAL_Driver/Inc/stm32l4xx_ll_bus.h ****   *         (*) value not defined in all devices.
1260:../Drivers/STM32L4xx_HAL_Driver/Inc/stm32l4xx_ll_bus.h ****   * @retval None
ARM GAS  /tmp/ccAPcP1Z.s 			page 39


1261:../Drivers/STM32L4xx_HAL_Driver/Inc/stm32l4xx_ll_bus.h **** */
1262:../Drivers/STM32L4xx_HAL_Driver/Inc/stm32l4xx_ll_bus.h **** __STATIC_INLINE void LL_APB1_GRP1_DisableClock(uint32_t Periphs)
1263:../Drivers/STM32L4xx_HAL_Driver/Inc/stm32l4xx_ll_bus.h **** {
1264:../Drivers/STM32L4xx_HAL_Driver/Inc/stm32l4xx_ll_bus.h ****   CLEAR_BIT(RCC->APB1ENR1, Periphs);
1265:../Drivers/STM32L4xx_HAL_Driver/Inc/stm32l4xx_ll_bus.h **** }
1266:../Drivers/STM32L4xx_HAL_Driver/Inc/stm32l4xx_ll_bus.h **** 
1267:../Drivers/STM32L4xx_HAL_Driver/Inc/stm32l4xx_ll_bus.h **** /**
1268:../Drivers/STM32L4xx_HAL_Driver/Inc/stm32l4xx_ll_bus.h ****   * @brief  Disable APB1 peripherals clock.
1269:../Drivers/STM32L4xx_HAL_Driver/Inc/stm32l4xx_ll_bus.h ****   * @rmtoll APB1ENR2     LPUART1EN     LL_APB1_GRP2_DisableClock\n
1270:../Drivers/STM32L4xx_HAL_Driver/Inc/stm32l4xx_ll_bus.h ****   *         APB1ENR2     I2C4EN        LL_APB1_GRP2_DisableClock\n
1271:../Drivers/STM32L4xx_HAL_Driver/Inc/stm32l4xx_ll_bus.h ****   *         APB1ENR2     SWPMI1EN      LL_APB1_GRP2_DisableClock\n
1272:../Drivers/STM32L4xx_HAL_Driver/Inc/stm32l4xx_ll_bus.h ****   *         APB1ENR2     LPTIM2EN      LL_APB1_GRP2_DisableClock
1273:../Drivers/STM32L4xx_HAL_Driver/Inc/stm32l4xx_ll_bus.h ****   * @param  Periphs This parameter can be a combination of the following values:
1274:../Drivers/STM32L4xx_HAL_Driver/Inc/stm32l4xx_ll_bus.h ****   *         @arg @ref LL_APB1_GRP2_PERIPH_LPUART1
1275:../Drivers/STM32L4xx_HAL_Driver/Inc/stm32l4xx_ll_bus.h ****   *         @arg @ref LL_APB1_GRP2_PERIPH_I2C4 (*)
1276:../Drivers/STM32L4xx_HAL_Driver/Inc/stm32l4xx_ll_bus.h ****   *         @arg @ref LL_APB1_GRP2_PERIPH_SWPMI1 (*)
1277:../Drivers/STM32L4xx_HAL_Driver/Inc/stm32l4xx_ll_bus.h ****   *         @arg @ref LL_APB1_GRP2_PERIPH_LPTIM2
1278:../Drivers/STM32L4xx_HAL_Driver/Inc/stm32l4xx_ll_bus.h ****   *
1279:../Drivers/STM32L4xx_HAL_Driver/Inc/stm32l4xx_ll_bus.h ****   *         (*) value not defined in all devices.
1280:../Drivers/STM32L4xx_HAL_Driver/Inc/stm32l4xx_ll_bus.h ****   * @retval None
1281:../Drivers/STM32L4xx_HAL_Driver/Inc/stm32l4xx_ll_bus.h **** */
1282:../Drivers/STM32L4xx_HAL_Driver/Inc/stm32l4xx_ll_bus.h **** __STATIC_INLINE void LL_APB1_GRP2_DisableClock(uint32_t Periphs)
1283:../Drivers/STM32L4xx_HAL_Driver/Inc/stm32l4xx_ll_bus.h **** {
1284:../Drivers/STM32L4xx_HAL_Driver/Inc/stm32l4xx_ll_bus.h ****   CLEAR_BIT(RCC->APB1ENR2, Periphs);
1285:../Drivers/STM32L4xx_HAL_Driver/Inc/stm32l4xx_ll_bus.h **** }
1286:../Drivers/STM32L4xx_HAL_Driver/Inc/stm32l4xx_ll_bus.h **** 
1287:../Drivers/STM32L4xx_HAL_Driver/Inc/stm32l4xx_ll_bus.h **** /**
1288:../Drivers/STM32L4xx_HAL_Driver/Inc/stm32l4xx_ll_bus.h ****   * @brief  Force APB1 peripherals reset.
1289:../Drivers/STM32L4xx_HAL_Driver/Inc/stm32l4xx_ll_bus.h ****   * @rmtoll APB1RSTR1    TIM2RST       LL_APB1_GRP1_ForceReset\n
1290:../Drivers/STM32L4xx_HAL_Driver/Inc/stm32l4xx_ll_bus.h ****   *         APB1RSTR1    TIM3RST       LL_APB1_GRP1_ForceReset\n
1291:../Drivers/STM32L4xx_HAL_Driver/Inc/stm32l4xx_ll_bus.h ****   *         APB1RSTR1    TIM4RST       LL_APB1_GRP1_ForceReset\n
1292:../Drivers/STM32L4xx_HAL_Driver/Inc/stm32l4xx_ll_bus.h ****   *         APB1RSTR1    TIM5RST       LL_APB1_GRP1_ForceReset\n
1293:../Drivers/STM32L4xx_HAL_Driver/Inc/stm32l4xx_ll_bus.h ****   *         APB1RSTR1    TIM6RST       LL_APB1_GRP1_ForceReset\n
1294:../Drivers/STM32L4xx_HAL_Driver/Inc/stm32l4xx_ll_bus.h ****   *         APB1RSTR1    TIM7RST       LL_APB1_GRP1_ForceReset\n
1295:../Drivers/STM32L4xx_HAL_Driver/Inc/stm32l4xx_ll_bus.h ****   *         APB1RSTR1    LCDRST        LL_APB1_GRP1_ForceReset\n
1296:../Drivers/STM32L4xx_HAL_Driver/Inc/stm32l4xx_ll_bus.h ****   *         APB1RSTR1    SPI2RST       LL_APB1_GRP1_ForceReset\n
1297:../Drivers/STM32L4xx_HAL_Driver/Inc/stm32l4xx_ll_bus.h ****   *         APB1RSTR1    SPI3RST       LL_APB1_GRP1_ForceReset\n
1298:../Drivers/STM32L4xx_HAL_Driver/Inc/stm32l4xx_ll_bus.h ****   *         APB1RSTR1    USART2RST     LL_APB1_GRP1_ForceReset\n
1299:../Drivers/STM32L4xx_HAL_Driver/Inc/stm32l4xx_ll_bus.h ****   *         APB1RSTR1    USART3RST     LL_APB1_GRP1_ForceReset\n
1300:../Drivers/STM32L4xx_HAL_Driver/Inc/stm32l4xx_ll_bus.h ****   *         APB1RSTR1    UART4RST      LL_APB1_GRP1_ForceReset\n
1301:../Drivers/STM32L4xx_HAL_Driver/Inc/stm32l4xx_ll_bus.h ****   *         APB1RSTR1    UART5RST      LL_APB1_GRP1_ForceReset\n
1302:../Drivers/STM32L4xx_HAL_Driver/Inc/stm32l4xx_ll_bus.h ****   *         APB1RSTR1    I2C1RST       LL_APB1_GRP1_ForceReset\n
1303:../Drivers/STM32L4xx_HAL_Driver/Inc/stm32l4xx_ll_bus.h ****   *         APB1RSTR1    I2C2RST       LL_APB1_GRP1_ForceReset\n
1304:../Drivers/STM32L4xx_HAL_Driver/Inc/stm32l4xx_ll_bus.h ****   *         APB1RSTR1    I2C3RST       LL_APB1_GRP1_ForceReset\n
1305:../Drivers/STM32L4xx_HAL_Driver/Inc/stm32l4xx_ll_bus.h ****   *         APB1RSTR1    CRSRST        LL_APB1_GRP1_ForceReset\n
1306:../Drivers/STM32L4xx_HAL_Driver/Inc/stm32l4xx_ll_bus.h ****   *         APB1RSTR1    CAN1RST       LL_APB1_GRP1_ForceReset\n
1307:../Drivers/STM32L4xx_HAL_Driver/Inc/stm32l4xx_ll_bus.h ****   *         APB1RSTR1    USBFSRST      LL_APB1_GRP1_ForceReset\n
1308:../Drivers/STM32L4xx_HAL_Driver/Inc/stm32l4xx_ll_bus.h ****   *         APB1RSTR1    CAN2RST       LL_APB1_GRP1_ForceReset\n
1309:../Drivers/STM32L4xx_HAL_Driver/Inc/stm32l4xx_ll_bus.h ****   *         APB1RSTR1    PWRRST        LL_APB1_GRP1_ForceReset\n
1310:../Drivers/STM32L4xx_HAL_Driver/Inc/stm32l4xx_ll_bus.h ****   *         APB1RSTR1    DAC1RST       LL_APB1_GRP1_ForceReset\n
1311:../Drivers/STM32L4xx_HAL_Driver/Inc/stm32l4xx_ll_bus.h ****   *         APB1RSTR1    OPAMPRST      LL_APB1_GRP1_ForceReset\n
1312:../Drivers/STM32L4xx_HAL_Driver/Inc/stm32l4xx_ll_bus.h ****   *         APB1RSTR1    LPTIM1RST     LL_APB1_GRP1_ForceReset
1313:../Drivers/STM32L4xx_HAL_Driver/Inc/stm32l4xx_ll_bus.h ****   * @param  Periphs This parameter can be a combination of the following values:
1314:../Drivers/STM32L4xx_HAL_Driver/Inc/stm32l4xx_ll_bus.h ****   *         @arg @ref LL_APB1_GRP1_PERIPH_ALL
1315:../Drivers/STM32L4xx_HAL_Driver/Inc/stm32l4xx_ll_bus.h ****   *         @arg @ref LL_APB1_GRP1_PERIPH_TIM2
1316:../Drivers/STM32L4xx_HAL_Driver/Inc/stm32l4xx_ll_bus.h ****   *         @arg @ref LL_APB1_GRP1_PERIPH_TIM3 (*)
1317:../Drivers/STM32L4xx_HAL_Driver/Inc/stm32l4xx_ll_bus.h ****   *         @arg @ref LL_APB1_GRP1_PERIPH_TIM4 (*)
ARM GAS  /tmp/ccAPcP1Z.s 			page 40


1318:../Drivers/STM32L4xx_HAL_Driver/Inc/stm32l4xx_ll_bus.h ****   *         @arg @ref LL_APB1_GRP1_PERIPH_TIM5 (*)
1319:../Drivers/STM32L4xx_HAL_Driver/Inc/stm32l4xx_ll_bus.h ****   *         @arg @ref LL_APB1_GRP1_PERIPH_TIM6
1320:../Drivers/STM32L4xx_HAL_Driver/Inc/stm32l4xx_ll_bus.h ****   *         @arg @ref LL_APB1_GRP1_PERIPH_TIM7
1321:../Drivers/STM32L4xx_HAL_Driver/Inc/stm32l4xx_ll_bus.h ****   *         @arg @ref LL_APB1_GRP1_PERIPH_LCD (*)
1322:../Drivers/STM32L4xx_HAL_Driver/Inc/stm32l4xx_ll_bus.h ****   *         @arg @ref LL_APB1_GRP1_PERIPH_SPI2 (*)
1323:../Drivers/STM32L4xx_HAL_Driver/Inc/stm32l4xx_ll_bus.h ****   *         @arg @ref LL_APB1_GRP1_PERIPH_SPI3
1324:../Drivers/STM32L4xx_HAL_Driver/Inc/stm32l4xx_ll_bus.h ****   *         @arg @ref LL_APB1_GRP1_PERIPH_USART2
1325:../Drivers/STM32L4xx_HAL_Driver/Inc/stm32l4xx_ll_bus.h ****   *         @arg @ref LL_APB1_GRP1_PERIPH_USART3 (*)
1326:../Drivers/STM32L4xx_HAL_Driver/Inc/stm32l4xx_ll_bus.h ****   *         @arg @ref LL_APB1_GRP1_PERIPH_UART4 (*)
1327:../Drivers/STM32L4xx_HAL_Driver/Inc/stm32l4xx_ll_bus.h ****   *         @arg @ref LL_APB1_GRP1_PERIPH_UART5 (*)
1328:../Drivers/STM32L4xx_HAL_Driver/Inc/stm32l4xx_ll_bus.h ****   *         @arg @ref LL_APB1_GRP1_PERIPH_I2C1
1329:../Drivers/STM32L4xx_HAL_Driver/Inc/stm32l4xx_ll_bus.h ****   *         @arg @ref LL_APB1_GRP1_PERIPH_I2C2 (*)
1330:../Drivers/STM32L4xx_HAL_Driver/Inc/stm32l4xx_ll_bus.h ****   *         @arg @ref LL_APB1_GRP1_PERIPH_I2C3
1331:../Drivers/STM32L4xx_HAL_Driver/Inc/stm32l4xx_ll_bus.h ****   *         @arg @ref LL_APB1_GRP1_PERIPH_CRS (*)
1332:../Drivers/STM32L4xx_HAL_Driver/Inc/stm32l4xx_ll_bus.h ****   *         @arg @ref LL_APB1_GRP1_PERIPH_CAN1
1333:../Drivers/STM32L4xx_HAL_Driver/Inc/stm32l4xx_ll_bus.h ****   *         @arg @ref LL_APB1_GRP1_PERIPH_CAN2 (*)
1334:../Drivers/STM32L4xx_HAL_Driver/Inc/stm32l4xx_ll_bus.h ****   *         @arg @ref LL_APB1_GRP1_PERIPH_USB (*)
1335:../Drivers/STM32L4xx_HAL_Driver/Inc/stm32l4xx_ll_bus.h ****   *         @arg @ref LL_APB1_GRP1_PERIPH_PWR
1336:../Drivers/STM32L4xx_HAL_Driver/Inc/stm32l4xx_ll_bus.h ****   *         @arg @ref LL_APB1_GRP1_PERIPH_DAC1
1337:../Drivers/STM32L4xx_HAL_Driver/Inc/stm32l4xx_ll_bus.h ****   *         @arg @ref LL_APB1_GRP1_PERIPH_OPAMP
1338:../Drivers/STM32L4xx_HAL_Driver/Inc/stm32l4xx_ll_bus.h ****   *         @arg @ref LL_APB1_GRP1_PERIPH_LPTIM1
1339:../Drivers/STM32L4xx_HAL_Driver/Inc/stm32l4xx_ll_bus.h ****   *
1340:../Drivers/STM32L4xx_HAL_Driver/Inc/stm32l4xx_ll_bus.h ****   *         (*) value not defined in all devices.
1341:../Drivers/STM32L4xx_HAL_Driver/Inc/stm32l4xx_ll_bus.h ****   * @retval None
1342:../Drivers/STM32L4xx_HAL_Driver/Inc/stm32l4xx_ll_bus.h **** */
1343:../Drivers/STM32L4xx_HAL_Driver/Inc/stm32l4xx_ll_bus.h **** __STATIC_INLINE void LL_APB1_GRP1_ForceReset(uint32_t Periphs)
1344:../Drivers/STM32L4xx_HAL_Driver/Inc/stm32l4xx_ll_bus.h **** {
 134              		.loc 2 1344 1
 135              		.cfi_startproc
 136              		@ args = 0, pretend = 0, frame = 8
 137              		@ frame_needed = 1, uses_anonymous_args = 0
 138              		@ link register save eliminated.
 139 0000 80B4     		push	{r7}
 140              	.LCFI12:
 141              		.cfi_def_cfa_offset 4
 142              		.cfi_offset 7, -4
 143 0002 83B0     		sub	sp, sp, #12
 144              	.LCFI13:
 145              		.cfi_def_cfa_offset 16
 146 0004 00AF     		add	r7, sp, #0
 147              	.LCFI14:
 148              		.cfi_def_cfa_register 7
 149 0006 7860     		str	r0, [r7, #4]
1345:../Drivers/STM32L4xx_HAL_Driver/Inc/stm32l4xx_ll_bus.h ****   SET_BIT(RCC->APB1RSTR1, Periphs);
 150              		.loc 2 1345 3
 151 0008 054B     		ldr	r3, .L7
 152 000a 9A6B     		ldr	r2, [r3, #56]
 153 000c 0449     		ldr	r1, .L7
 154 000e 7B68     		ldr	r3, [r7, #4]
 155 0010 1343     		orrs	r3, r3, r2
 156 0012 8B63     		str	r3, [r1, #56]
1346:../Drivers/STM32L4xx_HAL_Driver/Inc/stm32l4xx_ll_bus.h **** }
 157              		.loc 2 1346 1
 158 0014 00BF     		nop
 159 0016 0C37     		adds	r7, r7, #12
 160              	.LCFI15:
 161              		.cfi_def_cfa_offset 4
ARM GAS  /tmp/ccAPcP1Z.s 			page 41


 162 0018 BD46     		mov	sp, r7
 163              	.LCFI16:
 164              		.cfi_def_cfa_register 13
 165              		@ sp needed
 166 001a 5DF8047B 		ldr	r7, [sp], #4
 167              	.LCFI17:
 168              		.cfi_restore 7
 169              		.cfi_def_cfa_offset 0
 170 001e 7047     		bx	lr
 171              	.L8:
 172              		.align	2
 173              	.L7:
 174 0020 00100240 		.word	1073876992
 175              		.cfi_endproc
 176              	.LFE413:
 178              		.section	.text.LL_APB1_GRP1_ReleaseReset,"ax",%progbits
 179              		.align	1
 180              		.syntax unified
 181              		.thumb
 182              		.thumb_func
 183              		.fpu fpv4-sp-d16
 185              	LL_APB1_GRP1_ReleaseReset:
 186              	.LFB415:
1347:../Drivers/STM32L4xx_HAL_Driver/Inc/stm32l4xx_ll_bus.h **** 
1348:../Drivers/STM32L4xx_HAL_Driver/Inc/stm32l4xx_ll_bus.h **** /**
1349:../Drivers/STM32L4xx_HAL_Driver/Inc/stm32l4xx_ll_bus.h ****   * @brief  Force APB1 peripherals reset.
1350:../Drivers/STM32L4xx_HAL_Driver/Inc/stm32l4xx_ll_bus.h ****   * @rmtoll APB1RSTR2    LPUART1RST    LL_APB1_GRP2_ForceReset\n
1351:../Drivers/STM32L4xx_HAL_Driver/Inc/stm32l4xx_ll_bus.h ****   *         APB1RSTR2    I2C4RST       LL_APB1_GRP2_ForceReset\n
1352:../Drivers/STM32L4xx_HAL_Driver/Inc/stm32l4xx_ll_bus.h ****   *         APB1RSTR2    SWPMI1RST     LL_APB1_GRP2_ForceReset\n
1353:../Drivers/STM32L4xx_HAL_Driver/Inc/stm32l4xx_ll_bus.h ****   *         APB1RSTR2    LPTIM2RST     LL_APB1_GRP2_ForceReset
1354:../Drivers/STM32L4xx_HAL_Driver/Inc/stm32l4xx_ll_bus.h ****   * @param  Periphs This parameter can be a combination of the following values:
1355:../Drivers/STM32L4xx_HAL_Driver/Inc/stm32l4xx_ll_bus.h ****   *         @arg @ref LL_APB1_GRP2_PERIPH_ALL
1356:../Drivers/STM32L4xx_HAL_Driver/Inc/stm32l4xx_ll_bus.h ****   *         @arg @ref LL_APB1_GRP2_PERIPH_LPUART1
1357:../Drivers/STM32L4xx_HAL_Driver/Inc/stm32l4xx_ll_bus.h ****   *         @arg @ref LL_APB1_GRP2_PERIPH_I2C4 (*)
1358:../Drivers/STM32L4xx_HAL_Driver/Inc/stm32l4xx_ll_bus.h ****   *         @arg @ref LL_APB1_GRP2_PERIPH_SWPMI1 (*)
1359:../Drivers/STM32L4xx_HAL_Driver/Inc/stm32l4xx_ll_bus.h ****   *         @arg @ref LL_APB1_GRP2_PERIPH_LPTIM2
1360:../Drivers/STM32L4xx_HAL_Driver/Inc/stm32l4xx_ll_bus.h ****   *
1361:../Drivers/STM32L4xx_HAL_Driver/Inc/stm32l4xx_ll_bus.h ****   *         (*) value not defined in all devices.
1362:../Drivers/STM32L4xx_HAL_Driver/Inc/stm32l4xx_ll_bus.h ****   * @retval None
1363:../Drivers/STM32L4xx_HAL_Driver/Inc/stm32l4xx_ll_bus.h **** */
1364:../Drivers/STM32L4xx_HAL_Driver/Inc/stm32l4xx_ll_bus.h **** __STATIC_INLINE void LL_APB1_GRP2_ForceReset(uint32_t Periphs)
1365:../Drivers/STM32L4xx_HAL_Driver/Inc/stm32l4xx_ll_bus.h **** {
1366:../Drivers/STM32L4xx_HAL_Driver/Inc/stm32l4xx_ll_bus.h ****   SET_BIT(RCC->APB1RSTR2, Periphs);
1367:../Drivers/STM32L4xx_HAL_Driver/Inc/stm32l4xx_ll_bus.h **** }
1368:../Drivers/STM32L4xx_HAL_Driver/Inc/stm32l4xx_ll_bus.h **** 
1369:../Drivers/STM32L4xx_HAL_Driver/Inc/stm32l4xx_ll_bus.h **** /**
1370:../Drivers/STM32L4xx_HAL_Driver/Inc/stm32l4xx_ll_bus.h ****   * @brief  Release APB1 peripherals reset.
1371:../Drivers/STM32L4xx_HAL_Driver/Inc/stm32l4xx_ll_bus.h ****   * @rmtoll APB1RSTR1    TIM2RST       LL_APB1_GRP1_ReleaseReset\n
1372:../Drivers/STM32L4xx_HAL_Driver/Inc/stm32l4xx_ll_bus.h ****   *         APB1RSTR1    TIM3RST       LL_APB1_GRP1_ReleaseReset\n
1373:../Drivers/STM32L4xx_HAL_Driver/Inc/stm32l4xx_ll_bus.h ****   *         APB1RSTR1    TIM4RST       LL_APB1_GRP1_ReleaseReset\n
1374:../Drivers/STM32L4xx_HAL_Driver/Inc/stm32l4xx_ll_bus.h ****   *         APB1RSTR1    TIM5RST       LL_APB1_GRP1_ReleaseReset\n
1375:../Drivers/STM32L4xx_HAL_Driver/Inc/stm32l4xx_ll_bus.h ****   *         APB1RSTR1    TIM6RST       LL_APB1_GRP1_ReleaseReset\n
1376:../Drivers/STM32L4xx_HAL_Driver/Inc/stm32l4xx_ll_bus.h ****   *         APB1RSTR1    TIM7RST       LL_APB1_GRP1_ReleaseReset\n
1377:../Drivers/STM32L4xx_HAL_Driver/Inc/stm32l4xx_ll_bus.h ****   *         APB1RSTR1    LCDRST        LL_APB1_GRP1_ReleaseReset\n
1378:../Drivers/STM32L4xx_HAL_Driver/Inc/stm32l4xx_ll_bus.h ****   *         APB1RSTR1    SPI2RST       LL_APB1_GRP1_ReleaseReset\n
1379:../Drivers/STM32L4xx_HAL_Driver/Inc/stm32l4xx_ll_bus.h ****   *         APB1RSTR1    SPI3RST       LL_APB1_GRP1_ReleaseReset\n
1380:../Drivers/STM32L4xx_HAL_Driver/Inc/stm32l4xx_ll_bus.h ****   *         APB1RSTR1    USART2RST     LL_APB1_GRP1_ReleaseReset\n
ARM GAS  /tmp/ccAPcP1Z.s 			page 42


1381:../Drivers/STM32L4xx_HAL_Driver/Inc/stm32l4xx_ll_bus.h ****   *         APB1RSTR1    USART3RST     LL_APB1_GRP1_ReleaseReset\n
1382:../Drivers/STM32L4xx_HAL_Driver/Inc/stm32l4xx_ll_bus.h ****   *         APB1RSTR1    UART4RST      LL_APB1_GRP1_ReleaseReset\n
1383:../Drivers/STM32L4xx_HAL_Driver/Inc/stm32l4xx_ll_bus.h ****   *         APB1RSTR1    UART5RST      LL_APB1_GRP1_ReleaseReset\n
1384:../Drivers/STM32L4xx_HAL_Driver/Inc/stm32l4xx_ll_bus.h ****   *         APB1RSTR1    I2C1RST       LL_APB1_GRP1_ReleaseReset\n
1385:../Drivers/STM32L4xx_HAL_Driver/Inc/stm32l4xx_ll_bus.h ****   *         APB1RSTR1    I2C2RST       LL_APB1_GRP1_ReleaseReset\n
1386:../Drivers/STM32L4xx_HAL_Driver/Inc/stm32l4xx_ll_bus.h ****   *         APB1RSTR1    I2C3RST       LL_APB1_GRP1_ReleaseReset\n
1387:../Drivers/STM32L4xx_HAL_Driver/Inc/stm32l4xx_ll_bus.h ****   *         APB1RSTR1    CRSRST        LL_APB1_GRP1_ReleaseReset\n
1388:../Drivers/STM32L4xx_HAL_Driver/Inc/stm32l4xx_ll_bus.h ****   *         APB1RSTR1    CAN1RST       LL_APB1_GRP1_ReleaseReset\n
1389:../Drivers/STM32L4xx_HAL_Driver/Inc/stm32l4xx_ll_bus.h ****   *         APB1RSTR1    USBFSRST      LL_APB1_GRP1_ReleaseReset\n
1390:../Drivers/STM32L4xx_HAL_Driver/Inc/stm32l4xx_ll_bus.h ****   *         APB1RSTR1    CAN2RST       LL_APB1_GRP1_ReleaseReset\n
1391:../Drivers/STM32L4xx_HAL_Driver/Inc/stm32l4xx_ll_bus.h ****   *         APB1RSTR1    PWRRST        LL_APB1_GRP1_ReleaseReset\n
1392:../Drivers/STM32L4xx_HAL_Driver/Inc/stm32l4xx_ll_bus.h ****   *         APB1RSTR1    DAC1RST       LL_APB1_GRP1_ReleaseReset\n
1393:../Drivers/STM32L4xx_HAL_Driver/Inc/stm32l4xx_ll_bus.h ****   *         APB1RSTR1    OPAMPRST      LL_APB1_GRP1_ReleaseReset\n
1394:../Drivers/STM32L4xx_HAL_Driver/Inc/stm32l4xx_ll_bus.h ****   *         APB1RSTR1    LPTIM1RST     LL_APB1_GRP1_ReleaseReset
1395:../Drivers/STM32L4xx_HAL_Driver/Inc/stm32l4xx_ll_bus.h ****   * @param  Periphs This parameter can be a combination of the following values:
1396:../Drivers/STM32L4xx_HAL_Driver/Inc/stm32l4xx_ll_bus.h ****   *         @arg @ref LL_APB1_GRP1_PERIPH_ALL
1397:../Drivers/STM32L4xx_HAL_Driver/Inc/stm32l4xx_ll_bus.h ****   *         @arg @ref LL_APB1_GRP1_PERIPH_TIM2
1398:../Drivers/STM32L4xx_HAL_Driver/Inc/stm32l4xx_ll_bus.h ****   *         @arg @ref LL_APB1_GRP1_PERIPH_TIM3 (*)
1399:../Drivers/STM32L4xx_HAL_Driver/Inc/stm32l4xx_ll_bus.h ****   *         @arg @ref LL_APB1_GRP1_PERIPH_TIM4 (*)
1400:../Drivers/STM32L4xx_HAL_Driver/Inc/stm32l4xx_ll_bus.h ****   *         @arg @ref LL_APB1_GRP1_PERIPH_TIM5 (*)
1401:../Drivers/STM32L4xx_HAL_Driver/Inc/stm32l4xx_ll_bus.h ****   *         @arg @ref LL_APB1_GRP1_PERIPH_TIM6
1402:../Drivers/STM32L4xx_HAL_Driver/Inc/stm32l4xx_ll_bus.h ****   *         @arg @ref LL_APB1_GRP1_PERIPH_TIM7
1403:../Drivers/STM32L4xx_HAL_Driver/Inc/stm32l4xx_ll_bus.h ****   *         @arg @ref LL_APB1_GRP1_PERIPH_LCD (*)
1404:../Drivers/STM32L4xx_HAL_Driver/Inc/stm32l4xx_ll_bus.h ****   *         @arg @ref LL_APB1_GRP1_PERIPH_SPI2 (*)
1405:../Drivers/STM32L4xx_HAL_Driver/Inc/stm32l4xx_ll_bus.h ****   *         @arg @ref LL_APB1_GRP1_PERIPH_SPI3
1406:../Drivers/STM32L4xx_HAL_Driver/Inc/stm32l4xx_ll_bus.h ****   *         @arg @ref LL_APB1_GRP1_PERIPH_USART2
1407:../Drivers/STM32L4xx_HAL_Driver/Inc/stm32l4xx_ll_bus.h ****   *         @arg @ref LL_APB1_GRP1_PERIPH_USART3 (*)
1408:../Drivers/STM32L4xx_HAL_Driver/Inc/stm32l4xx_ll_bus.h ****   *         @arg @ref LL_APB1_GRP1_PERIPH_UART4 (*)
1409:../Drivers/STM32L4xx_HAL_Driver/Inc/stm32l4xx_ll_bus.h ****   *         @arg @ref LL_APB1_GRP1_PERIPH_UART5 (*)
1410:../Drivers/STM32L4xx_HAL_Driver/Inc/stm32l4xx_ll_bus.h ****   *         @arg @ref LL_APB1_GRP1_PERIPH_I2C1
1411:../Drivers/STM32L4xx_HAL_Driver/Inc/stm32l4xx_ll_bus.h ****   *         @arg @ref LL_APB1_GRP1_PERIPH_I2C2 (*)
1412:../Drivers/STM32L4xx_HAL_Driver/Inc/stm32l4xx_ll_bus.h ****   *         @arg @ref LL_APB1_GRP1_PERIPH_I2C3
1413:../Drivers/STM32L4xx_HAL_Driver/Inc/stm32l4xx_ll_bus.h ****   *         @arg @ref LL_APB1_GRP1_PERIPH_CRS (*)
1414:../Drivers/STM32L4xx_HAL_Driver/Inc/stm32l4xx_ll_bus.h ****   *         @arg @ref LL_APB1_GRP1_PERIPH_CAN1
1415:../Drivers/STM32L4xx_HAL_Driver/Inc/stm32l4xx_ll_bus.h ****   *         @arg @ref LL_APB1_GRP1_PERIPH_CAN2 (*)
1416:../Drivers/STM32L4xx_HAL_Driver/Inc/stm32l4xx_ll_bus.h ****   *         @arg @ref LL_APB1_GRP1_PERIPH_USB (*)
1417:../Drivers/STM32L4xx_HAL_Driver/Inc/stm32l4xx_ll_bus.h ****   *         @arg @ref LL_APB1_GRP1_PERIPH_PWR
1418:../Drivers/STM32L4xx_HAL_Driver/Inc/stm32l4xx_ll_bus.h ****   *         @arg @ref LL_APB1_GRP1_PERIPH_DAC1
1419:../Drivers/STM32L4xx_HAL_Driver/Inc/stm32l4xx_ll_bus.h ****   *         @arg @ref LL_APB1_GRP1_PERIPH_OPAMP
1420:../Drivers/STM32L4xx_HAL_Driver/Inc/stm32l4xx_ll_bus.h ****   *         @arg @ref LL_APB1_GRP1_PERIPH_LPTIM1
1421:../Drivers/STM32L4xx_HAL_Driver/Inc/stm32l4xx_ll_bus.h ****   *
1422:../Drivers/STM32L4xx_HAL_Driver/Inc/stm32l4xx_ll_bus.h ****   *         (*) value not defined in all devices.
1423:../Drivers/STM32L4xx_HAL_Driver/Inc/stm32l4xx_ll_bus.h ****   * @retval None
1424:../Drivers/STM32L4xx_HAL_Driver/Inc/stm32l4xx_ll_bus.h **** */
1425:../Drivers/STM32L4xx_HAL_Driver/Inc/stm32l4xx_ll_bus.h **** __STATIC_INLINE void LL_APB1_GRP1_ReleaseReset(uint32_t Periphs)
1426:../Drivers/STM32L4xx_HAL_Driver/Inc/stm32l4xx_ll_bus.h **** {
 187              		.loc 2 1426 1
 188              		.cfi_startproc
 189              		@ args = 0, pretend = 0, frame = 8
 190              		@ frame_needed = 1, uses_anonymous_args = 0
 191              		@ link register save eliminated.
 192 0000 80B4     		push	{r7}
 193              	.LCFI18:
 194              		.cfi_def_cfa_offset 4
 195              		.cfi_offset 7, -4
 196 0002 83B0     		sub	sp, sp, #12
 197              	.LCFI19:
ARM GAS  /tmp/ccAPcP1Z.s 			page 43


 198              		.cfi_def_cfa_offset 16
 199 0004 00AF     		add	r7, sp, #0
 200              	.LCFI20:
 201              		.cfi_def_cfa_register 7
 202 0006 7860     		str	r0, [r7, #4]
1427:../Drivers/STM32L4xx_HAL_Driver/Inc/stm32l4xx_ll_bus.h ****   CLEAR_BIT(RCC->APB1RSTR1, Periphs);
 203              		.loc 2 1427 3
 204 0008 064B     		ldr	r3, .L10
 205 000a 9A6B     		ldr	r2, [r3, #56]
 206 000c 7B68     		ldr	r3, [r7, #4]
 207 000e DB43     		mvns	r3, r3
 208 0010 0449     		ldr	r1, .L10
 209 0012 1340     		ands	r3, r3, r2
 210 0014 8B63     		str	r3, [r1, #56]
1428:../Drivers/STM32L4xx_HAL_Driver/Inc/stm32l4xx_ll_bus.h **** }
 211              		.loc 2 1428 1
 212 0016 00BF     		nop
 213 0018 0C37     		adds	r7, r7, #12
 214              	.LCFI21:
 215              		.cfi_def_cfa_offset 4
 216 001a BD46     		mov	sp, r7
 217              	.LCFI22:
 218              		.cfi_def_cfa_register 13
 219              		@ sp needed
 220 001c 5DF8047B 		ldr	r7, [sp], #4
 221              	.LCFI23:
 222              		.cfi_restore 7
 223              		.cfi_def_cfa_offset 0
 224 0020 7047     		bx	lr
 225              	.L11:
 226 0022 00BF     		.align	2
 227              	.L10:
 228 0024 00100240 		.word	1073876992
 229              		.cfi_endproc
 230              	.LFE415:
 232              		.section	.text.LL_APB2_GRP1_ForceReset,"ax",%progbits
 233              		.align	1
 234              		.syntax unified
 235              		.thumb
 236              		.thumb_func
 237              		.fpu fpv4-sp-d16
 239              	LL_APB2_GRP1_ForceReset:
 240              	.LFB424:
1429:../Drivers/STM32L4xx_HAL_Driver/Inc/stm32l4xx_ll_bus.h **** 
1430:../Drivers/STM32L4xx_HAL_Driver/Inc/stm32l4xx_ll_bus.h **** /**
1431:../Drivers/STM32L4xx_HAL_Driver/Inc/stm32l4xx_ll_bus.h ****   * @brief  Release APB1 peripherals reset.
1432:../Drivers/STM32L4xx_HAL_Driver/Inc/stm32l4xx_ll_bus.h ****   * @rmtoll APB1RSTR2    LPUART1RST    LL_APB1_GRP2_ReleaseReset\n
1433:../Drivers/STM32L4xx_HAL_Driver/Inc/stm32l4xx_ll_bus.h ****   *         APB1RSTR2    I2C4RST       LL_APB1_GRP2_ReleaseReset\n
1434:../Drivers/STM32L4xx_HAL_Driver/Inc/stm32l4xx_ll_bus.h ****   *         APB1RSTR2    SWPMI1RST     LL_APB1_GRP2_ReleaseReset\n
1435:../Drivers/STM32L4xx_HAL_Driver/Inc/stm32l4xx_ll_bus.h ****   *         APB1RSTR2    LPTIM2RST     LL_APB1_GRP2_ReleaseReset
1436:../Drivers/STM32L4xx_HAL_Driver/Inc/stm32l4xx_ll_bus.h ****   * @param  Periphs This parameter can be a combination of the following values:
1437:../Drivers/STM32L4xx_HAL_Driver/Inc/stm32l4xx_ll_bus.h ****   *         @arg @ref LL_APB1_GRP2_PERIPH_ALL
1438:../Drivers/STM32L4xx_HAL_Driver/Inc/stm32l4xx_ll_bus.h ****   *         @arg @ref LL_APB1_GRP2_PERIPH_LPUART1
1439:../Drivers/STM32L4xx_HAL_Driver/Inc/stm32l4xx_ll_bus.h ****   *         @arg @ref LL_APB1_GRP2_PERIPH_I2C4 (*)
1440:../Drivers/STM32L4xx_HAL_Driver/Inc/stm32l4xx_ll_bus.h ****   *         @arg @ref LL_APB1_GRP2_PERIPH_SWPMI1 (*)
1441:../Drivers/STM32L4xx_HAL_Driver/Inc/stm32l4xx_ll_bus.h ****   *         @arg @ref LL_APB1_GRP2_PERIPH_LPTIM2
1442:../Drivers/STM32L4xx_HAL_Driver/Inc/stm32l4xx_ll_bus.h ****   *
ARM GAS  /tmp/ccAPcP1Z.s 			page 44


1443:../Drivers/STM32L4xx_HAL_Driver/Inc/stm32l4xx_ll_bus.h ****   *         (*) value not defined in all devices.
1444:../Drivers/STM32L4xx_HAL_Driver/Inc/stm32l4xx_ll_bus.h ****   * @retval None
1445:../Drivers/STM32L4xx_HAL_Driver/Inc/stm32l4xx_ll_bus.h **** */
1446:../Drivers/STM32L4xx_HAL_Driver/Inc/stm32l4xx_ll_bus.h **** __STATIC_INLINE void LL_APB1_GRP2_ReleaseReset(uint32_t Periphs)
1447:../Drivers/STM32L4xx_HAL_Driver/Inc/stm32l4xx_ll_bus.h **** {
1448:../Drivers/STM32L4xx_HAL_Driver/Inc/stm32l4xx_ll_bus.h ****   CLEAR_BIT(RCC->APB1RSTR2, Periphs);
1449:../Drivers/STM32L4xx_HAL_Driver/Inc/stm32l4xx_ll_bus.h **** }
1450:../Drivers/STM32L4xx_HAL_Driver/Inc/stm32l4xx_ll_bus.h **** 
1451:../Drivers/STM32L4xx_HAL_Driver/Inc/stm32l4xx_ll_bus.h **** /**
1452:../Drivers/STM32L4xx_HAL_Driver/Inc/stm32l4xx_ll_bus.h ****   * @brief  Enable APB1 peripheral clocks in Sleep and Stop modes
1453:../Drivers/STM32L4xx_HAL_Driver/Inc/stm32l4xx_ll_bus.h ****   * @rmtoll APB1SMENR1   TIM2SMEN      LL_APB1_GRP1_EnableClockStopSleep\n
1454:../Drivers/STM32L4xx_HAL_Driver/Inc/stm32l4xx_ll_bus.h ****   *         APB1SMENR1   TIM3SMEN      LL_APB1_GRP1_EnableClockStopSleep\n
1455:../Drivers/STM32L4xx_HAL_Driver/Inc/stm32l4xx_ll_bus.h ****   *         APB1SMENR1   TIM4SMEN      LL_APB1_GRP1_EnableClockStopSleep\n
1456:../Drivers/STM32L4xx_HAL_Driver/Inc/stm32l4xx_ll_bus.h ****   *         APB1SMENR1   TIM5SMEN      LL_APB1_GRP1_EnableClockStopSleep\n
1457:../Drivers/STM32L4xx_HAL_Driver/Inc/stm32l4xx_ll_bus.h ****   *         APB1SMENR1   TIM6SMEN      LL_APB1_GRP1_EnableClockStopSleep\n
1458:../Drivers/STM32L4xx_HAL_Driver/Inc/stm32l4xx_ll_bus.h ****   *         APB1SMENR1   TIM7SMEN      LL_APB1_GRP1_EnableClockStopSleep\n
1459:../Drivers/STM32L4xx_HAL_Driver/Inc/stm32l4xx_ll_bus.h ****   *         APB1SMENR1   LCDSMEN       LL_APB1_GRP1_EnableClockStopSleep\n
1460:../Drivers/STM32L4xx_HAL_Driver/Inc/stm32l4xx_ll_bus.h ****   *         APB1SMENR1   RTCAPBSMEN    LL_APB1_GRP1_EnableClockStopSleep\n
1461:../Drivers/STM32L4xx_HAL_Driver/Inc/stm32l4xx_ll_bus.h ****   *         APB1SMENR1   WWDGSMEN      LL_APB1_GRP1_EnableClockStopSleep\n
1462:../Drivers/STM32L4xx_HAL_Driver/Inc/stm32l4xx_ll_bus.h ****   *         APB1SMENR1   SPI2SMEN      LL_APB1_GRP1_EnableClockStopSleep\n
1463:../Drivers/STM32L4xx_HAL_Driver/Inc/stm32l4xx_ll_bus.h ****   *         APB1SMENR1   SPI3SMEN      LL_APB1_GRP1_EnableClockStopSleep\n
1464:../Drivers/STM32L4xx_HAL_Driver/Inc/stm32l4xx_ll_bus.h ****   *         APB1SMENR1   USART2SMEN    LL_APB1_GRP1_EnableClockStopSleep\n
1465:../Drivers/STM32L4xx_HAL_Driver/Inc/stm32l4xx_ll_bus.h ****   *         APB1SMENR1   USART3SMEN    LL_APB1_GRP1_EnableClockStopSleep\n
1466:../Drivers/STM32L4xx_HAL_Driver/Inc/stm32l4xx_ll_bus.h ****   *         APB1SMENR1   UART4SMEN     LL_APB1_GRP1_EnableClockStopSleep\n
