ARM GAS  /tmp/cc5oboQK.s 			page 1


   1              		.cpu cortex-m4
   2              		.eabi_attribute 27, 1
   3              		.eabi_attribute 28, 1
   4              		.eabi_attribute 20, 1
   5              		.eabi_attribute 21, 1
   6              		.eabi_attribute 23, 3
   7              		.eabi_attribute 24, 1
   8              		.eabi_attribute 25, 1
   9              		.eabi_attribute 26, 1
  10              		.eabi_attribute 30, 6
  11              		.eabi_attribute 34, 1
  12              		.eabi_attribute 18, 4
  13              		.file	"stm32l4xx_ll_rtc.c"
  14              		.text
  15              	.Ltext0:
  16              		.cfi_sections	.debug_frame
  17              		.section	.text.LL_RTC_SetHourFormat,"ax",%progbits
  18              		.align	1
  19              		.arch armv7e-m
  20              		.syntax unified
  21              		.thumb
  22              		.thumb_func
  23              		.fpu fpv4-sp-d16
  25              	LL_RTC_SetHourFormat:
  26              	.LFB313:
  27              		.file 1 "../Drivers/STM32L4xx_HAL_Driver/Inc/stm32l4xx_ll_rtc.h"
   1:../Drivers/STM32L4xx_HAL_Driver/Inc/stm32l4xx_ll_rtc.h **** /**
   2:../Drivers/STM32L4xx_HAL_Driver/Inc/stm32l4xx_ll_rtc.h ****   ******************************************************************************
   3:../Drivers/STM32L4xx_HAL_Driver/Inc/stm32l4xx_ll_rtc.h ****   * @file    stm32l4xx_ll_rtc.h
   4:../Drivers/STM32L4xx_HAL_Driver/Inc/stm32l4xx_ll_rtc.h ****   * @author  MCD Application Team
   5:../Drivers/STM32L4xx_HAL_Driver/Inc/stm32l4xx_ll_rtc.h ****   * @brief   Header file of RTC LL module.
   6:../Drivers/STM32L4xx_HAL_Driver/Inc/stm32l4xx_ll_rtc.h ****   ******************************************************************************
   7:../Drivers/STM32L4xx_HAL_Driver/Inc/stm32l4xx_ll_rtc.h ****   * @attention
   8:../Drivers/STM32L4xx_HAL_Driver/Inc/stm32l4xx_ll_rtc.h ****   *
   9:../Drivers/STM32L4xx_HAL_Driver/Inc/stm32l4xx_ll_rtc.h ****   * <h2><center>&copy; Copyright (c) 2017 STMicroelectronics.
  10:../Drivers/STM32L4xx_HAL_Driver/Inc/stm32l4xx_ll_rtc.h ****   * All rights reserved.</center></h2>
  11:../Drivers/STM32L4xx_HAL_Driver/Inc/stm32l4xx_ll_rtc.h ****   *
  12:../Drivers/STM32L4xx_HAL_Driver/Inc/stm32l4xx_ll_rtc.h ****   * This software component is licensed by ST under BSD 3-Clause license,
  13:../Drivers/STM32L4xx_HAL_Driver/Inc/stm32l4xx_ll_rtc.h ****   * the "License"; You may not use this file except in compliance with the
  14:../Drivers/STM32L4xx_HAL_Driver/Inc/stm32l4xx_ll_rtc.h ****   * License. You may obtain a copy of the License at:
  15:../Drivers/STM32L4xx_HAL_Driver/Inc/stm32l4xx_ll_rtc.h ****   *                        opensource.org/licenses/BSD-3-Clause
  16:../Drivers/STM32L4xx_HAL_Driver/Inc/stm32l4xx_ll_rtc.h ****   *
  17:../Drivers/STM32L4xx_HAL_Driver/Inc/stm32l4xx_ll_rtc.h ****   ******************************************************************************
  18:../Drivers/STM32L4xx_HAL_Driver/Inc/stm32l4xx_ll_rtc.h ****   */
  19:../Drivers/STM32L4xx_HAL_Driver/Inc/stm32l4xx_ll_rtc.h **** 
  20:../Drivers/STM32L4xx_HAL_Driver/Inc/stm32l4xx_ll_rtc.h **** /* Define to prevent recursive inclusion -------------------------------------*/
  21:../Drivers/STM32L4xx_HAL_Driver/Inc/stm32l4xx_ll_rtc.h **** #ifndef STM32L4xx_LL_RTC_H
  22:../Drivers/STM32L4xx_HAL_Driver/Inc/stm32l4xx_ll_rtc.h **** #define STM32L4xx_LL_RTC_H
  23:../Drivers/STM32L4xx_HAL_Driver/Inc/stm32l4xx_ll_rtc.h **** 
  24:../Drivers/STM32L4xx_HAL_Driver/Inc/stm32l4xx_ll_rtc.h **** #ifdef __cplusplus
  25:../Drivers/STM32L4xx_HAL_Driver/Inc/stm32l4xx_ll_rtc.h **** extern "C" {
  26:../Drivers/STM32L4xx_HAL_Driver/Inc/stm32l4xx_ll_rtc.h **** #endif
  27:../Drivers/STM32L4xx_HAL_Driver/Inc/stm32l4xx_ll_rtc.h **** 
  28:../Drivers/STM32L4xx_HAL_Driver/Inc/stm32l4xx_ll_rtc.h **** /* Includes ------------------------------------------------------------------*/
  29:../Drivers/STM32L4xx_HAL_Driver/Inc/stm32l4xx_ll_rtc.h **** #include "stm32l4xx.h"
  30:../Drivers/STM32L4xx_HAL_Driver/Inc/stm32l4xx_ll_rtc.h **** 
  31:../Drivers/STM32L4xx_HAL_Driver/Inc/stm32l4xx_ll_rtc.h **** /** @addtogroup STM32L4xx_LL_Driver
ARM GAS  /tmp/cc5oboQK.s 			page 2


  32:../Drivers/STM32L4xx_HAL_Driver/Inc/stm32l4xx_ll_rtc.h ****   * @{
  33:../Drivers/STM32L4xx_HAL_Driver/Inc/stm32l4xx_ll_rtc.h ****   */
  34:../Drivers/STM32L4xx_HAL_Driver/Inc/stm32l4xx_ll_rtc.h **** 
  35:../Drivers/STM32L4xx_HAL_Driver/Inc/stm32l4xx_ll_rtc.h **** #if defined(RTC)
  36:../Drivers/STM32L4xx_HAL_Driver/Inc/stm32l4xx_ll_rtc.h **** 
  37:../Drivers/STM32L4xx_HAL_Driver/Inc/stm32l4xx_ll_rtc.h **** /** @defgroup RTC_LL RTC
  38:../Drivers/STM32L4xx_HAL_Driver/Inc/stm32l4xx_ll_rtc.h ****   * @{
  39:../Drivers/STM32L4xx_HAL_Driver/Inc/stm32l4xx_ll_rtc.h ****   */
  40:../Drivers/STM32L4xx_HAL_Driver/Inc/stm32l4xx_ll_rtc.h **** 
  41:../Drivers/STM32L4xx_HAL_Driver/Inc/stm32l4xx_ll_rtc.h **** /* Private types -------------------------------------------------------------*/
  42:../Drivers/STM32L4xx_HAL_Driver/Inc/stm32l4xx_ll_rtc.h **** /* Private variables ---------------------------------------------------------*/
  43:../Drivers/STM32L4xx_HAL_Driver/Inc/stm32l4xx_ll_rtc.h **** /* Private constants ---------------------------------------------------------*/
  44:../Drivers/STM32L4xx_HAL_Driver/Inc/stm32l4xx_ll_rtc.h **** /** @defgroup RTC_LL_Private_Constants RTC Private Constants
  45:../Drivers/STM32L4xx_HAL_Driver/Inc/stm32l4xx_ll_rtc.h ****   * @{
  46:../Drivers/STM32L4xx_HAL_Driver/Inc/stm32l4xx_ll_rtc.h ****   */
  47:../Drivers/STM32L4xx_HAL_Driver/Inc/stm32l4xx_ll_rtc.h **** /* Masks Definition */
  48:../Drivers/STM32L4xx_HAL_Driver/Inc/stm32l4xx_ll_rtc.h **** #define RTC_LL_INIT_MASK              0xFFFFFFFFU
  49:../Drivers/STM32L4xx_HAL_Driver/Inc/stm32l4xx_ll_rtc.h **** #define RTC_LL_RSF_MASK               0xFFFFFF5FU
  50:../Drivers/STM32L4xx_HAL_Driver/Inc/stm32l4xx_ll_rtc.h **** 
  51:../Drivers/STM32L4xx_HAL_Driver/Inc/stm32l4xx_ll_rtc.h **** /* Write protection defines */
  52:../Drivers/STM32L4xx_HAL_Driver/Inc/stm32l4xx_ll_rtc.h **** #define RTC_WRITE_PROTECTION_DISABLE  0xFFU
  53:../Drivers/STM32L4xx_HAL_Driver/Inc/stm32l4xx_ll_rtc.h **** #define RTC_WRITE_PROTECTION_ENABLE_1 0xCAU
  54:../Drivers/STM32L4xx_HAL_Driver/Inc/stm32l4xx_ll_rtc.h **** #define RTC_WRITE_PROTECTION_ENABLE_2 0x53U
  55:../Drivers/STM32L4xx_HAL_Driver/Inc/stm32l4xx_ll_rtc.h **** 
  56:../Drivers/STM32L4xx_HAL_Driver/Inc/stm32l4xx_ll_rtc.h **** /* Defines used to combine date & time */
  57:../Drivers/STM32L4xx_HAL_Driver/Inc/stm32l4xx_ll_rtc.h **** #define RTC_OFFSET_WEEKDAY            24U
  58:../Drivers/STM32L4xx_HAL_Driver/Inc/stm32l4xx_ll_rtc.h **** #define RTC_OFFSET_DAY                16U
  59:../Drivers/STM32L4xx_HAL_Driver/Inc/stm32l4xx_ll_rtc.h **** #define RTC_OFFSET_MONTH              8U
  60:../Drivers/STM32L4xx_HAL_Driver/Inc/stm32l4xx_ll_rtc.h **** #define RTC_OFFSET_HOUR               16U
  61:../Drivers/STM32L4xx_HAL_Driver/Inc/stm32l4xx_ll_rtc.h **** #define RTC_OFFSET_MINUTE             8U
  62:../Drivers/STM32L4xx_HAL_Driver/Inc/stm32l4xx_ll_rtc.h **** 
  63:../Drivers/STM32L4xx_HAL_Driver/Inc/stm32l4xx_ll_rtc.h **** /**
  64:../Drivers/STM32L4xx_HAL_Driver/Inc/stm32l4xx_ll_rtc.h ****   * @}
  65:../Drivers/STM32L4xx_HAL_Driver/Inc/stm32l4xx_ll_rtc.h ****   */
  66:../Drivers/STM32L4xx_HAL_Driver/Inc/stm32l4xx_ll_rtc.h **** 
  67:../Drivers/STM32L4xx_HAL_Driver/Inc/stm32l4xx_ll_rtc.h **** /* Private macros ------------------------------------------------------------*/
  68:../Drivers/STM32L4xx_HAL_Driver/Inc/stm32l4xx_ll_rtc.h **** #if defined(USE_FULL_LL_DRIVER)
  69:../Drivers/STM32L4xx_HAL_Driver/Inc/stm32l4xx_ll_rtc.h **** /** @defgroup RTC_LL_Private_Macros RTC Private Macros
  70:../Drivers/STM32L4xx_HAL_Driver/Inc/stm32l4xx_ll_rtc.h ****   * @{
  71:../Drivers/STM32L4xx_HAL_Driver/Inc/stm32l4xx_ll_rtc.h ****   */
  72:../Drivers/STM32L4xx_HAL_Driver/Inc/stm32l4xx_ll_rtc.h **** /**
  73:../Drivers/STM32L4xx_HAL_Driver/Inc/stm32l4xx_ll_rtc.h ****   * @}
  74:../Drivers/STM32L4xx_HAL_Driver/Inc/stm32l4xx_ll_rtc.h ****   */
  75:../Drivers/STM32L4xx_HAL_Driver/Inc/stm32l4xx_ll_rtc.h **** #endif /*USE_FULL_LL_DRIVER*/
  76:../Drivers/STM32L4xx_HAL_Driver/Inc/stm32l4xx_ll_rtc.h **** 
  77:../Drivers/STM32L4xx_HAL_Driver/Inc/stm32l4xx_ll_rtc.h **** /* Exported types ------------------------------------------------------------*/
  78:../Drivers/STM32L4xx_HAL_Driver/Inc/stm32l4xx_ll_rtc.h **** #if defined(USE_FULL_LL_DRIVER)
  79:../Drivers/STM32L4xx_HAL_Driver/Inc/stm32l4xx_ll_rtc.h **** /** @defgroup RTC_LL_ES_INIT RTC Exported Init structure
  80:../Drivers/STM32L4xx_HAL_Driver/Inc/stm32l4xx_ll_rtc.h ****   * @{
  81:../Drivers/STM32L4xx_HAL_Driver/Inc/stm32l4xx_ll_rtc.h ****   */
  82:../Drivers/STM32L4xx_HAL_Driver/Inc/stm32l4xx_ll_rtc.h **** 
  83:../Drivers/STM32L4xx_HAL_Driver/Inc/stm32l4xx_ll_rtc.h **** /**
  84:../Drivers/STM32L4xx_HAL_Driver/Inc/stm32l4xx_ll_rtc.h ****   * @brief  RTC Init structures definition
  85:../Drivers/STM32L4xx_HAL_Driver/Inc/stm32l4xx_ll_rtc.h ****   */
  86:../Drivers/STM32L4xx_HAL_Driver/Inc/stm32l4xx_ll_rtc.h **** typedef struct
  87:../Drivers/STM32L4xx_HAL_Driver/Inc/stm32l4xx_ll_rtc.h **** {
  88:../Drivers/STM32L4xx_HAL_Driver/Inc/stm32l4xx_ll_rtc.h ****   uint32_t HourFormat;   /*!< Specifies the RTC Hours Format.
ARM GAS  /tmp/cc5oboQK.s 			page 3


  89:../Drivers/STM32L4xx_HAL_Driver/Inc/stm32l4xx_ll_rtc.h ****                               This parameter can be a value of @ref RTC_LL_EC_HOURFORMAT
  90:../Drivers/STM32L4xx_HAL_Driver/Inc/stm32l4xx_ll_rtc.h **** 
  91:../Drivers/STM32L4xx_HAL_Driver/Inc/stm32l4xx_ll_rtc.h ****                               This feature can be modified afterwards using unitary function
  92:../Drivers/STM32L4xx_HAL_Driver/Inc/stm32l4xx_ll_rtc.h ****                               @ref LL_RTC_SetHourFormat(). */
  93:../Drivers/STM32L4xx_HAL_Driver/Inc/stm32l4xx_ll_rtc.h **** 
  94:../Drivers/STM32L4xx_HAL_Driver/Inc/stm32l4xx_ll_rtc.h ****   uint32_t AsynchPrescaler; /*!< Specifies the RTC Asynchronous Predivider value.
  95:../Drivers/STM32L4xx_HAL_Driver/Inc/stm32l4xx_ll_rtc.h ****                               This parameter must be a number between Min_Data = 0x00 and Max_Data 
  96:../Drivers/STM32L4xx_HAL_Driver/Inc/stm32l4xx_ll_rtc.h **** 
  97:../Drivers/STM32L4xx_HAL_Driver/Inc/stm32l4xx_ll_rtc.h ****                               This feature can be modified afterwards using unitary function
  98:../Drivers/STM32L4xx_HAL_Driver/Inc/stm32l4xx_ll_rtc.h ****                               @ref LL_RTC_SetAsynchPrescaler(). */
  99:../Drivers/STM32L4xx_HAL_Driver/Inc/stm32l4xx_ll_rtc.h **** 
 100:../Drivers/STM32L4xx_HAL_Driver/Inc/stm32l4xx_ll_rtc.h ****   uint32_t SynchPrescaler;  /*!< Specifies the RTC Synchronous Predivider value.
 101:../Drivers/STM32L4xx_HAL_Driver/Inc/stm32l4xx_ll_rtc.h ****                               This parameter must be a number between Min_Data = 0x00 and Max_Data 
 102:../Drivers/STM32L4xx_HAL_Driver/Inc/stm32l4xx_ll_rtc.h **** 
 103:../Drivers/STM32L4xx_HAL_Driver/Inc/stm32l4xx_ll_rtc.h ****                               This feature can be modified afterwards using unitary function
 104:../Drivers/STM32L4xx_HAL_Driver/Inc/stm32l4xx_ll_rtc.h ****                               @ref LL_RTC_SetSynchPrescaler(). */
 105:../Drivers/STM32L4xx_HAL_Driver/Inc/stm32l4xx_ll_rtc.h **** } LL_RTC_InitTypeDef;
 106:../Drivers/STM32L4xx_HAL_Driver/Inc/stm32l4xx_ll_rtc.h **** 
 107:../Drivers/STM32L4xx_HAL_Driver/Inc/stm32l4xx_ll_rtc.h **** /**
 108:../Drivers/STM32L4xx_HAL_Driver/Inc/stm32l4xx_ll_rtc.h ****   * @brief  RTC Time structure definition
 109:../Drivers/STM32L4xx_HAL_Driver/Inc/stm32l4xx_ll_rtc.h ****   */
 110:../Drivers/STM32L4xx_HAL_Driver/Inc/stm32l4xx_ll_rtc.h **** typedef struct
 111:../Drivers/STM32L4xx_HAL_Driver/Inc/stm32l4xx_ll_rtc.h **** {
 112:../Drivers/STM32L4xx_HAL_Driver/Inc/stm32l4xx_ll_rtc.h ****   uint32_t TimeFormat; /*!< Specifies the RTC AM/PM Time.
 113:../Drivers/STM32L4xx_HAL_Driver/Inc/stm32l4xx_ll_rtc.h ****                             This parameter can be a value of @ref RTC_LL_EC_TIME_FORMAT
 114:../Drivers/STM32L4xx_HAL_Driver/Inc/stm32l4xx_ll_rtc.h **** 
 115:../Drivers/STM32L4xx_HAL_Driver/Inc/stm32l4xx_ll_rtc.h ****                             This feature can be modified afterwards using unitary function @ref LL_
 116:../Drivers/STM32L4xx_HAL_Driver/Inc/stm32l4xx_ll_rtc.h **** 
 117:../Drivers/STM32L4xx_HAL_Driver/Inc/stm32l4xx_ll_rtc.h ****   uint8_t Hours;       /*!< Specifies the RTC Time Hours.
 118:../Drivers/STM32L4xx_HAL_Driver/Inc/stm32l4xx_ll_rtc.h ****                             This parameter must be a number between Min_Data = 0 and Max_Data = 12 
 119:../Drivers/STM32L4xx_HAL_Driver/Inc/stm32l4xx_ll_rtc.h ****                             This parameter must be a number between Min_Data = 0 and Max_Data = 23 
 120:../Drivers/STM32L4xx_HAL_Driver/Inc/stm32l4xx_ll_rtc.h **** 
 121:../Drivers/STM32L4xx_HAL_Driver/Inc/stm32l4xx_ll_rtc.h ****                             This feature can be modified afterwards using unitary function @ref LL_
 122:../Drivers/STM32L4xx_HAL_Driver/Inc/stm32l4xx_ll_rtc.h **** 
 123:../Drivers/STM32L4xx_HAL_Driver/Inc/stm32l4xx_ll_rtc.h ****   uint8_t Minutes;     /*!< Specifies the RTC Time Minutes.
 124:../Drivers/STM32L4xx_HAL_Driver/Inc/stm32l4xx_ll_rtc.h ****                             This parameter must be a number between Min_Data = 0 and Max_Data = 59
 125:../Drivers/STM32L4xx_HAL_Driver/Inc/stm32l4xx_ll_rtc.h **** 
 126:../Drivers/STM32L4xx_HAL_Driver/Inc/stm32l4xx_ll_rtc.h ****                             This feature can be modified afterwards using unitary function @ref LL_
 127:../Drivers/STM32L4xx_HAL_Driver/Inc/stm32l4xx_ll_rtc.h **** 
 128:../Drivers/STM32L4xx_HAL_Driver/Inc/stm32l4xx_ll_rtc.h ****   uint8_t Seconds;     /*!< Specifies the RTC Time Seconds.
 129:../Drivers/STM32L4xx_HAL_Driver/Inc/stm32l4xx_ll_rtc.h ****                             This parameter must be a number between Min_Data = 0 and Max_Data = 59
 130:../Drivers/STM32L4xx_HAL_Driver/Inc/stm32l4xx_ll_rtc.h **** 
 131:../Drivers/STM32L4xx_HAL_Driver/Inc/stm32l4xx_ll_rtc.h ****                             This feature can be modified afterwards using unitary function @ref LL_
 132:../Drivers/STM32L4xx_HAL_Driver/Inc/stm32l4xx_ll_rtc.h **** } LL_RTC_TimeTypeDef;
 133:../Drivers/STM32L4xx_HAL_Driver/Inc/stm32l4xx_ll_rtc.h **** 
 134:../Drivers/STM32L4xx_HAL_Driver/Inc/stm32l4xx_ll_rtc.h **** /**
 135:../Drivers/STM32L4xx_HAL_Driver/Inc/stm32l4xx_ll_rtc.h ****   * @brief  RTC Date structure definition
 136:../Drivers/STM32L4xx_HAL_Driver/Inc/stm32l4xx_ll_rtc.h ****   */
 137:../Drivers/STM32L4xx_HAL_Driver/Inc/stm32l4xx_ll_rtc.h **** typedef struct
 138:../Drivers/STM32L4xx_HAL_Driver/Inc/stm32l4xx_ll_rtc.h **** {
 139:../Drivers/STM32L4xx_HAL_Driver/Inc/stm32l4xx_ll_rtc.h ****   uint8_t WeekDay;  /*!< Specifies the RTC Date WeekDay.
 140:../Drivers/STM32L4xx_HAL_Driver/Inc/stm32l4xx_ll_rtc.h ****                          This parameter can be a value of @ref RTC_LL_EC_WEEKDAY
 141:../Drivers/STM32L4xx_HAL_Driver/Inc/stm32l4xx_ll_rtc.h **** 
 142:../Drivers/STM32L4xx_HAL_Driver/Inc/stm32l4xx_ll_rtc.h ****                          This feature can be modified afterwards using unitary function @ref LL_RTC
 143:../Drivers/STM32L4xx_HAL_Driver/Inc/stm32l4xx_ll_rtc.h **** 
 144:../Drivers/STM32L4xx_HAL_Driver/Inc/stm32l4xx_ll_rtc.h ****   uint8_t Month;    /*!< Specifies the RTC Date Month.
 145:../Drivers/STM32L4xx_HAL_Driver/Inc/stm32l4xx_ll_rtc.h ****                          This parameter can be a value of @ref RTC_LL_EC_MONTH
ARM GAS  /tmp/cc5oboQK.s 			page 4


 146:../Drivers/STM32L4xx_HAL_Driver/Inc/stm32l4xx_ll_rtc.h **** 
 147:../Drivers/STM32L4xx_HAL_Driver/Inc/stm32l4xx_ll_rtc.h ****                          This feature can be modified afterwards using unitary function @ref LL_RTC
 148:../Drivers/STM32L4xx_HAL_Driver/Inc/stm32l4xx_ll_rtc.h **** 
 149:../Drivers/STM32L4xx_HAL_Driver/Inc/stm32l4xx_ll_rtc.h ****   uint8_t Day;      /*!< Specifies the RTC Date Day.
 150:../Drivers/STM32L4xx_HAL_Driver/Inc/stm32l4xx_ll_rtc.h ****                          This parameter must be a number between Min_Data = 1 and Max_Data = 31
 151:../Drivers/STM32L4xx_HAL_Driver/Inc/stm32l4xx_ll_rtc.h **** 
 152:../Drivers/STM32L4xx_HAL_Driver/Inc/stm32l4xx_ll_rtc.h ****                          This feature can be modified afterwards using unitary function @ref LL_RTC
 153:../Drivers/STM32L4xx_HAL_Driver/Inc/stm32l4xx_ll_rtc.h **** 
 154:../Drivers/STM32L4xx_HAL_Driver/Inc/stm32l4xx_ll_rtc.h ****   uint8_t Year;     /*!< Specifies the RTC Date Year.
 155:../Drivers/STM32L4xx_HAL_Driver/Inc/stm32l4xx_ll_rtc.h ****                          This parameter must be a number between Min_Data = 0 and Max_Data = 99
 156:../Drivers/STM32L4xx_HAL_Driver/Inc/stm32l4xx_ll_rtc.h **** 
 157:../Drivers/STM32L4xx_HAL_Driver/Inc/stm32l4xx_ll_rtc.h ****                          This feature can be modified afterwards using unitary function @ref LL_RTC
 158:../Drivers/STM32L4xx_HAL_Driver/Inc/stm32l4xx_ll_rtc.h **** } LL_RTC_DateTypeDef;
 159:../Drivers/STM32L4xx_HAL_Driver/Inc/stm32l4xx_ll_rtc.h **** 
 160:../Drivers/STM32L4xx_HAL_Driver/Inc/stm32l4xx_ll_rtc.h **** /**
 161:../Drivers/STM32L4xx_HAL_Driver/Inc/stm32l4xx_ll_rtc.h ****   * @brief  RTC Alarm structure definition
 162:../Drivers/STM32L4xx_HAL_Driver/Inc/stm32l4xx_ll_rtc.h ****   */
 163:../Drivers/STM32L4xx_HAL_Driver/Inc/stm32l4xx_ll_rtc.h **** typedef struct
 164:../Drivers/STM32L4xx_HAL_Driver/Inc/stm32l4xx_ll_rtc.h **** {
 165:../Drivers/STM32L4xx_HAL_Driver/Inc/stm32l4xx_ll_rtc.h ****   LL_RTC_TimeTypeDef AlarmTime;  /*!< Specifies the RTC Alarm Time members. */
 166:../Drivers/STM32L4xx_HAL_Driver/Inc/stm32l4xx_ll_rtc.h **** 
 167:../Drivers/STM32L4xx_HAL_Driver/Inc/stm32l4xx_ll_rtc.h ****   uint32_t AlarmMask;            /*!< Specifies the RTC Alarm Masks.
 168:../Drivers/STM32L4xx_HAL_Driver/Inc/stm32l4xx_ll_rtc.h ****                                       This parameter can be a value of @ref RTC_LL_EC_ALMA_MASK for
 169:../Drivers/STM32L4xx_HAL_Driver/Inc/stm32l4xx_ll_rtc.h **** 
 170:../Drivers/STM32L4xx_HAL_Driver/Inc/stm32l4xx_ll_rtc.h ****                                       This feature can be modified afterwards using unitary functio
 171:../Drivers/STM32L4xx_HAL_Driver/Inc/stm32l4xx_ll_rtc.h ****                                       or @ref LL_RTC_ALMB_SetMask() for ALARM B
 172:../Drivers/STM32L4xx_HAL_Driver/Inc/stm32l4xx_ll_rtc.h ****                                  */
 173:../Drivers/STM32L4xx_HAL_Driver/Inc/stm32l4xx_ll_rtc.h **** 
 174:../Drivers/STM32L4xx_HAL_Driver/Inc/stm32l4xx_ll_rtc.h ****   uint32_t AlarmDateWeekDaySel;  /*!< Specifies the RTC Alarm is on day or WeekDay.
 175:../Drivers/STM32L4xx_HAL_Driver/Inc/stm32l4xx_ll_rtc.h ****                                       This parameter can be a value of @ref RTC_LL_EC_ALMA_WEEKDAY_
 176:../Drivers/STM32L4xx_HAL_Driver/Inc/stm32l4xx_ll_rtc.h **** 
 177:../Drivers/STM32L4xx_HAL_Driver/Inc/stm32l4xx_ll_rtc.h ****                                       This feature can be modified afterwards using unitary functio
 178:../Drivers/STM32L4xx_HAL_Driver/Inc/stm32l4xx_ll_rtc.h ****                                       for ALARM A or @ref LL_RTC_ALMB_EnableWeekday() or @ref LL_RT
 179:../Drivers/STM32L4xx_HAL_Driver/Inc/stm32l4xx_ll_rtc.h ****                                  */
 180:../Drivers/STM32L4xx_HAL_Driver/Inc/stm32l4xx_ll_rtc.h **** 
 181:../Drivers/STM32L4xx_HAL_Driver/Inc/stm32l4xx_ll_rtc.h ****   uint8_t AlarmDateWeekDay;      /*!< Specifies the RTC Alarm Day/WeekDay.
 182:../Drivers/STM32L4xx_HAL_Driver/Inc/stm32l4xx_ll_rtc.h ****                                       If AlarmDateWeekDaySel set to day, this parameter  must be a 
 183:../Drivers/STM32L4xx_HAL_Driver/Inc/stm32l4xx_ll_rtc.h **** 
 184:../Drivers/STM32L4xx_HAL_Driver/Inc/stm32l4xx_ll_rtc.h ****                                       This feature can be modified afterwards using unitary functio
 185:../Drivers/STM32L4xx_HAL_Driver/Inc/stm32l4xx_ll_rtc.h ****                                       for ALARM A or @ref LL_RTC_ALMB_SetDay() for ALARM B.
 186:../Drivers/STM32L4xx_HAL_Driver/Inc/stm32l4xx_ll_rtc.h **** 
 187:../Drivers/STM32L4xx_HAL_Driver/Inc/stm32l4xx_ll_rtc.h ****                                       If AlarmDateWeekDaySel set to Weekday, this parameter can be 
 188:../Drivers/STM32L4xx_HAL_Driver/Inc/stm32l4xx_ll_rtc.h **** 
 189:../Drivers/STM32L4xx_HAL_Driver/Inc/stm32l4xx_ll_rtc.h ****                                       This feature can be modified afterwards using unitary functio
 190:../Drivers/STM32L4xx_HAL_Driver/Inc/stm32l4xx_ll_rtc.h ****                                       for ALARM A or @ref LL_RTC_ALMB_SetWeekDay() for ALARM B.
 191:../Drivers/STM32L4xx_HAL_Driver/Inc/stm32l4xx_ll_rtc.h ****                                  */
 192:../Drivers/STM32L4xx_HAL_Driver/Inc/stm32l4xx_ll_rtc.h **** } LL_RTC_AlarmTypeDef;
 193:../Drivers/STM32L4xx_HAL_Driver/Inc/stm32l4xx_ll_rtc.h **** 
 194:../Drivers/STM32L4xx_HAL_Driver/Inc/stm32l4xx_ll_rtc.h **** /**
 195:../Drivers/STM32L4xx_HAL_Driver/Inc/stm32l4xx_ll_rtc.h ****   * @}
 196:../Drivers/STM32L4xx_HAL_Driver/Inc/stm32l4xx_ll_rtc.h ****   */
 197:../Drivers/STM32L4xx_HAL_Driver/Inc/stm32l4xx_ll_rtc.h **** #endif /* USE_FULL_LL_DRIVER */
 198:../Drivers/STM32L4xx_HAL_Driver/Inc/stm32l4xx_ll_rtc.h **** 
 199:../Drivers/STM32L4xx_HAL_Driver/Inc/stm32l4xx_ll_rtc.h **** /* Exported constants --------------------------------------------------------*/
 200:../Drivers/STM32L4xx_HAL_Driver/Inc/stm32l4xx_ll_rtc.h **** /** @defgroup RTC_LL_Exported_Constants RTC Exported Constants
 201:../Drivers/STM32L4xx_HAL_Driver/Inc/stm32l4xx_ll_rtc.h ****   * @{
 202:../Drivers/STM32L4xx_HAL_Driver/Inc/stm32l4xx_ll_rtc.h ****   */
ARM GAS  /tmp/cc5oboQK.s 			page 5


 203:../Drivers/STM32L4xx_HAL_Driver/Inc/stm32l4xx_ll_rtc.h **** 
 204:../Drivers/STM32L4xx_HAL_Driver/Inc/stm32l4xx_ll_rtc.h **** #if defined(USE_FULL_LL_DRIVER)
 205:../Drivers/STM32L4xx_HAL_Driver/Inc/stm32l4xx_ll_rtc.h **** /** @defgroup RTC_LL_EC_FORMAT FORMAT
 206:../Drivers/STM32L4xx_HAL_Driver/Inc/stm32l4xx_ll_rtc.h ****   * @{
 207:../Drivers/STM32L4xx_HAL_Driver/Inc/stm32l4xx_ll_rtc.h ****   */
 208:../Drivers/STM32L4xx_HAL_Driver/Inc/stm32l4xx_ll_rtc.h **** #define LL_RTC_FORMAT_BIN                  0x000000000U /*!< Binary data format */
 209:../Drivers/STM32L4xx_HAL_Driver/Inc/stm32l4xx_ll_rtc.h **** #define LL_RTC_FORMAT_BCD                  0x000000001U /*!< BCD data format */
 210:../Drivers/STM32L4xx_HAL_Driver/Inc/stm32l4xx_ll_rtc.h **** /**
 211:../Drivers/STM32L4xx_HAL_Driver/Inc/stm32l4xx_ll_rtc.h ****   * @}
 212:../Drivers/STM32L4xx_HAL_Driver/Inc/stm32l4xx_ll_rtc.h ****   */
 213:../Drivers/STM32L4xx_HAL_Driver/Inc/stm32l4xx_ll_rtc.h **** 
 214:../Drivers/STM32L4xx_HAL_Driver/Inc/stm32l4xx_ll_rtc.h **** /** @defgroup RTC_LL_EC_ALMA_WEEKDAY_SELECTION RTC Alarm A Date WeekDay
 215:../Drivers/STM32L4xx_HAL_Driver/Inc/stm32l4xx_ll_rtc.h ****   * @{
 216:../Drivers/STM32L4xx_HAL_Driver/Inc/stm32l4xx_ll_rtc.h ****   */
 217:../Drivers/STM32L4xx_HAL_Driver/Inc/stm32l4xx_ll_rtc.h **** #define LL_RTC_ALMA_DATEWEEKDAYSEL_DATE    0x00000000U             /*!< Alarm A Date is selected */
 218:../Drivers/STM32L4xx_HAL_Driver/Inc/stm32l4xx_ll_rtc.h **** #define LL_RTC_ALMA_DATEWEEKDAYSEL_WEEKDAY RTC_ALRMAR_WDSEL        /*!< Alarm A WeekDay is selected
 219:../Drivers/STM32L4xx_HAL_Driver/Inc/stm32l4xx_ll_rtc.h **** /**
 220:../Drivers/STM32L4xx_HAL_Driver/Inc/stm32l4xx_ll_rtc.h ****   * @}
 221:../Drivers/STM32L4xx_HAL_Driver/Inc/stm32l4xx_ll_rtc.h ****   */
 222:../Drivers/STM32L4xx_HAL_Driver/Inc/stm32l4xx_ll_rtc.h **** 
 223:../Drivers/STM32L4xx_HAL_Driver/Inc/stm32l4xx_ll_rtc.h **** /** @defgroup RTC_LL_EC_ALMB_WEEKDAY_SELECTION RTC Alarm B Date WeekDay
 224:../Drivers/STM32L4xx_HAL_Driver/Inc/stm32l4xx_ll_rtc.h ****   * @{
 225:../Drivers/STM32L4xx_HAL_Driver/Inc/stm32l4xx_ll_rtc.h ****   */
 226:../Drivers/STM32L4xx_HAL_Driver/Inc/stm32l4xx_ll_rtc.h **** #define LL_RTC_ALMB_DATEWEEKDAYSEL_DATE    0x00000000U             /*!< Alarm B Date is selected */
 227:../Drivers/STM32L4xx_HAL_Driver/Inc/stm32l4xx_ll_rtc.h **** #define LL_RTC_ALMB_DATEWEEKDAYSEL_WEEKDAY RTC_ALRMBR_WDSEL        /*!< Alarm B WeekDay is selected
 228:../Drivers/STM32L4xx_HAL_Driver/Inc/stm32l4xx_ll_rtc.h **** /**
 229:../Drivers/STM32L4xx_HAL_Driver/Inc/stm32l4xx_ll_rtc.h ****   * @}
 230:../Drivers/STM32L4xx_HAL_Driver/Inc/stm32l4xx_ll_rtc.h ****   */
 231:../Drivers/STM32L4xx_HAL_Driver/Inc/stm32l4xx_ll_rtc.h **** 
 232:../Drivers/STM32L4xx_HAL_Driver/Inc/stm32l4xx_ll_rtc.h **** #endif /* USE_FULL_LL_DRIVER */
 233:../Drivers/STM32L4xx_HAL_Driver/Inc/stm32l4xx_ll_rtc.h **** 
 234:../Drivers/STM32L4xx_HAL_Driver/Inc/stm32l4xx_ll_rtc.h **** /** @defgroup RTC_LL_EC_GET_FLAG Get Flags Defines
 235:../Drivers/STM32L4xx_HAL_Driver/Inc/stm32l4xx_ll_rtc.h ****   * @brief    Flags defines which can be used with LL_RTC_ReadReg function
 236:../Drivers/STM32L4xx_HAL_Driver/Inc/stm32l4xx_ll_rtc.h ****   * @{
 237:../Drivers/STM32L4xx_HAL_Driver/Inc/stm32l4xx_ll_rtc.h ****   */
 238:../Drivers/STM32L4xx_HAL_Driver/Inc/stm32l4xx_ll_rtc.h **** #if defined(STM32L412xx) || defined(STM32L422xx)
 239:../Drivers/STM32L4xx_HAL_Driver/Inc/stm32l4xx_ll_rtc.h **** #define LL_RTC_SCR_ITSF                    RTC_SCR_CITSF
 240:../Drivers/STM32L4xx_HAL_Driver/Inc/stm32l4xx_ll_rtc.h **** #define LL_RTC_SCR_TSOVF                   RTC_SCR_CTSOVF
 241:../Drivers/STM32L4xx_HAL_Driver/Inc/stm32l4xx_ll_rtc.h **** #define LL_RTC_SCR_TSF                     RTC_SCR_CTSF
 242:../Drivers/STM32L4xx_HAL_Driver/Inc/stm32l4xx_ll_rtc.h **** #define LL_RTC_SCR_WUTF                    RTC_SCR_CWUTF
 243:../Drivers/STM32L4xx_HAL_Driver/Inc/stm32l4xx_ll_rtc.h **** #define LL_RTC_SCR_ALRBF                   RTC_SCR_CALRBF
 244:../Drivers/STM32L4xx_HAL_Driver/Inc/stm32l4xx_ll_rtc.h **** #define LL_RTC_CSR_ALRAF                   RTC_SCR_CALRAF
 245:../Drivers/STM32L4xx_HAL_Driver/Inc/stm32l4xx_ll_rtc.h **** 
 246:../Drivers/STM32L4xx_HAL_Driver/Inc/stm32l4xx_ll_rtc.h **** #define LL_RTC_ICSR_RECALPF                RTC_ICSR_RECALPF
 247:../Drivers/STM32L4xx_HAL_Driver/Inc/stm32l4xx_ll_rtc.h **** #define LL_RTC_ICSR_INITF                  RTC_ICSR_INITF
 248:../Drivers/STM32L4xx_HAL_Driver/Inc/stm32l4xx_ll_rtc.h **** #define LL_RTC_ICSR_RSF                    RTC_ICSR_RSF
 249:../Drivers/STM32L4xx_HAL_Driver/Inc/stm32l4xx_ll_rtc.h **** #define LL_RTC_ICSR_INITS                  RTC_ICSR_INITS
 250:../Drivers/STM32L4xx_HAL_Driver/Inc/stm32l4xx_ll_rtc.h **** #define LL_RTC_ICSR_SHPF                   RTC_ICSR_SHPF
 251:../Drivers/STM32L4xx_HAL_Driver/Inc/stm32l4xx_ll_rtc.h **** #define LL_RTC_ICSR_WUTWF                  RTC_ICSR_WUTWF
 252:../Drivers/STM32L4xx_HAL_Driver/Inc/stm32l4xx_ll_rtc.h **** #else /* #if defined(STM32L412xx) || defined(STM32L422xx) */
 253:../Drivers/STM32L4xx_HAL_Driver/Inc/stm32l4xx_ll_rtc.h **** #define LL_RTC_ISR_ITSF                    RTC_ISR_ITSF
 254:../Drivers/STM32L4xx_HAL_Driver/Inc/stm32l4xx_ll_rtc.h **** #define LL_RTC_ISR_RECALPF                 RTC_ISR_RECALPF
 255:../Drivers/STM32L4xx_HAL_Driver/Inc/stm32l4xx_ll_rtc.h **** #define LL_RTC_ISR_TAMP3F                  RTC_ISR_TAMP3F
 256:../Drivers/STM32L4xx_HAL_Driver/Inc/stm32l4xx_ll_rtc.h **** #define LL_RTC_ISR_TAMP2F                  RTC_ISR_TAMP2F
 257:../Drivers/STM32L4xx_HAL_Driver/Inc/stm32l4xx_ll_rtc.h **** #define LL_RTC_ISR_TAMP1F                  RTC_ISR_TAMP1F
 258:../Drivers/STM32L4xx_HAL_Driver/Inc/stm32l4xx_ll_rtc.h **** #define LL_RTC_ISR_TSOVF                   RTC_ISR_TSOVF
 259:../Drivers/STM32L4xx_HAL_Driver/Inc/stm32l4xx_ll_rtc.h **** #define LL_RTC_ISR_TSF                     RTC_ISR_TSF
ARM GAS  /tmp/cc5oboQK.s 			page 6


 260:../Drivers/STM32L4xx_HAL_Driver/Inc/stm32l4xx_ll_rtc.h **** #define LL_RTC_ISR_WUTF                    RTC_ISR_WUTF
 261:../Drivers/STM32L4xx_HAL_Driver/Inc/stm32l4xx_ll_rtc.h **** #define LL_RTC_ISR_ALRBF                   RTC_ISR_ALRBF
 262:../Drivers/STM32L4xx_HAL_Driver/Inc/stm32l4xx_ll_rtc.h **** #define LL_RTC_ISR_ALRAF                   RTC_ISR_ALRAF
 263:../Drivers/STM32L4xx_HAL_Driver/Inc/stm32l4xx_ll_rtc.h **** #define LL_RTC_ISR_INITF                   RTC_ISR_INITF
 264:../Drivers/STM32L4xx_HAL_Driver/Inc/stm32l4xx_ll_rtc.h **** #define LL_RTC_ISR_RSF                     RTC_ISR_RSF
 265:../Drivers/STM32L4xx_HAL_Driver/Inc/stm32l4xx_ll_rtc.h **** #define LL_RTC_ISR_INITS                   RTC_ISR_INITS
 266:../Drivers/STM32L4xx_HAL_Driver/Inc/stm32l4xx_ll_rtc.h **** #define LL_RTC_ISR_SHPF                    RTC_ISR_SHPF
 267:../Drivers/STM32L4xx_HAL_Driver/Inc/stm32l4xx_ll_rtc.h **** #define LL_RTC_ISR_WUTWF                   RTC_ISR_WUTWF
 268:../Drivers/STM32L4xx_HAL_Driver/Inc/stm32l4xx_ll_rtc.h **** #define LL_RTC_ISR_ALRBWF                  RTC_ISR_ALRBWF
 269:../Drivers/STM32L4xx_HAL_Driver/Inc/stm32l4xx_ll_rtc.h **** #define LL_RTC_ISR_ALRAWF                  RTC_ISR_ALRAWF
 270:../Drivers/STM32L4xx_HAL_Driver/Inc/stm32l4xx_ll_rtc.h **** #endif /* #if defined(STM32L412xx) || defined(STM32L422xx) */
 271:../Drivers/STM32L4xx_HAL_Driver/Inc/stm32l4xx_ll_rtc.h **** /**
 272:../Drivers/STM32L4xx_HAL_Driver/Inc/stm32l4xx_ll_rtc.h ****   * @}
 273:../Drivers/STM32L4xx_HAL_Driver/Inc/stm32l4xx_ll_rtc.h ****   */
 274:../Drivers/STM32L4xx_HAL_Driver/Inc/stm32l4xx_ll_rtc.h **** 
 275:../Drivers/STM32L4xx_HAL_Driver/Inc/stm32l4xx_ll_rtc.h **** /** @defgroup RTC_LL_EC_IT IT Defines
 276:../Drivers/STM32L4xx_HAL_Driver/Inc/stm32l4xx_ll_rtc.h ****   * @brief    IT defines which can be used with LL_RTC_ReadReg and  LL_RTC_WriteReg functions
 277:../Drivers/STM32L4xx_HAL_Driver/Inc/stm32l4xx_ll_rtc.h ****   * @{
 278:../Drivers/STM32L4xx_HAL_Driver/Inc/stm32l4xx_ll_rtc.h ****   */
 279:../Drivers/STM32L4xx_HAL_Driver/Inc/stm32l4xx_ll_rtc.h **** #define LL_RTC_CR_TSIE                     RTC_CR_TSIE
 280:../Drivers/STM32L4xx_HAL_Driver/Inc/stm32l4xx_ll_rtc.h **** #define LL_RTC_CR_WUTIE                    RTC_CR_WUTIE
 281:../Drivers/STM32L4xx_HAL_Driver/Inc/stm32l4xx_ll_rtc.h **** #define LL_RTC_CR_ALRBIE                   RTC_CR_ALRBIE
 282:../Drivers/STM32L4xx_HAL_Driver/Inc/stm32l4xx_ll_rtc.h **** #define LL_RTC_CR_ALRAIE                   RTC_CR_ALRAIE
 283:../Drivers/STM32L4xx_HAL_Driver/Inc/stm32l4xx_ll_rtc.h **** #if defined(STM32L412xx) || defined(STM32L422xx)
 284:../Drivers/STM32L4xx_HAL_Driver/Inc/stm32l4xx_ll_rtc.h **** #else /* #if defined(STM32L412xx) || defined(STM32L422xx) */
 285:../Drivers/STM32L4xx_HAL_Driver/Inc/stm32l4xx_ll_rtc.h **** #define LL_RTC_TAMPCR_TAMP3IE              RTC_TAMPCR_TAMP3IE
 286:../Drivers/STM32L4xx_HAL_Driver/Inc/stm32l4xx_ll_rtc.h **** #define LL_RTC_TAMPCR_TAMP2IE              RTC_TAMPCR_TAMP2IE
 287:../Drivers/STM32L4xx_HAL_Driver/Inc/stm32l4xx_ll_rtc.h **** #define LL_RTC_TAMPCR_TAMP1IE              RTC_TAMPCR_TAMP1IE
 288:../Drivers/STM32L4xx_HAL_Driver/Inc/stm32l4xx_ll_rtc.h **** #define LL_RTC_TAMPCR_TAMPIE               RTC_TAMPCR_TAMPIE
 289:../Drivers/STM32L4xx_HAL_Driver/Inc/stm32l4xx_ll_rtc.h **** #endif /* #if defined(STM32L412xx) || defined(STM32L422xx) */
 290:../Drivers/STM32L4xx_HAL_Driver/Inc/stm32l4xx_ll_rtc.h **** /**
 291:../Drivers/STM32L4xx_HAL_Driver/Inc/stm32l4xx_ll_rtc.h ****   * @}
 292:../Drivers/STM32L4xx_HAL_Driver/Inc/stm32l4xx_ll_rtc.h ****   */
 293:../Drivers/STM32L4xx_HAL_Driver/Inc/stm32l4xx_ll_rtc.h **** 
 294:../Drivers/STM32L4xx_HAL_Driver/Inc/stm32l4xx_ll_rtc.h **** /** @defgroup RTC_LL_EC_WEEKDAY  WEEK DAY
 295:../Drivers/STM32L4xx_HAL_Driver/Inc/stm32l4xx_ll_rtc.h ****   * @{
 296:../Drivers/STM32L4xx_HAL_Driver/Inc/stm32l4xx_ll_rtc.h ****   */
 297:../Drivers/STM32L4xx_HAL_Driver/Inc/stm32l4xx_ll_rtc.h **** #define LL_RTC_WEEKDAY_MONDAY              (uint8_t)0x01 /*!< Monday    */
 298:../Drivers/STM32L4xx_HAL_Driver/Inc/stm32l4xx_ll_rtc.h **** #define LL_RTC_WEEKDAY_TUESDAY             (uint8_t)0x02 /*!< Tuesday   */
 299:../Drivers/STM32L4xx_HAL_Driver/Inc/stm32l4xx_ll_rtc.h **** #define LL_RTC_WEEKDAY_WEDNESDAY           (uint8_t)0x03 /*!< Wednesday */
 300:../Drivers/STM32L4xx_HAL_Driver/Inc/stm32l4xx_ll_rtc.h **** #define LL_RTC_WEEKDAY_THURSDAY            (uint8_t)0x04 /*!< Thrusday  */
 301:../Drivers/STM32L4xx_HAL_Driver/Inc/stm32l4xx_ll_rtc.h **** #define LL_RTC_WEEKDAY_FRIDAY              (uint8_t)0x05 /*!< Friday    */
 302:../Drivers/STM32L4xx_HAL_Driver/Inc/stm32l4xx_ll_rtc.h **** #define LL_RTC_WEEKDAY_SATURDAY            (uint8_t)0x06 /*!< Saturday  */
 303:../Drivers/STM32L4xx_HAL_Driver/Inc/stm32l4xx_ll_rtc.h **** #define LL_RTC_WEEKDAY_SUNDAY              (uint8_t)0x07 /*!< Sunday    */
 304:../Drivers/STM32L4xx_HAL_Driver/Inc/stm32l4xx_ll_rtc.h **** /**
 305:../Drivers/STM32L4xx_HAL_Driver/Inc/stm32l4xx_ll_rtc.h ****   * @}
 306:../Drivers/STM32L4xx_HAL_Driver/Inc/stm32l4xx_ll_rtc.h ****   */
 307:../Drivers/STM32L4xx_HAL_Driver/Inc/stm32l4xx_ll_rtc.h **** 
 308:../Drivers/STM32L4xx_HAL_Driver/Inc/stm32l4xx_ll_rtc.h **** /** @defgroup RTC_LL_EC_MONTH  MONTH
 309:../Drivers/STM32L4xx_HAL_Driver/Inc/stm32l4xx_ll_rtc.h ****   * @{
 310:../Drivers/STM32L4xx_HAL_Driver/Inc/stm32l4xx_ll_rtc.h ****   */
 311:../Drivers/STM32L4xx_HAL_Driver/Inc/stm32l4xx_ll_rtc.h **** #define LL_RTC_MONTH_JANUARY               (uint8_t)0x01  /*!< January   */
 312:../Drivers/STM32L4xx_HAL_Driver/Inc/stm32l4xx_ll_rtc.h **** #define LL_RTC_MONTH_FEBRUARY              (uint8_t)0x02  /*!< February  */
 313:../Drivers/STM32L4xx_HAL_Driver/Inc/stm32l4xx_ll_rtc.h **** #define LL_RTC_MONTH_MARCH                 (uint8_t)0x03  /*!< March     */
 314:../Drivers/STM32L4xx_HAL_Driver/Inc/stm32l4xx_ll_rtc.h **** #define LL_RTC_MONTH_APRIL                 (uint8_t)0x04  /*!< April     */
 315:../Drivers/STM32L4xx_HAL_Driver/Inc/stm32l4xx_ll_rtc.h **** #define LL_RTC_MONTH_MAY                   (uint8_t)0x05  /*!< May       */
 316:../Drivers/STM32L4xx_HAL_Driver/Inc/stm32l4xx_ll_rtc.h **** #define LL_RTC_MONTH_JUNE                  (uint8_t)0x06  /*!< June      */
ARM GAS  /tmp/cc5oboQK.s 			page 7


 317:../Drivers/STM32L4xx_HAL_Driver/Inc/stm32l4xx_ll_rtc.h **** #define LL_RTC_MONTH_JULY                  (uint8_t)0x07  /*!< July      */
 318:../Drivers/STM32L4xx_HAL_Driver/Inc/stm32l4xx_ll_rtc.h **** #define LL_RTC_MONTH_AUGUST                (uint8_t)0x08  /*!< August    */
 319:../Drivers/STM32L4xx_HAL_Driver/Inc/stm32l4xx_ll_rtc.h **** #define LL_RTC_MONTH_SEPTEMBER             (uint8_t)0x09  /*!< September */
 320:../Drivers/STM32L4xx_HAL_Driver/Inc/stm32l4xx_ll_rtc.h **** #define LL_RTC_MONTH_OCTOBER               (uint8_t)0x10  /*!< October   */
 321:../Drivers/STM32L4xx_HAL_Driver/Inc/stm32l4xx_ll_rtc.h **** #define LL_RTC_MONTH_NOVEMBER              (uint8_t)0x11  /*!< November  */
 322:../Drivers/STM32L4xx_HAL_Driver/Inc/stm32l4xx_ll_rtc.h **** #define LL_RTC_MONTH_DECEMBER              (uint8_t)0x12  /*!< December  */
 323:../Drivers/STM32L4xx_HAL_Driver/Inc/stm32l4xx_ll_rtc.h **** /**
 324:../Drivers/STM32L4xx_HAL_Driver/Inc/stm32l4xx_ll_rtc.h ****   * @}
 325:../Drivers/STM32L4xx_HAL_Driver/Inc/stm32l4xx_ll_rtc.h ****   */
 326:../Drivers/STM32L4xx_HAL_Driver/Inc/stm32l4xx_ll_rtc.h **** 
 327:../Drivers/STM32L4xx_HAL_Driver/Inc/stm32l4xx_ll_rtc.h **** /** @defgroup RTC_LL_EC_HOURFORMAT  HOUR FORMAT
 328:../Drivers/STM32L4xx_HAL_Driver/Inc/stm32l4xx_ll_rtc.h ****   * @{
 329:../Drivers/STM32L4xx_HAL_Driver/Inc/stm32l4xx_ll_rtc.h ****   */
 330:../Drivers/STM32L4xx_HAL_Driver/Inc/stm32l4xx_ll_rtc.h **** #define LL_RTC_HOURFORMAT_24HOUR           0x00000000U           /*!< 24 hour/day format */
 331:../Drivers/STM32L4xx_HAL_Driver/Inc/stm32l4xx_ll_rtc.h **** #define LL_RTC_HOURFORMAT_AMPM             RTC_CR_FMT            /*!< AM/PM hour format */
 332:../Drivers/STM32L4xx_HAL_Driver/Inc/stm32l4xx_ll_rtc.h **** /**
 333:../Drivers/STM32L4xx_HAL_Driver/Inc/stm32l4xx_ll_rtc.h ****   * @}
 334:../Drivers/STM32L4xx_HAL_Driver/Inc/stm32l4xx_ll_rtc.h ****   */
 335:../Drivers/STM32L4xx_HAL_Driver/Inc/stm32l4xx_ll_rtc.h **** 
 336:../Drivers/STM32L4xx_HAL_Driver/Inc/stm32l4xx_ll_rtc.h **** /** @defgroup RTC_LL_EC_ALARMOUT  ALARM OUTPUT
 337:../Drivers/STM32L4xx_HAL_Driver/Inc/stm32l4xx_ll_rtc.h ****   * @{
 338:../Drivers/STM32L4xx_HAL_Driver/Inc/stm32l4xx_ll_rtc.h ****   */
 339:../Drivers/STM32L4xx_HAL_Driver/Inc/stm32l4xx_ll_rtc.h **** #define LL_RTC_ALARMOUT_DISABLE            0x00000000U             /*!< Output disabled */
 340:../Drivers/STM32L4xx_HAL_Driver/Inc/stm32l4xx_ll_rtc.h **** #define LL_RTC_ALARMOUT_ALMA               RTC_CR_OSEL_0           /*!< Alarm A output enabled */
 341:../Drivers/STM32L4xx_HAL_Driver/Inc/stm32l4xx_ll_rtc.h **** #define LL_RTC_ALARMOUT_ALMB               RTC_CR_OSEL_1           /*!< Alarm B output enabled */
 342:../Drivers/STM32L4xx_HAL_Driver/Inc/stm32l4xx_ll_rtc.h **** #define LL_RTC_ALARMOUT_WAKEUP             RTC_CR_OSEL             /*!< Wakeup output enabled */
 343:../Drivers/STM32L4xx_HAL_Driver/Inc/stm32l4xx_ll_rtc.h **** /**
 344:../Drivers/STM32L4xx_HAL_Driver/Inc/stm32l4xx_ll_rtc.h ****   * @}
 345:../Drivers/STM32L4xx_HAL_Driver/Inc/stm32l4xx_ll_rtc.h ****   */
 346:../Drivers/STM32L4xx_HAL_Driver/Inc/stm32l4xx_ll_rtc.h **** 
 347:../Drivers/STM32L4xx_HAL_Driver/Inc/stm32l4xx_ll_rtc.h **** /** @defgroup RTC_LL_EC_ALARM_OUTPUTTYPE  ALARM OUTPUT TYPE
 348:../Drivers/STM32L4xx_HAL_Driver/Inc/stm32l4xx_ll_rtc.h ****   * @{
 349:../Drivers/STM32L4xx_HAL_Driver/Inc/stm32l4xx_ll_rtc.h ****   */
 350:../Drivers/STM32L4xx_HAL_Driver/Inc/stm32l4xx_ll_rtc.h **** #if defined(STM32L412xx) || defined(STM32L422xx)
 351:../Drivers/STM32L4xx_HAL_Driver/Inc/stm32l4xx_ll_rtc.h **** #define LL_RTC_ALARM_OUTPUTTYPE_OPENDRAIN  RTC_CR_TAMPALRM_TYPE   /*!< RTC_ALARM is open-drain outp
 352:../Drivers/STM32L4xx_HAL_Driver/Inc/stm32l4xx_ll_rtc.h **** #define LL_RTC_ALARM_OUTPUTTYPE_PUSHPULL   0x00000000U            /*!< RTC_ALARM is push-pull outpu
 353:../Drivers/STM32L4xx_HAL_Driver/Inc/stm32l4xx_ll_rtc.h **** #else /* #if defined(STM32L412xx) || defined(STM32L422xx) */
 354:../Drivers/STM32L4xx_HAL_Driver/Inc/stm32l4xx_ll_rtc.h **** #define LL_RTC_ALARM_OUTPUTTYPE_OPENDRAIN  0x00000000U            /*!< RTC_ALARM is open-drain outp
 355:../Drivers/STM32L4xx_HAL_Driver/Inc/stm32l4xx_ll_rtc.h **** #define LL_RTC_ALARM_OUTPUTTYPE_PUSHPULL   RTC_OR_ALARMOUTTYPE    /*!< RTC_ALARM, when mapped on PC
 356:../Drivers/STM32L4xx_HAL_Driver/Inc/stm32l4xx_ll_rtc.h **** #endif /* #if defined(STM32L412xx) || defined(STM32L422xx) */
 357:../Drivers/STM32L4xx_HAL_Driver/Inc/stm32l4xx_ll_rtc.h **** /**
 358:../Drivers/STM32L4xx_HAL_Driver/Inc/stm32l4xx_ll_rtc.h ****   * @}
 359:../Drivers/STM32L4xx_HAL_Driver/Inc/stm32l4xx_ll_rtc.h ****   */
 360:../Drivers/STM32L4xx_HAL_Driver/Inc/stm32l4xx_ll_rtc.h **** 
 361:../Drivers/STM32L4xx_HAL_Driver/Inc/stm32l4xx_ll_rtc.h **** /** @defgroup RTC_LL_EC_OUTPUTPOLARITY_PIN  OUTPUT POLARITY PIN
 362:../Drivers/STM32L4xx_HAL_Driver/Inc/stm32l4xx_ll_rtc.h ****   * @{
 363:../Drivers/STM32L4xx_HAL_Driver/Inc/stm32l4xx_ll_rtc.h ****   */
 364:../Drivers/STM32L4xx_HAL_Driver/Inc/stm32l4xx_ll_rtc.h **** #define LL_RTC_OUTPUTPOLARITY_PIN_HIGH     0x00000000U           /*!< Pin is high when ALRAF/ALRBF/
 365:../Drivers/STM32L4xx_HAL_Driver/Inc/stm32l4xx_ll_rtc.h **** #define LL_RTC_OUTPUTPOLARITY_PIN_LOW      RTC_CR_POL            /*!< Pin is low when ALRAF/ALRBF/W
 366:../Drivers/STM32L4xx_HAL_Driver/Inc/stm32l4xx_ll_rtc.h **** /**
 367:../Drivers/STM32L4xx_HAL_Driver/Inc/stm32l4xx_ll_rtc.h ****   * @}
 368:../Drivers/STM32L4xx_HAL_Driver/Inc/stm32l4xx_ll_rtc.h ****   */
 369:../Drivers/STM32L4xx_HAL_Driver/Inc/stm32l4xx_ll_rtc.h **** 
 370:../Drivers/STM32L4xx_HAL_Driver/Inc/stm32l4xx_ll_rtc.h **** /** @defgroup RTC_LL_EC_TIME_FORMAT TIME FORMAT
 371:../Drivers/STM32L4xx_HAL_Driver/Inc/stm32l4xx_ll_rtc.h ****   * @{
 372:../Drivers/STM32L4xx_HAL_Driver/Inc/stm32l4xx_ll_rtc.h ****   */
 373:../Drivers/STM32L4xx_HAL_Driver/Inc/stm32l4xx_ll_rtc.h **** #define LL_RTC_TIME_FORMAT_AM_OR_24        0x00000000U           /*!< AM or 24-hour format */
ARM GAS  /tmp/cc5oboQK.s 			page 8


 374:../Drivers/STM32L4xx_HAL_Driver/Inc/stm32l4xx_ll_rtc.h **** #define LL_RTC_TIME_FORMAT_PM              RTC_TR_PM             /*!< PM */
 375:../Drivers/STM32L4xx_HAL_Driver/Inc/stm32l4xx_ll_rtc.h **** /**
 376:../Drivers/STM32L4xx_HAL_Driver/Inc/stm32l4xx_ll_rtc.h ****   * @}
 377:../Drivers/STM32L4xx_HAL_Driver/Inc/stm32l4xx_ll_rtc.h ****   */
 378:../Drivers/STM32L4xx_HAL_Driver/Inc/stm32l4xx_ll_rtc.h **** 
 379:../Drivers/STM32L4xx_HAL_Driver/Inc/stm32l4xx_ll_rtc.h **** /** @defgroup RTC_LL_EC_SHIFT_SECOND  SHIFT SECOND
 380:../Drivers/STM32L4xx_HAL_Driver/Inc/stm32l4xx_ll_rtc.h ****   * @{
 381:../Drivers/STM32L4xx_HAL_Driver/Inc/stm32l4xx_ll_rtc.h ****   */
 382:../Drivers/STM32L4xx_HAL_Driver/Inc/stm32l4xx_ll_rtc.h **** #define LL_RTC_SHIFT_SECOND_DELAY          0x00000000U           /* Delay (seconds) = SUBFS / (PRED
 383:../Drivers/STM32L4xx_HAL_Driver/Inc/stm32l4xx_ll_rtc.h **** #define LL_RTC_SHIFT_SECOND_ADVANCE        RTC_SHIFTR_ADD1S      /* Advance (seconds) = (1 - (SUBFS
 384:../Drivers/STM32L4xx_HAL_Driver/Inc/stm32l4xx_ll_rtc.h **** /**
 385:../Drivers/STM32L4xx_HAL_Driver/Inc/stm32l4xx_ll_rtc.h ****   * @}
 386:../Drivers/STM32L4xx_HAL_Driver/Inc/stm32l4xx_ll_rtc.h ****   */
 387:../Drivers/STM32L4xx_HAL_Driver/Inc/stm32l4xx_ll_rtc.h **** 
 388:../Drivers/STM32L4xx_HAL_Driver/Inc/stm32l4xx_ll_rtc.h **** /** @defgroup RTC_LL_EC_ALMA_MASK  ALARMA MASK
 389:../Drivers/STM32L4xx_HAL_Driver/Inc/stm32l4xx_ll_rtc.h ****   * @{
 390:../Drivers/STM32L4xx_HAL_Driver/Inc/stm32l4xx_ll_rtc.h ****   */
 391:../Drivers/STM32L4xx_HAL_Driver/Inc/stm32l4xx_ll_rtc.h **** #define LL_RTC_ALMA_MASK_NONE              0x00000000U             /*!< No masks applied on Alarm A
 392:../Drivers/STM32L4xx_HAL_Driver/Inc/stm32l4xx_ll_rtc.h **** #define LL_RTC_ALMA_MASK_DATEWEEKDAY       RTC_ALRMAR_MSK4         /*!< Date/day do not care in Ala
 393:../Drivers/STM32L4xx_HAL_Driver/Inc/stm32l4xx_ll_rtc.h **** #define LL_RTC_ALMA_MASK_HOURS             RTC_ALRMAR_MSK3         /*!< Hours do not care in Alarm 
 394:../Drivers/STM32L4xx_HAL_Driver/Inc/stm32l4xx_ll_rtc.h **** #define LL_RTC_ALMA_MASK_MINUTES           RTC_ALRMAR_MSK2         /*!< Minutes do not care in Alar
 395:../Drivers/STM32L4xx_HAL_Driver/Inc/stm32l4xx_ll_rtc.h **** #define LL_RTC_ALMA_MASK_SECONDS           RTC_ALRMAR_MSK1         /*!< Seconds do not care in Alar
 396:../Drivers/STM32L4xx_HAL_Driver/Inc/stm32l4xx_ll_rtc.h **** #define LL_RTC_ALMA_MASK_ALL               (RTC_ALRMAR_MSK4 | RTC_ALRMAR_MSK3 | RTC_ALRMAR_MSK2 | R
 397:../Drivers/STM32L4xx_HAL_Driver/Inc/stm32l4xx_ll_rtc.h **** /**
 398:../Drivers/STM32L4xx_HAL_Driver/Inc/stm32l4xx_ll_rtc.h ****   * @}
 399:../Drivers/STM32L4xx_HAL_Driver/Inc/stm32l4xx_ll_rtc.h ****   */
 400:../Drivers/STM32L4xx_HAL_Driver/Inc/stm32l4xx_ll_rtc.h **** 
 401:../Drivers/STM32L4xx_HAL_Driver/Inc/stm32l4xx_ll_rtc.h **** /** @defgroup RTC_LL_EC_ALMA_TIME_FORMAT  ALARMA TIME FORMAT
 402:../Drivers/STM32L4xx_HAL_Driver/Inc/stm32l4xx_ll_rtc.h ****   * @{
 403:../Drivers/STM32L4xx_HAL_Driver/Inc/stm32l4xx_ll_rtc.h ****   */
 404:../Drivers/STM32L4xx_HAL_Driver/Inc/stm32l4xx_ll_rtc.h **** #define LL_RTC_ALMA_TIME_FORMAT_AM         0x00000000U           /*!< AM or 24-hour format */
 405:../Drivers/STM32L4xx_HAL_Driver/Inc/stm32l4xx_ll_rtc.h **** #define LL_RTC_ALMA_TIME_FORMAT_PM         RTC_ALRMAR_PM         /*!< PM */
 406:../Drivers/STM32L4xx_HAL_Driver/Inc/stm32l4xx_ll_rtc.h **** /**
 407:../Drivers/STM32L4xx_HAL_Driver/Inc/stm32l4xx_ll_rtc.h ****   * @}
 408:../Drivers/STM32L4xx_HAL_Driver/Inc/stm32l4xx_ll_rtc.h ****   */
 409:../Drivers/STM32L4xx_HAL_Driver/Inc/stm32l4xx_ll_rtc.h **** 
 410:../Drivers/STM32L4xx_HAL_Driver/Inc/stm32l4xx_ll_rtc.h **** /** @defgroup RTC_LL_EC_ALMB_MASK  ALARMB MASK
 411:../Drivers/STM32L4xx_HAL_Driver/Inc/stm32l4xx_ll_rtc.h ****   * @{
 412:../Drivers/STM32L4xx_HAL_Driver/Inc/stm32l4xx_ll_rtc.h ****   */
 413:../Drivers/STM32L4xx_HAL_Driver/Inc/stm32l4xx_ll_rtc.h **** #define LL_RTC_ALMB_MASK_NONE              0x00000000U             /*!< No masks applied on Alarm B
 414:../Drivers/STM32L4xx_HAL_Driver/Inc/stm32l4xx_ll_rtc.h **** #define LL_RTC_ALMB_MASK_DATEWEEKDAY       RTC_ALRMBR_MSK4         /*!< Date/day do not care in Ala
 415:../Drivers/STM32L4xx_HAL_Driver/Inc/stm32l4xx_ll_rtc.h **** #define LL_RTC_ALMB_MASK_HOURS             RTC_ALRMBR_MSK3         /*!< Hours do not care in Alarm 
 416:../Drivers/STM32L4xx_HAL_Driver/Inc/stm32l4xx_ll_rtc.h **** #define LL_RTC_ALMB_MASK_MINUTES           RTC_ALRMBR_MSK2         /*!< Minutes do not care in Alar
 417:../Drivers/STM32L4xx_HAL_Driver/Inc/stm32l4xx_ll_rtc.h **** #define LL_RTC_ALMB_MASK_SECONDS           RTC_ALRMBR_MSK1         /*!< Seconds do not care in Alar
 418:../Drivers/STM32L4xx_HAL_Driver/Inc/stm32l4xx_ll_rtc.h **** #define LL_RTC_ALMB_MASK_ALL               (RTC_ALRMBR_MSK4 | RTC_ALRMBR_MSK3 | RTC_ALRMBR_MSK2 | R
 419:../Drivers/STM32L4xx_HAL_Driver/Inc/stm32l4xx_ll_rtc.h **** /**
 420:../Drivers/STM32L4xx_HAL_Driver/Inc/stm32l4xx_ll_rtc.h ****   * @}
 421:../Drivers/STM32L4xx_HAL_Driver/Inc/stm32l4xx_ll_rtc.h ****   */
 422:../Drivers/STM32L4xx_HAL_Driver/Inc/stm32l4xx_ll_rtc.h **** 
 423:../Drivers/STM32L4xx_HAL_Driver/Inc/stm32l4xx_ll_rtc.h **** /** @defgroup RTC_LL_EC_ALMB_TIME_FORMAT  ALARMB TIME FORMAT
 424:../Drivers/STM32L4xx_HAL_Driver/Inc/stm32l4xx_ll_rtc.h ****   * @{
 425:../Drivers/STM32L4xx_HAL_Driver/Inc/stm32l4xx_ll_rtc.h ****   */
 426:../Drivers/STM32L4xx_HAL_Driver/Inc/stm32l4xx_ll_rtc.h **** #define LL_RTC_ALMB_TIME_FORMAT_AM         0x00000000U           /*!< AM or 24-hour format */
 427:../Drivers/STM32L4xx_HAL_Driver/Inc/stm32l4xx_ll_rtc.h **** #define LL_RTC_ALMB_TIME_FORMAT_PM         RTC_ALRMBR_PM         /*!< PM */
 428:../Drivers/STM32L4xx_HAL_Driver/Inc/stm32l4xx_ll_rtc.h **** /**
 429:../Drivers/STM32L4xx_HAL_Driver/Inc/stm32l4xx_ll_rtc.h ****   * @}
 430:../Drivers/STM32L4xx_HAL_Driver/Inc/stm32l4xx_ll_rtc.h ****   */
ARM GAS  /tmp/cc5oboQK.s 			page 9


 431:../Drivers/STM32L4xx_HAL_Driver/Inc/stm32l4xx_ll_rtc.h **** 
 432:../Drivers/STM32L4xx_HAL_Driver/Inc/stm32l4xx_ll_rtc.h **** /** @defgroup RTC_LL_EC_TIMESTAMP_EDGE  TIMESTAMP EDGE
 433:../Drivers/STM32L4xx_HAL_Driver/Inc/stm32l4xx_ll_rtc.h ****   * @{
 434:../Drivers/STM32L4xx_HAL_Driver/Inc/stm32l4xx_ll_rtc.h ****   */
 435:../Drivers/STM32L4xx_HAL_Driver/Inc/stm32l4xx_ll_rtc.h **** #define LL_RTC_TIMESTAMP_EDGE_RISING       0x00000000U           /*!< RTC_TS input rising edge gene
 436:../Drivers/STM32L4xx_HAL_Driver/Inc/stm32l4xx_ll_rtc.h **** #define LL_RTC_TIMESTAMP_EDGE_FALLING      RTC_CR_TSEDGE         /*!< RTC_TS input falling edge gen
 437:../Drivers/STM32L4xx_HAL_Driver/Inc/stm32l4xx_ll_rtc.h **** /**
 438:../Drivers/STM32L4xx_HAL_Driver/Inc/stm32l4xx_ll_rtc.h ****   * @}
 439:../Drivers/STM32L4xx_HAL_Driver/Inc/stm32l4xx_ll_rtc.h ****   */
 440:../Drivers/STM32L4xx_HAL_Driver/Inc/stm32l4xx_ll_rtc.h **** 
 441:../Drivers/STM32L4xx_HAL_Driver/Inc/stm32l4xx_ll_rtc.h **** /** @defgroup RTC_LL_EC_TS_TIME_FORMAT  TIMESTAMP TIME FORMAT
 442:../Drivers/STM32L4xx_HAL_Driver/Inc/stm32l4xx_ll_rtc.h ****   * @{
 443:../Drivers/STM32L4xx_HAL_Driver/Inc/stm32l4xx_ll_rtc.h ****   */
 444:../Drivers/STM32L4xx_HAL_Driver/Inc/stm32l4xx_ll_rtc.h **** #define LL_RTC_TS_TIME_FORMAT_AM           0x00000000U           /*!< AM or 24-hour format */
 445:../Drivers/STM32L4xx_HAL_Driver/Inc/stm32l4xx_ll_rtc.h **** #define LL_RTC_TS_TIME_FORMAT_PM           RTC_TSTR_PM           /*!< PM */
 446:../Drivers/STM32L4xx_HAL_Driver/Inc/stm32l4xx_ll_rtc.h **** /**
 447:../Drivers/STM32L4xx_HAL_Driver/Inc/stm32l4xx_ll_rtc.h ****   * @}
 448:../Drivers/STM32L4xx_HAL_Driver/Inc/stm32l4xx_ll_rtc.h ****   */
 449:../Drivers/STM32L4xx_HAL_Driver/Inc/stm32l4xx_ll_rtc.h **** 
 450:../Drivers/STM32L4xx_HAL_Driver/Inc/stm32l4xx_ll_rtc.h **** #if defined(STM32L412xx) || defined(STM32L422xx)
 451:../Drivers/STM32L4xx_HAL_Driver/Inc/stm32l4xx_ll_rtc.h **** /** @defgroup RTC_LL_EC_TAMPER  TAMPER
 452:../Drivers/STM32L4xx_HAL_Driver/Inc/stm32l4xx_ll_rtc.h ****   * @{
 453:../Drivers/STM32L4xx_HAL_Driver/Inc/stm32l4xx_ll_rtc.h ****   */
 454:../Drivers/STM32L4xx_HAL_Driver/Inc/stm32l4xx_ll_rtc.h **** #define LL_RTC_TAMPER_1                    TAMP_CR1_TAMP1E /*!< Tamper 1 input detection */
 455:../Drivers/STM32L4xx_HAL_Driver/Inc/stm32l4xx_ll_rtc.h **** #define LL_RTC_TAMPER_2                    TAMP_CR1_TAMP2E /*!< Tamper 2 input detection */
 456:../Drivers/STM32L4xx_HAL_Driver/Inc/stm32l4xx_ll_rtc.h **** /**
 457:../Drivers/STM32L4xx_HAL_Driver/Inc/stm32l4xx_ll_rtc.h ****   * @}
 458:../Drivers/STM32L4xx_HAL_Driver/Inc/stm32l4xx_ll_rtc.h ****   */
 459:../Drivers/STM32L4xx_HAL_Driver/Inc/stm32l4xx_ll_rtc.h **** 
 460:../Drivers/STM32L4xx_HAL_Driver/Inc/stm32l4xx_ll_rtc.h **** /** @defgroup RTC_LL_EC_TAMPER_MASK  TAMPER MASK
 461:../Drivers/STM32L4xx_HAL_Driver/Inc/stm32l4xx_ll_rtc.h ****   * @{
 462:../Drivers/STM32L4xx_HAL_Driver/Inc/stm32l4xx_ll_rtc.h ****   */
 463:../Drivers/STM32L4xx_HAL_Driver/Inc/stm32l4xx_ll_rtc.h **** #define LL_RTC_TAMPER_MASK_TAMPER1         TAMP_CR2_TAMP1MSK /*!< Tamper 1 event generates a trigge
 464:../Drivers/STM32L4xx_HAL_Driver/Inc/stm32l4xx_ll_rtc.h **** #define LL_RTC_TAMPER_MASK_TAMPER2         TAMP_CR2_TAMP2MSK /*!< Tamper 2 event generates a trigge
 465:../Drivers/STM32L4xx_HAL_Driver/Inc/stm32l4xx_ll_rtc.h **** /**
 466:../Drivers/STM32L4xx_HAL_Driver/Inc/stm32l4xx_ll_rtc.h ****   * @}
 467:../Drivers/STM32L4xx_HAL_Driver/Inc/stm32l4xx_ll_rtc.h ****   */
 468:../Drivers/STM32L4xx_HAL_Driver/Inc/stm32l4xx_ll_rtc.h **** 
 469:../Drivers/STM32L4xx_HAL_Driver/Inc/stm32l4xx_ll_rtc.h **** /** @defgroup RTC_LL_EC_TAMPER_NOERASE  TAMPER NO ERASE
 470:../Drivers/STM32L4xx_HAL_Driver/Inc/stm32l4xx_ll_rtc.h ****   * @{
 471:../Drivers/STM32L4xx_HAL_Driver/Inc/stm32l4xx_ll_rtc.h ****   */
 472:../Drivers/STM32L4xx_HAL_Driver/Inc/stm32l4xx_ll_rtc.h **** #define LL_RTC_TAMPER_NOERASE_TAMPER1      TAMP_CR2_TAMP1NOERASE /*!< Tamper 1 event does not erase
 473:../Drivers/STM32L4xx_HAL_Driver/Inc/stm32l4xx_ll_rtc.h **** #define LL_RTC_TAMPER_NOERASE_TAMPER2      TAMP_CR2_TAMP2NOERASE /*!< Tamper 2 event does not erase
 474:../Drivers/STM32L4xx_HAL_Driver/Inc/stm32l4xx_ll_rtc.h **** /**
 475:../Drivers/STM32L4xx_HAL_Driver/Inc/stm32l4xx_ll_rtc.h ****   * @}
 476:../Drivers/STM32L4xx_HAL_Driver/Inc/stm32l4xx_ll_rtc.h ****   */
 477:../Drivers/STM32L4xx_HAL_Driver/Inc/stm32l4xx_ll_rtc.h **** 
 478:../Drivers/STM32L4xx_HAL_Driver/Inc/stm32l4xx_ll_rtc.h **** /** @defgroup RTC_LL_EC_TAMPER_DURATION  TAMPER DURATION
 479:../Drivers/STM32L4xx_HAL_Driver/Inc/stm32l4xx_ll_rtc.h ****   * @{
 480:../Drivers/STM32L4xx_HAL_Driver/Inc/stm32l4xx_ll_rtc.h ****   */
 481:../Drivers/STM32L4xx_HAL_Driver/Inc/stm32l4xx_ll_rtc.h **** #define LL_RTC_TAMPER_DURATION_1RTCCLK     0x00000000U            /*!< Tamper pins are pre-charged 
 482:../Drivers/STM32L4xx_HAL_Driver/Inc/stm32l4xx_ll_rtc.h **** #define LL_RTC_TAMPER_DURATION_2RTCCLK     TAMP_FLTCR_TAMPPRCH_0  /*!< Tamper pins are pre-charged 
 483:../Drivers/STM32L4xx_HAL_Driver/Inc/stm32l4xx_ll_rtc.h **** #define LL_RTC_TAMPER_DURATION_4RTCCLK     TAMP_FLTCR_TAMPPRCH_1  /*!< Tamper pins are pre-charged 
 484:../Drivers/STM32L4xx_HAL_Driver/Inc/stm32l4xx_ll_rtc.h **** #define LL_RTC_TAMPER_DURATION_8RTCCLK     TAMP_FLTCR_TAMPPRCH    /*!< Tamper pins are pre-charged 
 485:../Drivers/STM32L4xx_HAL_Driver/Inc/stm32l4xx_ll_rtc.h **** /**
 486:../Drivers/STM32L4xx_HAL_Driver/Inc/stm32l4xx_ll_rtc.h ****   * @}
 487:../Drivers/STM32L4xx_HAL_Driver/Inc/stm32l4xx_ll_rtc.h ****   */
ARM GAS  /tmp/cc5oboQK.s 			page 10


 488:../Drivers/STM32L4xx_HAL_Driver/Inc/stm32l4xx_ll_rtc.h **** 
 489:../Drivers/STM32L4xx_HAL_Driver/Inc/stm32l4xx_ll_rtc.h **** /** @defgroup RTC_LL_EC_TAMPER_FILTER  TAMPER FILTER
 490:../Drivers/STM32L4xx_HAL_Driver/Inc/stm32l4xx_ll_rtc.h ****   * @{
 491:../Drivers/STM32L4xx_HAL_Driver/Inc/stm32l4xx_ll_rtc.h ****   */
 492:../Drivers/STM32L4xx_HAL_Driver/Inc/stm32l4xx_ll_rtc.h **** #define LL_RTC_TAMPER_FILTER_DISABLE       0x00000000U             /*!< Tamper filter is disabled *
 493:../Drivers/STM32L4xx_HAL_Driver/Inc/stm32l4xx_ll_rtc.h **** #define LL_RTC_TAMPER_FILTER_2SAMPLE       TAMP_FLTCR_TAMPFLT_0    /*!< Tamper is activated after 2
 494:../Drivers/STM32L4xx_HAL_Driver/Inc/stm32l4xx_ll_rtc.h **** #define LL_RTC_TAMPER_FILTER_4SAMPLE       TAMP_FLTCR_TAMPFLT_1    /*!< Tamper is activated after 4
 495:../Drivers/STM32L4xx_HAL_Driver/Inc/stm32l4xx_ll_rtc.h **** #define LL_RTC_TAMPER_FILTER_8SAMPLE       TAMP_FLTCR_TAMPFLT      /*!< Tamper is activated after 8
 496:../Drivers/STM32L4xx_HAL_Driver/Inc/stm32l4xx_ll_rtc.h **** /**
 497:../Drivers/STM32L4xx_HAL_Driver/Inc/stm32l4xx_ll_rtc.h ****   * @}
 498:../Drivers/STM32L4xx_HAL_Driver/Inc/stm32l4xx_ll_rtc.h ****   */
 499:../Drivers/STM32L4xx_HAL_Driver/Inc/stm32l4xx_ll_rtc.h **** 
 500:../Drivers/STM32L4xx_HAL_Driver/Inc/stm32l4xx_ll_rtc.h **** /** @defgroup RTC_LL_EC_TAMPER_SAMPLFREQDIV  TAMPER SAMPLING FREQUENCY DIVIDER
 501:../Drivers/STM32L4xx_HAL_Driver/Inc/stm32l4xx_ll_rtc.h ****   * @{
 502:../Drivers/STM32L4xx_HAL_Driver/Inc/stm32l4xx_ll_rtc.h ****   */
 503:../Drivers/STM32L4xx_HAL_Driver/Inc/stm32l4xx_ll_rtc.h **** #define LL_RTC_TAMPER_SAMPLFREQDIV_32768   0x00000000U                                     /*!< Eac
 504:../Drivers/STM32L4xx_HAL_Driver/Inc/stm32l4xx_ll_rtc.h **** #define LL_RTC_TAMPER_SAMPLFREQDIV_16384   TAMP_FLTCR_TAMPFREQ_0                           /*!< Eac
 505:../Drivers/STM32L4xx_HAL_Driver/Inc/stm32l4xx_ll_rtc.h **** #define LL_RTC_TAMPER_SAMPLFREQDIV_8192    TAMP_FLTCR_TAMPFREQ_1                           /*!< Eac
 506:../Drivers/STM32L4xx_HAL_Driver/Inc/stm32l4xx_ll_rtc.h **** #define LL_RTC_TAMPER_SAMPLFREQDIV_4096    (TAMP_FLTCR_TAMPFREQ_1 | TAMP_FLTCR_TAMPFREQ_0) /*!< Eac
 507:../Drivers/STM32L4xx_HAL_Driver/Inc/stm32l4xx_ll_rtc.h **** #define LL_RTC_TAMPER_SAMPLFREQDIV_2048    TAMP_FLTCR_TAMPFREQ_2                           /*!< Eac
 508:../Drivers/STM32L4xx_HAL_Driver/Inc/stm32l4xx_ll_rtc.h **** #define LL_RTC_TAMPER_SAMPLFREQDIV_1024    (TAMP_FLTCR_TAMPFREQ_2 | TAMP_FLTCR_TAMPFREQ_0) /*!< Eac
 509:../Drivers/STM32L4xx_HAL_Driver/Inc/stm32l4xx_ll_rtc.h **** #define LL_RTC_TAMPER_SAMPLFREQDIV_512     (TAMP_FLTCR_TAMPFREQ_2 | TAMP_FLTCR_TAMPFREQ_1) /*!< Eac
 510:../Drivers/STM32L4xx_HAL_Driver/Inc/stm32l4xx_ll_rtc.h **** #define LL_RTC_TAMPER_SAMPLFREQDIV_256     TAMP_FLTCR_TAMPFREQ                             /*!< Eac
 511:../Drivers/STM32L4xx_HAL_Driver/Inc/stm32l4xx_ll_rtc.h **** /**
 512:../Drivers/STM32L4xx_HAL_Driver/Inc/stm32l4xx_ll_rtc.h ****   * @}
 513:../Drivers/STM32L4xx_HAL_Driver/Inc/stm32l4xx_ll_rtc.h ****   */
 514:../Drivers/STM32L4xx_HAL_Driver/Inc/stm32l4xx_ll_rtc.h **** 
 515:../Drivers/STM32L4xx_HAL_Driver/Inc/stm32l4xx_ll_rtc.h **** /** @defgroup RTC_LL_EC_TAMPER_ACTIVELEVEL  TAMPER ACTIVE LEVEL
 516:../Drivers/STM32L4xx_HAL_Driver/Inc/stm32l4xx_ll_rtc.h ****   * @{
 517:../Drivers/STM32L4xx_HAL_Driver/Inc/stm32l4xx_ll_rtc.h ****   */
 518:../Drivers/STM32L4xx_HAL_Driver/Inc/stm32l4xx_ll_rtc.h **** #define LL_RTC_TAMPER_ACTIVELEVEL_TAMP1    TAMP_CR2_TAMP1TRG /*!< Tamper 1 input falling edge (if T
 519:../Drivers/STM32L4xx_HAL_Driver/Inc/stm32l4xx_ll_rtc.h **** #define LL_RTC_TAMPER_ACTIVELEVEL_TAMP2    TAMP_CR2_TAMP2TRG /*!< Tamper 2 input falling edge (if T
 520:../Drivers/STM32L4xx_HAL_Driver/Inc/stm32l4xx_ll_rtc.h **** /**
 521:../Drivers/STM32L4xx_HAL_Driver/Inc/stm32l4xx_ll_rtc.h ****   * @}
 522:../Drivers/STM32L4xx_HAL_Driver/Inc/stm32l4xx_ll_rtc.h ****   */
 523:../Drivers/STM32L4xx_HAL_Driver/Inc/stm32l4xx_ll_rtc.h **** 
 524:../Drivers/STM32L4xx_HAL_Driver/Inc/stm32l4xx_ll_rtc.h **** #else /* #if defined(STM32L412xx) || defined(STM32L422xx) */
 525:../Drivers/STM32L4xx_HAL_Driver/Inc/stm32l4xx_ll_rtc.h **** 
 526:../Drivers/STM32L4xx_HAL_Driver/Inc/stm32l4xx_ll_rtc.h **** /** @defgroup RTC_LL_EC_TAMPER  TAMPER
 527:../Drivers/STM32L4xx_HAL_Driver/Inc/stm32l4xx_ll_rtc.h ****   * @{
 528:../Drivers/STM32L4xx_HAL_Driver/Inc/stm32l4xx_ll_rtc.h ****   */
 529:../Drivers/STM32L4xx_HAL_Driver/Inc/stm32l4xx_ll_rtc.h **** #if defined(RTC_TAMPER1_SUPPORT)
 530:../Drivers/STM32L4xx_HAL_Driver/Inc/stm32l4xx_ll_rtc.h **** #define LL_RTC_TAMPER_1                    RTC_TAMPCR_TAMP1E /*!< RTC_TAMP1 input detection */
 531:../Drivers/STM32L4xx_HAL_Driver/Inc/stm32l4xx_ll_rtc.h **** #endif /* RTC_TAMPER1_SUPPORT */
 532:../Drivers/STM32L4xx_HAL_Driver/Inc/stm32l4xx_ll_rtc.h **** #if defined(RTC_TAMPER2_SUPPORT)
 533:../Drivers/STM32L4xx_HAL_Driver/Inc/stm32l4xx_ll_rtc.h **** #define LL_RTC_TAMPER_2                    RTC_TAMPCR_TAMP2E /*!< RTC_TAMP2 input detection */
 534:../Drivers/STM32L4xx_HAL_Driver/Inc/stm32l4xx_ll_rtc.h **** #endif /* RTC_TAMPER2_SUPPORT */
 535:../Drivers/STM32L4xx_HAL_Driver/Inc/stm32l4xx_ll_rtc.h **** #if defined(RTC_TAMPER3_SUPPORT)
 536:../Drivers/STM32L4xx_HAL_Driver/Inc/stm32l4xx_ll_rtc.h **** #define LL_RTC_TAMPER_3                    RTC_TAMPCR_TAMP3E /*!< RTC_TAMP3 input detection */
 537:../Drivers/STM32L4xx_HAL_Driver/Inc/stm32l4xx_ll_rtc.h **** #endif /* RTC_TAMPER3_SUPPORT */
 538:../Drivers/STM32L4xx_HAL_Driver/Inc/stm32l4xx_ll_rtc.h **** /**
 539:../Drivers/STM32L4xx_HAL_Driver/Inc/stm32l4xx_ll_rtc.h ****   * @}
 540:../Drivers/STM32L4xx_HAL_Driver/Inc/stm32l4xx_ll_rtc.h ****   */
 541:../Drivers/STM32L4xx_HAL_Driver/Inc/stm32l4xx_ll_rtc.h **** 
 542:../Drivers/STM32L4xx_HAL_Driver/Inc/stm32l4xx_ll_rtc.h **** /** @defgroup RTC_LL_EC_TAMPER_MASK  TAMPER MASK
 543:../Drivers/STM32L4xx_HAL_Driver/Inc/stm32l4xx_ll_rtc.h ****   * @{
 544:../Drivers/STM32L4xx_HAL_Driver/Inc/stm32l4xx_ll_rtc.h ****   */
ARM GAS  /tmp/cc5oboQK.s 			page 11


 545:../Drivers/STM32L4xx_HAL_Driver/Inc/stm32l4xx_ll_rtc.h **** #if defined(RTC_TAMPER1_SUPPORT)
 546:../Drivers/STM32L4xx_HAL_Driver/Inc/stm32l4xx_ll_rtc.h **** #define LL_RTC_TAMPER_MASK_TAMPER1         RTC_TAMPCR_TAMP1MF /*!< Tamper 1 event generates a trigg
 547:../Drivers/STM32L4xx_HAL_Driver/Inc/stm32l4xx_ll_rtc.h **** #endif /* RTC_TAMPER1_SUPPORT */
 548:../Drivers/STM32L4xx_HAL_Driver/Inc/stm32l4xx_ll_rtc.h **** #if defined(RTC_TAMPER2_SUPPORT)
 549:../Drivers/STM32L4xx_HAL_Driver/Inc/stm32l4xx_ll_rtc.h **** #define LL_RTC_TAMPER_MASK_TAMPER2         RTC_TAMPCR_TAMP2MF /*!< Tamper 2 event generates a trigg
 550:../Drivers/STM32L4xx_HAL_Driver/Inc/stm32l4xx_ll_rtc.h **** #endif /* RTC_TAMPER2_SUPPORT */
 551:../Drivers/STM32L4xx_HAL_Driver/Inc/stm32l4xx_ll_rtc.h **** #if defined(RTC_TAMPER3_SUPPORT)
 552:../Drivers/STM32L4xx_HAL_Driver/Inc/stm32l4xx_ll_rtc.h **** #define LL_RTC_TAMPER_MASK_TAMPER3         RTC_TAMPCR_TAMP3MF /*!< Tamper 3 event generates a trigg
 553:../Drivers/STM32L4xx_HAL_Driver/Inc/stm32l4xx_ll_rtc.h **** #endif /* RTC_TAMPER3_SUPPORT */
 554:../Drivers/STM32L4xx_HAL_Driver/Inc/stm32l4xx_ll_rtc.h **** /**
 555:../Drivers/STM32L4xx_HAL_Driver/Inc/stm32l4xx_ll_rtc.h ****   * @}
 556:../Drivers/STM32L4xx_HAL_Driver/Inc/stm32l4xx_ll_rtc.h ****   */
 557:../Drivers/STM32L4xx_HAL_Driver/Inc/stm32l4xx_ll_rtc.h **** 
 558:../Drivers/STM32L4xx_HAL_Driver/Inc/stm32l4xx_ll_rtc.h **** /** @defgroup RTC_LL_EC_TAMPER_NOERASE  TAMPER NO ERASE
 559:../Drivers/STM32L4xx_HAL_Driver/Inc/stm32l4xx_ll_rtc.h ****   * @{
 560:../Drivers/STM32L4xx_HAL_Driver/Inc/stm32l4xx_ll_rtc.h ****   */
 561:../Drivers/STM32L4xx_HAL_Driver/Inc/stm32l4xx_ll_rtc.h **** #if defined(RTC_TAMPER1_SUPPORT)
 562:../Drivers/STM32L4xx_HAL_Driver/Inc/stm32l4xx_ll_rtc.h **** #define LL_RTC_TAMPER_NOERASE_TAMPER1      RTC_TAMPCR_TAMP1NOERASE /*!< Tamper 1 event does not era
 563:../Drivers/STM32L4xx_HAL_Driver/Inc/stm32l4xx_ll_rtc.h **** #endif /* RTC_TAMPER1_SUPPORT */
 564:../Drivers/STM32L4xx_HAL_Driver/Inc/stm32l4xx_ll_rtc.h **** #if defined(RTC_TAMPER2_SUPPORT)
 565:../Drivers/STM32L4xx_HAL_Driver/Inc/stm32l4xx_ll_rtc.h **** #define LL_RTC_TAMPER_NOERASE_TAMPER2      RTC_TAMPCR_TAMP2NOERASE /*!< Tamper 2 event does not era
 566:../Drivers/STM32L4xx_HAL_Driver/Inc/stm32l4xx_ll_rtc.h **** #endif /* RTC_TAMPER2_SUPPORT */
 567:../Drivers/STM32L4xx_HAL_Driver/Inc/stm32l4xx_ll_rtc.h **** #if defined(RTC_TAMPER3_SUPPORT)
 568:../Drivers/STM32L4xx_HAL_Driver/Inc/stm32l4xx_ll_rtc.h **** #define LL_RTC_TAMPER_NOERASE_TAMPER3      RTC_TAMPCR_TAMP3NOERASE /*!< Tamper 3 event does not era
 569:../Drivers/STM32L4xx_HAL_Driver/Inc/stm32l4xx_ll_rtc.h **** #endif /* RTC_TAMPER3_SUPPORT */
 570:../Drivers/STM32L4xx_HAL_Driver/Inc/stm32l4xx_ll_rtc.h **** /**
 571:../Drivers/STM32L4xx_HAL_Driver/Inc/stm32l4xx_ll_rtc.h ****   * @}
 572:../Drivers/STM32L4xx_HAL_Driver/Inc/stm32l4xx_ll_rtc.h ****   */
 573:../Drivers/STM32L4xx_HAL_Driver/Inc/stm32l4xx_ll_rtc.h **** 
 574:../Drivers/STM32L4xx_HAL_Driver/Inc/stm32l4xx_ll_rtc.h **** #if defined(RTC_TAMPCR_TAMPPRCH)
 575:../Drivers/STM32L4xx_HAL_Driver/Inc/stm32l4xx_ll_rtc.h **** /** @defgroup RTC_LL_EC_TAMPER_DURATION  TAMPER DURATION
 576:../Drivers/STM32L4xx_HAL_Driver/Inc/stm32l4xx_ll_rtc.h ****   * @{
 577:../Drivers/STM32L4xx_HAL_Driver/Inc/stm32l4xx_ll_rtc.h ****   */
 578:../Drivers/STM32L4xx_HAL_Driver/Inc/stm32l4xx_ll_rtc.h **** #define LL_RTC_TAMPER_DURATION_1RTCCLK     0x00000000U                             /*!< Tamper pins
 579:../Drivers/STM32L4xx_HAL_Driver/Inc/stm32l4xx_ll_rtc.h **** #define LL_RTC_TAMPER_DURATION_2RTCCLK     RTC_TAMPCR_TAMPPRCH_0  /*!< Tamper pins are pre-charged 
 580:../Drivers/STM32L4xx_HAL_Driver/Inc/stm32l4xx_ll_rtc.h **** #define LL_RTC_TAMPER_DURATION_4RTCCLK     RTC_TAMPCR_TAMPPRCH_1  /*!< Tamper pins are pre-charged 
 581:../Drivers/STM32L4xx_HAL_Driver/Inc/stm32l4xx_ll_rtc.h **** #define LL_RTC_TAMPER_DURATION_8RTCCLK     RTC_TAMPCR_TAMPPRCH    /*!< Tamper pins are pre-charged 
 582:../Drivers/STM32L4xx_HAL_Driver/Inc/stm32l4xx_ll_rtc.h **** /**
 583:../Drivers/STM32L4xx_HAL_Driver/Inc/stm32l4xx_ll_rtc.h ****   * @}
 584:../Drivers/STM32L4xx_HAL_Driver/Inc/stm32l4xx_ll_rtc.h ****   */
 585:../Drivers/STM32L4xx_HAL_Driver/Inc/stm32l4xx_ll_rtc.h **** #endif /* RTC_TAMPCR_TAMPPRCH */
 586:../Drivers/STM32L4xx_HAL_Driver/Inc/stm32l4xx_ll_rtc.h **** 
 587:../Drivers/STM32L4xx_HAL_Driver/Inc/stm32l4xx_ll_rtc.h **** #if defined(RTC_TAMPCR_TAMPFLT)
 588:../Drivers/STM32L4xx_HAL_Driver/Inc/stm32l4xx_ll_rtc.h **** /** @defgroup RTC_LL_EC_TAMPER_FILTER  TAMPER FILTER
 589:../Drivers/STM32L4xx_HAL_Driver/Inc/stm32l4xx_ll_rtc.h ****   * @{
 590:../Drivers/STM32L4xx_HAL_Driver/Inc/stm32l4xx_ll_rtc.h ****   */
 591:../Drivers/STM32L4xx_HAL_Driver/Inc/stm32l4xx_ll_rtc.h **** #define LL_RTC_TAMPER_FILTER_DISABLE       0x00000000U                              /*!< Tamper fil
 592:../Drivers/STM32L4xx_HAL_Driver/Inc/stm32l4xx_ll_rtc.h **** #define LL_RTC_TAMPER_FILTER_2SAMPLE       RTC_TAMPCR_TAMPFLT_0    /*!< Tamper is activated after 2
 593:../Drivers/STM32L4xx_HAL_Driver/Inc/stm32l4xx_ll_rtc.h **** #define LL_RTC_TAMPER_FILTER_4SAMPLE       RTC_TAMPCR_TAMPFLT_1    /*!< Tamper is activated after 4
 594:../Drivers/STM32L4xx_HAL_Driver/Inc/stm32l4xx_ll_rtc.h **** #define LL_RTC_TAMPER_FILTER_8SAMPLE       RTC_TAMPCR_TAMPFLT      /*!< Tamper is activated after 8
 595:../Drivers/STM32L4xx_HAL_Driver/Inc/stm32l4xx_ll_rtc.h **** /**
 596:../Drivers/STM32L4xx_HAL_Driver/Inc/stm32l4xx_ll_rtc.h ****   * @}
 597:../Drivers/STM32L4xx_HAL_Driver/Inc/stm32l4xx_ll_rtc.h ****   */
 598:../Drivers/STM32L4xx_HAL_Driver/Inc/stm32l4xx_ll_rtc.h **** #endif /* RTC_TAMPCR_TAMPFLT */
 599:../Drivers/STM32L4xx_HAL_Driver/Inc/stm32l4xx_ll_rtc.h **** 
 600:../Drivers/STM32L4xx_HAL_Driver/Inc/stm32l4xx_ll_rtc.h **** #if defined(RTC_TAMPCR_TAMPFREQ)
 601:../Drivers/STM32L4xx_HAL_Driver/Inc/stm32l4xx_ll_rtc.h **** /** @defgroup RTC_LL_EC_TAMPER_SAMPLFREQDIV  TAMPER SAMPLING FREQUENCY DIVIDER
ARM GAS  /tmp/cc5oboQK.s 			page 12


 602:../Drivers/STM32L4xx_HAL_Driver/Inc/stm32l4xx_ll_rtc.h ****   * @{
 603:../Drivers/STM32L4xx_HAL_Driver/Inc/stm32l4xx_ll_rtc.h ****   */
 604:../Drivers/STM32L4xx_HAL_Driver/Inc/stm32l4xx_ll_rtc.h **** #define LL_RTC_TAMPER_SAMPLFREQDIV_32768   0x00000000U                                             
 605:../Drivers/STM32L4xx_HAL_Driver/Inc/stm32l4xx_ll_rtc.h **** #define LL_RTC_TAMPER_SAMPLFREQDIV_16384   RTC_TAMPCR_TAMPFREQ_0                           /*!< Eac
 606:../Drivers/STM32L4xx_HAL_Driver/Inc/stm32l4xx_ll_rtc.h **** #define LL_RTC_TAMPER_SAMPLFREQDIV_8192    RTC_TAMPCR_TAMPFREQ_1                           /*!< Eac
 607:../Drivers/STM32L4xx_HAL_Driver/Inc/stm32l4xx_ll_rtc.h **** #define LL_RTC_TAMPER_SAMPLFREQDIV_4096    (RTC_TAMPCR_TAMPFREQ_1 | RTC_TAMPCR_TAMPFREQ_0) /*!< Eac
 608:../Drivers/STM32L4xx_HAL_Driver/Inc/stm32l4xx_ll_rtc.h **** #define LL_RTC_TAMPER_SAMPLFREQDIV_2048    RTC_TAMPCR_TAMPFREQ_2                           /*!< Eac
 609:../Drivers/STM32L4xx_HAL_Driver/Inc/stm32l4xx_ll_rtc.h **** #define LL_RTC_TAMPER_SAMPLFREQDIV_1024    (RTC_TAMPCR_TAMPFREQ_2 | RTC_TAMPCR_TAMPFREQ_0) /*!< Eac
 610:../Drivers/STM32L4xx_HAL_Driver/Inc/stm32l4xx_ll_rtc.h **** #define LL_RTC_TAMPER_SAMPLFREQDIV_512     (RTC_TAMPCR_TAMPFREQ_2 | RTC_TAMPCR_TAMPFREQ_1) /*!< Eac
 611:../Drivers/STM32L4xx_HAL_Driver/Inc/stm32l4xx_ll_rtc.h **** #define LL_RTC_TAMPER_SAMPLFREQDIV_256     RTC_TAMPCR_TAMPFREQ                             /*!< Eac
 612:../Drivers/STM32L4xx_HAL_Driver/Inc/stm32l4xx_ll_rtc.h **** /**
 613:../Drivers/STM32L4xx_HAL_Driver/Inc/stm32l4xx_ll_rtc.h ****   * @}
 614:../Drivers/STM32L4xx_HAL_Driver/Inc/stm32l4xx_ll_rtc.h ****   */
 615:../Drivers/STM32L4xx_HAL_Driver/Inc/stm32l4xx_ll_rtc.h **** #endif /* RTC_TAMPCR_TAMPFREQ */
 616:../Drivers/STM32L4xx_HAL_Driver/Inc/stm32l4xx_ll_rtc.h **** 
 617:../Drivers/STM32L4xx_HAL_Driver/Inc/stm32l4xx_ll_rtc.h **** /** @defgroup RTC_LL_EC_TAMPER_ACTIVELEVEL  TAMPER ACTIVE LEVEL
 618:../Drivers/STM32L4xx_HAL_Driver/Inc/stm32l4xx_ll_rtc.h ****   * @{
 619:../Drivers/STM32L4xx_HAL_Driver/Inc/stm32l4xx_ll_rtc.h ****   */
 620:../Drivers/STM32L4xx_HAL_Driver/Inc/stm32l4xx_ll_rtc.h **** #if defined(RTC_TAMPER1_SUPPORT)
 621:../Drivers/STM32L4xx_HAL_Driver/Inc/stm32l4xx_ll_rtc.h **** #define LL_RTC_TAMPER_ACTIVELEVEL_TAMP1    RTC_TAMPCR_TAMP1TRG /*!< RTC_TAMP1 input falling edge (i
 622:../Drivers/STM32L4xx_HAL_Driver/Inc/stm32l4xx_ll_rtc.h **** #endif /* RTC_TAMPER1_SUPPORT */
 623:../Drivers/STM32L4xx_HAL_Driver/Inc/stm32l4xx_ll_rtc.h **** #if defined(RTC_TAMPER2_SUPPORT)
 624:../Drivers/STM32L4xx_HAL_Driver/Inc/stm32l4xx_ll_rtc.h **** #define LL_RTC_TAMPER_ACTIVELEVEL_TAMP2    RTC_TAMPCR_TAMP2TRG /*!< RTC_TAMP2 input falling edge (i
 625:../Drivers/STM32L4xx_HAL_Driver/Inc/stm32l4xx_ll_rtc.h **** #endif /* RTC_TAMPER2_SUPPORT */
 626:../Drivers/STM32L4xx_HAL_Driver/Inc/stm32l4xx_ll_rtc.h **** #if defined(RTC_TAMPER3_SUPPORT)
 627:../Drivers/STM32L4xx_HAL_Driver/Inc/stm32l4xx_ll_rtc.h **** #define LL_RTC_TAMPER_ACTIVELEVEL_TAMP3    RTC_TAMPCR_TAMP3TRG /*!< RTC_TAMP3 input falling edge (i
 628:../Drivers/STM32L4xx_HAL_Driver/Inc/stm32l4xx_ll_rtc.h **** #endif /* RTC_TAMPER3_SUPPORT */
 629:../Drivers/STM32L4xx_HAL_Driver/Inc/stm32l4xx_ll_rtc.h **** /**
 630:../Drivers/STM32L4xx_HAL_Driver/Inc/stm32l4xx_ll_rtc.h ****   * @}
 631:../Drivers/STM32L4xx_HAL_Driver/Inc/stm32l4xx_ll_rtc.h ****   */
 632:../Drivers/STM32L4xx_HAL_Driver/Inc/stm32l4xx_ll_rtc.h **** 
 633:../Drivers/STM32L4xx_HAL_Driver/Inc/stm32l4xx_ll_rtc.h **** #endif /* #if defined(STM32L412xx) || defined(STM32L422xx) */
 634:../Drivers/STM32L4xx_HAL_Driver/Inc/stm32l4xx_ll_rtc.h **** 
 635:../Drivers/STM32L4xx_HAL_Driver/Inc/stm32l4xx_ll_rtc.h **** /** @defgroup RTC_LL_EC_WAKEUPCLOCK_DIV  WAKEUP CLOCK DIV
 636:../Drivers/STM32L4xx_HAL_Driver/Inc/stm32l4xx_ll_rtc.h ****   * @{
 637:../Drivers/STM32L4xx_HAL_Driver/Inc/stm32l4xx_ll_rtc.h ****   */
 638:../Drivers/STM32L4xx_HAL_Driver/Inc/stm32l4xx_ll_rtc.h **** #define LL_RTC_WAKEUPCLOCK_DIV_16          0x00000000U                           /*!< RTC/16 clock 
 639:../Drivers/STM32L4xx_HAL_Driver/Inc/stm32l4xx_ll_rtc.h **** #define LL_RTC_WAKEUPCLOCK_DIV_8           RTC_CR_WUCKSEL_0                      /*!< RTC/8 clock i
 640:../Drivers/STM32L4xx_HAL_Driver/Inc/stm32l4xx_ll_rtc.h **** #define LL_RTC_WAKEUPCLOCK_DIV_4           RTC_CR_WUCKSEL_1                      /*!< RTC/4 clock i
 641:../Drivers/STM32L4xx_HAL_Driver/Inc/stm32l4xx_ll_rtc.h **** #define LL_RTC_WAKEUPCLOCK_DIV_2           (RTC_CR_WUCKSEL_1 | RTC_CR_WUCKSEL_0) /*!< RTC/2 clock i
 642:../Drivers/STM32L4xx_HAL_Driver/Inc/stm32l4xx_ll_rtc.h **** #define LL_RTC_WAKEUPCLOCK_CKSPRE          RTC_CR_WUCKSEL_2                      /*!< ck_spre (usua
 643:../Drivers/STM32L4xx_HAL_Driver/Inc/stm32l4xx_ll_rtc.h **** #define LL_RTC_WAKEUPCLOCK_CKSPRE_WUT      (RTC_CR_WUCKSEL_2 | RTC_CR_WUCKSEL_1) /*!< ck_spre (usua
 644:../Drivers/STM32L4xx_HAL_Driver/Inc/stm32l4xx_ll_rtc.h **** /**
 645:../Drivers/STM32L4xx_HAL_Driver/Inc/stm32l4xx_ll_rtc.h ****   * @}
 646:../Drivers/STM32L4xx_HAL_Driver/Inc/stm32l4xx_ll_rtc.h ****   */
 647:../Drivers/STM32L4xx_HAL_Driver/Inc/stm32l4xx_ll_rtc.h **** 
 648:../Drivers/STM32L4xx_HAL_Driver/Inc/stm32l4xx_ll_rtc.h **** #if defined(RTC_BACKUP_SUPPORT)
 649:../Drivers/STM32L4xx_HAL_Driver/Inc/stm32l4xx_ll_rtc.h **** /** @defgroup RTC_LL_EC_BKP  BACKUP
 650:../Drivers/STM32L4xx_HAL_Driver/Inc/stm32l4xx_ll_rtc.h ****   * @{
 651:../Drivers/STM32L4xx_HAL_Driver/Inc/stm32l4xx_ll_rtc.h ****   */
 652:../Drivers/STM32L4xx_HAL_Driver/Inc/stm32l4xx_ll_rtc.h **** #define LL_RTC_BKP_DR0                     0x00000000U
 653:../Drivers/STM32L4xx_HAL_Driver/Inc/stm32l4xx_ll_rtc.h **** #define LL_RTC_BKP_DR1                     0x00000001U
 654:../Drivers/STM32L4xx_HAL_Driver/Inc/stm32l4xx_ll_rtc.h **** #define LL_RTC_BKP_DR2                     0x00000002U
 655:../Drivers/STM32L4xx_HAL_Driver/Inc/stm32l4xx_ll_rtc.h **** #define LL_RTC_BKP_DR3                     0x00000003U
 656:../Drivers/STM32L4xx_HAL_Driver/Inc/stm32l4xx_ll_rtc.h **** #define LL_RTC_BKP_DR4                     0x00000004U
 657:../Drivers/STM32L4xx_HAL_Driver/Inc/stm32l4xx_ll_rtc.h **** #if RTC_BKP_NUMBER > 5
 658:../Drivers/STM32L4xx_HAL_Driver/Inc/stm32l4xx_ll_rtc.h **** #define LL_RTC_BKP_DR5                     0x00000005U
ARM GAS  /tmp/cc5oboQK.s 			page 13


 659:../Drivers/STM32L4xx_HAL_Driver/Inc/stm32l4xx_ll_rtc.h **** #define LL_RTC_BKP_DR6                     0x00000006U
 660:../Drivers/STM32L4xx_HAL_Driver/Inc/stm32l4xx_ll_rtc.h **** #define LL_RTC_BKP_DR7                     0x00000007U
 661:../Drivers/STM32L4xx_HAL_Driver/Inc/stm32l4xx_ll_rtc.h **** #define LL_RTC_BKP_DR8                     0x00000008U
 662:../Drivers/STM32L4xx_HAL_Driver/Inc/stm32l4xx_ll_rtc.h **** #define LL_RTC_BKP_DR9                     0x00000009U
 663:../Drivers/STM32L4xx_HAL_Driver/Inc/stm32l4xx_ll_rtc.h **** #define LL_RTC_BKP_DR10                    0x0000000AU
 664:../Drivers/STM32L4xx_HAL_Driver/Inc/stm32l4xx_ll_rtc.h **** #define LL_RTC_BKP_DR11                    0x0000000BU
 665:../Drivers/STM32L4xx_HAL_Driver/Inc/stm32l4xx_ll_rtc.h **** #define LL_RTC_BKP_DR12                    0x0000000CU
 666:../Drivers/STM32L4xx_HAL_Driver/Inc/stm32l4xx_ll_rtc.h **** #define LL_RTC_BKP_DR13                    0x0000000DU
 667:../Drivers/STM32L4xx_HAL_Driver/Inc/stm32l4xx_ll_rtc.h **** #define LL_RTC_BKP_DR14                    0x0000000EU
 668:../Drivers/STM32L4xx_HAL_Driver/Inc/stm32l4xx_ll_rtc.h **** #define LL_RTC_BKP_DR15                    0x0000000FU
 669:../Drivers/STM32L4xx_HAL_Driver/Inc/stm32l4xx_ll_rtc.h **** #endif /* RTC_BKP_NUMBER > 5 */
 670:../Drivers/STM32L4xx_HAL_Driver/Inc/stm32l4xx_ll_rtc.h **** 
 671:../Drivers/STM32L4xx_HAL_Driver/Inc/stm32l4xx_ll_rtc.h **** #if RTC_BKP_NUMBER > 16
 672:../Drivers/STM32L4xx_HAL_Driver/Inc/stm32l4xx_ll_rtc.h **** #define LL_RTC_BKP_DR16                    0x00000010U
 673:../Drivers/STM32L4xx_HAL_Driver/Inc/stm32l4xx_ll_rtc.h **** #define LL_RTC_BKP_DR17                    0x00000011U
 674:../Drivers/STM32L4xx_HAL_Driver/Inc/stm32l4xx_ll_rtc.h **** #define LL_RTC_BKP_DR18                    0x00000012U
 675:../Drivers/STM32L4xx_HAL_Driver/Inc/stm32l4xx_ll_rtc.h **** #define LL_RTC_BKP_DR19                    0x00000013U
 676:../Drivers/STM32L4xx_HAL_Driver/Inc/stm32l4xx_ll_rtc.h **** #endif /* RTC_BKP_NUMBER > 16 */
 677:../Drivers/STM32L4xx_HAL_Driver/Inc/stm32l4xx_ll_rtc.h **** 
 678:../Drivers/STM32L4xx_HAL_Driver/Inc/stm32l4xx_ll_rtc.h **** #if RTC_BKP_NUMBER > 20
 679:../Drivers/STM32L4xx_HAL_Driver/Inc/stm32l4xx_ll_rtc.h **** #define LL_RTC_BKP_DR20                    0x00000014U
 680:../Drivers/STM32L4xx_HAL_Driver/Inc/stm32l4xx_ll_rtc.h **** #define LL_RTC_BKP_DR21                    0x00000015U
 681:../Drivers/STM32L4xx_HAL_Driver/Inc/stm32l4xx_ll_rtc.h **** #define LL_RTC_BKP_DR22                    0x00000016U
 682:../Drivers/STM32L4xx_HAL_Driver/Inc/stm32l4xx_ll_rtc.h **** #define LL_RTC_BKP_DR23                    0x00000017U
 683:../Drivers/STM32L4xx_HAL_Driver/Inc/stm32l4xx_ll_rtc.h **** #define LL_RTC_BKP_DR24                    0x00000018U
 684:../Drivers/STM32L4xx_HAL_Driver/Inc/stm32l4xx_ll_rtc.h **** #define LL_RTC_BKP_DR25                    0x00000019U
 685:../Drivers/STM32L4xx_HAL_Driver/Inc/stm32l4xx_ll_rtc.h **** #define LL_RTC_BKP_DR26                    0x0000001AU
 686:../Drivers/STM32L4xx_HAL_Driver/Inc/stm32l4xx_ll_rtc.h **** #define LL_RTC_BKP_DR27                    0x0000001BU
 687:../Drivers/STM32L4xx_HAL_Driver/Inc/stm32l4xx_ll_rtc.h **** #define LL_RTC_BKP_DR28                    0x0000001CU
 688:../Drivers/STM32L4xx_HAL_Driver/Inc/stm32l4xx_ll_rtc.h **** #define LL_RTC_BKP_DR29                    0x0000001DU
 689:../Drivers/STM32L4xx_HAL_Driver/Inc/stm32l4xx_ll_rtc.h **** #define LL_RTC_BKP_DR30                    0x0000001EU
 690:../Drivers/STM32L4xx_HAL_Driver/Inc/stm32l4xx_ll_rtc.h **** #define LL_RTC_BKP_DR31                    0x0000001FU
 691:../Drivers/STM32L4xx_HAL_Driver/Inc/stm32l4xx_ll_rtc.h **** #endif /* RTC_BKP_NUMBER > 20 */
 692:../Drivers/STM32L4xx_HAL_Driver/Inc/stm32l4xx_ll_rtc.h **** /**
 693:../Drivers/STM32L4xx_HAL_Driver/Inc/stm32l4xx_ll_rtc.h ****   * @}
 694:../Drivers/STM32L4xx_HAL_Driver/Inc/stm32l4xx_ll_rtc.h ****   */
 695:../Drivers/STM32L4xx_HAL_Driver/Inc/stm32l4xx_ll_rtc.h **** #endif /* RTC_BACKUP_SUPPORT */
 696:../Drivers/STM32L4xx_HAL_Driver/Inc/stm32l4xx_ll_rtc.h **** 
 697:../Drivers/STM32L4xx_HAL_Driver/Inc/stm32l4xx_ll_rtc.h **** /** @defgroup RTC_LL_EC_CALIB_OUTPUT  Calibration output
 698:../Drivers/STM32L4xx_HAL_Driver/Inc/stm32l4xx_ll_rtc.h ****   * @{
 699:../Drivers/STM32L4xx_HAL_Driver/Inc/stm32l4xx_ll_rtc.h ****   */
 700:../Drivers/STM32L4xx_HAL_Driver/Inc/stm32l4xx_ll_rtc.h **** #define LL_RTC_CALIB_OUTPUT_NONE           0x00000000U                 /*!< Calibration output disa
 701:../Drivers/STM32L4xx_HAL_Driver/Inc/stm32l4xx_ll_rtc.h **** #define LL_RTC_CALIB_OUTPUT_1HZ            (RTC_CR_COE | RTC_CR_COSEL) /*!< Calibration output is 1
 702:../Drivers/STM32L4xx_HAL_Driver/Inc/stm32l4xx_ll_rtc.h **** #define LL_RTC_CALIB_OUTPUT_512HZ           RTC_CR_COE                 /*!< Calibration output is 5
 703:../Drivers/STM32L4xx_HAL_Driver/Inc/stm32l4xx_ll_rtc.h **** /**
 704:../Drivers/STM32L4xx_HAL_Driver/Inc/stm32l4xx_ll_rtc.h ****   * @}
 705:../Drivers/STM32L4xx_HAL_Driver/Inc/stm32l4xx_ll_rtc.h ****   */
 706:../Drivers/STM32L4xx_HAL_Driver/Inc/stm32l4xx_ll_rtc.h **** 
 707:../Drivers/STM32L4xx_HAL_Driver/Inc/stm32l4xx_ll_rtc.h **** /** @defgroup RTC_LL_EC_CALIB_INSERTPULSE  Calibration pulse insertion
 708:../Drivers/STM32L4xx_HAL_Driver/Inc/stm32l4xx_ll_rtc.h ****   * @{
 709:../Drivers/STM32L4xx_HAL_Driver/Inc/stm32l4xx_ll_rtc.h ****   */
 710:../Drivers/STM32L4xx_HAL_Driver/Inc/stm32l4xx_ll_rtc.h **** #define LL_RTC_CALIB_INSERTPULSE_NONE      0x00000000U           /*!< No RTCCLK pulses are added */
 711:../Drivers/STM32L4xx_HAL_Driver/Inc/stm32l4xx_ll_rtc.h **** #define LL_RTC_CALIB_INSERTPULSE_SET       RTC_CALR_CALP         /*!< One RTCCLK pulse is effective
 712:../Drivers/STM32L4xx_HAL_Driver/Inc/stm32l4xx_ll_rtc.h **** /**
 713:../Drivers/STM32L4xx_HAL_Driver/Inc/stm32l4xx_ll_rtc.h ****   * @}
 714:../Drivers/STM32L4xx_HAL_Driver/Inc/stm32l4xx_ll_rtc.h ****   */
 715:../Drivers/STM32L4xx_HAL_Driver/Inc/stm32l4xx_ll_rtc.h **** 
ARM GAS  /tmp/cc5oboQK.s 			page 14


 716:../Drivers/STM32L4xx_HAL_Driver/Inc/stm32l4xx_ll_rtc.h **** /** @defgroup RTC_LL_EC_CALIB_PERIOD  Calibration period
 717:../Drivers/STM32L4xx_HAL_Driver/Inc/stm32l4xx_ll_rtc.h ****   * @{
 718:../Drivers/STM32L4xx_HAL_Driver/Inc/stm32l4xx_ll_rtc.h ****   */
 719:../Drivers/STM32L4xx_HAL_Driver/Inc/stm32l4xx_ll_rtc.h **** #define LL_RTC_CALIB_PERIOD_32SEC          0x00000000U           /*!< Use a 32-second calibration c
 720:../Drivers/STM32L4xx_HAL_Driver/Inc/stm32l4xx_ll_rtc.h **** #define LL_RTC_CALIB_PERIOD_16SEC          RTC_CALR_CALW16       /*!< Use a 16-second calibration c
 721:../Drivers/STM32L4xx_HAL_Driver/Inc/stm32l4xx_ll_rtc.h **** #define LL_RTC_CALIB_PERIOD_8SEC           RTC_CALR_CALW8        /*!< Use a 8-second calibration cy
 722:../Drivers/STM32L4xx_HAL_Driver/Inc/stm32l4xx_ll_rtc.h **** /**
 723:../Drivers/STM32L4xx_HAL_Driver/Inc/stm32l4xx_ll_rtc.h ****   * @}
 724:../Drivers/STM32L4xx_HAL_Driver/Inc/stm32l4xx_ll_rtc.h ****   */
 725:../Drivers/STM32L4xx_HAL_Driver/Inc/stm32l4xx_ll_rtc.h **** 
 726:../Drivers/STM32L4xx_HAL_Driver/Inc/stm32l4xx_ll_rtc.h **** /**
 727:../Drivers/STM32L4xx_HAL_Driver/Inc/stm32l4xx_ll_rtc.h ****   * @}
 728:../Drivers/STM32L4xx_HAL_Driver/Inc/stm32l4xx_ll_rtc.h ****   */
 729:../Drivers/STM32L4xx_HAL_Driver/Inc/stm32l4xx_ll_rtc.h **** 
 730:../Drivers/STM32L4xx_HAL_Driver/Inc/stm32l4xx_ll_rtc.h **** /* Exported macro ------------------------------------------------------------*/
 731:../Drivers/STM32L4xx_HAL_Driver/Inc/stm32l4xx_ll_rtc.h **** /** @defgroup RTC_LL_Exported_Macros RTC Exported Macros
 732:../Drivers/STM32L4xx_HAL_Driver/Inc/stm32l4xx_ll_rtc.h ****   * @{
 733:../Drivers/STM32L4xx_HAL_Driver/Inc/stm32l4xx_ll_rtc.h ****   */
 734:../Drivers/STM32L4xx_HAL_Driver/Inc/stm32l4xx_ll_rtc.h **** 
 735:../Drivers/STM32L4xx_HAL_Driver/Inc/stm32l4xx_ll_rtc.h **** /** @defgroup RTC_LL_EM_WRITE_READ Common Write and read registers Macros
 736:../Drivers/STM32L4xx_HAL_Driver/Inc/stm32l4xx_ll_rtc.h ****   * @{
 737:../Drivers/STM32L4xx_HAL_Driver/Inc/stm32l4xx_ll_rtc.h ****   */
 738:../Drivers/STM32L4xx_HAL_Driver/Inc/stm32l4xx_ll_rtc.h **** 
 739:../Drivers/STM32L4xx_HAL_Driver/Inc/stm32l4xx_ll_rtc.h **** /**
 740:../Drivers/STM32L4xx_HAL_Driver/Inc/stm32l4xx_ll_rtc.h ****   * @brief  Write a value in RTC register
 741:../Drivers/STM32L4xx_HAL_Driver/Inc/stm32l4xx_ll_rtc.h ****   * @param  __INSTANCE__ RTC Instance
 742:../Drivers/STM32L4xx_HAL_Driver/Inc/stm32l4xx_ll_rtc.h ****   * @param  __REG__ Register to be written
 743:../Drivers/STM32L4xx_HAL_Driver/Inc/stm32l4xx_ll_rtc.h ****   * @param  __VALUE__ Value to be written in the register
 744:../Drivers/STM32L4xx_HAL_Driver/Inc/stm32l4xx_ll_rtc.h ****   * @retval None
 745:../Drivers/STM32L4xx_HAL_Driver/Inc/stm32l4xx_ll_rtc.h ****   */
 746:../Drivers/STM32L4xx_HAL_Driver/Inc/stm32l4xx_ll_rtc.h **** #define LL_RTC_WriteReg(__INSTANCE__, __REG__, __VALUE__) WRITE_REG(__INSTANCE__->__REG__, (__VALUE
 747:../Drivers/STM32L4xx_HAL_Driver/Inc/stm32l4xx_ll_rtc.h **** 
 748:../Drivers/STM32L4xx_HAL_Driver/Inc/stm32l4xx_ll_rtc.h **** /**
 749:../Drivers/STM32L4xx_HAL_Driver/Inc/stm32l4xx_ll_rtc.h ****   * @brief  Read a value in RTC register
 750:../Drivers/STM32L4xx_HAL_Driver/Inc/stm32l4xx_ll_rtc.h ****   * @param  __INSTANCE__ RTC Instance
 751:../Drivers/STM32L4xx_HAL_Driver/Inc/stm32l4xx_ll_rtc.h ****   * @param  __REG__ Register to be read
 752:../Drivers/STM32L4xx_HAL_Driver/Inc/stm32l4xx_ll_rtc.h ****   * @retval Register value
 753:../Drivers/STM32L4xx_HAL_Driver/Inc/stm32l4xx_ll_rtc.h ****   */
 754:../Drivers/STM32L4xx_HAL_Driver/Inc/stm32l4xx_ll_rtc.h **** #define LL_RTC_ReadReg(__INSTANCE__, __REG__) READ_REG(__INSTANCE__->__REG__)
 755:../Drivers/STM32L4xx_HAL_Driver/Inc/stm32l4xx_ll_rtc.h **** /**
 756:../Drivers/STM32L4xx_HAL_Driver/Inc/stm32l4xx_ll_rtc.h ****   * @}
 757:../Drivers/STM32L4xx_HAL_Driver/Inc/stm32l4xx_ll_rtc.h ****   */
 758:../Drivers/STM32L4xx_HAL_Driver/Inc/stm32l4xx_ll_rtc.h **** 
 759:../Drivers/STM32L4xx_HAL_Driver/Inc/stm32l4xx_ll_rtc.h **** /** @defgroup RTC_LL_EM_Convert Convert helper Macros
 760:../Drivers/STM32L4xx_HAL_Driver/Inc/stm32l4xx_ll_rtc.h ****   * @{
 761:../Drivers/STM32L4xx_HAL_Driver/Inc/stm32l4xx_ll_rtc.h ****   */
 762:../Drivers/STM32L4xx_HAL_Driver/Inc/stm32l4xx_ll_rtc.h **** 
 763:../Drivers/STM32L4xx_HAL_Driver/Inc/stm32l4xx_ll_rtc.h **** /**
 764:../Drivers/STM32L4xx_HAL_Driver/Inc/stm32l4xx_ll_rtc.h ****   * @brief  Helper macro to convert a value from 2 digit decimal format to BCD format
 765:../Drivers/STM32L4xx_HAL_Driver/Inc/stm32l4xx_ll_rtc.h ****   * @param  __VALUE__ Byte to be converted
 766:../Drivers/STM32L4xx_HAL_Driver/Inc/stm32l4xx_ll_rtc.h ****   * @retval Converted byte
 767:../Drivers/STM32L4xx_HAL_Driver/Inc/stm32l4xx_ll_rtc.h ****   */
 768:../Drivers/STM32L4xx_HAL_Driver/Inc/stm32l4xx_ll_rtc.h **** #define __LL_RTC_CONVERT_BIN2BCD(__VALUE__) (uint8_t)((((__VALUE__) / 10U) << 4U) | ((__VALUE__) % 
 769:../Drivers/STM32L4xx_HAL_Driver/Inc/stm32l4xx_ll_rtc.h **** 
 770:../Drivers/STM32L4xx_HAL_Driver/Inc/stm32l4xx_ll_rtc.h **** /**
 771:../Drivers/STM32L4xx_HAL_Driver/Inc/stm32l4xx_ll_rtc.h ****   * @brief  Helper macro to convert a value from BCD format to 2 digit decimal format
 772:../Drivers/STM32L4xx_HAL_Driver/Inc/stm32l4xx_ll_rtc.h ****   * @param  __VALUE__ BCD value to be converted
ARM GAS  /tmp/cc5oboQK.s 			page 15


 773:../Drivers/STM32L4xx_HAL_Driver/Inc/stm32l4xx_ll_rtc.h ****   * @retval Converted byte
 774:../Drivers/STM32L4xx_HAL_Driver/Inc/stm32l4xx_ll_rtc.h ****   */
 775:../Drivers/STM32L4xx_HAL_Driver/Inc/stm32l4xx_ll_rtc.h **** #define __LL_RTC_CONVERT_BCD2BIN(__VALUE__) (uint8_t)(((uint8_t)((__VALUE__) & (uint8_t)0xF0U) >> (
 776:../Drivers/STM32L4xx_HAL_Driver/Inc/stm32l4xx_ll_rtc.h **** 
 777:../Drivers/STM32L4xx_HAL_Driver/Inc/stm32l4xx_ll_rtc.h **** /**
 778:../Drivers/STM32L4xx_HAL_Driver/Inc/stm32l4xx_ll_rtc.h ****   * @}
 779:../Drivers/STM32L4xx_HAL_Driver/Inc/stm32l4xx_ll_rtc.h ****   */
 780:../Drivers/STM32L4xx_HAL_Driver/Inc/stm32l4xx_ll_rtc.h **** 
 781:../Drivers/STM32L4xx_HAL_Driver/Inc/stm32l4xx_ll_rtc.h **** /** @defgroup RTC_LL_EM_Date Date helper Macros
 782:../Drivers/STM32L4xx_HAL_Driver/Inc/stm32l4xx_ll_rtc.h ****   * @{
 783:../Drivers/STM32L4xx_HAL_Driver/Inc/stm32l4xx_ll_rtc.h ****   */
 784:../Drivers/STM32L4xx_HAL_Driver/Inc/stm32l4xx_ll_rtc.h **** 
 785:../Drivers/STM32L4xx_HAL_Driver/Inc/stm32l4xx_ll_rtc.h **** /**
 786:../Drivers/STM32L4xx_HAL_Driver/Inc/stm32l4xx_ll_rtc.h ****   * @brief  Helper macro to retrieve weekday.
 787:../Drivers/STM32L4xx_HAL_Driver/Inc/stm32l4xx_ll_rtc.h ****   * @param  __RTC_DATE__ Date returned by @ref  LL_RTC_DATE_Get function.
 788:../Drivers/STM32L4xx_HAL_Driver/Inc/stm32l4xx_ll_rtc.h ****   * @retval Returned value can be one of the following values:
 789:../Drivers/STM32L4xx_HAL_Driver/Inc/stm32l4xx_ll_rtc.h ****   *         @arg @ref LL_RTC_WEEKDAY_MONDAY
 790:../Drivers/STM32L4xx_HAL_Driver/Inc/stm32l4xx_ll_rtc.h ****   *         @arg @ref LL_RTC_WEEKDAY_TUESDAY
 791:../Drivers/STM32L4xx_HAL_Driver/Inc/stm32l4xx_ll_rtc.h ****   *         @arg @ref LL_RTC_WEEKDAY_WEDNESDAY
 792:../Drivers/STM32L4xx_HAL_Driver/Inc/stm32l4xx_ll_rtc.h ****   *         @arg @ref LL_RTC_WEEKDAY_THURSDAY
 793:../Drivers/STM32L4xx_HAL_Driver/Inc/stm32l4xx_ll_rtc.h ****   *         @arg @ref LL_RTC_WEEKDAY_FRIDAY
 794:../Drivers/STM32L4xx_HAL_Driver/Inc/stm32l4xx_ll_rtc.h ****   *         @arg @ref LL_RTC_WEEKDAY_SATURDAY
 795:../Drivers/STM32L4xx_HAL_Driver/Inc/stm32l4xx_ll_rtc.h ****   *         @arg @ref LL_RTC_WEEKDAY_SUNDAY
 796:../Drivers/STM32L4xx_HAL_Driver/Inc/stm32l4xx_ll_rtc.h ****   */
 797:../Drivers/STM32L4xx_HAL_Driver/Inc/stm32l4xx_ll_rtc.h **** #define __LL_RTC_GET_WEEKDAY(__RTC_DATE__) (((__RTC_DATE__) >> RTC_OFFSET_WEEKDAY) & 0x000000FFU)
 798:../Drivers/STM32L4xx_HAL_Driver/Inc/stm32l4xx_ll_rtc.h **** 
 799:../Drivers/STM32L4xx_HAL_Driver/Inc/stm32l4xx_ll_rtc.h **** /**
 800:../Drivers/STM32L4xx_HAL_Driver/Inc/stm32l4xx_ll_rtc.h ****   * @brief  Helper macro to retrieve Year in BCD format
 801:../Drivers/STM32L4xx_HAL_Driver/Inc/stm32l4xx_ll_rtc.h ****   * @param  __RTC_DATE__ Value returned by @ref  LL_RTC_DATE_Get
 802:../Drivers/STM32L4xx_HAL_Driver/Inc/stm32l4xx_ll_rtc.h ****   * @retval Year in BCD format (0x00 . . . 0x99)
 803:../Drivers/STM32L4xx_HAL_Driver/Inc/stm32l4xx_ll_rtc.h ****   */
 804:../Drivers/STM32L4xx_HAL_Driver/Inc/stm32l4xx_ll_rtc.h **** #define __LL_RTC_GET_YEAR(__RTC_DATE__) ((__RTC_DATE__) & 0x000000FFU)
 805:../Drivers/STM32L4xx_HAL_Driver/Inc/stm32l4xx_ll_rtc.h **** 
 806:../Drivers/STM32L4xx_HAL_Driver/Inc/stm32l4xx_ll_rtc.h **** /**
 807:../Drivers/STM32L4xx_HAL_Driver/Inc/stm32l4xx_ll_rtc.h ****   * @brief  Helper macro to retrieve Month in BCD format
 808:../Drivers/STM32L4xx_HAL_Driver/Inc/stm32l4xx_ll_rtc.h ****   * @param  __RTC_DATE__ Value returned by @ref  LL_RTC_DATE_Get
 809:../Drivers/STM32L4xx_HAL_Driver/Inc/stm32l4xx_ll_rtc.h ****   * @retval Returned value can be one of the following values:
 810:../Drivers/STM32L4xx_HAL_Driver/Inc/stm32l4xx_ll_rtc.h ****   *         @arg @ref LL_RTC_MONTH_JANUARY
 811:../Drivers/STM32L4xx_HAL_Driver/Inc/stm32l4xx_ll_rtc.h ****   *         @arg @ref LL_RTC_MONTH_FEBRUARY
 812:../Drivers/STM32L4xx_HAL_Driver/Inc/stm32l4xx_ll_rtc.h ****   *         @arg @ref LL_RTC_MONTH_MARCH
 813:../Drivers/STM32L4xx_HAL_Driver/Inc/stm32l4xx_ll_rtc.h ****   *         @arg @ref LL_RTC_MONTH_APRIL
 814:../Drivers/STM32L4xx_HAL_Driver/Inc/stm32l4xx_ll_rtc.h ****   *         @arg @ref LL_RTC_MONTH_MAY
 815:../Drivers/STM32L4xx_HAL_Driver/Inc/stm32l4xx_ll_rtc.h ****   *         @arg @ref LL_RTC_MONTH_JUNE
 816:../Drivers/STM32L4xx_HAL_Driver/Inc/stm32l4xx_ll_rtc.h ****   *         @arg @ref LL_RTC_MONTH_JULY
 817:../Drivers/STM32L4xx_HAL_Driver/Inc/stm32l4xx_ll_rtc.h ****   *         @arg @ref LL_RTC_MONTH_AUGUST
 818:../Drivers/STM32L4xx_HAL_Driver/Inc/stm32l4xx_ll_rtc.h ****   *         @arg @ref LL_RTC_MONTH_SEPTEMBER
 819:../Drivers/STM32L4xx_HAL_Driver/Inc/stm32l4xx_ll_rtc.h ****   *         @arg @ref LL_RTC_MONTH_OCTOBER
 820:../Drivers/STM32L4xx_HAL_Driver/Inc/stm32l4xx_ll_rtc.h ****   *         @arg @ref LL_RTC_MONTH_NOVEMBER
 821:../Drivers/STM32L4xx_HAL_Driver/Inc/stm32l4xx_ll_rtc.h ****   *         @arg @ref LL_RTC_MONTH_DECEMBER
 822:../Drivers/STM32L4xx_HAL_Driver/Inc/stm32l4xx_ll_rtc.h ****   */
 823:../Drivers/STM32L4xx_HAL_Driver/Inc/stm32l4xx_ll_rtc.h **** #define __LL_RTC_GET_MONTH(__RTC_DATE__) (((__RTC_DATE__) >>RTC_OFFSET_MONTH) & 0x000000FFU)
 824:../Drivers/STM32L4xx_HAL_Driver/Inc/stm32l4xx_ll_rtc.h **** 
 825:../Drivers/STM32L4xx_HAL_Driver/Inc/stm32l4xx_ll_rtc.h **** /**
 826:../Drivers/STM32L4xx_HAL_Driver/Inc/stm32l4xx_ll_rtc.h ****   * @brief  Helper macro to retrieve Day in BCD format
 827:../Drivers/STM32L4xx_HAL_Driver/Inc/stm32l4xx_ll_rtc.h ****   * @param  __RTC_DATE__ Value returned by @ref  LL_RTC_DATE_Get
 828:../Drivers/STM32L4xx_HAL_Driver/Inc/stm32l4xx_ll_rtc.h ****   * @retval Day in BCD format (0x01 . . . 0x31)
 829:../Drivers/STM32L4xx_HAL_Driver/Inc/stm32l4xx_ll_rtc.h ****   */
ARM GAS  /tmp/cc5oboQK.s 			page 16


 830:../Drivers/STM32L4xx_HAL_Driver/Inc/stm32l4xx_ll_rtc.h **** #define __LL_RTC_GET_DAY(__RTC_DATE__) (((__RTC_DATE__) >>RTC_OFFSET_DAY) & 0x000000FFU)
 831:../Drivers/STM32L4xx_HAL_Driver/Inc/stm32l4xx_ll_rtc.h **** 
 832:../Drivers/STM32L4xx_HAL_Driver/Inc/stm32l4xx_ll_rtc.h **** /**
 833:../Drivers/STM32L4xx_HAL_Driver/Inc/stm32l4xx_ll_rtc.h ****   * @}
 834:../Drivers/STM32L4xx_HAL_Driver/Inc/stm32l4xx_ll_rtc.h ****   */
 835:../Drivers/STM32L4xx_HAL_Driver/Inc/stm32l4xx_ll_rtc.h **** 
 836:../Drivers/STM32L4xx_HAL_Driver/Inc/stm32l4xx_ll_rtc.h **** /** @defgroup RTC_LL_EM_Time Time helper Macros
 837:../Drivers/STM32L4xx_HAL_Driver/Inc/stm32l4xx_ll_rtc.h ****   * @{
 838:../Drivers/STM32L4xx_HAL_Driver/Inc/stm32l4xx_ll_rtc.h ****   */
 839:../Drivers/STM32L4xx_HAL_Driver/Inc/stm32l4xx_ll_rtc.h **** 
 840:../Drivers/STM32L4xx_HAL_Driver/Inc/stm32l4xx_ll_rtc.h **** /**
 841:../Drivers/STM32L4xx_HAL_Driver/Inc/stm32l4xx_ll_rtc.h ****   * @brief  Helper macro to retrieve hour in BCD format
 842:../Drivers/STM32L4xx_HAL_Driver/Inc/stm32l4xx_ll_rtc.h ****   * @param  __RTC_TIME__ RTC time returned by @ref LL_RTC_TIME_Get function
 843:../Drivers/STM32L4xx_HAL_Driver/Inc/stm32l4xx_ll_rtc.h ****   * @retval Hours in BCD format (0x01. . .0x12 or between Min_Data=0x00 and Max_Data=0x23)
 844:../Drivers/STM32L4xx_HAL_Driver/Inc/stm32l4xx_ll_rtc.h ****   */
 845:../Drivers/STM32L4xx_HAL_Driver/Inc/stm32l4xx_ll_rtc.h **** #define __LL_RTC_GET_HOUR(__RTC_TIME__) (((__RTC_TIME__) >> RTC_OFFSET_HOUR) & 0x000000FFU)
 846:../Drivers/STM32L4xx_HAL_Driver/Inc/stm32l4xx_ll_rtc.h **** 
 847:../Drivers/STM32L4xx_HAL_Driver/Inc/stm32l4xx_ll_rtc.h **** /**
 848:../Drivers/STM32L4xx_HAL_Driver/Inc/stm32l4xx_ll_rtc.h ****   * @brief  Helper macro to retrieve minute in BCD format
 849:../Drivers/STM32L4xx_HAL_Driver/Inc/stm32l4xx_ll_rtc.h ****   * @param  __RTC_TIME__ RTC time returned by @ref LL_RTC_TIME_Get function
 850:../Drivers/STM32L4xx_HAL_Driver/Inc/stm32l4xx_ll_rtc.h ****   * @retval Minutes in BCD format (0x00. . .0x59)
 851:../Drivers/STM32L4xx_HAL_Driver/Inc/stm32l4xx_ll_rtc.h ****   */
 852:../Drivers/STM32L4xx_HAL_Driver/Inc/stm32l4xx_ll_rtc.h **** #define __LL_RTC_GET_MINUTE(__RTC_TIME__) (((__RTC_TIME__) >> RTC_OFFSET_MINUTE) & 0x000000FFU)
 853:../Drivers/STM32L4xx_HAL_Driver/Inc/stm32l4xx_ll_rtc.h **** 
 854:../Drivers/STM32L4xx_HAL_Driver/Inc/stm32l4xx_ll_rtc.h **** /**
 855:../Drivers/STM32L4xx_HAL_Driver/Inc/stm32l4xx_ll_rtc.h ****   * @brief  Helper macro to retrieve second in BCD format
 856:../Drivers/STM32L4xx_HAL_Driver/Inc/stm32l4xx_ll_rtc.h ****   * @param  __RTC_TIME__ RTC time returned by @ref LL_RTC_TIME_Get function
 857:../Drivers/STM32L4xx_HAL_Driver/Inc/stm32l4xx_ll_rtc.h ****   * @retval Seconds in  format (0x00. . .0x59)
 858:../Drivers/STM32L4xx_HAL_Driver/Inc/stm32l4xx_ll_rtc.h ****   */
 859:../Drivers/STM32L4xx_HAL_Driver/Inc/stm32l4xx_ll_rtc.h **** #define __LL_RTC_GET_SECOND(__RTC_TIME__) ((__RTC_TIME__) & 0x000000FFU)
 860:../Drivers/STM32L4xx_HAL_Driver/Inc/stm32l4xx_ll_rtc.h **** 
 861:../Drivers/STM32L4xx_HAL_Driver/Inc/stm32l4xx_ll_rtc.h **** /**
 862:../Drivers/STM32L4xx_HAL_Driver/Inc/stm32l4xx_ll_rtc.h ****   * @}
 863:../Drivers/STM32L4xx_HAL_Driver/Inc/stm32l4xx_ll_rtc.h ****   */
 864:../Drivers/STM32L4xx_HAL_Driver/Inc/stm32l4xx_ll_rtc.h **** 
 865:../Drivers/STM32L4xx_HAL_Driver/Inc/stm32l4xx_ll_rtc.h **** /**
 866:../Drivers/STM32L4xx_HAL_Driver/Inc/stm32l4xx_ll_rtc.h ****   * @}
 867:../Drivers/STM32L4xx_HAL_Driver/Inc/stm32l4xx_ll_rtc.h ****   */
 868:../Drivers/STM32L4xx_HAL_Driver/Inc/stm32l4xx_ll_rtc.h **** 
 869:../Drivers/STM32L4xx_HAL_Driver/Inc/stm32l4xx_ll_rtc.h **** /* Exported functions --------------------------------------------------------*/
 870:../Drivers/STM32L4xx_HAL_Driver/Inc/stm32l4xx_ll_rtc.h **** /** @defgroup RTC_LL_Exported_Functions RTC Exported Functions
 871:../Drivers/STM32L4xx_HAL_Driver/Inc/stm32l4xx_ll_rtc.h ****   * @{
 872:../Drivers/STM32L4xx_HAL_Driver/Inc/stm32l4xx_ll_rtc.h ****   */
 873:../Drivers/STM32L4xx_HAL_Driver/Inc/stm32l4xx_ll_rtc.h **** 
 874:../Drivers/STM32L4xx_HAL_Driver/Inc/stm32l4xx_ll_rtc.h **** /** @defgroup RTC_LL_EF_Configuration Configuration
 875:../Drivers/STM32L4xx_HAL_Driver/Inc/stm32l4xx_ll_rtc.h ****   * @{
 876:../Drivers/STM32L4xx_HAL_Driver/Inc/stm32l4xx_ll_rtc.h ****   */
 877:../Drivers/STM32L4xx_HAL_Driver/Inc/stm32l4xx_ll_rtc.h **** 
 878:../Drivers/STM32L4xx_HAL_Driver/Inc/stm32l4xx_ll_rtc.h **** /**
 879:../Drivers/STM32L4xx_HAL_Driver/Inc/stm32l4xx_ll_rtc.h ****   * @brief  Set Hours format (24 hour/day or AM/PM hour format)
 880:../Drivers/STM32L4xx_HAL_Driver/Inc/stm32l4xx_ll_rtc.h ****   * @note   Bit is write-protected. @ref LL_RTC_DisableWriteProtection function should be called be
 881:../Drivers/STM32L4xx_HAL_Driver/Inc/stm32l4xx_ll_rtc.h ****   * @note   It can be written in initialization mode only (@ref LL_RTC_EnableInitMode function)
 882:../Drivers/STM32L4xx_HAL_Driver/Inc/stm32l4xx_ll_rtc.h ****   * @rmtoll RTC_CR           FMT           LL_RTC_SetHourFormat
 883:../Drivers/STM32L4xx_HAL_Driver/Inc/stm32l4xx_ll_rtc.h ****   * @param  RTCx RTC Instance
 884:../Drivers/STM32L4xx_HAL_Driver/Inc/stm32l4xx_ll_rtc.h ****   * @param  HourFormat This parameter can be one of the following values:
 885:../Drivers/STM32L4xx_HAL_Driver/Inc/stm32l4xx_ll_rtc.h ****   *         @arg @ref LL_RTC_HOURFORMAT_24HOUR
 886:../Drivers/STM32L4xx_HAL_Driver/Inc/stm32l4xx_ll_rtc.h ****   *         @arg @ref LL_RTC_HOURFORMAT_AMPM
ARM GAS  /tmp/cc5oboQK.s 			page 17


 887:../Drivers/STM32L4xx_HAL_Driver/Inc/stm32l4xx_ll_rtc.h ****   * @retval None
 888:../Drivers/STM32L4xx_HAL_Driver/Inc/stm32l4xx_ll_rtc.h ****   */
 889:../Drivers/STM32L4xx_HAL_Driver/Inc/stm32l4xx_ll_rtc.h **** __STATIC_INLINE void LL_RTC_SetHourFormat(RTC_TypeDef *RTCx, uint32_t HourFormat)
 890:../Drivers/STM32L4xx_HAL_Driver/Inc/stm32l4xx_ll_rtc.h **** {
  28              		.loc 1 890 1
  29              		.cfi_startproc
  30              		@ args = 0, pretend = 0, frame = 8
  31              		@ frame_needed = 1, uses_anonymous_args = 0
  32              		@ link register save eliminated.
  33 0000 80B4     		push	{r7}
  34              	.LCFI0:
  35              		.cfi_def_cfa_offset 4
  36              		.cfi_offset 7, -4
  37 0002 83B0     		sub	sp, sp, #12
  38              	.LCFI1:
  39              		.cfi_def_cfa_offset 16
  40 0004 00AF     		add	r7, sp, #0
  41              	.LCFI2:
  42              		.cfi_def_cfa_register 7
  43 0006 7860     		str	r0, [r7, #4]
  44 0008 3960     		str	r1, [r7]
 891:../Drivers/STM32L4xx_HAL_Driver/Inc/stm32l4xx_ll_rtc.h ****   MODIFY_REG(RTCx->CR, RTC_CR_FMT, HourFormat);
  45              		.loc 1 891 3
  46 000a 7B68     		ldr	r3, [r7, #4]
  47 000c 9B68     		ldr	r3, [r3, #8]
  48 000e 23F04002 		bic	r2, r3, #64
  49 0012 3B68     		ldr	r3, [r7]
  50 0014 1A43     		orrs	r2, r2, r3
  51 0016 7B68     		ldr	r3, [r7, #4]
  52 0018 9A60     		str	r2, [r3, #8]
 892:../Drivers/STM32L4xx_HAL_Driver/Inc/stm32l4xx_ll_rtc.h **** }
  53              		.loc 1 892 1
  54 001a 00BF     		nop
  55 001c 0C37     		adds	r7, r7, #12
  56              	.LCFI3:
  57              		.cfi_def_cfa_offset 4
  58 001e BD46     		mov	sp, r7
  59              	.LCFI4:
  60              		.cfi_def_cfa_register 13
  61              		@ sp needed
  62 0020 5DF8047B 		ldr	r7, [sp], #4
  63              	.LCFI5:
  64              		.cfi_restore 7
  65              		.cfi_def_cfa_offset 0
  66 0024 7047     		bx	lr
  67              		.cfi_endproc
  68              	.LFE313:
  70              		.section	.text.LL_RTC_GetHourFormat,"ax",%progbits
  71              		.align	1
  72              		.syntax unified
  73              		.thumb
  74              		.thumb_func
  75              		.fpu fpv4-sp-d16
  77              	LL_RTC_GetHourFormat:
  78              	.LFB314:
 893:../Drivers/STM32L4xx_HAL_Driver/Inc/stm32l4xx_ll_rtc.h **** 
 894:../Drivers/STM32L4xx_HAL_Driver/Inc/stm32l4xx_ll_rtc.h **** /**
ARM GAS  /tmp/cc5oboQK.s 			page 18


 895:../Drivers/STM32L4xx_HAL_Driver/Inc/stm32l4xx_ll_rtc.h ****   * @brief  Get Hours format (24 hour/day or AM/PM hour format)
 896:../Drivers/STM32L4xx_HAL_Driver/Inc/stm32l4xx_ll_rtc.h ****   * @rmtoll RTC_CR           FMT           LL_RTC_GetHourFormat
 897:../Drivers/STM32L4xx_HAL_Driver/Inc/stm32l4xx_ll_rtc.h ****   * @param  RTCx RTC Instance
 898:../Drivers/STM32L4xx_HAL_Driver/Inc/stm32l4xx_ll_rtc.h ****   * @retval Returned value can be one of the following values:
 899:../Drivers/STM32L4xx_HAL_Driver/Inc/stm32l4xx_ll_rtc.h ****   *         @arg @ref LL_RTC_HOURFORMAT_24HOUR
 900:../Drivers/STM32L4xx_HAL_Driver/Inc/stm32l4xx_ll_rtc.h ****   *         @arg @ref LL_RTC_HOURFORMAT_AMPM
 901:../Drivers/STM32L4xx_HAL_Driver/Inc/stm32l4xx_ll_rtc.h ****   */
 902:../Drivers/STM32L4xx_HAL_Driver/Inc/stm32l4xx_ll_rtc.h **** __STATIC_INLINE uint32_t LL_RTC_GetHourFormat(RTC_TypeDef *RTCx)
 903:../Drivers/STM32L4xx_HAL_Driver/Inc/stm32l4xx_ll_rtc.h **** {
  79              		.loc 1 903 1
  80              		.cfi_startproc
  81              		@ args = 0, pretend = 0, frame = 8
  82              		@ frame_needed = 1, uses_anonymous_args = 0
  83              		@ link register save eliminated.
  84 0000 80B4     		push	{r7}
  85              	.LCFI6:
  86              		.cfi_def_cfa_offset 4
  87              		.cfi_offset 7, -4
  88 0002 83B0     		sub	sp, sp, #12
  89              	.LCFI7:
  90              		.cfi_def_cfa_offset 16
  91 0004 00AF     		add	r7, sp, #0
  92              	.LCFI8:
  93              		.cfi_def_cfa_register 7
  94 0006 7860     		str	r0, [r7, #4]
 904:../Drivers/STM32L4xx_HAL_Driver/Inc/stm32l4xx_ll_rtc.h ****   return (uint32_t)(READ_BIT(RTCx->CR, RTC_CR_FMT));
  95              		.loc 1 904 21
  96 0008 7B68     		ldr	r3, [r7, #4]
  97 000a 9B68     		ldr	r3, [r3, #8]
  98              		.loc 1 904 10
  99 000c 03F04003 		and	r3, r3, #64
 905:../Drivers/STM32L4xx_HAL_Driver/Inc/stm32l4xx_ll_rtc.h **** }
 100              		.loc 1 905 1
 101 0010 1846     		mov	r0, r3
 102 0012 0C37     		adds	r7, r7, #12
 103              	.LCFI9:
 104              		.cfi_def_cfa_offset 4
 105 0014 BD46     		mov	sp, r7
 106              	.LCFI10:
 107              		.cfi_def_cfa_register 13
 108              		@ sp needed
 109 0016 5DF8047B 		ldr	r7, [sp], #4
 110              	.LCFI11:
 111              		.cfi_restore 7
 112              		.cfi_def_cfa_offset 0
 113 001a 7047     		bx	lr
 114              		.cfi_endproc
 115              	.LFE314:
 117              		.section	.text.LL_RTC_EnableInitMode,"ax",%progbits
 118              		.align	1
 119              		.syntax unified
 120              		.thumb
 121              		.thumb_func
 122              		.fpu fpv4-sp-d16
 124              	LL_RTC_EnableInitMode:
 125              	.LFB319:
 906:../Drivers/STM32L4xx_HAL_Driver/Inc/stm32l4xx_ll_rtc.h **** 
ARM GAS  /tmp/cc5oboQK.s 			page 19


 907:../Drivers/STM32L4xx_HAL_Driver/Inc/stm32l4xx_ll_rtc.h **** /**
 908:../Drivers/STM32L4xx_HAL_Driver/Inc/stm32l4xx_ll_rtc.h ****   * @brief  Select the flag to be routed to RTC_ALARM output
 909:../Drivers/STM32L4xx_HAL_Driver/Inc/stm32l4xx_ll_rtc.h ****   * @note   Bit is write-protected. @ref LL_RTC_DisableWriteProtection function should be called be
 910:../Drivers/STM32L4xx_HAL_Driver/Inc/stm32l4xx_ll_rtc.h ****   * @rmtoll RTC_CR           OSEL          LL_RTC_SetAlarmOutEvent
 911:../Drivers/STM32L4xx_HAL_Driver/Inc/stm32l4xx_ll_rtc.h ****   * @param  RTCx RTC Instance
 912:../Drivers/STM32L4xx_HAL_Driver/Inc/stm32l4xx_ll_rtc.h ****   * @param  AlarmOutput This parameter can be one of the following values:
 913:../Drivers/STM32L4xx_HAL_Driver/Inc/stm32l4xx_ll_rtc.h ****   *         @arg @ref LL_RTC_ALARMOUT_DISABLE
 914:../Drivers/STM32L4xx_HAL_Driver/Inc/stm32l4xx_ll_rtc.h ****   *         @arg @ref LL_RTC_ALARMOUT_ALMA
 915:../Drivers/STM32L4xx_HAL_Driver/Inc/stm32l4xx_ll_rtc.h ****   *         @arg @ref LL_RTC_ALARMOUT_ALMB
 916:../Drivers/STM32L4xx_HAL_Driver/Inc/stm32l4xx_ll_rtc.h ****   *         @arg @ref LL_RTC_ALARMOUT_WAKEUP
 917:../Drivers/STM32L4xx_HAL_Driver/Inc/stm32l4xx_ll_rtc.h ****   * @retval None
 918:../Drivers/STM32L4xx_HAL_Driver/Inc/stm32l4xx_ll_rtc.h ****   */
 919:../Drivers/STM32L4xx_HAL_Driver/Inc/stm32l4xx_ll_rtc.h **** __STATIC_INLINE void LL_RTC_SetAlarmOutEvent(RTC_TypeDef *RTCx, uint32_t AlarmOutput)
 920:../Drivers/STM32L4xx_HAL_Driver/Inc/stm32l4xx_ll_rtc.h **** {
 921:../Drivers/STM32L4xx_HAL_Driver/Inc/stm32l4xx_ll_rtc.h ****   MODIFY_REG(RTCx->CR, RTC_CR_OSEL, AlarmOutput);
 922:../Drivers/STM32L4xx_HAL_Driver/Inc/stm32l4xx_ll_rtc.h **** }
 923:../Drivers/STM32L4xx_HAL_Driver/Inc/stm32l4xx_ll_rtc.h **** 
 924:../Drivers/STM32L4xx_HAL_Driver/Inc/stm32l4xx_ll_rtc.h **** /**
 925:../Drivers/STM32L4xx_HAL_Driver/Inc/stm32l4xx_ll_rtc.h ****   * @brief  Get the flag to be routed to RTC_ALARM output
 926:../Drivers/STM32L4xx_HAL_Driver/Inc/stm32l4xx_ll_rtc.h ****   * @rmtoll RTC_CR           OSEL          LL_RTC_GetAlarmOutEvent
 927:../Drivers/STM32L4xx_HAL_Driver/Inc/stm32l4xx_ll_rtc.h ****   * @param  RTCx RTC Instance
 928:../Drivers/STM32L4xx_HAL_Driver/Inc/stm32l4xx_ll_rtc.h ****   * @retval Returned value can be one of the following values:
 929:../Drivers/STM32L4xx_HAL_Driver/Inc/stm32l4xx_ll_rtc.h ****   *         @arg @ref LL_RTC_ALARMOUT_DISABLE
 930:../Drivers/STM32L4xx_HAL_Driver/Inc/stm32l4xx_ll_rtc.h ****   *         @arg @ref LL_RTC_ALARMOUT_ALMA
 931:../Drivers/STM32L4xx_HAL_Driver/Inc/stm32l4xx_ll_rtc.h ****   *         @arg @ref LL_RTC_ALARMOUT_ALMB
 932:../Drivers/STM32L4xx_HAL_Driver/Inc/stm32l4xx_ll_rtc.h ****   *         @arg @ref LL_RTC_ALARMOUT_WAKEUP
 933:../Drivers/STM32L4xx_HAL_Driver/Inc/stm32l4xx_ll_rtc.h ****   */
 934:../Drivers/STM32L4xx_HAL_Driver/Inc/stm32l4xx_ll_rtc.h **** __STATIC_INLINE uint32_t LL_RTC_GetAlarmOutEvent(RTC_TypeDef *RTCx)
 935:../Drivers/STM32L4xx_HAL_Driver/Inc/stm32l4xx_ll_rtc.h **** {
 936:../Drivers/STM32L4xx_HAL_Driver/Inc/stm32l4xx_ll_rtc.h ****   return (uint32_t)(READ_BIT(RTCx->CR, RTC_CR_OSEL));
 937:../Drivers/STM32L4xx_HAL_Driver/Inc/stm32l4xx_ll_rtc.h **** }
 938:../Drivers/STM32L4xx_HAL_Driver/Inc/stm32l4xx_ll_rtc.h **** 
 939:../Drivers/STM32L4xx_HAL_Driver/Inc/stm32l4xx_ll_rtc.h **** #if defined(STM32L412xx) || defined(STM32L422xx)
 940:../Drivers/STM32L4xx_HAL_Driver/Inc/stm32l4xx_ll_rtc.h **** /**
 941:../Drivers/STM32L4xx_HAL_Driver/Inc/stm32l4xx_ll_rtc.h ****   * @brief  Set RTC_ALARM output type (ALARM in push-pull or open-drain output)
 942:../Drivers/STM32L4xx_HAL_Driver/Inc/stm32l4xx_ll_rtc.h ****   * @rmtoll RTC_CR           TAMPALRM_TYPE          LL_RTC_SetAlarmOutputType
 943:../Drivers/STM32L4xx_HAL_Driver/Inc/stm32l4xx_ll_rtc.h ****   * @param  RTCx RTC Instance
 944:../Drivers/STM32L4xx_HAL_Driver/Inc/stm32l4xx_ll_rtc.h ****   * @param  Output This parameter can be one of the following values:
 945:../Drivers/STM32L4xx_HAL_Driver/Inc/stm32l4xx_ll_rtc.h ****   *         @arg @ref LL_RTC_ALARM_OUTPUTTYPE_OPENDRAIN
 946:../Drivers/STM32L4xx_HAL_Driver/Inc/stm32l4xx_ll_rtc.h ****   *         @arg @ref LL_RTC_ALARM_OUTPUTTYPE_PUSHPULL
 947:../Drivers/STM32L4xx_HAL_Driver/Inc/stm32l4xx_ll_rtc.h ****   * @retval None
 948:../Drivers/STM32L4xx_HAL_Driver/Inc/stm32l4xx_ll_rtc.h ****   */
 949:../Drivers/STM32L4xx_HAL_Driver/Inc/stm32l4xx_ll_rtc.h **** __STATIC_INLINE void LL_RTC_SetAlarmOutputType(RTC_TypeDef *RTCx, uint32_t Output)
 950:../Drivers/STM32L4xx_HAL_Driver/Inc/stm32l4xx_ll_rtc.h **** {
 951:../Drivers/STM32L4xx_HAL_Driver/Inc/stm32l4xx_ll_rtc.h ****   MODIFY_REG(RTCx->CR, RTC_CR_TAMPALRM_TYPE, Output);
 952:../Drivers/STM32L4xx_HAL_Driver/Inc/stm32l4xx_ll_rtc.h **** }
 953:../Drivers/STM32L4xx_HAL_Driver/Inc/stm32l4xx_ll_rtc.h **** 
 954:../Drivers/STM32L4xx_HAL_Driver/Inc/stm32l4xx_ll_rtc.h **** /**
 955:../Drivers/STM32L4xx_HAL_Driver/Inc/stm32l4xx_ll_rtc.h ****   * @brief  Get RTC_ALARM output type (ALARM in push-pull or open-drain output)
 956:../Drivers/STM32L4xx_HAL_Driver/Inc/stm32l4xx_ll_rtc.h ****   * @rmtoll RTC_CR           TAMPALRM_TYPE          LL_RTC_SetAlarmOutputType
 957:../Drivers/STM32L4xx_HAL_Driver/Inc/stm32l4xx_ll_rtc.h ****   * @param  RTCx RTC Instance
 958:../Drivers/STM32L4xx_HAL_Driver/Inc/stm32l4xx_ll_rtc.h ****   * @retval Returned value can be one of the following values:
 959:../Drivers/STM32L4xx_HAL_Driver/Inc/stm32l4xx_ll_rtc.h ****   *         @arg @ref LL_RTC_ALARM_OUTPUTTYPE_OPENDRAIN
 960:../Drivers/STM32L4xx_HAL_Driver/Inc/stm32l4xx_ll_rtc.h ****   *         @arg @ref LL_RTC_ALARM_OUTPUTTYPE_PUSHPULL
 961:../Drivers/STM32L4xx_HAL_Driver/Inc/stm32l4xx_ll_rtc.h ****   */
 962:../Drivers/STM32L4xx_HAL_Driver/Inc/stm32l4xx_ll_rtc.h **** __STATIC_INLINE uint32_t LL_RTC_GetAlarmOutputType(RTC_TypeDef *RTCx)
 963:../Drivers/STM32L4xx_HAL_Driver/Inc/stm32l4xx_ll_rtc.h **** {
ARM GAS  /tmp/cc5oboQK.s 			page 20


 964:../Drivers/STM32L4xx_HAL_Driver/Inc/stm32l4xx_ll_rtc.h ****   return (uint32_t)(READ_BIT(RTCx->CR, RTC_CR_TAMPALRM_TYPE));
 965:../Drivers/STM32L4xx_HAL_Driver/Inc/stm32l4xx_ll_rtc.h **** }
 966:../Drivers/STM32L4xx_HAL_Driver/Inc/stm32l4xx_ll_rtc.h **** 
 967:../Drivers/STM32L4xx_HAL_Driver/Inc/stm32l4xx_ll_rtc.h **** /**
 968:../Drivers/STM32L4xx_HAL_Driver/Inc/stm32l4xx_ll_rtc.h ****   * @brief  Enable initialization mode
 969:../Drivers/STM32L4xx_HAL_Driver/Inc/stm32l4xx_ll_rtc.h ****   * @note   Initialization mode is used to program time and date register (RTC_TR and RTC_DR)
 970:../Drivers/STM32L4xx_HAL_Driver/Inc/stm32l4xx_ll_rtc.h ****   *         and prescaler register (RTC_PRER).
 971:../Drivers/STM32L4xx_HAL_Driver/Inc/stm32l4xx_ll_rtc.h ****   *         Counters are stopped and start counting from the new value when INIT is reset.
 972:../Drivers/STM32L4xx_HAL_Driver/Inc/stm32l4xx_ll_rtc.h ****   * @rmtoll RTC_ICSR          INIT          LL_RTC_EnableInitMode
 973:../Drivers/STM32L4xx_HAL_Driver/Inc/stm32l4xx_ll_rtc.h ****   * @param  RTCx RTC Instance
 974:../Drivers/STM32L4xx_HAL_Driver/Inc/stm32l4xx_ll_rtc.h ****   * @retval None
 975:../Drivers/STM32L4xx_HAL_Driver/Inc/stm32l4xx_ll_rtc.h ****   */
 976:../Drivers/STM32L4xx_HAL_Driver/Inc/stm32l4xx_ll_rtc.h **** __STATIC_INLINE void LL_RTC_EnableInitMode(RTC_TypeDef *RTCx)
 977:../Drivers/STM32L4xx_HAL_Driver/Inc/stm32l4xx_ll_rtc.h **** {
 978:../Drivers/STM32L4xx_HAL_Driver/Inc/stm32l4xx_ll_rtc.h ****   /* Set the Initialization mode */
 979:../Drivers/STM32L4xx_HAL_Driver/Inc/stm32l4xx_ll_rtc.h ****   WRITE_REG(RTCx->ICSR, RTC_LL_INIT_MASK);
 980:../Drivers/STM32L4xx_HAL_Driver/Inc/stm32l4xx_ll_rtc.h **** }
 981:../Drivers/STM32L4xx_HAL_Driver/Inc/stm32l4xx_ll_rtc.h **** 
 982:../Drivers/STM32L4xx_HAL_Driver/Inc/stm32l4xx_ll_rtc.h **** /**
 983:../Drivers/STM32L4xx_HAL_Driver/Inc/stm32l4xx_ll_rtc.h ****   * @brief  Disable initialization mode (Free running mode)
 984:../Drivers/STM32L4xx_HAL_Driver/Inc/stm32l4xx_ll_rtc.h ****   * @rmtoll RTC_ICSR          INIT          LL_RTC_DisableInitMode
 985:../Drivers/STM32L4xx_HAL_Driver/Inc/stm32l4xx_ll_rtc.h ****   * @param  RTCx RTC Instance
 986:../Drivers/STM32L4xx_HAL_Driver/Inc/stm32l4xx_ll_rtc.h ****   * @retval None
 987:../Drivers/STM32L4xx_HAL_Driver/Inc/stm32l4xx_ll_rtc.h ****   */
 988:../Drivers/STM32L4xx_HAL_Driver/Inc/stm32l4xx_ll_rtc.h **** __STATIC_INLINE void LL_RTC_DisableInitMode(RTC_TypeDef *RTCx)
 989:../Drivers/STM32L4xx_HAL_Driver/Inc/stm32l4xx_ll_rtc.h **** {
 990:../Drivers/STM32L4xx_HAL_Driver/Inc/stm32l4xx_ll_rtc.h ****   /* Exit Initialization mode */
 991:../Drivers/STM32L4xx_HAL_Driver/Inc/stm32l4xx_ll_rtc.h ****   WRITE_REG(RTCx->ICSR, (uint32_t)~RTC_ICSR_INIT);
 992:../Drivers/STM32L4xx_HAL_Driver/Inc/stm32l4xx_ll_rtc.h **** }
 993:../Drivers/STM32L4xx_HAL_Driver/Inc/stm32l4xx_ll_rtc.h **** 
 994:../Drivers/STM32L4xx_HAL_Driver/Inc/stm32l4xx_ll_rtc.h **** #else /* #if defined(STM32L412xx) || defined(STM32L422xx) */
 995:../Drivers/STM32L4xx_HAL_Driver/Inc/stm32l4xx_ll_rtc.h **** 
 996:../Drivers/STM32L4xx_HAL_Driver/Inc/stm32l4xx_ll_rtc.h **** /**
 997:../Drivers/STM32L4xx_HAL_Driver/Inc/stm32l4xx_ll_rtc.h ****   * @brief  Set RTC_ALARM output type (ALARM in push-pull or open-drain output)
 998:../Drivers/STM32L4xx_HAL_Driver/Inc/stm32l4xx_ll_rtc.h ****   * @note   Used only when RTC_ALARM is mapped on PC13
 999:../Drivers/STM32L4xx_HAL_Driver/Inc/stm32l4xx_ll_rtc.h ****   * @rmtoll OR        ALARMOUTTYPE  LL_RTC_SetAlarmOutputType
1000:../Drivers/STM32L4xx_HAL_Driver/Inc/stm32l4xx_ll_rtc.h ****   * @param  RTCx RTC Instance
1001:../Drivers/STM32L4xx_HAL_Driver/Inc/stm32l4xx_ll_rtc.h ****   * @param  Output This parameter can be one of the following values:
1002:../Drivers/STM32L4xx_HAL_Driver/Inc/stm32l4xx_ll_rtc.h ****   *         @arg @ref LL_RTC_ALARM_OUTPUTTYPE_OPENDRAIN
1003:../Drivers/STM32L4xx_HAL_Driver/Inc/stm32l4xx_ll_rtc.h ****   *         @arg @ref LL_RTC_ALARM_OUTPUTTYPE_PUSHPULL
1004:../Drivers/STM32L4xx_HAL_Driver/Inc/stm32l4xx_ll_rtc.h ****   * @retval None
1005:../Drivers/STM32L4xx_HAL_Driver/Inc/stm32l4xx_ll_rtc.h ****   */
1006:../Drivers/STM32L4xx_HAL_Driver/Inc/stm32l4xx_ll_rtc.h **** __STATIC_INLINE void LL_RTC_SetAlarmOutputType(RTC_TypeDef *RTCx, uint32_t Output)
1007:../Drivers/STM32L4xx_HAL_Driver/Inc/stm32l4xx_ll_rtc.h **** {
1008:../Drivers/STM32L4xx_HAL_Driver/Inc/stm32l4xx_ll_rtc.h ****   MODIFY_REG(RTCx->OR, RTC_OR_ALARMOUTTYPE, Output);
1009:../Drivers/STM32L4xx_HAL_Driver/Inc/stm32l4xx_ll_rtc.h **** }
1010:../Drivers/STM32L4xx_HAL_Driver/Inc/stm32l4xx_ll_rtc.h **** 
1011:../Drivers/STM32L4xx_HAL_Driver/Inc/stm32l4xx_ll_rtc.h **** /**
1012:../Drivers/STM32L4xx_HAL_Driver/Inc/stm32l4xx_ll_rtc.h ****   * @brief  Get RTC_ALARM output type (ALARM in push-pull or open-drain output)
1013:../Drivers/STM32L4xx_HAL_Driver/Inc/stm32l4xx_ll_rtc.h ****   * @note   used only when RTC_ALARM is mapped on PC13
1014:../Drivers/STM32L4xx_HAL_Driver/Inc/stm32l4xx_ll_rtc.h ****   * @rmtoll OR        ALARMOUTTYPE  LL_RTC_GetAlarmOutputType
1015:../Drivers/STM32L4xx_HAL_Driver/Inc/stm32l4xx_ll_rtc.h ****   * @param  RTCx RTC Instance
1016:../Drivers/STM32L4xx_HAL_Driver/Inc/stm32l4xx_ll_rtc.h ****   * @retval Returned value can be one of the following values:
1017:../Drivers/STM32L4xx_HAL_Driver/Inc/stm32l4xx_ll_rtc.h ****   *         @arg @ref LL_RTC_ALARM_OUTPUTTYPE_OPENDRAIN
1018:../Drivers/STM32L4xx_HAL_Driver/Inc/stm32l4xx_ll_rtc.h ****   *         @arg @ref LL_RTC_ALARM_OUTPUTTYPE_PUSHPULL
1019:../Drivers/STM32L4xx_HAL_Driver/Inc/stm32l4xx_ll_rtc.h ****   */
1020:../Drivers/STM32L4xx_HAL_Driver/Inc/stm32l4xx_ll_rtc.h **** __STATIC_INLINE uint32_t LL_RTC_GetAlarmOutputType(RTC_TypeDef *RTCx)
ARM GAS  /tmp/cc5oboQK.s 			page 21


1021:../Drivers/STM32L4xx_HAL_Driver/Inc/stm32l4xx_ll_rtc.h **** {
1022:../Drivers/STM32L4xx_HAL_Driver/Inc/stm32l4xx_ll_rtc.h ****   return (uint32_t)(READ_BIT(RTCx->OR, RTC_OR_ALARMOUTTYPE));
1023:../Drivers/STM32L4xx_HAL_Driver/Inc/stm32l4xx_ll_rtc.h **** }
1024:../Drivers/STM32L4xx_HAL_Driver/Inc/stm32l4xx_ll_rtc.h **** 
1025:../Drivers/STM32L4xx_HAL_Driver/Inc/stm32l4xx_ll_rtc.h **** /**
1026:../Drivers/STM32L4xx_HAL_Driver/Inc/stm32l4xx_ll_rtc.h ****   * @brief  Enable initialization mode
1027:../Drivers/STM32L4xx_HAL_Driver/Inc/stm32l4xx_ll_rtc.h ****   * @note   Initialization mode is used to program time and date register (RTC_TR and RTC_DR)
1028:../Drivers/STM32L4xx_HAL_Driver/Inc/stm32l4xx_ll_rtc.h ****   *         and prescaler register (RTC_PRER).
1029:../Drivers/STM32L4xx_HAL_Driver/Inc/stm32l4xx_ll_rtc.h ****   *         Counters are stopped and start counting from the new value when INIT is reset.
1030:../Drivers/STM32L4xx_HAL_Driver/Inc/stm32l4xx_ll_rtc.h ****   * @rmtoll ISR          INIT          LL_RTC_EnableInitMode
1031:../Drivers/STM32L4xx_HAL_Driver/Inc/stm32l4xx_ll_rtc.h ****   * @param  RTCx RTC Instance
1032:../Drivers/STM32L4xx_HAL_Driver/Inc/stm32l4xx_ll_rtc.h ****   * @retval None
1033:../Drivers/STM32L4xx_HAL_Driver/Inc/stm32l4xx_ll_rtc.h ****   */
1034:../Drivers/STM32L4xx_HAL_Driver/Inc/stm32l4xx_ll_rtc.h **** __STATIC_INLINE void LL_RTC_EnableInitMode(RTC_TypeDef *RTCx)
1035:../Drivers/STM32L4xx_HAL_Driver/Inc/stm32l4xx_ll_rtc.h **** {
 126              		.loc 1 1035 1
 127              		.cfi_startproc
 128              		@ args = 0, pretend = 0, frame = 8
 129              		@ frame_needed = 1, uses_anonymous_args = 0
 130              		@ link register save eliminated.
 131 0000 80B4     		push	{r7}
 132              	.LCFI12:
 133              		.cfi_def_cfa_offset 4
 134              		.cfi_offset 7, -4
 135 0002 83B0     		sub	sp, sp, #12
 136              	.LCFI13:
 137              		.cfi_def_cfa_offset 16
 138 0004 00AF     		add	r7, sp, #0
 139              	.LCFI14:
 140              		.cfi_def_cfa_register 7
 141 0006 7860     		str	r0, [r7, #4]
1036:../Drivers/STM32L4xx_HAL_Driver/Inc/stm32l4xx_ll_rtc.h ****   /* Set the Initialization mode */
1037:../Drivers/STM32L4xx_HAL_Driver/Inc/stm32l4xx_ll_rtc.h ****   WRITE_REG(RTCx->ISR, RTC_LL_INIT_MASK);
 142              		.loc 1 1037 3
 143 0008 7B68     		ldr	r3, [r7, #4]
 144 000a 4FF0FF32 		mov	r2, #-1
 145 000e DA60     		str	r2, [r3, #12]
1038:../Drivers/STM32L4xx_HAL_Driver/Inc/stm32l4xx_ll_rtc.h **** }
 146              		.loc 1 1038 1
 147 0010 00BF     		nop
 148 0012 0C37     		adds	r7, r7, #12
 149              	.LCFI15:
 150              		.cfi_def_cfa_offset 4
 151 0014 BD46     		mov	sp, r7
 152              	.LCFI16:
 153              		.cfi_def_cfa_register 13
 154              		@ sp needed
 155 0016 5DF8047B 		ldr	r7, [sp], #4
 156              	.LCFI17:
 157              		.cfi_restore 7
 158              		.cfi_def_cfa_offset 0
 159 001a 7047     		bx	lr
 160              		.cfi_endproc
 161              	.LFE319:
 163              		.section	.text.LL_RTC_DisableInitMode,"ax",%progbits
 164              		.align	1
 165              		.syntax unified
ARM GAS  /tmp/cc5oboQK.s 			page 22


 166              		.thumb
 167              		.thumb_func
 168              		.fpu fpv4-sp-d16
 170              	LL_RTC_DisableInitMode:
 171              	.LFB320:
1039:../Drivers/STM32L4xx_HAL_Driver/Inc/stm32l4xx_ll_rtc.h **** 
1040:../Drivers/STM32L4xx_HAL_Driver/Inc/stm32l4xx_ll_rtc.h **** /**
1041:../Drivers/STM32L4xx_HAL_Driver/Inc/stm32l4xx_ll_rtc.h ****   * @brief  Disable initialization mode (Free running mode)
1042:../Drivers/STM32L4xx_HAL_Driver/Inc/stm32l4xx_ll_rtc.h ****   * @rmtoll ISR          INIT          LL_RTC_DisableInitMode
1043:../Drivers/STM32L4xx_HAL_Driver/Inc/stm32l4xx_ll_rtc.h ****   * @param  RTCx RTC Instance
1044:../Drivers/STM32L4xx_HAL_Driver/Inc/stm32l4xx_ll_rtc.h ****   * @retval None
1045:../Drivers/STM32L4xx_HAL_Driver/Inc/stm32l4xx_ll_rtc.h ****   */
1046:../Drivers/STM32L4xx_HAL_Driver/Inc/stm32l4xx_ll_rtc.h **** __STATIC_INLINE void LL_RTC_DisableInitMode(RTC_TypeDef *RTCx)
1047:../Drivers/STM32L4xx_HAL_Driver/Inc/stm32l4xx_ll_rtc.h **** {
 172              		.loc 1 1047 1
 173              		.cfi_startproc
 174              		@ args = 0, pretend = 0, frame = 8
 175              		@ frame_needed = 1, uses_anonymous_args = 0
 176              		@ link register save eliminated.
 177 0000 80B4     		push	{r7}
 178              	.LCFI18:
 179              		.cfi_def_cfa_offset 4
 180              		.cfi_offset 7, -4
 181 0002 83B0     		sub	sp, sp, #12
 182              	.LCFI19:
 183              		.cfi_def_cfa_offset 16
 184 0004 00AF     		add	r7, sp, #0
 185              	.LCFI20:
 186              		.cfi_def_cfa_register 7
 187 0006 7860     		str	r0, [r7, #4]
1048:../Drivers/STM32L4xx_HAL_Driver/Inc/stm32l4xx_ll_rtc.h ****   /* Exit Initialization mode */
1049:../Drivers/STM32L4xx_HAL_Driver/Inc/stm32l4xx_ll_rtc.h ****   WRITE_REG(RTCx->ISR, (uint32_t)~RTC_ISR_INIT);
 188              		.loc 1 1049 3
 189 0008 7B68     		ldr	r3, [r7, #4]
 190 000a 6FF08002 		mvn	r2, #128
 191 000e DA60     		str	r2, [r3, #12]
1050:../Drivers/STM32L4xx_HAL_Driver/Inc/stm32l4xx_ll_rtc.h **** }
 192              		.loc 1 1050 1
 193 0010 00BF     		nop
 194 0012 0C37     		adds	r7, r7, #12
 195              	.LCFI21:
 196              		.cfi_def_cfa_offset 4
 197 0014 BD46     		mov	sp, r7
 198              	.LCFI22:
 199              		.cfi_def_cfa_register 13
 200              		@ sp needed
 201 0016 5DF8047B 		ldr	r7, [sp], #4
 202              	.LCFI23:
 203              		.cfi_restore 7
 204              		.cfi_def_cfa_offset 0
 205 001a 7047     		bx	lr
 206              		.cfi_endproc
 207              	.LFE320:
 209              		.section	.text.LL_RTC_IsShadowRegBypassEnabled,"ax",%progbits
 210              		.align	1
 211              		.syntax unified
 212              		.thumb
ARM GAS  /tmp/cc5oboQK.s 			page 23


 213              		.thumb_func
 214              		.fpu fpv4-sp-d16
 216              	LL_RTC_IsShadowRegBypassEnabled:
 217              	.LFB325:
1051:../Drivers/STM32L4xx_HAL_Driver/Inc/stm32l4xx_ll_rtc.h **** #endif /* #if defined(STM32L412xx) || defined(STM32L422xx) */
1052:../Drivers/STM32L4xx_HAL_Driver/Inc/stm32l4xx_ll_rtc.h **** 
1053:../Drivers/STM32L4xx_HAL_Driver/Inc/stm32l4xx_ll_rtc.h **** /**
1054:../Drivers/STM32L4xx_HAL_Driver/Inc/stm32l4xx_ll_rtc.h ****   * @brief  Set Output polarity (pin is low when ALRAF/ALRBF/WUTF is asserted)
1055:../Drivers/STM32L4xx_HAL_Driver/Inc/stm32l4xx_ll_rtc.h ****   * @note   Bit is write-protected. @ref LL_RTC_DisableWriteProtection function should be called be
1056:../Drivers/STM32L4xx_HAL_Driver/Inc/stm32l4xx_ll_rtc.h ****   * @rmtoll RTC_CR           POL           LL_RTC_SetOutputPolarity
1057:../Drivers/STM32L4xx_HAL_Driver/Inc/stm32l4xx_ll_rtc.h ****   * @param  RTCx RTC Instance
1058:../Drivers/STM32L4xx_HAL_Driver/Inc/stm32l4xx_ll_rtc.h ****   * @param  Polarity This parameter can be one of the following values:
1059:../Drivers/STM32L4xx_HAL_Driver/Inc/stm32l4xx_ll_rtc.h ****   *         @arg @ref LL_RTC_OUTPUTPOLARITY_PIN_HIGH
1060:../Drivers/STM32L4xx_HAL_Driver/Inc/stm32l4xx_ll_rtc.h ****   *         @arg @ref LL_RTC_OUTPUTPOLARITY_PIN_LOW
1061:../Drivers/STM32L4xx_HAL_Driver/Inc/stm32l4xx_ll_rtc.h ****   * @retval None
1062:../Drivers/STM32L4xx_HAL_Driver/Inc/stm32l4xx_ll_rtc.h ****   */
1063:../Drivers/STM32L4xx_HAL_Driver/Inc/stm32l4xx_ll_rtc.h **** __STATIC_INLINE void LL_RTC_SetOutputPolarity(RTC_TypeDef *RTCx, uint32_t Polarity)
1064:../Drivers/STM32L4xx_HAL_Driver/Inc/stm32l4xx_ll_rtc.h **** {
1065:../Drivers/STM32L4xx_HAL_Driver/Inc/stm32l4xx_ll_rtc.h ****   MODIFY_REG(RTCx->CR, RTC_CR_POL, Polarity);
1066:../Drivers/STM32L4xx_HAL_Driver/Inc/stm32l4xx_ll_rtc.h **** }
1067:../Drivers/STM32L4xx_HAL_Driver/Inc/stm32l4xx_ll_rtc.h **** 
1068:../Drivers/STM32L4xx_HAL_Driver/Inc/stm32l4xx_ll_rtc.h **** /**
1069:../Drivers/STM32L4xx_HAL_Driver/Inc/stm32l4xx_ll_rtc.h ****   * @brief  Get Output polarity
1070:../Drivers/STM32L4xx_HAL_Driver/Inc/stm32l4xx_ll_rtc.h ****   * @rmtoll RTC_CR           POL           LL_RTC_GetOutputPolarity
1071:../Drivers/STM32L4xx_HAL_Driver/Inc/stm32l4xx_ll_rtc.h ****   * @param  RTCx RTC Instance
1072:../Drivers/STM32L4xx_HAL_Driver/Inc/stm32l4xx_ll_rtc.h ****   * @retval Returned value can be one of the following values:
1073:../Drivers/STM32L4xx_HAL_Driver/Inc/stm32l4xx_ll_rtc.h ****   *         @arg @ref LL_RTC_OUTPUTPOLARITY_PIN_HIGH
1074:../Drivers/STM32L4xx_HAL_Driver/Inc/stm32l4xx_ll_rtc.h ****   *         @arg @ref LL_RTC_OUTPUTPOLARITY_PIN_LOW
1075:../Drivers/STM32L4xx_HAL_Driver/Inc/stm32l4xx_ll_rtc.h ****   */
1076:../Drivers/STM32L4xx_HAL_Driver/Inc/stm32l4xx_ll_rtc.h **** __STATIC_INLINE uint32_t LL_RTC_GetOutputPolarity(RTC_TypeDef *RTCx)
1077:../Drivers/STM32L4xx_HAL_Driver/Inc/stm32l4xx_ll_rtc.h **** {
1078:../Drivers/STM32L4xx_HAL_Driver/Inc/stm32l4xx_ll_rtc.h ****   return (uint32_t)(READ_BIT(RTCx->CR, RTC_CR_POL));
1079:../Drivers/STM32L4xx_HAL_Driver/Inc/stm32l4xx_ll_rtc.h **** }
1080:../Drivers/STM32L4xx_HAL_Driver/Inc/stm32l4xx_ll_rtc.h **** 
1081:../Drivers/STM32L4xx_HAL_Driver/Inc/stm32l4xx_ll_rtc.h **** /**
1082:../Drivers/STM32L4xx_HAL_Driver/Inc/stm32l4xx_ll_rtc.h ****   * @brief  Enable Bypass the shadow registers
1083:../Drivers/STM32L4xx_HAL_Driver/Inc/stm32l4xx_ll_rtc.h ****   * @note   Bit is write-protected. @ref LL_RTC_DisableWriteProtection function should be called be
1084:../Drivers/STM32L4xx_HAL_Driver/Inc/stm32l4xx_ll_rtc.h ****   * @rmtoll RTC_CR           BYPSHAD       LL_RTC_EnableShadowRegBypass
1085:../Drivers/STM32L4xx_HAL_Driver/Inc/stm32l4xx_ll_rtc.h ****   * @param  RTCx RTC Instance
1086:../Drivers/STM32L4xx_HAL_Driver/Inc/stm32l4xx_ll_rtc.h ****   * @retval None
1087:../Drivers/STM32L4xx_HAL_Driver/Inc/stm32l4xx_ll_rtc.h ****   */
1088:../Drivers/STM32L4xx_HAL_Driver/Inc/stm32l4xx_ll_rtc.h **** __STATIC_INLINE void LL_RTC_EnableShadowRegBypass(RTC_TypeDef *RTCx)
1089:../Drivers/STM32L4xx_HAL_Driver/Inc/stm32l4xx_ll_rtc.h **** {
1090:../Drivers/STM32L4xx_HAL_Driver/Inc/stm32l4xx_ll_rtc.h ****   SET_BIT(RTCx->CR, RTC_CR_BYPSHAD);
1091:../Drivers/STM32L4xx_HAL_Driver/Inc/stm32l4xx_ll_rtc.h **** }
1092:../Drivers/STM32L4xx_HAL_Driver/Inc/stm32l4xx_ll_rtc.h **** 
1093:../Drivers/STM32L4xx_HAL_Driver/Inc/stm32l4xx_ll_rtc.h **** /**
1094:../Drivers/STM32L4xx_HAL_Driver/Inc/stm32l4xx_ll_rtc.h ****   * @brief  Disable Bypass the shadow registers
1095:../Drivers/STM32L4xx_HAL_Driver/Inc/stm32l4xx_ll_rtc.h ****   * @rmtoll RTC_CR           BYPSHAD       LL_RTC_DisableShadowRegBypass
1096:../Drivers/STM32L4xx_HAL_Driver/Inc/stm32l4xx_ll_rtc.h ****   * @param  RTCx RTC Instance
1097:../Drivers/STM32L4xx_HAL_Driver/Inc/stm32l4xx_ll_rtc.h ****   * @retval None
1098:../Drivers/STM32L4xx_HAL_Driver/Inc/stm32l4xx_ll_rtc.h ****   */
1099:../Drivers/STM32L4xx_HAL_Driver/Inc/stm32l4xx_ll_rtc.h **** __STATIC_INLINE void LL_RTC_DisableShadowRegBypass(RTC_TypeDef *RTCx)
1100:../Drivers/STM32L4xx_HAL_Driver/Inc/stm32l4xx_ll_rtc.h **** {
1101:../Drivers/STM32L4xx_HAL_Driver/Inc/stm32l4xx_ll_rtc.h ****   CLEAR_BIT(RTCx->CR, RTC_CR_BYPSHAD);
1102:../Drivers/STM32L4xx_HAL_Driver/Inc/stm32l4xx_ll_rtc.h **** }
1103:../Drivers/STM32L4xx_HAL_Driver/Inc/stm32l4xx_ll_rtc.h **** 
ARM GAS  /tmp/cc5oboQK.s 			page 24


1104:../Drivers/STM32L4xx_HAL_Driver/Inc/stm32l4xx_ll_rtc.h **** /**
1105:../Drivers/STM32L4xx_HAL_Driver/Inc/stm32l4xx_ll_rtc.h ****   * @brief  Check if Shadow registers bypass is enabled or not.
1106:../Drivers/STM32L4xx_HAL_Driver/Inc/stm32l4xx_ll_rtc.h ****   * @rmtoll RTC_CR           BYPSHAD       LL_RTC_IsShadowRegBypassEnabled
1107:../Drivers/STM32L4xx_HAL_Driver/Inc/stm32l4xx_ll_rtc.h ****   * @param  RTCx RTC Instance
1108:../Drivers/STM32L4xx_HAL_Driver/Inc/stm32l4xx_ll_rtc.h ****   * @retval State of bit (1 or 0).
1109:../Drivers/STM32L4xx_HAL_Driver/Inc/stm32l4xx_ll_rtc.h ****   */
1110:../Drivers/STM32L4xx_HAL_Driver/Inc/stm32l4xx_ll_rtc.h **** __STATIC_INLINE uint32_t LL_RTC_IsShadowRegBypassEnabled(RTC_TypeDef *RTCx)
1111:../Drivers/STM32L4xx_HAL_Driver/Inc/stm32l4xx_ll_rtc.h **** {
 218              		.loc 1 1111 1
 219              		.cfi_startproc
 220              		@ args = 0, pretend = 0, frame = 8
 221              		@ frame_needed = 1, uses_anonymous_args = 0
 222              		@ link register save eliminated.
 223 0000 80B4     		push	{r7}
 224              	.LCFI24:
 225              		.cfi_def_cfa_offset 4
 226              		.cfi_offset 7, -4
 227 0002 83B0     		sub	sp, sp, #12
 228              	.LCFI25:
 229              		.cfi_def_cfa_offset 16
 230 0004 00AF     		add	r7, sp, #0
 231              	.LCFI26:
 232              		.cfi_def_cfa_register 7
 233 0006 7860     		str	r0, [r7, #4]
1112:../Drivers/STM32L4xx_HAL_Driver/Inc/stm32l4xx_ll_rtc.h ****   return (READ_BIT(RTCx->CR, RTC_CR_BYPSHAD) == (RTC_CR_BYPSHAD));
 234              		.loc 1 1112 11
 235 0008 7B68     		ldr	r3, [r7, #4]
 236 000a 9B68     		ldr	r3, [r3, #8]
 237 000c 03F02003 		and	r3, r3, #32
 238              		.loc 1 1112 46
 239 0010 202B     		cmp	r3, #32
 240 0012 0CBF     		ite	eq
 241 0014 0123     		moveq	r3, #1
 242 0016 0023     		movne	r3, #0
 243 0018 DBB2     		uxtb	r3, r3
1113:../Drivers/STM32L4xx_HAL_Driver/Inc/stm32l4xx_ll_rtc.h **** }
 244              		.loc 1 1113 1
 245 001a 1846     		mov	r0, r3
 246 001c 0C37     		adds	r7, r7, #12
 247              	.LCFI27:
 248              		.cfi_def_cfa_offset 4
 249 001e BD46     		mov	sp, r7
 250              	.LCFI28:
 251              		.cfi_def_cfa_register 13
 252              		@ sp needed
 253 0020 5DF8047B 		ldr	r7, [sp], #4
 254              	.LCFI29:
 255              		.cfi_restore 7
 256              		.cfi_def_cfa_offset 0
 257 0024 7047     		bx	lr
 258              		.cfi_endproc
 259              	.LFE325:
 261              		.section	.text.LL_RTC_SetAsynchPrescaler,"ax",%progbits
 262              		.align	1
 263              		.syntax unified
 264              		.thumb
 265              		.thumb_func
ARM GAS  /tmp/cc5oboQK.s 			page 25


 266              		.fpu fpv4-sp-d16
 268              	LL_RTC_SetAsynchPrescaler:
 269              	.LFB328:
1114:../Drivers/STM32L4xx_HAL_Driver/Inc/stm32l4xx_ll_rtc.h **** 
1115:../Drivers/STM32L4xx_HAL_Driver/Inc/stm32l4xx_ll_rtc.h **** /**
1116:../Drivers/STM32L4xx_HAL_Driver/Inc/stm32l4xx_ll_rtc.h ****   * @brief  Enable RTC_REFIN reference clock detection (50 or 60 Hz)
1117:../Drivers/STM32L4xx_HAL_Driver/Inc/stm32l4xx_ll_rtc.h ****   * @note   Bit is write-protected. @ref LL_RTC_DisableWriteProtection function should be called be
1118:../Drivers/STM32L4xx_HAL_Driver/Inc/stm32l4xx_ll_rtc.h ****   * @note   It can be written in initialization mode only (@ref LL_RTC_EnableInitMode function)
1119:../Drivers/STM32L4xx_HAL_Driver/Inc/stm32l4xx_ll_rtc.h ****   * @rmtoll RTC_CR           REFCKON       LL_RTC_EnableRefClock
1120:../Drivers/STM32L4xx_HAL_Driver/Inc/stm32l4xx_ll_rtc.h ****   * @param  RTCx RTC Instance
1121:../Drivers/STM32L4xx_HAL_Driver/Inc/stm32l4xx_ll_rtc.h ****   * @retval None
1122:../Drivers/STM32L4xx_HAL_Driver/Inc/stm32l4xx_ll_rtc.h ****   */
1123:../Drivers/STM32L4xx_HAL_Driver/Inc/stm32l4xx_ll_rtc.h **** __STATIC_INLINE void LL_RTC_EnableRefClock(RTC_TypeDef *RTCx)
1124:../Drivers/STM32L4xx_HAL_Driver/Inc/stm32l4xx_ll_rtc.h **** {
1125:../Drivers/STM32L4xx_HAL_Driver/Inc/stm32l4xx_ll_rtc.h ****   SET_BIT(RTCx->CR, RTC_CR_REFCKON);
1126:../Drivers/STM32L4xx_HAL_Driver/Inc/stm32l4xx_ll_rtc.h **** }
1127:../Drivers/STM32L4xx_HAL_Driver/Inc/stm32l4xx_ll_rtc.h **** 
1128:../Drivers/STM32L4xx_HAL_Driver/Inc/stm32l4xx_ll_rtc.h **** /**
1129:../Drivers/STM32L4xx_HAL_Driver/Inc/stm32l4xx_ll_rtc.h ****   * @brief  Disable RTC_REFIN reference clock detection (50 or 60 Hz)
1130:../Drivers/STM32L4xx_HAL_Driver/Inc/stm32l4xx_ll_rtc.h ****   * @note   Bit is write-protected. @ref LL_RTC_DisableWriteProtection function should be called be
1131:../Drivers/STM32L4xx_HAL_Driver/Inc/stm32l4xx_ll_rtc.h ****   * @note   It can be written in initialization mode only (@ref LL_RTC_EnableInitMode function)
1132:../Drivers/STM32L4xx_HAL_Driver/Inc/stm32l4xx_ll_rtc.h ****   * @rmtoll RTC_CR           REFCKON       LL_RTC_DisableRefClock
1133:../Drivers/STM32L4xx_HAL_Driver/Inc/stm32l4xx_ll_rtc.h ****   * @param  RTCx RTC Instance
1134:../Drivers/STM32L4xx_HAL_Driver/Inc/stm32l4xx_ll_rtc.h ****   * @retval None
1135:../Drivers/STM32L4xx_HAL_Driver/Inc/stm32l4xx_ll_rtc.h ****   */
1136:../Drivers/STM32L4xx_HAL_Driver/Inc/stm32l4xx_ll_rtc.h **** __STATIC_INLINE void LL_RTC_DisableRefClock(RTC_TypeDef *RTCx)
1137:../Drivers/STM32L4xx_HAL_Driver/Inc/stm32l4xx_ll_rtc.h **** {
1138:../Drivers/STM32L4xx_HAL_Driver/Inc/stm32l4xx_ll_rtc.h ****   CLEAR_BIT(RTCx->CR, RTC_CR_REFCKON);
1139:../Drivers/STM32L4xx_HAL_Driver/Inc/stm32l4xx_ll_rtc.h **** }
1140:../Drivers/STM32L4xx_HAL_Driver/Inc/stm32l4xx_ll_rtc.h **** 
1141:../Drivers/STM32L4xx_HAL_Driver/Inc/stm32l4xx_ll_rtc.h **** /**
1142:../Drivers/STM32L4xx_HAL_Driver/Inc/stm32l4xx_ll_rtc.h ****   * @brief  Set Asynchronous prescaler factor
1143:../Drivers/STM32L4xx_HAL_Driver/Inc/stm32l4xx_ll_rtc.h ****   * @rmtoll RTC_PRER         PREDIV_A      LL_RTC_SetAsynchPrescaler
1144:../Drivers/STM32L4xx_HAL_Driver/Inc/stm32l4xx_ll_rtc.h ****   * @param  RTCx RTC Instance
1145:../Drivers/STM32L4xx_HAL_Driver/Inc/stm32l4xx_ll_rtc.h ****   * @param  AsynchPrescaler Value between Min_Data = 0 and Max_Data = 0x7F
1146:../Drivers/STM32L4xx_HAL_Driver/Inc/stm32l4xx_ll_rtc.h ****   * @retval None
1147:../Drivers/STM32L4xx_HAL_Driver/Inc/stm32l4xx_ll_rtc.h ****   */
1148:../Drivers/STM32L4xx_HAL_Driver/Inc/stm32l4xx_ll_rtc.h **** __STATIC_INLINE void LL_RTC_SetAsynchPrescaler(RTC_TypeDef *RTCx, uint32_t AsynchPrescaler)
1149:../Drivers/STM32L4xx_HAL_Driver/Inc/stm32l4xx_ll_rtc.h **** {
 270              		.loc 1 1149 1
 271              		.cfi_startproc
 272              		@ args = 0, pretend = 0, frame = 8
 273              		@ frame_needed = 1, uses_anonymous_args = 0
 274              		@ link register save eliminated.
 275 0000 80B4     		push	{r7}
 276              	.LCFI30:
 277              		.cfi_def_cfa_offset 4
 278              		.cfi_offset 7, -4
 279 0002 83B0     		sub	sp, sp, #12
 280              	.LCFI31:
 281              		.cfi_def_cfa_offset 16
 282 0004 00AF     		add	r7, sp, #0
 283              	.LCFI32:
 284              		.cfi_def_cfa_register 7
 285 0006 7860     		str	r0, [r7, #4]
 286 0008 3960     		str	r1, [r7]
1150:../Drivers/STM32L4xx_HAL_Driver/Inc/stm32l4xx_ll_rtc.h ****   MODIFY_REG(RTCx->PRER, RTC_PRER_PREDIV_A, AsynchPrescaler << RTC_PRER_PREDIV_A_Pos);
ARM GAS  /tmp/cc5oboQK.s 			page 26


 287              		.loc 1 1150 3
 288 000a 7B68     		ldr	r3, [r7, #4]
 289 000c 1B69     		ldr	r3, [r3, #16]
 290 000e 23F4FE02 		bic	r2, r3, #8323072
 291 0012 3B68     		ldr	r3, [r7]
 292 0014 1B04     		lsls	r3, r3, #16
 293 0016 1A43     		orrs	r2, r2, r3
 294 0018 7B68     		ldr	r3, [r7, #4]
 295 001a 1A61     		str	r2, [r3, #16]
1151:../Drivers/STM32L4xx_HAL_Driver/Inc/stm32l4xx_ll_rtc.h **** }
 296              		.loc 1 1151 1
 297 001c 00BF     		nop
 298 001e 0C37     		adds	r7, r7, #12
 299              	.LCFI33:
 300              		.cfi_def_cfa_offset 4
 301 0020 BD46     		mov	sp, r7
 302              	.LCFI34:
 303              		.cfi_def_cfa_register 13
 304              		@ sp needed
 305 0022 5DF8047B 		ldr	r7, [sp], #4
 306              	.LCFI35:
 307              		.cfi_restore 7
 308              		.cfi_def_cfa_offset 0
 309 0026 7047     		bx	lr
 310              		.cfi_endproc
 311              	.LFE328:
 313              		.section	.text.LL_RTC_SetSynchPrescaler,"ax",%progbits
 314              		.align	1
 315              		.syntax unified
 316              		.thumb
 317              		.thumb_func
 318              		.fpu fpv4-sp-d16
 320              	LL_RTC_SetSynchPrescaler:
 321              	.LFB329:
1152:../Drivers/STM32L4xx_HAL_Driver/Inc/stm32l4xx_ll_rtc.h **** 
1153:../Drivers/STM32L4xx_HAL_Driver/Inc/stm32l4xx_ll_rtc.h **** /**
1154:../Drivers/STM32L4xx_HAL_Driver/Inc/stm32l4xx_ll_rtc.h ****   * @brief  Set Synchronous prescaler factor
1155:../Drivers/STM32L4xx_HAL_Driver/Inc/stm32l4xx_ll_rtc.h ****   * @rmtoll RTC_PRER         PREDIV_S      LL_RTC_SetSynchPrescaler
1156:../Drivers/STM32L4xx_HAL_Driver/Inc/stm32l4xx_ll_rtc.h ****   * @param  RTCx RTC Instance
1157:../Drivers/STM32L4xx_HAL_Driver/Inc/stm32l4xx_ll_rtc.h ****   * @param  SynchPrescaler Value between Min_Data = 0 and Max_Data = 0x7FFF
1158:../Drivers/STM32L4xx_HAL_Driver/Inc/stm32l4xx_ll_rtc.h ****   * @retval None
1159:../Drivers/STM32L4xx_HAL_Driver/Inc/stm32l4xx_ll_rtc.h ****   */
1160:../Drivers/STM32L4xx_HAL_Driver/Inc/stm32l4xx_ll_rtc.h **** __STATIC_INLINE void LL_RTC_SetSynchPrescaler(RTC_TypeDef *RTCx, uint32_t SynchPrescaler)
1161:../Drivers/STM32L4xx_HAL_Driver/Inc/stm32l4xx_ll_rtc.h **** {
 322              		.loc 1 1161 1
 323              		.cfi_startproc
 324              		@ args = 0, pretend = 0, frame = 8
 325              		@ frame_needed = 1, uses_anonymous_args = 0
 326              		@ link register save eliminated.
 327 0000 80B4     		push	{r7}
 328              	.LCFI36:
 329              		.cfi_def_cfa_offset 4
 330              		.cfi_offset 7, -4
 331 0002 83B0     		sub	sp, sp, #12
 332              	.LCFI37:
 333              		.cfi_def_cfa_offset 16
 334 0004 00AF     		add	r7, sp, #0
ARM GAS  /tmp/cc5oboQK.s 			page 27


 335              	.LCFI38:
 336              		.cfi_def_cfa_register 7
 337 0006 7860     		str	r0, [r7, #4]
 338 0008 3960     		str	r1, [r7]
1162:../Drivers/STM32L4xx_HAL_Driver/Inc/stm32l4xx_ll_rtc.h ****   MODIFY_REG(RTCx->PRER, RTC_PRER_PREDIV_S, SynchPrescaler);
 339              		.loc 1 1162 3
 340 000a 7B68     		ldr	r3, [r7, #4]
 341 000c 1B69     		ldr	r3, [r3, #16]
 342 000e 23F4FF43 		bic	r3, r3, #32640
 343 0012 23F07F03 		bic	r3, r3, #127
 344 0016 3A68     		ldr	r2, [r7]
 345 0018 1A43     		orrs	r2, r2, r3
 346 001a 7B68     		ldr	r3, [r7, #4]
 347 001c 1A61     		str	r2, [r3, #16]
1163:../Drivers/STM32L4xx_HAL_Driver/Inc/stm32l4xx_ll_rtc.h **** }
 348              		.loc 1 1163 1
 349 001e 00BF     		nop
 350 0020 0C37     		adds	r7, r7, #12
 351              	.LCFI39:
 352              		.cfi_def_cfa_offset 4
 353 0022 BD46     		mov	sp, r7
 354              	.LCFI40:
 355              		.cfi_def_cfa_register 13
 356              		@ sp needed
 357 0024 5DF8047B 		ldr	r7, [sp], #4
 358              	.LCFI41:
 359              		.cfi_restore 7
 360              		.cfi_def_cfa_offset 0
 361 0028 7047     		bx	lr
 362              		.cfi_endproc
 363              	.LFE329:
 365              		.section	.text.LL_RTC_EnableWriteProtection,"ax",%progbits
 366              		.align	1
 367              		.syntax unified
 368              		.thumb
 369              		.thumb_func
 370              		.fpu fpv4-sp-d16
 372              	LL_RTC_EnableWriteProtection:
 373              	.LFB332:
1164:../Drivers/STM32L4xx_HAL_Driver/Inc/stm32l4xx_ll_rtc.h **** 
1165:../Drivers/STM32L4xx_HAL_Driver/Inc/stm32l4xx_ll_rtc.h **** /**
1166:../Drivers/STM32L4xx_HAL_Driver/Inc/stm32l4xx_ll_rtc.h ****   * @brief  Get Asynchronous prescaler factor
1167:../Drivers/STM32L4xx_HAL_Driver/Inc/stm32l4xx_ll_rtc.h ****   * @rmtoll RTC_PRER         PREDIV_A      LL_RTC_GetAsynchPrescaler
1168:../Drivers/STM32L4xx_HAL_Driver/Inc/stm32l4xx_ll_rtc.h ****   * @param  RTCx RTC Instance
1169:../Drivers/STM32L4xx_HAL_Driver/Inc/stm32l4xx_ll_rtc.h ****   * @retval Value between Min_Data = 0 and Max_Data = 0x7F
1170:../Drivers/STM32L4xx_HAL_Driver/Inc/stm32l4xx_ll_rtc.h ****   */
1171:../Drivers/STM32L4xx_HAL_Driver/Inc/stm32l4xx_ll_rtc.h **** __STATIC_INLINE uint32_t LL_RTC_GetAsynchPrescaler(RTC_TypeDef *RTCx)
1172:../Drivers/STM32L4xx_HAL_Driver/Inc/stm32l4xx_ll_rtc.h **** {
1173:../Drivers/STM32L4xx_HAL_Driver/Inc/stm32l4xx_ll_rtc.h ****   return (uint32_t)(READ_BIT(RTCx->PRER, RTC_PRER_PREDIV_A) >> RTC_PRER_PREDIV_A_Pos);
1174:../Drivers/STM32L4xx_HAL_Driver/Inc/stm32l4xx_ll_rtc.h **** }
1175:../Drivers/STM32L4xx_HAL_Driver/Inc/stm32l4xx_ll_rtc.h **** 
1176:../Drivers/STM32L4xx_HAL_Driver/Inc/stm32l4xx_ll_rtc.h **** /**
1177:../Drivers/STM32L4xx_HAL_Driver/Inc/stm32l4xx_ll_rtc.h ****   * @brief  Get Synchronous prescaler factor
1178:../Drivers/STM32L4xx_HAL_Driver/Inc/stm32l4xx_ll_rtc.h ****   * @rmtoll RTC_PRER         PREDIV_S      LL_RTC_GetSynchPrescaler
1179:../Drivers/STM32L4xx_HAL_Driver/Inc/stm32l4xx_ll_rtc.h ****   * @param  RTCx RTC Instance
1180:../Drivers/STM32L4xx_HAL_Driver/Inc/stm32l4xx_ll_rtc.h ****   * @retval Value between Min_Data = 0 and Max_Data = 0x7FFF
1181:../Drivers/STM32L4xx_HAL_Driver/Inc/stm32l4xx_ll_rtc.h ****   */
ARM GAS  /tmp/cc5oboQK.s 			page 28


1182:../Drivers/STM32L4xx_HAL_Driver/Inc/stm32l4xx_ll_rtc.h **** __STATIC_INLINE uint32_t LL_RTC_GetSynchPrescaler(RTC_TypeDef *RTCx)
1183:../Drivers/STM32L4xx_HAL_Driver/Inc/stm32l4xx_ll_rtc.h **** {
1184:../Drivers/STM32L4xx_HAL_Driver/Inc/stm32l4xx_ll_rtc.h ****   return (uint32_t)(READ_BIT(RTCx->PRER, RTC_PRER_PREDIV_S));
1185:../Drivers/STM32L4xx_HAL_Driver/Inc/stm32l4xx_ll_rtc.h **** }
1186:../Drivers/STM32L4xx_HAL_Driver/Inc/stm32l4xx_ll_rtc.h **** 
1187:../Drivers/STM32L4xx_HAL_Driver/Inc/stm32l4xx_ll_rtc.h **** /**
1188:../Drivers/STM32L4xx_HAL_Driver/Inc/stm32l4xx_ll_rtc.h ****   * @brief  Enable the write protection for RTC registers.
1189:../Drivers/STM32L4xx_HAL_Driver/Inc/stm32l4xx_ll_rtc.h ****   * @rmtoll RTC_WPR          KEY           LL_RTC_EnableWriteProtection
1190:../Drivers/STM32L4xx_HAL_Driver/Inc/stm32l4xx_ll_rtc.h ****   * @param  RTCx RTC Instance
1191:../Drivers/STM32L4xx_HAL_Driver/Inc/stm32l4xx_ll_rtc.h ****   * @retval None
1192:../Drivers/STM32L4xx_HAL_Driver/Inc/stm32l4xx_ll_rtc.h ****   */
1193:../Drivers/STM32L4xx_HAL_Driver/Inc/stm32l4xx_ll_rtc.h **** __STATIC_INLINE void LL_RTC_EnableWriteProtection(RTC_TypeDef *RTCx)
1194:../Drivers/STM32L4xx_HAL_Driver/Inc/stm32l4xx_ll_rtc.h **** {
 374              		.loc 1 1194 1
 375              		.cfi_startproc
 376              		@ args = 0, pretend = 0, frame = 8
 377              		@ frame_needed = 1, uses_anonymous_args = 0
 378              		@ link register save eliminated.
 379 0000 80B4     		push	{r7}
 380              	.LCFI42:
 381              		.cfi_def_cfa_offset 4
 382              		.cfi_offset 7, -4
 383 0002 83B0     		sub	sp, sp, #12
 384              	.LCFI43:
 385              		.cfi_def_cfa_offset 16
 386 0004 00AF     		add	r7, sp, #0
 387              	.LCFI44:
 388              		.cfi_def_cfa_register 7
 389 0006 7860     		str	r0, [r7, #4]
1195:../Drivers/STM32L4xx_HAL_Driver/Inc/stm32l4xx_ll_rtc.h ****   WRITE_REG(RTCx->WPR, RTC_WRITE_PROTECTION_DISABLE);
 390              		.loc 1 1195 3
 391 0008 7B68     		ldr	r3, [r7, #4]
 392 000a FF22     		movs	r2, #255
 393 000c 5A62     		str	r2, [r3, #36]
1196:../Drivers/STM32L4xx_HAL_Driver/Inc/stm32l4xx_ll_rtc.h **** }
 394              		.loc 1 1196 1
 395 000e 00BF     		nop
 396 0010 0C37     		adds	r7, r7, #12
 397              	.LCFI45:
 398              		.cfi_def_cfa_offset 4
 399 0012 BD46     		mov	sp, r7
 400              	.LCFI46:
 401              		.cfi_def_cfa_register 13
 402              		@ sp needed
 403 0014 5DF8047B 		ldr	r7, [sp], #4
 404              	.LCFI47:
 405              		.cfi_restore 7
 406              		.cfi_def_cfa_offset 0
 407 0018 7047     		bx	lr
 408              		.cfi_endproc
 409              	.LFE332:
 411              		.section	.text.LL_RTC_DisableWriteProtection,"ax",%progbits
 412              		.align	1
 413              		.syntax unified
 414              		.thumb
 415              		.thumb_func
 416              		.fpu fpv4-sp-d16
ARM GAS  /tmp/cc5oboQK.s 			page 29


 418              	LL_RTC_DisableWriteProtection:
 419              	.LFB333:
1197:../Drivers/STM32L4xx_HAL_Driver/Inc/stm32l4xx_ll_rtc.h **** 
1198:../Drivers/STM32L4xx_HAL_Driver/Inc/stm32l4xx_ll_rtc.h **** /**
1199:../Drivers/STM32L4xx_HAL_Driver/Inc/stm32l4xx_ll_rtc.h ****   * @brief  Disable the write protection for RTC registers.
1200:../Drivers/STM32L4xx_HAL_Driver/Inc/stm32l4xx_ll_rtc.h ****   * @rmtoll RTC_WPR          KEY           LL_RTC_DisableWriteProtection
1201:../Drivers/STM32L4xx_HAL_Driver/Inc/stm32l4xx_ll_rtc.h ****   * @param  RTCx RTC Instance
1202:../Drivers/STM32L4xx_HAL_Driver/Inc/stm32l4xx_ll_rtc.h ****   * @retval None
1203:../Drivers/STM32L4xx_HAL_Driver/Inc/stm32l4xx_ll_rtc.h ****   */
1204:../Drivers/STM32L4xx_HAL_Driver/Inc/stm32l4xx_ll_rtc.h **** __STATIC_INLINE void LL_RTC_DisableWriteProtection(RTC_TypeDef *RTCx)
1205:../Drivers/STM32L4xx_HAL_Driver/Inc/stm32l4xx_ll_rtc.h **** {
 420              		.loc 1 1205 1
 421              		.cfi_startproc
 422              		@ args = 0, pretend = 0, frame = 8
 423              		@ frame_needed = 1, uses_anonymous_args = 0
 424              		@ link register save eliminated.
 425 0000 80B4     		push	{r7}
 426              	.LCFI48:
 427              		.cfi_def_cfa_offset 4
 428              		.cfi_offset 7, -4
 429 0002 83B0     		sub	sp, sp, #12
 430              	.LCFI49:
 431              		.cfi_def_cfa_offset 16
 432 0004 00AF     		add	r7, sp, #0
 433              	.LCFI50:
 434              		.cfi_def_cfa_register 7
 435 0006 7860     		str	r0, [r7, #4]
1206:../Drivers/STM32L4xx_HAL_Driver/Inc/stm32l4xx_ll_rtc.h ****   WRITE_REG(RTCx->WPR, RTC_WRITE_PROTECTION_ENABLE_1);
 436              		.loc 1 1206 3
 437 0008 7B68     		ldr	r3, [r7, #4]
 438 000a CA22     		movs	r2, #202
 439 000c 5A62     		str	r2, [r3, #36]
1207:../Drivers/STM32L4xx_HAL_Driver/Inc/stm32l4xx_ll_rtc.h ****   WRITE_REG(RTCx->WPR, RTC_WRITE_PROTECTION_ENABLE_2);
 440              		.loc 1 1207 3
 441 000e 7B68     		ldr	r3, [r7, #4]
 442 0010 5322     		movs	r2, #83
 443 0012 5A62     		str	r2, [r3, #36]
1208:../Drivers/STM32L4xx_HAL_Driver/Inc/stm32l4xx_ll_rtc.h **** }
 444              		.loc 1 1208 1
 445 0014 00BF     		nop
 446 0016 0C37     		adds	r7, r7, #12
 447              	.LCFI51:
 448              		.cfi_def_cfa_offset 4
 449 0018 BD46     		mov	sp, r7
 450              	.LCFI52:
 451              		.cfi_def_cfa_register 13
 452              		@ sp needed
 453 001a 5DF8047B 		ldr	r7, [sp], #4
 454              	.LCFI53:
 455              		.cfi_restore 7
 456              		.cfi_def_cfa_offset 0
 457 001e 7047     		bx	lr
 458              		.cfi_endproc
 459              	.LFE333:
 461              		.section	.text.LL_RTC_TIME_Config,"ax",%progbits
 462              		.align	1
 463              		.syntax unified
ARM GAS  /tmp/cc5oboQK.s 			page 30


 464              		.thumb
 465              		.thumb_func
 466              		.fpu fpv4-sp-d16
 468              	LL_RTC_TIME_Config:
 469              	.LFB344:
1209:../Drivers/STM32L4xx_HAL_Driver/Inc/stm32l4xx_ll_rtc.h **** 
1210:../Drivers/STM32L4xx_HAL_Driver/Inc/stm32l4xx_ll_rtc.h **** #if defined(STM32L412xx) || defined(STM32L422xx)
1211:../Drivers/STM32L4xx_HAL_Driver/Inc/stm32l4xx_ll_rtc.h **** /**
1212:../Drivers/STM32L4xx_HAL_Driver/Inc/stm32l4xx_ll_rtc.h ****   * @brief  Enable tamper output.
1213:../Drivers/STM32L4xx_HAL_Driver/Inc/stm32l4xx_ll_rtc.h ****   * @note When the tamper output is enabled, all external and internal tamper flags
1214:../Drivers/STM32L4xx_HAL_Driver/Inc/stm32l4xx_ll_rtc.h ****   *       are ORed and routed to the TAMPALRM output.
1215:../Drivers/STM32L4xx_HAL_Driver/Inc/stm32l4xx_ll_rtc.h ****   * @rmtoll RTC_CR           TAMPOE       LL_RTC_EnableTamperOutput
1216:../Drivers/STM32L4xx_HAL_Driver/Inc/stm32l4xx_ll_rtc.h ****   * @param  RTCx RTC Instance
1217:../Drivers/STM32L4xx_HAL_Driver/Inc/stm32l4xx_ll_rtc.h ****   * @retval None
1218:../Drivers/STM32L4xx_HAL_Driver/Inc/stm32l4xx_ll_rtc.h ****   */
1219:../Drivers/STM32L4xx_HAL_Driver/Inc/stm32l4xx_ll_rtc.h **** __STATIC_INLINE void LL_RTC_EnableTamperOutput(RTC_TypeDef *RTCx)
1220:../Drivers/STM32L4xx_HAL_Driver/Inc/stm32l4xx_ll_rtc.h **** {
1221:../Drivers/STM32L4xx_HAL_Driver/Inc/stm32l4xx_ll_rtc.h ****   SET_BIT(RTCx->CR, RTC_CR_TAMPOE);
1222:../Drivers/STM32L4xx_HAL_Driver/Inc/stm32l4xx_ll_rtc.h **** }
1223:../Drivers/STM32L4xx_HAL_Driver/Inc/stm32l4xx_ll_rtc.h **** 
1224:../Drivers/STM32L4xx_HAL_Driver/Inc/stm32l4xx_ll_rtc.h **** /**
1225:../Drivers/STM32L4xx_HAL_Driver/Inc/stm32l4xx_ll_rtc.h ****   * @brief  Disable tamper output.
1226:../Drivers/STM32L4xx_HAL_Driver/Inc/stm32l4xx_ll_rtc.h ****   * @rmtoll RTC_CR           TAMPOE       LL_RTC_DisableTamperOutput
1227:../Drivers/STM32L4xx_HAL_Driver/Inc/stm32l4xx_ll_rtc.h ****   * @param  RTCx RTC Instance
1228:../Drivers/STM32L4xx_HAL_Driver/Inc/stm32l4xx_ll_rtc.h ****   * @retval None
1229:../Drivers/STM32L4xx_HAL_Driver/Inc/stm32l4xx_ll_rtc.h ****   */
1230:../Drivers/STM32L4xx_HAL_Driver/Inc/stm32l4xx_ll_rtc.h **** __STATIC_INLINE void LL_RTC_DisableTamperOutput(RTC_TypeDef *RTCx)
1231:../Drivers/STM32L4xx_HAL_Driver/Inc/stm32l4xx_ll_rtc.h **** {
1232:../Drivers/STM32L4xx_HAL_Driver/Inc/stm32l4xx_ll_rtc.h ****   CLEAR_BIT(RTCx->CR, RTC_CR_TAMPOE);
1233:../Drivers/STM32L4xx_HAL_Driver/Inc/stm32l4xx_ll_rtc.h **** }
1234:../Drivers/STM32L4xx_HAL_Driver/Inc/stm32l4xx_ll_rtc.h **** 
1235:../Drivers/STM32L4xx_HAL_Driver/Inc/stm32l4xx_ll_rtc.h **** /**
1236:../Drivers/STM32L4xx_HAL_Driver/Inc/stm32l4xx_ll_rtc.h ****   * @brief  Check if tamper output is enabled or not.
1237:../Drivers/STM32L4xx_HAL_Driver/Inc/stm32l4xx_ll_rtc.h ****   * @rmtoll RTC_CR           TAMPOE       LL_RTC_IsTamperOutputEnabled
1238:../Drivers/STM32L4xx_HAL_Driver/Inc/stm32l4xx_ll_rtc.h ****   * @param  RTCx RTC Instance
1239:../Drivers/STM32L4xx_HAL_Driver/Inc/stm32l4xx_ll_rtc.h ****   * @retval State of bit (1 or 0).
1240:../Drivers/STM32L4xx_HAL_Driver/Inc/stm32l4xx_ll_rtc.h ****   */
1241:../Drivers/STM32L4xx_HAL_Driver/Inc/stm32l4xx_ll_rtc.h **** __STATIC_INLINE uint32_t LL_RTC_IsTamperOutputEnabled(RTC_TypeDef *RTCx)
1242:../Drivers/STM32L4xx_HAL_Driver/Inc/stm32l4xx_ll_rtc.h **** {
1243:../Drivers/STM32L4xx_HAL_Driver/Inc/stm32l4xx_ll_rtc.h ****   return (READ_BIT(RTCx->CR, RTC_CR_TAMPOE) == (RTC_CR_TAMPOE));
1244:../Drivers/STM32L4xx_HAL_Driver/Inc/stm32l4xx_ll_rtc.h **** }
1245:../Drivers/STM32L4xx_HAL_Driver/Inc/stm32l4xx_ll_rtc.h **** 
1246:../Drivers/STM32L4xx_HAL_Driver/Inc/stm32l4xx_ll_rtc.h **** /**
1247:../Drivers/STM32L4xx_HAL_Driver/Inc/stm32l4xx_ll_rtc.h ****   * @brief  Enable internal pull-up in output mode.
1248:../Drivers/STM32L4xx_HAL_Driver/Inc/stm32l4xx_ll_rtc.h ****   * @rmtoll RTC_CR           TAMPALRM_PU       LL_RTC_EnableAlarmPullUp
1249:../Drivers/STM32L4xx_HAL_Driver/Inc/stm32l4xx_ll_rtc.h ****   * @param  RTCx RTC Instance
1250:../Drivers/STM32L4xx_HAL_Driver/Inc/stm32l4xx_ll_rtc.h ****   * @retval None
1251:../Drivers/STM32L4xx_HAL_Driver/Inc/stm32l4xx_ll_rtc.h ****   */
1252:../Drivers/STM32L4xx_HAL_Driver/Inc/stm32l4xx_ll_rtc.h **** __STATIC_INLINE void LL_RTC_EnableAlarmPullUp(RTC_TypeDef *RTCx)
1253:../Drivers/STM32L4xx_HAL_Driver/Inc/stm32l4xx_ll_rtc.h **** {
1254:../Drivers/STM32L4xx_HAL_Driver/Inc/stm32l4xx_ll_rtc.h ****   SET_BIT(RTCx->CR, RTC_CR_TAMPALRM_PU);
1255:../Drivers/STM32L4xx_HAL_Driver/Inc/stm32l4xx_ll_rtc.h **** }
1256:../Drivers/STM32L4xx_HAL_Driver/Inc/stm32l4xx_ll_rtc.h **** 
1257:../Drivers/STM32L4xx_HAL_Driver/Inc/stm32l4xx_ll_rtc.h **** /**
1258:../Drivers/STM32L4xx_HAL_Driver/Inc/stm32l4xx_ll_rtc.h ****   * @brief  Disable internal pull-up in output mode.
1259:../Drivers/STM32L4xx_HAL_Driver/Inc/stm32l4xx_ll_rtc.h ****   * @rmtoll RTC_CR           TAMPALRM_PU       LL_RTC_EnableAlarmPullUp
1260:../Drivers/STM32L4xx_HAL_Driver/Inc/stm32l4xx_ll_rtc.h ****   * @param  RTCx RTC Instance
ARM GAS  /tmp/cc5oboQK.s 			page 31


1261:../Drivers/STM32L4xx_HAL_Driver/Inc/stm32l4xx_ll_rtc.h ****   * @retval None
1262:../Drivers/STM32L4xx_HAL_Driver/Inc/stm32l4xx_ll_rtc.h ****   */
1263:../Drivers/STM32L4xx_HAL_Driver/Inc/stm32l4xx_ll_rtc.h **** __STATIC_INLINE void LL_RTC_DisableAlarmPullUp(RTC_TypeDef *RTCx)
1264:../Drivers/STM32L4xx_HAL_Driver/Inc/stm32l4xx_ll_rtc.h **** {
1265:../Drivers/STM32L4xx_HAL_Driver/Inc/stm32l4xx_ll_rtc.h ****   CLEAR_BIT(RTCx->CR, RTC_CR_TAMPALRM_PU);
1266:../Drivers/STM32L4xx_HAL_Driver/Inc/stm32l4xx_ll_rtc.h **** }
1267:../Drivers/STM32L4xx_HAL_Driver/Inc/stm32l4xx_ll_rtc.h **** 
1268:../Drivers/STM32L4xx_HAL_Driver/Inc/stm32l4xx_ll_rtc.h **** /**
1269:../Drivers/STM32L4xx_HAL_Driver/Inc/stm32l4xx_ll_rtc.h ****   * @brief  Check if internal pull-up in output mode is enabled or not.
1270:../Drivers/STM32L4xx_HAL_Driver/Inc/stm32l4xx_ll_rtc.h ****   * @rmtoll RTC_CR           TAMPALRM_PU       LL_RTC_IsAlarmPullUpEnabled
1271:../Drivers/STM32L4xx_HAL_Driver/Inc/stm32l4xx_ll_rtc.h ****   * @param  RTCx RTC Instance
1272:../Drivers/STM32L4xx_HAL_Driver/Inc/stm32l4xx_ll_rtc.h ****   * @retval State of bit (1 or 0).
1273:../Drivers/STM32L4xx_HAL_Driver/Inc/stm32l4xx_ll_rtc.h ****   */
1274:../Drivers/STM32L4xx_HAL_Driver/Inc/stm32l4xx_ll_rtc.h **** __STATIC_INLINE uint32_t LL_RTC_IsAlarmPullUpEnabled(RTC_TypeDef *RTCx)
1275:../Drivers/STM32L4xx_HAL_Driver/Inc/stm32l4xx_ll_rtc.h **** {
1276:../Drivers/STM32L4xx_HAL_Driver/Inc/stm32l4xx_ll_rtc.h ****   return (READ_BIT(RTCx->CR, RTC_CR_TAMPALRM_PU) == (RTC_CR_TAMPALRM_PU));
1277:../Drivers/STM32L4xx_HAL_Driver/Inc/stm32l4xx_ll_rtc.h **** }
1278:../Drivers/STM32L4xx_HAL_Driver/Inc/stm32l4xx_ll_rtc.h **** 
1279:../Drivers/STM32L4xx_HAL_Driver/Inc/stm32l4xx_ll_rtc.h **** /**
1280:../Drivers/STM32L4xx_HAL_Driver/Inc/stm32l4xx_ll_rtc.h ****   * @brief  Enable RTC_OUT2 output
1281:../Drivers/STM32L4xx_HAL_Driver/Inc/stm32l4xx_ll_rtc.h ****   * @note RTC_OUT2 mapping depends on both OSEL (@ref LL_RTC_SetAlarmOutEvent)
1282:../Drivers/STM32L4xx_HAL_Driver/Inc/stm32l4xx_ll_rtc.h ****   *       and COE (@ref LL_RTC_CAL_SetOutputFreq) settings.
1283:../Drivers/STM32L4xx_HAL_Driver/Inc/stm32l4xx_ll_rtc.h ****   * @note RTC_OUT2 isn't available ins VBAT mode.
1284:../Drivers/STM32L4xx_HAL_Driver/Inc/stm32l4xx_ll_rtc.h ****   * @rmtoll RTC_CR           OUT2EN       LL_RTC_EnableOutput2
1285:../Drivers/STM32L4xx_HAL_Driver/Inc/stm32l4xx_ll_rtc.h ****   * @param  RTCx RTC Instance
1286:../Drivers/STM32L4xx_HAL_Driver/Inc/stm32l4xx_ll_rtc.h ****   * @retval None
1287:../Drivers/STM32L4xx_HAL_Driver/Inc/stm32l4xx_ll_rtc.h ****   */
1288:../Drivers/STM32L4xx_HAL_Driver/Inc/stm32l4xx_ll_rtc.h **** __STATIC_INLINE void LL_RTC_EnableOutput2(RTC_TypeDef *RTCx)
1289:../Drivers/STM32L4xx_HAL_Driver/Inc/stm32l4xx_ll_rtc.h **** {
1290:../Drivers/STM32L4xx_HAL_Driver/Inc/stm32l4xx_ll_rtc.h ****   SET_BIT(RTCx->CR, RTC_CR_OUT2EN);
1291:../Drivers/STM32L4xx_HAL_Driver/Inc/stm32l4xx_ll_rtc.h **** }
1292:../Drivers/STM32L4xx_HAL_Driver/Inc/stm32l4xx_ll_rtc.h **** 
1293:../Drivers/STM32L4xx_HAL_Driver/Inc/stm32l4xx_ll_rtc.h **** /**
1294:../Drivers/STM32L4xx_HAL_Driver/Inc/stm32l4xx_ll_rtc.h ****   * @brief  Disable RTC_OUT2 output
1295:../Drivers/STM32L4xx_HAL_Driver/Inc/stm32l4xx_ll_rtc.h ****   * @rmtoll RTC_CR           OUT2EN       LL_RTC_DisableOutput2
1296:../Drivers/STM32L4xx_HAL_Driver/Inc/stm32l4xx_ll_rtc.h ****   * @param  RTCx RTC Instance
1297:../Drivers/STM32L4xx_HAL_Driver/Inc/stm32l4xx_ll_rtc.h ****   * @retval None
1298:../Drivers/STM32L4xx_HAL_Driver/Inc/stm32l4xx_ll_rtc.h ****   */
1299:../Drivers/STM32L4xx_HAL_Driver/Inc/stm32l4xx_ll_rtc.h **** __STATIC_INLINE void LL_RTC_DisableOutput2(RTC_TypeDef *RTCx)
1300:../Drivers/STM32L4xx_HAL_Driver/Inc/stm32l4xx_ll_rtc.h **** {
1301:../Drivers/STM32L4xx_HAL_Driver/Inc/stm32l4xx_ll_rtc.h ****   CLEAR_BIT(RTCx->CR, RTC_CR_OUT2EN);
1302:../Drivers/STM32L4xx_HAL_Driver/Inc/stm32l4xx_ll_rtc.h **** }
1303:../Drivers/STM32L4xx_HAL_Driver/Inc/stm32l4xx_ll_rtc.h **** 
1304:../Drivers/STM32L4xx_HAL_Driver/Inc/stm32l4xx_ll_rtc.h **** /**
1305:../Drivers/STM32L4xx_HAL_Driver/Inc/stm32l4xx_ll_rtc.h ****   * @brief  Check if RTC_OUT2 output is enabled or not.
1306:../Drivers/STM32L4xx_HAL_Driver/Inc/stm32l4xx_ll_rtc.h ****   * @rmtoll RTC_CR           OUT2EN       LL_RTC_IsOutput2Enabled
1307:../Drivers/STM32L4xx_HAL_Driver/Inc/stm32l4xx_ll_rtc.h ****   * @param  RTCx RTC Instance
1308:../Drivers/STM32L4xx_HAL_Driver/Inc/stm32l4xx_ll_rtc.h ****   * @retval State of bit (1 or 0).
1309:../Drivers/STM32L4xx_HAL_Driver/Inc/stm32l4xx_ll_rtc.h ****   */
1310:../Drivers/STM32L4xx_HAL_Driver/Inc/stm32l4xx_ll_rtc.h **** __STATIC_INLINE uint32_t LL_RTC_IsOutput2Enabled(RTC_TypeDef *RTCx)
1311:../Drivers/STM32L4xx_HAL_Driver/Inc/stm32l4xx_ll_rtc.h **** {
1312:../Drivers/STM32L4xx_HAL_Driver/Inc/stm32l4xx_ll_rtc.h ****   return (READ_BIT(RTCx->CR, RTC_CR_OUT2EN) == (RTC_CR_OUT2EN));
1313:../Drivers/STM32L4xx_HAL_Driver/Inc/stm32l4xx_ll_rtc.h **** }
1314:../Drivers/STM32L4xx_HAL_Driver/Inc/stm32l4xx_ll_rtc.h **** 
1315:../Drivers/STM32L4xx_HAL_Driver/Inc/stm32l4xx_ll_rtc.h **** #else /* #if defined(STM32L412xx) || defined(STM32L422xx) */
1316:../Drivers/STM32L4xx_HAL_Driver/Inc/stm32l4xx_ll_rtc.h **** 
1317:../Drivers/STM32L4xx_HAL_Driver/Inc/stm32l4xx_ll_rtc.h **** /**
ARM GAS  /tmp/cc5oboQK.s 			page 32


1318:../Drivers/STM32L4xx_HAL_Driver/Inc/stm32l4xx_ll_rtc.h ****   * @brief  Enable RTC_OUT remap
1319:../Drivers/STM32L4xx_HAL_Driver/Inc/stm32l4xx_ll_rtc.h ****   * @rmtoll OR           OUT_RMP       LL_RTC_EnableOutRemap
1320:../Drivers/STM32L4xx_HAL_Driver/Inc/stm32l4xx_ll_rtc.h ****   * @param  RTCx RTC Instance
1321:../Drivers/STM32L4xx_HAL_Driver/Inc/stm32l4xx_ll_rtc.h ****   * @retval None
1322:../Drivers/STM32L4xx_HAL_Driver/Inc/stm32l4xx_ll_rtc.h ****   */
1323:../Drivers/STM32L4xx_HAL_Driver/Inc/stm32l4xx_ll_rtc.h **** __STATIC_INLINE void LL_RTC_EnableOutRemap(RTC_TypeDef *RTCx)
1324:../Drivers/STM32L4xx_HAL_Driver/Inc/stm32l4xx_ll_rtc.h **** {
1325:../Drivers/STM32L4xx_HAL_Driver/Inc/stm32l4xx_ll_rtc.h ****   SET_BIT(RTCx->OR, RTC_OR_OUT_RMP);
1326:../Drivers/STM32L4xx_HAL_Driver/Inc/stm32l4xx_ll_rtc.h **** }
1327:../Drivers/STM32L4xx_HAL_Driver/Inc/stm32l4xx_ll_rtc.h **** 
1328:../Drivers/STM32L4xx_HAL_Driver/Inc/stm32l4xx_ll_rtc.h **** /**
1329:../Drivers/STM32L4xx_HAL_Driver/Inc/stm32l4xx_ll_rtc.h ****   * @brief  Disable RTC_OUT remap
1330:../Drivers/STM32L4xx_HAL_Driver/Inc/stm32l4xx_ll_rtc.h ****   * @rmtoll OR           OUT_RMP       LL_RTC_DisableOutRemap
1331:../Drivers/STM32L4xx_HAL_Driver/Inc/stm32l4xx_ll_rtc.h ****   * @param  RTCx RTC Instance
1332:../Drivers/STM32L4xx_HAL_Driver/Inc/stm32l4xx_ll_rtc.h ****   * @retval None
1333:../Drivers/STM32L4xx_HAL_Driver/Inc/stm32l4xx_ll_rtc.h ****   */
1334:../Drivers/STM32L4xx_HAL_Driver/Inc/stm32l4xx_ll_rtc.h **** __STATIC_INLINE void LL_RTC_DisableOutRemap(RTC_TypeDef *RTCx)
1335:../Drivers/STM32L4xx_HAL_Driver/Inc/stm32l4xx_ll_rtc.h **** {
1336:../Drivers/STM32L4xx_HAL_Driver/Inc/stm32l4xx_ll_rtc.h ****   CLEAR_BIT(RTCx->OR, RTC_OR_OUT_RMP);
1337:../Drivers/STM32L4xx_HAL_Driver/Inc/stm32l4xx_ll_rtc.h **** }
1338:../Drivers/STM32L4xx_HAL_Driver/Inc/stm32l4xx_ll_rtc.h **** #endif /* #if defined(STM32L412xx) || defined(STM32L422xx) */
1339:../Drivers/STM32L4xx_HAL_Driver/Inc/stm32l4xx_ll_rtc.h **** 
1340:../Drivers/STM32L4xx_HAL_Driver/Inc/stm32l4xx_ll_rtc.h **** /**
1341:../Drivers/STM32L4xx_HAL_Driver/Inc/stm32l4xx_ll_rtc.h ****   * @}
1342:../Drivers/STM32L4xx_HAL_Driver/Inc/stm32l4xx_ll_rtc.h ****   */
1343:../Drivers/STM32L4xx_HAL_Driver/Inc/stm32l4xx_ll_rtc.h **** 
1344:../Drivers/STM32L4xx_HAL_Driver/Inc/stm32l4xx_ll_rtc.h **** /** @defgroup RTC_LL_EF_Time Time
1345:../Drivers/STM32L4xx_HAL_Driver/Inc/stm32l4xx_ll_rtc.h ****   * @{
1346:../Drivers/STM32L4xx_HAL_Driver/Inc/stm32l4xx_ll_rtc.h ****   */
1347:../Drivers/STM32L4xx_HAL_Driver/Inc/stm32l4xx_ll_rtc.h **** 
1348:../Drivers/STM32L4xx_HAL_Driver/Inc/stm32l4xx_ll_rtc.h **** /**
1349:../Drivers/STM32L4xx_HAL_Driver/Inc/stm32l4xx_ll_rtc.h ****   * @brief  Set time format (AM/24-hour or PM notation)
1350:../Drivers/STM32L4xx_HAL_Driver/Inc/stm32l4xx_ll_rtc.h ****   * @note   Bit is write-protected. @ref LL_RTC_DisableWriteProtection function should be called be
1351:../Drivers/STM32L4xx_HAL_Driver/Inc/stm32l4xx_ll_rtc.h ****   * @note   It can be written in initialization mode only (@ref LL_RTC_EnableInitMode function)
1352:../Drivers/STM32L4xx_HAL_Driver/Inc/stm32l4xx_ll_rtc.h ****   * @rmtoll RTC_TR           PM            LL_RTC_TIME_SetFormat
1353:../Drivers/STM32L4xx_HAL_Driver/Inc/stm32l4xx_ll_rtc.h ****   * @param  RTCx RTC Instance
1354:../Drivers/STM32L4xx_HAL_Driver/Inc/stm32l4xx_ll_rtc.h ****   * @param  TimeFormat This parameter can be one of the following values:
1355:../Drivers/STM32L4xx_HAL_Driver/Inc/stm32l4xx_ll_rtc.h ****   *         @arg @ref LL_RTC_TIME_FORMAT_AM_OR_24
1356:../Drivers/STM32L4xx_HAL_Driver/Inc/stm32l4xx_ll_rtc.h ****   *         @arg @ref LL_RTC_TIME_FORMAT_PM
1357:../Drivers/STM32L4xx_HAL_Driver/Inc/stm32l4xx_ll_rtc.h ****   * @retval None
1358:../Drivers/STM32L4xx_HAL_Driver/Inc/stm32l4xx_ll_rtc.h ****   */
1359:../Drivers/STM32L4xx_HAL_Driver/Inc/stm32l4xx_ll_rtc.h **** __STATIC_INLINE void LL_RTC_TIME_SetFormat(RTC_TypeDef *RTCx, uint32_t TimeFormat)
1360:../Drivers/STM32L4xx_HAL_Driver/Inc/stm32l4xx_ll_rtc.h **** {
1361:../Drivers/STM32L4xx_HAL_Driver/Inc/stm32l4xx_ll_rtc.h ****   MODIFY_REG(RTCx->TR, RTC_TR_PM, TimeFormat);
1362:../Drivers/STM32L4xx_HAL_Driver/Inc/stm32l4xx_ll_rtc.h **** }
1363:../Drivers/STM32L4xx_HAL_Driver/Inc/stm32l4xx_ll_rtc.h **** 
1364:../Drivers/STM32L4xx_HAL_Driver/Inc/stm32l4xx_ll_rtc.h **** /**
1365:../Drivers/STM32L4xx_HAL_Driver/Inc/stm32l4xx_ll_rtc.h ****   * @brief  Get time format (AM or PM notation)
1366:../Drivers/STM32L4xx_HAL_Driver/Inc/stm32l4xx_ll_rtc.h ****   * @note if shadow mode is disabled (BYPSHAD=0), need to check if RSF flag is set
1367:../Drivers/STM32L4xx_HAL_Driver/Inc/stm32l4xx_ll_rtc.h ****   *       before reading this bit
1368:../Drivers/STM32L4xx_HAL_Driver/Inc/stm32l4xx_ll_rtc.h ****   * @note Read either RTC_SSR or RTC_TR locks the values in the higher-order calendar
1369:../Drivers/STM32L4xx_HAL_Driver/Inc/stm32l4xx_ll_rtc.h ****   *       shadow registers until RTC_DR is read (LL_RTC_ReadReg(RTC, DR)).
1370:../Drivers/STM32L4xx_HAL_Driver/Inc/stm32l4xx_ll_rtc.h ****   * @rmtoll RTC_TR           PM            LL_RTC_TIME_GetFormat
1371:../Drivers/STM32L4xx_HAL_Driver/Inc/stm32l4xx_ll_rtc.h ****   * @param  RTCx RTC Instance
1372:../Drivers/STM32L4xx_HAL_Driver/Inc/stm32l4xx_ll_rtc.h ****   * @retval Returned value can be one of the following values:
1373:../Drivers/STM32L4xx_HAL_Driver/Inc/stm32l4xx_ll_rtc.h ****   *         @arg @ref LL_RTC_TIME_FORMAT_AM_OR_24
1374:../Drivers/STM32L4xx_HAL_Driver/Inc/stm32l4xx_ll_rtc.h ****   *         @arg @ref LL_RTC_TIME_FORMAT_PM
ARM GAS  /tmp/cc5oboQK.s 			page 33


1375:../Drivers/STM32L4xx_HAL_Driver/Inc/stm32l4xx_ll_rtc.h ****   */
1376:../Drivers/STM32L4xx_HAL_Driver/Inc/stm32l4xx_ll_rtc.h **** __STATIC_INLINE uint32_t LL_RTC_TIME_GetFormat(RTC_TypeDef *RTCx)
1377:../Drivers/STM32L4xx_HAL_Driver/Inc/stm32l4xx_ll_rtc.h **** {
1378:../Drivers/STM32L4xx_HAL_Driver/Inc/stm32l4xx_ll_rtc.h ****   return (uint32_t)(READ_BIT(RTCx->TR, RTC_TR_PM));
1379:../Drivers/STM32L4xx_HAL_Driver/Inc/stm32l4xx_ll_rtc.h **** }
1380:../Drivers/STM32L4xx_HAL_Driver/Inc/stm32l4xx_ll_rtc.h **** 
1381:../Drivers/STM32L4xx_HAL_Driver/Inc/stm32l4xx_ll_rtc.h **** /**
1382:../Drivers/STM32L4xx_HAL_Driver/Inc/stm32l4xx_ll_rtc.h ****   * @brief  Set Hours in BCD format
1383:../Drivers/STM32L4xx_HAL_Driver/Inc/stm32l4xx_ll_rtc.h ****   * @note   Bit is write-protected. @ref LL_RTC_DisableWriteProtection function should be called be
1384:../Drivers/STM32L4xx_HAL_Driver/Inc/stm32l4xx_ll_rtc.h ****   * @note   It can be written in initialization mode only (@ref LL_RTC_EnableInitMode function)
1385:../Drivers/STM32L4xx_HAL_Driver/Inc/stm32l4xx_ll_rtc.h ****   * @note helper macro __LL_RTC_CONVERT_BIN2BCD is available to convert hour from binary to BCD for
1386:../Drivers/STM32L4xx_HAL_Driver/Inc/stm32l4xx_ll_rtc.h ****   * @rmtoll RTC_TR           HT            LL_RTC_TIME_SetHour\n
1387:../Drivers/STM32L4xx_HAL_Driver/Inc/stm32l4xx_ll_rtc.h ****   *         RTC_TR           HU            LL_RTC_TIME_SetHour
1388:../Drivers/STM32L4xx_HAL_Driver/Inc/stm32l4xx_ll_rtc.h ****   * @param  RTCx RTC Instance
1389:../Drivers/STM32L4xx_HAL_Driver/Inc/stm32l4xx_ll_rtc.h ****   * @param  Hours Value between Min_Data=0x01 and Max_Data=0x12 or between Min_Data=0x00 and Max_Da
1390:../Drivers/STM32L4xx_HAL_Driver/Inc/stm32l4xx_ll_rtc.h ****   * @retval None
1391:../Drivers/STM32L4xx_HAL_Driver/Inc/stm32l4xx_ll_rtc.h ****   */
1392:../Drivers/STM32L4xx_HAL_Driver/Inc/stm32l4xx_ll_rtc.h **** __STATIC_INLINE void LL_RTC_TIME_SetHour(RTC_TypeDef *RTCx, uint32_t Hours)
1393:../Drivers/STM32L4xx_HAL_Driver/Inc/stm32l4xx_ll_rtc.h **** {
1394:../Drivers/STM32L4xx_HAL_Driver/Inc/stm32l4xx_ll_rtc.h ****   MODIFY_REG(RTCx->TR, (RTC_TR_HT | RTC_TR_HU),
1395:../Drivers/STM32L4xx_HAL_Driver/Inc/stm32l4xx_ll_rtc.h ****              (((Hours & 0xF0U) << (RTC_TR_HT_Pos - 4U)) | ((Hours & 0x0FU) << RTC_TR_HU_Pos)));
1396:../Drivers/STM32L4xx_HAL_Driver/Inc/stm32l4xx_ll_rtc.h **** }
1397:../Drivers/STM32L4xx_HAL_Driver/Inc/stm32l4xx_ll_rtc.h **** 
1398:../Drivers/STM32L4xx_HAL_Driver/Inc/stm32l4xx_ll_rtc.h **** /**
1399:../Drivers/STM32L4xx_HAL_Driver/Inc/stm32l4xx_ll_rtc.h ****   * @brief  Get Hours in BCD format
1400:../Drivers/STM32L4xx_HAL_Driver/Inc/stm32l4xx_ll_rtc.h ****   * @note if shadow mode is disabled (BYPSHAD=0), need to check if RSF flag is set
1401:../Drivers/STM32L4xx_HAL_Driver/Inc/stm32l4xx_ll_rtc.h ****   *       before reading this bit
1402:../Drivers/STM32L4xx_HAL_Driver/Inc/stm32l4xx_ll_rtc.h ****   * @note Read either RTC_SSR or RTC_TR locks the values in the higher-order calendar
1403:../Drivers/STM32L4xx_HAL_Driver/Inc/stm32l4xx_ll_rtc.h ****   *       shadow registers until RTC_DR is read (LL_RTC_ReadReg(RTC, DR)).
1404:../Drivers/STM32L4xx_HAL_Driver/Inc/stm32l4xx_ll_rtc.h ****   * @note helper macro __LL_RTC_CONVERT_BCD2BIN is available to convert hour from BCD to
1405:../Drivers/STM32L4xx_HAL_Driver/Inc/stm32l4xx_ll_rtc.h ****   *       Binary format
1406:../Drivers/STM32L4xx_HAL_Driver/Inc/stm32l4xx_ll_rtc.h ****   * @rmtoll RTC_TR           HT            LL_RTC_TIME_GetHour\n
1407:../Drivers/STM32L4xx_HAL_Driver/Inc/stm32l4xx_ll_rtc.h ****   *         RTC_TR           HU            LL_RTC_TIME_GetHour
1408:../Drivers/STM32L4xx_HAL_Driver/Inc/stm32l4xx_ll_rtc.h ****   * @param  RTCx RTC Instance
1409:../Drivers/STM32L4xx_HAL_Driver/Inc/stm32l4xx_ll_rtc.h ****   * @retval Value between Min_Data=0x01 and Max_Data=0x12 or between Min_Data=0x00 and Max_Data=0x2
1410:../Drivers/STM32L4xx_HAL_Driver/Inc/stm32l4xx_ll_rtc.h ****   */
1411:../Drivers/STM32L4xx_HAL_Driver/Inc/stm32l4xx_ll_rtc.h **** __STATIC_INLINE uint32_t LL_RTC_TIME_GetHour(RTC_TypeDef *RTCx)
1412:../Drivers/STM32L4xx_HAL_Driver/Inc/stm32l4xx_ll_rtc.h **** {
1413:../Drivers/STM32L4xx_HAL_Driver/Inc/stm32l4xx_ll_rtc.h ****   return ((READ_BIT(RTCx->TR, (RTC_TR_HT | RTC_TR_HU))) >> RTC_TR_HU_Pos);
1414:../Drivers/STM32L4xx_HAL_Driver/Inc/stm32l4xx_ll_rtc.h **** }
1415:../Drivers/STM32L4xx_HAL_Driver/Inc/stm32l4xx_ll_rtc.h **** 
1416:../Drivers/STM32L4xx_HAL_Driver/Inc/stm32l4xx_ll_rtc.h **** /**
1417:../Drivers/STM32L4xx_HAL_Driver/Inc/stm32l4xx_ll_rtc.h ****   * @brief  Set Minutes in BCD format
1418:../Drivers/STM32L4xx_HAL_Driver/Inc/stm32l4xx_ll_rtc.h ****   * @note   Bit is write-protected. @ref LL_RTC_DisableWriteProtection function should be called be
1419:../Drivers/STM32L4xx_HAL_Driver/Inc/stm32l4xx_ll_rtc.h ****   * @note   It can be written in initialization mode only (@ref LL_RTC_EnableInitMode function)
1420:../Drivers/STM32L4xx_HAL_Driver/Inc/stm32l4xx_ll_rtc.h ****   * @note helper macro __LL_RTC_CONVERT_BIN2BCD is available to convert Minutes from binary to BCD 
1421:../Drivers/STM32L4xx_HAL_Driver/Inc/stm32l4xx_ll_rtc.h ****   * @rmtoll RTC_TR           MNT           LL_RTC_TIME_SetMinute\n
1422:../Drivers/STM32L4xx_HAL_Driver/Inc/stm32l4xx_ll_rtc.h ****   *         RTC_TR           MNU           LL_RTC_TIME_SetMinute
1423:../Drivers/STM32L4xx_HAL_Driver/Inc/stm32l4xx_ll_rtc.h ****   * @param  RTCx RTC Instance
1424:../Drivers/STM32L4xx_HAL_Driver/Inc/stm32l4xx_ll_rtc.h ****   * @param  Minutes Value between Min_Data=0x00 and Max_Data=0x59
1425:../Drivers/STM32L4xx_HAL_Driver/Inc/stm32l4xx_ll_rtc.h ****   * @retval None
1426:../Drivers/STM32L4xx_HAL_Driver/Inc/stm32l4xx_ll_rtc.h ****   */
1427:../Drivers/STM32L4xx_HAL_Driver/Inc/stm32l4xx_ll_rtc.h **** __STATIC_INLINE void LL_RTC_TIME_SetMinute(RTC_TypeDef *RTCx, uint32_t Minutes)
1428:../Drivers/STM32L4xx_HAL_Driver/Inc/stm32l4xx_ll_rtc.h **** {
1429:../Drivers/STM32L4xx_HAL_Driver/Inc/stm32l4xx_ll_rtc.h ****   MODIFY_REG(RTCx->TR, (RTC_TR_MNT | RTC_TR_MNU),
1430:../Drivers/STM32L4xx_HAL_Driver/Inc/stm32l4xx_ll_rtc.h ****              (((Minutes & 0xF0U) << (RTC_TR_MNT_Pos - 4U)) | ((Minutes & 0x0FU) << RTC_TR_MNU_Pos))
1431:../Drivers/STM32L4xx_HAL_Driver/Inc/stm32l4xx_ll_rtc.h **** }
ARM GAS  /tmp/cc5oboQK.s 			page 34


1432:../Drivers/STM32L4xx_HAL_Driver/Inc/stm32l4xx_ll_rtc.h **** 
1433:../Drivers/STM32L4xx_HAL_Driver/Inc/stm32l4xx_ll_rtc.h **** /**
1434:../Drivers/STM32L4xx_HAL_Driver/Inc/stm32l4xx_ll_rtc.h ****   * @brief  Get Minutes in BCD format
1435:../Drivers/STM32L4xx_HAL_Driver/Inc/stm32l4xx_ll_rtc.h ****   * @note if shadow mode is disabled (BYPSHAD=0), need to check if RSF flag is set
1436:../Drivers/STM32L4xx_HAL_Driver/Inc/stm32l4xx_ll_rtc.h ****   *       before reading this bit
1437:../Drivers/STM32L4xx_HAL_Driver/Inc/stm32l4xx_ll_rtc.h ****   * @note Read either RTC_SSR or RTC_TR locks the values in the higher-order calendar
1438:../Drivers/STM32L4xx_HAL_Driver/Inc/stm32l4xx_ll_rtc.h ****   *       shadow registers until RTC_DR is read (LL_RTC_ReadReg(RTC, DR)).
1439:../Drivers/STM32L4xx_HAL_Driver/Inc/stm32l4xx_ll_rtc.h ****   * @note helper macro __LL_RTC_CONVERT_BCD2BIN is available to convert minute from BCD
1440:../Drivers/STM32L4xx_HAL_Driver/Inc/stm32l4xx_ll_rtc.h ****   *       to Binary format
1441:../Drivers/STM32L4xx_HAL_Driver/Inc/stm32l4xx_ll_rtc.h ****   * @rmtoll RTC_TR           MNT           LL_RTC_TIME_GetMinute\n
1442:../Drivers/STM32L4xx_HAL_Driver/Inc/stm32l4xx_ll_rtc.h ****   *         RTC_TR           MNU           LL_RTC_TIME_GetMinute
1443:../Drivers/STM32L4xx_HAL_Driver/Inc/stm32l4xx_ll_rtc.h ****   * @param  RTCx RTC Instance
1444:../Drivers/STM32L4xx_HAL_Driver/Inc/stm32l4xx_ll_rtc.h ****   * @retval Value between Min_Data=0x00 and Max_Data=0x59
1445:../Drivers/STM32L4xx_HAL_Driver/Inc/stm32l4xx_ll_rtc.h ****   */
1446:../Drivers/STM32L4xx_HAL_Driver/Inc/stm32l4xx_ll_rtc.h **** __STATIC_INLINE uint32_t LL_RTC_TIME_GetMinute(RTC_TypeDef *RTCx)
1447:../Drivers/STM32L4xx_HAL_Driver/Inc/stm32l4xx_ll_rtc.h **** {
1448:../Drivers/STM32L4xx_HAL_Driver/Inc/stm32l4xx_ll_rtc.h ****   return ((READ_BIT(RTCx->TR, (RTC_TR_MNT | RTC_TR_MNU))) >> RTC_TR_MNU_Pos);
1449:../Drivers/STM32L4xx_HAL_Driver/Inc/stm32l4xx_ll_rtc.h **** }
1450:../Drivers/STM32L4xx_HAL_Driver/Inc/stm32l4xx_ll_rtc.h **** 
1451:../Drivers/STM32L4xx_HAL_Driver/Inc/stm32l4xx_ll_rtc.h **** /**
1452:../Drivers/STM32L4xx_HAL_Driver/Inc/stm32l4xx_ll_rtc.h ****   * @brief  Set Seconds in BCD format
1453:../Drivers/STM32L4xx_HAL_Driver/Inc/stm32l4xx_ll_rtc.h ****   * @note   Bit is write-protected. @ref LL_RTC_DisableWriteProtection function should be called be
1454:../Drivers/STM32L4xx_HAL_Driver/Inc/stm32l4xx_ll_rtc.h ****   * @note   It can be written in initialization mode only (@ref LL_RTC_EnableInitMode function)
1455:../Drivers/STM32L4xx_HAL_Driver/Inc/stm32l4xx_ll_rtc.h ****   * @note helper macro __LL_RTC_CONVERT_BIN2BCD is available to convert Seconds from binary to BCD 
1456:../Drivers/STM32L4xx_HAL_Driver/Inc/stm32l4xx_ll_rtc.h ****   * @rmtoll RTC_TR           ST            LL_RTC_TIME_SetSecond\n
1457:../Drivers/STM32L4xx_HAL_Driver/Inc/stm32l4xx_ll_rtc.h ****   *         RTC_TR           SU            LL_RTC_TIME_SetSecond
1458:../Drivers/STM32L4xx_HAL_Driver/Inc/stm32l4xx_ll_rtc.h ****   * @param  RTCx RTC Instance
1459:../Drivers/STM32L4xx_HAL_Driver/Inc/stm32l4xx_ll_rtc.h ****   * @param  Seconds Value between Min_Data=0x00 and Max_Data=0x59
1460:../Drivers/STM32L4xx_HAL_Driver/Inc/stm32l4xx_ll_rtc.h ****   * @retval None
1461:../Drivers/STM32L4xx_HAL_Driver/Inc/stm32l4xx_ll_rtc.h ****   */
1462:../Drivers/STM32L4xx_HAL_Driver/Inc/stm32l4xx_ll_rtc.h **** __STATIC_INLINE void LL_RTC_TIME_SetSecond(RTC_TypeDef *RTCx, uint32_t Seconds)
1463:../Drivers/STM32L4xx_HAL_Driver/Inc/stm32l4xx_ll_rtc.h **** {
1464:../Drivers/STM32L4xx_HAL_Driver/Inc/stm32l4xx_ll_rtc.h ****   MODIFY_REG(RTCx->TR, (RTC_TR_ST | RTC_TR_SU),
1465:../Drivers/STM32L4xx_HAL_Driver/Inc/stm32l4xx_ll_rtc.h ****              (((Seconds & 0xF0U) << (RTC_TR_ST_Pos - 4U)) | ((Seconds & 0x0FU) << RTC_TR_SU_Pos)));
1466:../Drivers/STM32L4xx_HAL_Driver/Inc/stm32l4xx_ll_rtc.h **** }
1467:../Drivers/STM32L4xx_HAL_Driver/Inc/stm32l4xx_ll_rtc.h **** 
1468:../Drivers/STM32L4xx_HAL_Driver/Inc/stm32l4xx_ll_rtc.h **** /**
1469:../Drivers/STM32L4xx_HAL_Driver/Inc/stm32l4xx_ll_rtc.h ****   * @brief  Get Seconds in BCD format
1470:../Drivers/STM32L4xx_HAL_Driver/Inc/stm32l4xx_ll_rtc.h ****   * @note if shadow mode is disabled (BYPSHAD=0), need to check if RSF flag is set
1471:../Drivers/STM32L4xx_HAL_Driver/Inc/stm32l4xx_ll_rtc.h ****   *       before reading this bit
1472:../Drivers/STM32L4xx_HAL_Driver/Inc/stm32l4xx_ll_rtc.h ****   * @note Read either RTC_SSR or RTC_TR locks the values in the higher-order calendar
1473:../Drivers/STM32L4xx_HAL_Driver/Inc/stm32l4xx_ll_rtc.h ****   *       shadow registers until RTC_DR is read (LL_RTC_ReadReg(RTC, DR)).
1474:../Drivers/STM32L4xx_HAL_Driver/Inc/stm32l4xx_ll_rtc.h ****   * @note helper macro __LL_RTC_CONVERT_BCD2BIN is available to convert Seconds from BCD
1475:../Drivers/STM32L4xx_HAL_Driver/Inc/stm32l4xx_ll_rtc.h ****   *       to Binary format
1476:../Drivers/STM32L4xx_HAL_Driver/Inc/stm32l4xx_ll_rtc.h ****   * @rmtoll RTC_TR           ST            LL_RTC_TIME_GetSecond\n
1477:../Drivers/STM32L4xx_HAL_Driver/Inc/stm32l4xx_ll_rtc.h ****   *         RTC_TR           SU            LL_RTC_TIME_GetSecond
1478:../Drivers/STM32L4xx_HAL_Driver/Inc/stm32l4xx_ll_rtc.h ****   * @param  RTCx RTC Instance
1479:../Drivers/STM32L4xx_HAL_Driver/Inc/stm32l4xx_ll_rtc.h ****   * @retval Value between Min_Data=0x00 and Max_Data=0x59
1480:../Drivers/STM32L4xx_HAL_Driver/Inc/stm32l4xx_ll_rtc.h ****   */
1481:../Drivers/STM32L4xx_HAL_Driver/Inc/stm32l4xx_ll_rtc.h **** __STATIC_INLINE uint32_t LL_RTC_TIME_GetSecond(RTC_TypeDef *RTCx)
1482:../Drivers/STM32L4xx_HAL_Driver/Inc/stm32l4xx_ll_rtc.h **** {
1483:../Drivers/STM32L4xx_HAL_Driver/Inc/stm32l4xx_ll_rtc.h ****   return ((READ_BIT(RTCx->TR, (RTC_TR_ST | RTC_TR_SU))) >> RTC_TR_SU_Pos);
1484:../Drivers/STM32L4xx_HAL_Driver/Inc/stm32l4xx_ll_rtc.h **** }
1485:../Drivers/STM32L4xx_HAL_Driver/Inc/stm32l4xx_ll_rtc.h **** 
1486:../Drivers/STM32L4xx_HAL_Driver/Inc/stm32l4xx_ll_rtc.h **** /**
1487:../Drivers/STM32L4xx_HAL_Driver/Inc/stm32l4xx_ll_rtc.h ****   * @brief  Set time (hour, minute and second) in BCD format
1488:../Drivers/STM32L4xx_HAL_Driver/Inc/stm32l4xx_ll_rtc.h ****   * @note   Bit is write-protected. @ref LL_RTC_DisableWriteProtection function should be called be
ARM GAS  /tmp/cc5oboQK.s 			page 35


1489:../Drivers/STM32L4xx_HAL_Driver/Inc/stm32l4xx_ll_rtc.h ****   * @note   It can be written in initialization mode only (@ref LL_RTC_EnableInitMode function)
1490:../Drivers/STM32L4xx_HAL_Driver/Inc/stm32l4xx_ll_rtc.h ****   * @note TimeFormat and Hours should follow the same format
1491:../Drivers/STM32L4xx_HAL_Driver/Inc/stm32l4xx_ll_rtc.h ****   * @rmtoll RTC_TR           PM            LL_RTC_TIME_Config\n
1492:../Drivers/STM32L4xx_HAL_Driver/Inc/stm32l4xx_ll_rtc.h ****   *         RTC_TR           HT            LL_RTC_TIME_Config\n
1493:../Drivers/STM32L4xx_HAL_Driver/Inc/stm32l4xx_ll_rtc.h ****   *         RTC_TR           HU            LL_RTC_TIME_Config\n
1494:../Drivers/STM32L4xx_HAL_Driver/Inc/stm32l4xx_ll_rtc.h ****   *         RTC_TR           MNT           LL_RTC_TIME_Config\n
1495:../Drivers/STM32L4xx_HAL_Driver/Inc/stm32l4xx_ll_rtc.h ****   *         RTC_TR           MNU           LL_RTC_TIME_Config\n
1496:../Drivers/STM32L4xx_HAL_Driver/Inc/stm32l4xx_ll_rtc.h ****   *         RTC_TR           ST            LL_RTC_TIME_Config\n
1497:../Drivers/STM32L4xx_HAL_Driver/Inc/stm32l4xx_ll_rtc.h ****   *         RTC_TR           SU            LL_RTC_TIME_Config
1498:../Drivers/STM32L4xx_HAL_Driver/Inc/stm32l4xx_ll_rtc.h ****   * @param  RTCx RTC Instance
1499:../Drivers/STM32L4xx_HAL_Driver/Inc/stm32l4xx_ll_rtc.h ****   * @param  Format12_24 This parameter can be one of the following values:
1500:../Drivers/STM32L4xx_HAL_Driver/Inc/stm32l4xx_ll_rtc.h ****   *         @arg @ref LL_RTC_TIME_FORMAT_AM_OR_24
1501:../Drivers/STM32L4xx_HAL_Driver/Inc/stm32l4xx_ll_rtc.h ****   *         @arg @ref LL_RTC_TIME_FORMAT_PM
1502:../Drivers/STM32L4xx_HAL_Driver/Inc/stm32l4xx_ll_rtc.h ****   * @param  Hours Value between Min_Data=0x01 and Max_Data=0x12 or between Min_Data=0x00 and Max_Da
1503:../Drivers/STM32L4xx_HAL_Driver/Inc/stm32l4xx_ll_rtc.h ****   * @param  Minutes Value between Min_Data=0x00 and Max_Data=0x59
1504:../Drivers/STM32L4xx_HAL_Driver/Inc/stm32l4xx_ll_rtc.h ****   * @param  Seconds Value between Min_Data=0x00 and Max_Data=0x59
1505:../Drivers/STM32L4xx_HAL_Driver/Inc/stm32l4xx_ll_rtc.h ****   * @retval None
1506:../Drivers/STM32L4xx_HAL_Driver/Inc/stm32l4xx_ll_rtc.h ****   */
1507:../Drivers/STM32L4xx_HAL_Driver/Inc/stm32l4xx_ll_rtc.h **** __STATIC_INLINE void LL_RTC_TIME_Config(RTC_TypeDef *RTCx, uint32_t Format12_24, uint32_t Hours, ui
1508:../Drivers/STM32L4xx_HAL_Driver/Inc/stm32l4xx_ll_rtc.h **** {
 470              		.loc 1 1508 1
 471              		.cfi_startproc
 472              		@ args = 4, pretend = 0, frame = 16
 473              		@ frame_needed = 1, uses_anonymous_args = 0
 474              		@ link register save eliminated.
 475 0000 90B4     		push	{r4, r7}
 476              	.LCFI54:
 477              		.cfi_def_cfa_offset 8
 478              		.cfi_offset 4, -8
 479              		.cfi_offset 7, -4
 480 0002 84B0     		sub	sp, sp, #16
 481              	.LCFI55:
 482              		.cfi_def_cfa_offset 24
 483 0004 00AF     		add	r7, sp, #0
 484              	.LCFI56:
 485              		.cfi_def_cfa_register 7
 486 0006 F860     		str	r0, [r7, #12]
 487 0008 B960     		str	r1, [r7, #8]
 488 000a 7A60     		str	r2, [r7, #4]
 489 000c 3B60     		str	r3, [r7]
1509:../Drivers/STM32L4xx_HAL_Driver/Inc/stm32l4xx_ll_rtc.h ****   register uint32_t temp = 0U;
1510:../Drivers/STM32L4xx_HAL_Driver/Inc/stm32l4xx_ll_rtc.h **** 
1511:../Drivers/STM32L4xx_HAL_Driver/Inc/stm32l4xx_ll_rtc.h ****   temp = Format12_24                                                                               
1512:../Drivers/STM32L4xx_HAL_Driver/Inc/stm32l4xx_ll_rtc.h ****          (((Hours & 0xF0U) << (RTC_TR_HT_Pos - 4U)) | ((Hours & 0x0FU) << RTC_TR_HU_Pos))     | \
 490              		.loc 1 1512 28
 491 000e 7B68     		ldr	r3, [r7, #4]
 492 0010 1B04     		lsls	r3, r3, #16
 493              		.loc 1 1512 53
 494 0012 03F47F02 		and	r2, r3, #16711680
1511:../Drivers/STM32L4xx_HAL_Driver/Inc/stm32l4xx_ll_rtc.h ****          (((Hours & 0xF0U) << (RTC_TR_HT_Pos - 4U)) | ((Hours & 0x0FU) << RTC_TR_HU_Pos))     | \
 495              		.loc 1 1511 105
 496 0016 BB68     		ldr	r3, [r7, #8]
 497 0018 1A43     		orrs	r2, r2, r3
1513:../Drivers/STM32L4xx_HAL_Driver/Inc/stm32l4xx_ll_rtc.h ****          (((Minutes & 0xF0U) << (RTC_TR_MNT_Pos - 4U)) | ((Minutes & 0x0FU) << RTC_TR_MNU_Pos)) | \
 498              		.loc 1 1513 30
 499 001a 3B68     		ldr	r3, [r7]
 500 001c 1B02     		lsls	r3, r3, #8
ARM GAS  /tmp/cc5oboQK.s 			page 36


 501              		.loc 1 1513 56
 502 001e 9BB2     		uxth	r3, r3
1512:../Drivers/STM32L4xx_HAL_Driver/Inc/stm32l4xx_ll_rtc.h ****          (((Minutes & 0xF0U) << (RTC_TR_MNT_Pos - 4U)) | ((Minutes & 0x0FU) << RTC_TR_MNU_Pos)) | \
 503              		.loc 1 1512 95
 504 0020 1A43     		orrs	r2, r2, r3
1514:../Drivers/STM32L4xx_HAL_Driver/Inc/stm32l4xx_ll_rtc.h ****          (((Seconds & 0xF0U) << (RTC_TR_ST_Pos - 4U)) | ((Seconds & 0x0FU) << RTC_TR_SU_Pos));
 505              		.loc 1 1514 55
 506 0022 BB69     		ldr	r3, [r7, #24]
 507 0024 DBB2     		uxtb	r3, r3
1511:../Drivers/STM32L4xx_HAL_Driver/Inc/stm32l4xx_ll_rtc.h ****          (((Hours & 0xF0U) << (RTC_TR_HT_Pos - 4U)) | ((Hours & 0x0FU) << RTC_TR_HU_Pos))     | \
 508              		.loc 1 1511 8
 509 0026 42EA0304 		orr	r4, r2, r3
1515:../Drivers/STM32L4xx_HAL_Driver/Inc/stm32l4xx_ll_rtc.h ****   MODIFY_REG(RTCx->TR, (RTC_TR_PM | RTC_TR_HT | RTC_TR_HU | RTC_TR_MNT | RTC_TR_MNU | RTC_TR_ST | R
 510              		.loc 1 1515 3
 511 002a FB68     		ldr	r3, [r7, #12]
 512 002c 1B68     		ldr	r3, [r3]
 513 002e 23F07F13 		bic	r3, r3, #8323199
 514 0032 23F4FE43 		bic	r3, r3, #32512
 515 0036 44EA0302 		orr	r2, r4, r3
 516 003a FB68     		ldr	r3, [r7, #12]
 517 003c 1A60     		str	r2, [r3]
1516:../Drivers/STM32L4xx_HAL_Driver/Inc/stm32l4xx_ll_rtc.h **** }
 518              		.loc 1 1516 1
 519 003e 00BF     		nop
 520 0040 1037     		adds	r7, r7, #16
 521              	.LCFI57:
 522              		.cfi_def_cfa_offset 8
 523 0042 BD46     		mov	sp, r7
 524              	.LCFI58:
 525              		.cfi_def_cfa_register 13
 526              		@ sp needed
 527 0044 90BC     		pop	{r4, r7}
 528              	.LCFI59:
 529              		.cfi_restore 7
 530              		.cfi_restore 4
 531              		.cfi_def_cfa_offset 0
 532 0046 7047     		bx	lr
 533              		.cfi_endproc
 534              	.LFE344:
 536              		.section	.text.LL_RTC_DATE_Config,"ax",%progbits
 537              		.align	1
 538              		.syntax unified
 539              		.thumb
 540              		.thumb_func
 541              		.fpu fpv4-sp-d16
 543              	LL_RTC_DATE_Config:
 544              	.LFB361:
1517:../Drivers/STM32L4xx_HAL_Driver/Inc/stm32l4xx_ll_rtc.h **** 
1518:../Drivers/STM32L4xx_HAL_Driver/Inc/stm32l4xx_ll_rtc.h **** /**
1519:../Drivers/STM32L4xx_HAL_Driver/Inc/stm32l4xx_ll_rtc.h ****   * @brief  Get time (hour, minute and second) in BCD format
1520:../Drivers/STM32L4xx_HAL_Driver/Inc/stm32l4xx_ll_rtc.h ****   * @note if shadow mode is disabled (BYPSHAD=0), need to check if RSF flag is set
1521:../Drivers/STM32L4xx_HAL_Driver/Inc/stm32l4xx_ll_rtc.h ****   *       before reading this bit
1522:../Drivers/STM32L4xx_HAL_Driver/Inc/stm32l4xx_ll_rtc.h ****   * @note Read either RTC_SSR or RTC_TR locks the values in the higher-order calendar
1523:../Drivers/STM32L4xx_HAL_Driver/Inc/stm32l4xx_ll_rtc.h ****   *       shadow registers until RTC_DR is read (LL_RTC_ReadReg(RTC, DR)).
1524:../Drivers/STM32L4xx_HAL_Driver/Inc/stm32l4xx_ll_rtc.h ****   * @note helper macros __LL_RTC_GET_HOUR, __LL_RTC_GET_MINUTE and __LL_RTC_GET_SECOND
1525:../Drivers/STM32L4xx_HAL_Driver/Inc/stm32l4xx_ll_rtc.h ****   *       are available to get independently each parameter.
1526:../Drivers/STM32L4xx_HAL_Driver/Inc/stm32l4xx_ll_rtc.h ****   * @rmtoll RTC_TR           HT            LL_RTC_TIME_Get\n
ARM GAS  /tmp/cc5oboQK.s 			page 37


1527:../Drivers/STM32L4xx_HAL_Driver/Inc/stm32l4xx_ll_rtc.h ****   *         RTC_TR           HU            LL_RTC_TIME_Get\n
1528:../Drivers/STM32L4xx_HAL_Driver/Inc/stm32l4xx_ll_rtc.h ****   *         RTC_TR           MNT           LL_RTC_TIME_Get\n
1529:../Drivers/STM32L4xx_HAL_Driver/Inc/stm32l4xx_ll_rtc.h ****   *         RTC_TR           MNU           LL_RTC_TIME_Get\n
1530:../Drivers/STM32L4xx_HAL_Driver/Inc/stm32l4xx_ll_rtc.h ****   *         RTC_TR           ST            LL_RTC_TIME_Get\n
1531:../Drivers/STM32L4xx_HAL_Driver/Inc/stm32l4xx_ll_rtc.h ****   *         RTC_TR           SU            LL_RTC_TIME_Get
1532:../Drivers/STM32L4xx_HAL_Driver/Inc/stm32l4xx_ll_rtc.h ****   * @param  RTCx RTC Instance
1533:../Drivers/STM32L4xx_HAL_Driver/Inc/stm32l4xx_ll_rtc.h ****   * @retval Combination of hours, minutes and seconds (Format: 0x00HHMMSS).
1534:../Drivers/STM32L4xx_HAL_Driver/Inc/stm32l4xx_ll_rtc.h ****   */
1535:../Drivers/STM32L4xx_HAL_Driver/Inc/stm32l4xx_ll_rtc.h **** __STATIC_INLINE uint32_t LL_RTC_TIME_Get(RTC_TypeDef *RTCx)
1536:../Drivers/STM32L4xx_HAL_Driver/Inc/stm32l4xx_ll_rtc.h **** {
1537:../Drivers/STM32L4xx_HAL_Driver/Inc/stm32l4xx_ll_rtc.h ****   register uint32_t temp = 0U;
1538:../Drivers/STM32L4xx_HAL_Driver/Inc/stm32l4xx_ll_rtc.h **** 
1539:../Drivers/STM32L4xx_HAL_Driver/Inc/stm32l4xx_ll_rtc.h ****   temp = READ_BIT(RTCx->TR, (RTC_TR_HT | RTC_TR_HU | RTC_TR_MNT | RTC_TR_MNU | RTC_TR_ST | RTC_TR_S
1540:../Drivers/STM32L4xx_HAL_Driver/Inc/stm32l4xx_ll_rtc.h ****   return (uint32_t)((((((temp & RTC_TR_HT) >> RTC_TR_HT_Pos) << 4U) | ((temp & RTC_TR_HU) >> RTC_TR
1541:../Drivers/STM32L4xx_HAL_Driver/Inc/stm32l4xx_ll_rtc.h ****                     (((((temp & RTC_TR_MNT) >> RTC_TR_MNT_Pos) << 4U) | ((temp & RTC_TR_MNU) >> RTC
1542:../Drivers/STM32L4xx_HAL_Driver/Inc/stm32l4xx_ll_rtc.h ****                     ((((temp & RTC_TR_ST) >> RTC_TR_ST_Pos) << 4U) | ((temp & RTC_TR_SU) >> RTC_TR_
1543:../Drivers/STM32L4xx_HAL_Driver/Inc/stm32l4xx_ll_rtc.h **** }
1544:../Drivers/STM32L4xx_HAL_Driver/Inc/stm32l4xx_ll_rtc.h **** 
1545:../Drivers/STM32L4xx_HAL_Driver/Inc/stm32l4xx_ll_rtc.h **** /**
1546:../Drivers/STM32L4xx_HAL_Driver/Inc/stm32l4xx_ll_rtc.h ****   * @brief  Memorize whether the daylight saving time change has been performed
1547:../Drivers/STM32L4xx_HAL_Driver/Inc/stm32l4xx_ll_rtc.h ****   * @note   Bit is write-protected. @ref LL_RTC_DisableWriteProtection function should be called be
1548:../Drivers/STM32L4xx_HAL_Driver/Inc/stm32l4xx_ll_rtc.h ****   * @rmtoll RTC_CR           BKP           LL_RTC_TIME_EnableDayLightStore
1549:../Drivers/STM32L4xx_HAL_Driver/Inc/stm32l4xx_ll_rtc.h ****   * @param  RTCx RTC Instance
1550:../Drivers/STM32L4xx_HAL_Driver/Inc/stm32l4xx_ll_rtc.h ****   * @retval None
1551:../Drivers/STM32L4xx_HAL_Driver/Inc/stm32l4xx_ll_rtc.h ****   */
1552:../Drivers/STM32L4xx_HAL_Driver/Inc/stm32l4xx_ll_rtc.h **** __STATIC_INLINE void LL_RTC_TIME_EnableDayLightStore(RTC_TypeDef *RTCx)
1553:../Drivers/STM32L4xx_HAL_Driver/Inc/stm32l4xx_ll_rtc.h **** {
1554:../Drivers/STM32L4xx_HAL_Driver/Inc/stm32l4xx_ll_rtc.h ****   SET_BIT(RTCx->CR, RTC_CR_BKP);
1555:../Drivers/STM32L4xx_HAL_Driver/Inc/stm32l4xx_ll_rtc.h **** }
1556:../Drivers/STM32L4xx_HAL_Driver/Inc/stm32l4xx_ll_rtc.h **** 
1557:../Drivers/STM32L4xx_HAL_Driver/Inc/stm32l4xx_ll_rtc.h **** /**
1558:../Drivers/STM32L4xx_HAL_Driver/Inc/stm32l4xx_ll_rtc.h ****   * @brief  Disable memorization whether the daylight saving time change has been performed.
1559:../Drivers/STM32L4xx_HAL_Driver/Inc/stm32l4xx_ll_rtc.h ****   * @note   Bit is write-protected. @ref LL_RTC_DisableWriteProtection function should be called be
1560:../Drivers/STM32L4xx_HAL_Driver/Inc/stm32l4xx_ll_rtc.h ****   * @rmtoll RTC_CR           BKP           LL_RTC_TIME_DisableDayLightStore
1561:../Drivers/STM32L4xx_HAL_Driver/Inc/stm32l4xx_ll_rtc.h ****   * @param  RTCx RTC Instance
1562:../Drivers/STM32L4xx_HAL_Driver/Inc/stm32l4xx_ll_rtc.h ****   * @retval None
1563:../Drivers/STM32L4xx_HAL_Driver/Inc/stm32l4xx_ll_rtc.h ****   */
1564:../Drivers/STM32L4xx_HAL_Driver/Inc/stm32l4xx_ll_rtc.h **** __STATIC_INLINE void LL_RTC_TIME_DisableDayLightStore(RTC_TypeDef *RTCx)
1565:../Drivers/STM32L4xx_HAL_Driver/Inc/stm32l4xx_ll_rtc.h **** {
1566:../Drivers/STM32L4xx_HAL_Driver/Inc/stm32l4xx_ll_rtc.h ****   CLEAR_BIT(RTCx->CR, RTC_CR_BKP);
1567:../Drivers/STM32L4xx_HAL_Driver/Inc/stm32l4xx_ll_rtc.h **** }
1568:../Drivers/STM32L4xx_HAL_Driver/Inc/stm32l4xx_ll_rtc.h **** 
1569:../Drivers/STM32L4xx_HAL_Driver/Inc/stm32l4xx_ll_rtc.h **** /**
1570:../Drivers/STM32L4xx_HAL_Driver/Inc/stm32l4xx_ll_rtc.h ****   * @brief  Check if RTC Day Light Saving stored operation has been enabled or not
1571:../Drivers/STM32L4xx_HAL_Driver/Inc/stm32l4xx_ll_rtc.h ****   * @rmtoll RTC_CR           BKP           LL_RTC_TIME_IsDayLightStoreEnabled
1572:../Drivers/STM32L4xx_HAL_Driver/Inc/stm32l4xx_ll_rtc.h ****   * @param  RTCx RTC Instance
1573:../Drivers/STM32L4xx_HAL_Driver/Inc/stm32l4xx_ll_rtc.h ****   * @retval State of bit (1 or 0).
1574:../Drivers/STM32L4xx_HAL_Driver/Inc/stm32l4xx_ll_rtc.h ****   */
1575:../Drivers/STM32L4xx_HAL_Driver/Inc/stm32l4xx_ll_rtc.h **** __STATIC_INLINE uint32_t LL_RTC_TIME_IsDayLightStoreEnabled(RTC_TypeDef *RTCx)
1576:../Drivers/STM32L4xx_HAL_Driver/Inc/stm32l4xx_ll_rtc.h **** {
1577:../Drivers/STM32L4xx_HAL_Driver/Inc/stm32l4xx_ll_rtc.h ****   return (READ_BIT(RTCx->CR, RTC_CR_BKP) == (RTC_CR_BKP));
1578:../Drivers/STM32L4xx_HAL_Driver/Inc/stm32l4xx_ll_rtc.h **** }
1579:../Drivers/STM32L4xx_HAL_Driver/Inc/stm32l4xx_ll_rtc.h **** 
1580:../Drivers/STM32L4xx_HAL_Driver/Inc/stm32l4xx_ll_rtc.h **** /**
1581:../Drivers/STM32L4xx_HAL_Driver/Inc/stm32l4xx_ll_rtc.h ****   * @brief  Subtract 1 hour (winter time change)
1582:../Drivers/STM32L4xx_HAL_Driver/Inc/stm32l4xx_ll_rtc.h ****   * @note   Bit is write-protected. @ref LL_RTC_DisableWriteProtection function should be called be
1583:../Drivers/STM32L4xx_HAL_Driver/Inc/stm32l4xx_ll_rtc.h ****   * @rmtoll RTC_CR           SUB1H         LL_RTC_TIME_DecHour
ARM GAS  /tmp/cc5oboQK.s 			page 38


1584:../Drivers/STM32L4xx_HAL_Driver/Inc/stm32l4xx_ll_rtc.h ****   * @param  RTCx RTC Instance
1585:../Drivers/STM32L4xx_HAL_Driver/Inc/stm32l4xx_ll_rtc.h ****   * @retval None
1586:../Drivers/STM32L4xx_HAL_Driver/Inc/stm32l4xx_ll_rtc.h ****   */
1587:../Drivers/STM32L4xx_HAL_Driver/Inc/stm32l4xx_ll_rtc.h **** __STATIC_INLINE void LL_RTC_TIME_DecHour(RTC_TypeDef *RTCx)
1588:../Drivers/STM32L4xx_HAL_Driver/Inc/stm32l4xx_ll_rtc.h **** {
1589:../Drivers/STM32L4xx_HAL_Driver/Inc/stm32l4xx_ll_rtc.h ****   SET_BIT(RTCx->CR, RTC_CR_SUB1H);
1590:../Drivers/STM32L4xx_HAL_Driver/Inc/stm32l4xx_ll_rtc.h **** }
1591:../Drivers/STM32L4xx_HAL_Driver/Inc/stm32l4xx_ll_rtc.h **** 
1592:../Drivers/STM32L4xx_HAL_Driver/Inc/stm32l4xx_ll_rtc.h **** /**
1593:../Drivers/STM32L4xx_HAL_Driver/Inc/stm32l4xx_ll_rtc.h ****   * @brief  Add 1 hour (summer time change)
1594:../Drivers/STM32L4xx_HAL_Driver/Inc/stm32l4xx_ll_rtc.h ****   * @note   Bit is write-protected. @ref LL_RTC_DisableWriteProtection function should be called be
1595:../Drivers/STM32L4xx_HAL_Driver/Inc/stm32l4xx_ll_rtc.h ****   * @rmtoll RTC_CR           ADD1H         LL_RTC_TIME_IncHour
1596:../Drivers/STM32L4xx_HAL_Driver/Inc/stm32l4xx_ll_rtc.h ****   * @param  RTCx RTC Instance
1597:../Drivers/STM32L4xx_HAL_Driver/Inc/stm32l4xx_ll_rtc.h ****   * @retval None
1598:../Drivers/STM32L4xx_HAL_Driver/Inc/stm32l4xx_ll_rtc.h ****   */
1599:../Drivers/STM32L4xx_HAL_Driver/Inc/stm32l4xx_ll_rtc.h **** __STATIC_INLINE void LL_RTC_TIME_IncHour(RTC_TypeDef *RTCx)
1600:../Drivers/STM32L4xx_HAL_Driver/Inc/stm32l4xx_ll_rtc.h **** {
1601:../Drivers/STM32L4xx_HAL_Driver/Inc/stm32l4xx_ll_rtc.h ****   SET_BIT(RTCx->CR, RTC_CR_ADD1H);
1602:../Drivers/STM32L4xx_HAL_Driver/Inc/stm32l4xx_ll_rtc.h **** }
1603:../Drivers/STM32L4xx_HAL_Driver/Inc/stm32l4xx_ll_rtc.h **** 
1604:../Drivers/STM32L4xx_HAL_Driver/Inc/stm32l4xx_ll_rtc.h **** /**
1605:../Drivers/STM32L4xx_HAL_Driver/Inc/stm32l4xx_ll_rtc.h ****   * @brief  Get Sub second value in the synchronous prescaler counter.
1606:../Drivers/STM32L4xx_HAL_Driver/Inc/stm32l4xx_ll_rtc.h ****   * @note  You can use both SubSeconds value and SecondFraction (PREDIV_S through
1607:../Drivers/STM32L4xx_HAL_Driver/Inc/stm32l4xx_ll_rtc.h ****   *        LL_RTC_GetSynchPrescaler function) terms returned to convert Calendar
1608:../Drivers/STM32L4xx_HAL_Driver/Inc/stm32l4xx_ll_rtc.h ****   *        SubSeconds value in second fraction ratio with time unit following
1609:../Drivers/STM32L4xx_HAL_Driver/Inc/stm32l4xx_ll_rtc.h ****   *        generic formula:
1610:../Drivers/STM32L4xx_HAL_Driver/Inc/stm32l4xx_ll_rtc.h ****   *          ==> Seconds fraction ratio * time_unit= [(SecondFraction-SubSeconds)/(SecondFraction+1
1611:../Drivers/STM32L4xx_HAL_Driver/Inc/stm32l4xx_ll_rtc.h ****   *        This conversion can be performed only if no shift operation is pending
1612:../Drivers/STM32L4xx_HAL_Driver/Inc/stm32l4xx_ll_rtc.h ****   *        (ie. SHFP=0) when PREDIV_S >= SS.
1613:../Drivers/STM32L4xx_HAL_Driver/Inc/stm32l4xx_ll_rtc.h ****   * @rmtoll RTC_SSR          SS            LL_RTC_TIME_GetSubSecond
1614:../Drivers/STM32L4xx_HAL_Driver/Inc/stm32l4xx_ll_rtc.h ****   * @param  RTCx RTC Instance
1615:../Drivers/STM32L4xx_HAL_Driver/Inc/stm32l4xx_ll_rtc.h ****   * @retval Sub second value (number between 0 and 65535)
1616:../Drivers/STM32L4xx_HAL_Driver/Inc/stm32l4xx_ll_rtc.h ****   */
1617:../Drivers/STM32L4xx_HAL_Driver/Inc/stm32l4xx_ll_rtc.h **** __STATIC_INLINE uint32_t LL_RTC_TIME_GetSubSecond(RTC_TypeDef *RTCx)
1618:../Drivers/STM32L4xx_HAL_Driver/Inc/stm32l4xx_ll_rtc.h **** {
1619:../Drivers/STM32L4xx_HAL_Driver/Inc/stm32l4xx_ll_rtc.h ****   return (uint32_t)(READ_BIT(RTCx->SSR, RTC_SSR_SS));
1620:../Drivers/STM32L4xx_HAL_Driver/Inc/stm32l4xx_ll_rtc.h **** }
1621:../Drivers/STM32L4xx_HAL_Driver/Inc/stm32l4xx_ll_rtc.h **** 
1622:../Drivers/STM32L4xx_HAL_Driver/Inc/stm32l4xx_ll_rtc.h **** /**
1623:../Drivers/STM32L4xx_HAL_Driver/Inc/stm32l4xx_ll_rtc.h ****   * @brief  Synchronize to a remote clock with a high degree of precision.
1624:../Drivers/STM32L4xx_HAL_Driver/Inc/stm32l4xx_ll_rtc.h ****   * @note   This operation effectively subtracts from (delays) or advance the clock of a fraction o
1625:../Drivers/STM32L4xx_HAL_Driver/Inc/stm32l4xx_ll_rtc.h ****   * @note   Bit is write-protected. @ref LL_RTC_DisableWriteProtection function should be called be
1626:../Drivers/STM32L4xx_HAL_Driver/Inc/stm32l4xx_ll_rtc.h ****   * @note   When REFCKON is set, firmware must not write to Shift control register.
1627:../Drivers/STM32L4xx_HAL_Driver/Inc/stm32l4xx_ll_rtc.h ****   * @rmtoll RTC_SHIFTR       ADD1S         LL_RTC_TIME_Synchronize\n
1628:../Drivers/STM32L4xx_HAL_Driver/Inc/stm32l4xx_ll_rtc.h ****   *         RTC_SHIFTR       SUBFS         LL_RTC_TIME_Synchronize
1629:../Drivers/STM32L4xx_HAL_Driver/Inc/stm32l4xx_ll_rtc.h ****   * @param  RTCx RTC Instance
1630:../Drivers/STM32L4xx_HAL_Driver/Inc/stm32l4xx_ll_rtc.h ****   * @param  ShiftSecond This parameter can be one of the following values:
1631:../Drivers/STM32L4xx_HAL_Driver/Inc/stm32l4xx_ll_rtc.h ****   *         @arg @ref LL_RTC_SHIFT_SECOND_DELAY
1632:../Drivers/STM32L4xx_HAL_Driver/Inc/stm32l4xx_ll_rtc.h ****   *         @arg @ref LL_RTC_SHIFT_SECOND_ADVANCE
1633:../Drivers/STM32L4xx_HAL_Driver/Inc/stm32l4xx_ll_rtc.h ****   * @param  Fraction Number of Seconds Fractions (any value from 0 to 0x7FFF)
1634:../Drivers/STM32L4xx_HAL_Driver/Inc/stm32l4xx_ll_rtc.h ****   * @retval None
1635:../Drivers/STM32L4xx_HAL_Driver/Inc/stm32l4xx_ll_rtc.h ****   */
1636:../Drivers/STM32L4xx_HAL_Driver/Inc/stm32l4xx_ll_rtc.h **** __STATIC_INLINE void LL_RTC_TIME_Synchronize(RTC_TypeDef *RTCx, uint32_t ShiftSecond, uint32_t Frac
1637:../Drivers/STM32L4xx_HAL_Driver/Inc/stm32l4xx_ll_rtc.h **** {
1638:../Drivers/STM32L4xx_HAL_Driver/Inc/stm32l4xx_ll_rtc.h ****   WRITE_REG(RTCx->SHIFTR, ShiftSecond | Fraction);
1639:../Drivers/STM32L4xx_HAL_Driver/Inc/stm32l4xx_ll_rtc.h **** }
1640:../Drivers/STM32L4xx_HAL_Driver/Inc/stm32l4xx_ll_rtc.h **** 
ARM GAS  /tmp/cc5oboQK.s 			page 39


1641:../Drivers/STM32L4xx_HAL_Driver/Inc/stm32l4xx_ll_rtc.h **** /**
1642:../Drivers/STM32L4xx_HAL_Driver/Inc/stm32l4xx_ll_rtc.h ****   * @}
1643:../Drivers/STM32L4xx_HAL_Driver/Inc/stm32l4xx_ll_rtc.h ****   */
1644:../Drivers/STM32L4xx_HAL_Driver/Inc/stm32l4xx_ll_rtc.h **** 
1645:../Drivers/STM32L4xx_HAL_Driver/Inc/stm32l4xx_ll_rtc.h **** /** @defgroup RTC_LL_EF_Date Date
1646:../Drivers/STM32L4xx_HAL_Driver/Inc/stm32l4xx_ll_rtc.h ****   * @{
1647:../Drivers/STM32L4xx_HAL_Driver/Inc/stm32l4xx_ll_rtc.h ****   */
1648:../Drivers/STM32L4xx_HAL_Driver/Inc/stm32l4xx_ll_rtc.h **** 
1649:../Drivers/STM32L4xx_HAL_Driver/Inc/stm32l4xx_ll_rtc.h **** /**
1650:../Drivers/STM32L4xx_HAL_Driver/Inc/stm32l4xx_ll_rtc.h ****   * @brief  Set Year in BCD format
1651:../Drivers/STM32L4xx_HAL_Driver/Inc/stm32l4xx_ll_rtc.h ****   * @note helper macro __LL_RTC_CONVERT_BIN2BCD is available to convert Year from binary to BCD for
1652:../Drivers/STM32L4xx_HAL_Driver/Inc/stm32l4xx_ll_rtc.h ****   * @rmtoll RTC_DR           YT            LL_RTC_DATE_SetYear\n
1653:../Drivers/STM32L4xx_HAL_Driver/Inc/stm32l4xx_ll_rtc.h ****   *         RTC_DR           YU            LL_RTC_DATE_SetYear
1654:../Drivers/STM32L4xx_HAL_Driver/Inc/stm32l4xx_ll_rtc.h ****   * @param  RTCx RTC Instance
1655:../Drivers/STM32L4xx_HAL_Driver/Inc/stm32l4xx_ll_rtc.h ****   * @param  Year Value between Min_Data=0x00 and Max_Data=0x99
1656:../Drivers/STM32L4xx_HAL_Driver/Inc/stm32l4xx_ll_rtc.h ****   * @retval None
1657:../Drivers/STM32L4xx_HAL_Driver/Inc/stm32l4xx_ll_rtc.h ****   */
1658:../Drivers/STM32L4xx_HAL_Driver/Inc/stm32l4xx_ll_rtc.h **** __STATIC_INLINE void LL_RTC_DATE_SetYear(RTC_TypeDef *RTCx, uint32_t Year)
1659:../Drivers/STM32L4xx_HAL_Driver/Inc/stm32l4xx_ll_rtc.h **** {
1660:../Drivers/STM32L4xx_HAL_Driver/Inc/stm32l4xx_ll_rtc.h ****   MODIFY_REG(RTCx->DR, (RTC_DR_YT | RTC_DR_YU),
1661:../Drivers/STM32L4xx_HAL_Driver/Inc/stm32l4xx_ll_rtc.h ****              (((Year & 0xF0U) << (RTC_DR_YT_Pos - 4U)) | ((Year & 0x0FU) << RTC_DR_YU_Pos)));
1662:../Drivers/STM32L4xx_HAL_Driver/Inc/stm32l4xx_ll_rtc.h **** }
1663:../Drivers/STM32L4xx_HAL_Driver/Inc/stm32l4xx_ll_rtc.h **** 
1664:../Drivers/STM32L4xx_HAL_Driver/Inc/stm32l4xx_ll_rtc.h **** /**
1665:../Drivers/STM32L4xx_HAL_Driver/Inc/stm32l4xx_ll_rtc.h ****   * @brief  Get Year in BCD format
1666:../Drivers/STM32L4xx_HAL_Driver/Inc/stm32l4xx_ll_rtc.h ****   * @note if shadow mode is disabled (BYPSHAD=0), need to check if RSF flag is set
1667:../Drivers/STM32L4xx_HAL_Driver/Inc/stm32l4xx_ll_rtc.h ****   *       before reading this bit
1668:../Drivers/STM32L4xx_HAL_Driver/Inc/stm32l4xx_ll_rtc.h ****   * @note helper macro __LL_RTC_CONVERT_BCD2BIN is available to convert Year from BCD to Binary for
1669:../Drivers/STM32L4xx_HAL_Driver/Inc/stm32l4xx_ll_rtc.h ****   * @rmtoll RTC_DR           YT            LL_RTC_DATE_GetYear\n
1670:../Drivers/STM32L4xx_HAL_Driver/Inc/stm32l4xx_ll_rtc.h ****   *         RTC_DR           YU            LL_RTC_DATE_GetYear
1671:../Drivers/STM32L4xx_HAL_Driver/Inc/stm32l4xx_ll_rtc.h ****   * @param  RTCx RTC Instance
1672:../Drivers/STM32L4xx_HAL_Driver/Inc/stm32l4xx_ll_rtc.h ****   * @retval Value between Min_Data=0x00 and Max_Data=0x99
1673:../Drivers/STM32L4xx_HAL_Driver/Inc/stm32l4xx_ll_rtc.h ****   */
1674:../Drivers/STM32L4xx_HAL_Driver/Inc/stm32l4xx_ll_rtc.h **** __STATIC_INLINE uint32_t LL_RTC_DATE_GetYear(RTC_TypeDef *RTCx)
1675:../Drivers/STM32L4xx_HAL_Driver/Inc/stm32l4xx_ll_rtc.h **** {
1676:../Drivers/STM32L4xx_HAL_Driver/Inc/stm32l4xx_ll_rtc.h ****   return ((READ_BIT(RTCx->DR, (RTC_DR_YT | RTC_DR_YU))) >> RTC_DR_YU_Pos);
1677:../Drivers/STM32L4xx_HAL_Driver/Inc/stm32l4xx_ll_rtc.h **** }
1678:../Drivers/STM32L4xx_HAL_Driver/Inc/stm32l4xx_ll_rtc.h **** 
1679:../Drivers/STM32L4xx_HAL_Driver/Inc/stm32l4xx_ll_rtc.h **** /**
1680:../Drivers/STM32L4xx_HAL_Driver/Inc/stm32l4xx_ll_rtc.h ****   * @brief  Set Week day
1681:../Drivers/STM32L4xx_HAL_Driver/Inc/stm32l4xx_ll_rtc.h ****   * @rmtoll RTC_DR           WDU           LL_RTC_DATE_SetWeekDay
1682:../Drivers/STM32L4xx_HAL_Driver/Inc/stm32l4xx_ll_rtc.h ****   * @param  RTCx RTC Instance
1683:../Drivers/STM32L4xx_HAL_Driver/Inc/stm32l4xx_ll_rtc.h ****   * @param  WeekDay This parameter can be one of the following values:
1684:../Drivers/STM32L4xx_HAL_Driver/Inc/stm32l4xx_ll_rtc.h ****   *         @arg @ref LL_RTC_WEEKDAY_MONDAY
1685:../Drivers/STM32L4xx_HAL_Driver/Inc/stm32l4xx_ll_rtc.h ****   *         @arg @ref LL_RTC_WEEKDAY_TUESDAY
1686:../Drivers/STM32L4xx_HAL_Driver/Inc/stm32l4xx_ll_rtc.h ****   *         @arg @ref LL_RTC_WEEKDAY_WEDNESDAY
1687:../Drivers/STM32L4xx_HAL_Driver/Inc/stm32l4xx_ll_rtc.h ****   *         @arg @ref LL_RTC_WEEKDAY_THURSDAY
1688:../Drivers/STM32L4xx_HAL_Driver/Inc/stm32l4xx_ll_rtc.h ****   *         @arg @ref LL_RTC_WEEKDAY_FRIDAY
1689:../Drivers/STM32L4xx_HAL_Driver/Inc/stm32l4xx_ll_rtc.h ****   *         @arg @ref LL_RTC_WEEKDAY_SATURDAY
1690:../Drivers/STM32L4xx_HAL_Driver/Inc/stm32l4xx_ll_rtc.h ****   *         @arg @ref LL_RTC_WEEKDAY_SUNDAY
1691:../Drivers/STM32L4xx_HAL_Driver/Inc/stm32l4xx_ll_rtc.h ****   * @retval None
1692:../Drivers/STM32L4xx_HAL_Driver/Inc/stm32l4xx_ll_rtc.h ****   */
1693:../Drivers/STM32L4xx_HAL_Driver/Inc/stm32l4xx_ll_rtc.h **** __STATIC_INLINE void LL_RTC_DATE_SetWeekDay(RTC_TypeDef *RTCx, uint32_t WeekDay)
1694:../Drivers/STM32L4xx_HAL_Driver/Inc/stm32l4xx_ll_rtc.h **** {
1695:../Drivers/STM32L4xx_HAL_Driver/Inc/stm32l4xx_ll_rtc.h ****   MODIFY_REG(RTCx->DR, RTC_DR_WDU, WeekDay << RTC_DR_WDU_Pos);
1696:../Drivers/STM32L4xx_HAL_Driver/Inc/stm32l4xx_ll_rtc.h **** }
1697:../Drivers/STM32L4xx_HAL_Driver/Inc/stm32l4xx_ll_rtc.h **** 
ARM GAS  /tmp/cc5oboQK.s 			page 40


1698:../Drivers/STM32L4xx_HAL_Driver/Inc/stm32l4xx_ll_rtc.h **** /**
1699:../Drivers/STM32L4xx_HAL_Driver/Inc/stm32l4xx_ll_rtc.h ****   * @brief  Get Week day
1700:../Drivers/STM32L4xx_HAL_Driver/Inc/stm32l4xx_ll_rtc.h ****   * @note if shadow mode is disabled (BYPSHAD=0), need to check if RSF flag is set
1701:../Drivers/STM32L4xx_HAL_Driver/Inc/stm32l4xx_ll_rtc.h ****   *       before reading this bit
1702:../Drivers/STM32L4xx_HAL_Driver/Inc/stm32l4xx_ll_rtc.h ****   * @rmtoll RTC_DR           WDU           LL_RTC_DATE_GetWeekDay
1703:../Drivers/STM32L4xx_HAL_Driver/Inc/stm32l4xx_ll_rtc.h ****   * @param  RTCx RTC Instance
1704:../Drivers/STM32L4xx_HAL_Driver/Inc/stm32l4xx_ll_rtc.h ****   * @retval Returned value can be one of the following values:
1705:../Drivers/STM32L4xx_HAL_Driver/Inc/stm32l4xx_ll_rtc.h ****   *         @arg @ref LL_RTC_WEEKDAY_MONDAY
1706:../Drivers/STM32L4xx_HAL_Driver/Inc/stm32l4xx_ll_rtc.h ****   *         @arg @ref LL_RTC_WEEKDAY_TUESDAY
1707:../Drivers/STM32L4xx_HAL_Driver/Inc/stm32l4xx_ll_rtc.h ****   *         @arg @ref LL_RTC_WEEKDAY_WEDNESDAY
1708:../Drivers/STM32L4xx_HAL_Driver/Inc/stm32l4xx_ll_rtc.h ****   *         @arg @ref LL_RTC_WEEKDAY_THURSDAY
1709:../Drivers/STM32L4xx_HAL_Driver/Inc/stm32l4xx_ll_rtc.h ****   *         @arg @ref LL_RTC_WEEKDAY_FRIDAY
1710:../Drivers/STM32L4xx_HAL_Driver/Inc/stm32l4xx_ll_rtc.h ****   *         @arg @ref LL_RTC_WEEKDAY_SATURDAY
1711:../Drivers/STM32L4xx_HAL_Driver/Inc/stm32l4xx_ll_rtc.h ****   *         @arg @ref LL_RTC_WEEKDAY_SUNDAY
1712:../Drivers/STM32L4xx_HAL_Driver/Inc/stm32l4xx_ll_rtc.h ****   */
1713:../Drivers/STM32L4xx_HAL_Driver/Inc/stm32l4xx_ll_rtc.h **** __STATIC_INLINE uint32_t LL_RTC_DATE_GetWeekDay(RTC_TypeDef *RTCx)
1714:../Drivers/STM32L4xx_HAL_Driver/Inc/stm32l4xx_ll_rtc.h **** {
1715:../Drivers/STM32L4xx_HAL_Driver/Inc/stm32l4xx_ll_rtc.h ****   return (uint32_t)(READ_BIT(RTCx->DR, RTC_DR_WDU) >> RTC_DR_WDU_Pos);
1716:../Drivers/STM32L4xx_HAL_Driver/Inc/stm32l4xx_ll_rtc.h **** }
1717:../Drivers/STM32L4xx_HAL_Driver/Inc/stm32l4xx_ll_rtc.h **** 
1718:../Drivers/STM32L4xx_HAL_Driver/Inc/stm32l4xx_ll_rtc.h **** /**
1719:../Drivers/STM32L4xx_HAL_Driver/Inc/stm32l4xx_ll_rtc.h ****   * @brief  Set Month in BCD format
1720:../Drivers/STM32L4xx_HAL_Driver/Inc/stm32l4xx_ll_rtc.h ****   * @note helper macro __LL_RTC_CONVERT_BIN2BCD is available to convert Month from binary to BCD fo
1721:../Drivers/STM32L4xx_HAL_Driver/Inc/stm32l4xx_ll_rtc.h ****   * @rmtoll RTC_DR           MT            LL_RTC_DATE_SetMonth\n
1722:../Drivers/STM32L4xx_HAL_Driver/Inc/stm32l4xx_ll_rtc.h ****   *         RTC_DR           MU            LL_RTC_DATE_SetMonth
1723:../Drivers/STM32L4xx_HAL_Driver/Inc/stm32l4xx_ll_rtc.h ****   * @param  RTCx RTC Instance
1724:../Drivers/STM32L4xx_HAL_Driver/Inc/stm32l4xx_ll_rtc.h ****   * @param  Month This parameter can be one of the following values:
1725:../Drivers/STM32L4xx_HAL_Driver/Inc/stm32l4xx_ll_rtc.h ****   *         @arg @ref LL_RTC_MONTH_JANUARY
1726:../Drivers/STM32L4xx_HAL_Driver/Inc/stm32l4xx_ll_rtc.h ****   *         @arg @ref LL_RTC_MONTH_FEBRUARY
1727:../Drivers/STM32L4xx_HAL_Driver/Inc/stm32l4xx_ll_rtc.h ****   *         @arg @ref LL_RTC_MONTH_MARCH
1728:../Drivers/STM32L4xx_HAL_Driver/Inc/stm32l4xx_ll_rtc.h ****   *         @arg @ref LL_RTC_MONTH_APRIL
1729:../Drivers/STM32L4xx_HAL_Driver/Inc/stm32l4xx_ll_rtc.h ****   *         @arg @ref LL_RTC_MONTH_MAY
1730:../Drivers/STM32L4xx_HAL_Driver/Inc/stm32l4xx_ll_rtc.h ****   *         @arg @ref LL_RTC_MONTH_JUNE
1731:../Drivers/STM32L4xx_HAL_Driver/Inc/stm32l4xx_ll_rtc.h ****   *         @arg @ref LL_RTC_MONTH_JULY
1732:../Drivers/STM32L4xx_HAL_Driver/Inc/stm32l4xx_ll_rtc.h ****   *         @arg @ref LL_RTC_MONTH_AUGUST
1733:../Drivers/STM32L4xx_HAL_Driver/Inc/stm32l4xx_ll_rtc.h ****   *         @arg @ref LL_RTC_MONTH_SEPTEMBER
1734:../Drivers/STM32L4xx_HAL_Driver/Inc/stm32l4xx_ll_rtc.h ****   *         @arg @ref LL_RTC_MONTH_OCTOBER
1735:../Drivers/STM32L4xx_HAL_Driver/Inc/stm32l4xx_ll_rtc.h ****   *         @arg @ref LL_RTC_MONTH_NOVEMBER
1736:../Drivers/STM32L4xx_HAL_Driver/Inc/stm32l4xx_ll_rtc.h ****   *         @arg @ref LL_RTC_MONTH_DECEMBER
1737:../Drivers/STM32L4xx_HAL_Driver/Inc/stm32l4xx_ll_rtc.h ****   * @retval None
1738:../Drivers/STM32L4xx_HAL_Driver/Inc/stm32l4xx_ll_rtc.h ****   */
1739:../Drivers/STM32L4xx_HAL_Driver/Inc/stm32l4xx_ll_rtc.h **** __STATIC_INLINE void LL_RTC_DATE_SetMonth(RTC_TypeDef *RTCx, uint32_t Month)
1740:../Drivers/STM32L4xx_HAL_Driver/Inc/stm32l4xx_ll_rtc.h **** {
1741:../Drivers/STM32L4xx_HAL_Driver/Inc/stm32l4xx_ll_rtc.h ****   MODIFY_REG(RTCx->DR, (RTC_DR_MT | RTC_DR_MU),
1742:../Drivers/STM32L4xx_HAL_Driver/Inc/stm32l4xx_ll_rtc.h ****              (((Month & 0xF0U) << (RTC_DR_MT_Pos - 4U)) | ((Month & 0x0FU) << RTC_DR_MU_Pos)));
1743:../Drivers/STM32L4xx_HAL_Driver/Inc/stm32l4xx_ll_rtc.h **** }
1744:../Drivers/STM32L4xx_HAL_Driver/Inc/stm32l4xx_ll_rtc.h **** 
1745:../Drivers/STM32L4xx_HAL_Driver/Inc/stm32l4xx_ll_rtc.h **** /**
1746:../Drivers/STM32L4xx_HAL_Driver/Inc/stm32l4xx_ll_rtc.h ****   * @brief  Get Month in BCD format
1747:../Drivers/STM32L4xx_HAL_Driver/Inc/stm32l4xx_ll_rtc.h ****   * @note if shadow mode is disabled (BYPSHAD=0), need to check if RSF flag is set
1748:../Drivers/STM32L4xx_HAL_Driver/Inc/stm32l4xx_ll_rtc.h ****   *       before reading this bit
1749:../Drivers/STM32L4xx_HAL_Driver/Inc/stm32l4xx_ll_rtc.h ****   * @note helper macro __LL_RTC_CONVERT_BCD2BIN is available to convert Month from BCD to Binary fo
1750:../Drivers/STM32L4xx_HAL_Driver/Inc/stm32l4xx_ll_rtc.h ****   * @rmtoll RTC_DR           MT            LL_RTC_DATE_GetMonth\n
1751:../Drivers/STM32L4xx_HAL_Driver/Inc/stm32l4xx_ll_rtc.h ****   *         RTC_DR           MU            LL_RTC_DATE_GetMonth
1752:../Drivers/STM32L4xx_HAL_Driver/Inc/stm32l4xx_ll_rtc.h ****   * @param  RTCx RTC Instance
1753:../Drivers/STM32L4xx_HAL_Driver/Inc/stm32l4xx_ll_rtc.h ****   * @retval Returned value can be one of the following values:
1754:../Drivers/STM32L4xx_HAL_Driver/Inc/stm32l4xx_ll_rtc.h ****   *         @arg @ref LL_RTC_MONTH_JANUARY
ARM GAS  /tmp/cc5oboQK.s 			page 41


1755:../Drivers/STM32L4xx_HAL_Driver/Inc/stm32l4xx_ll_rtc.h ****   *         @arg @ref LL_RTC_MONTH_FEBRUARY
1756:../Drivers/STM32L4xx_HAL_Driver/Inc/stm32l4xx_ll_rtc.h ****   *         @arg @ref LL_RTC_MONTH_MARCH
1757:../Drivers/STM32L4xx_HAL_Driver/Inc/stm32l4xx_ll_rtc.h ****   *         @arg @ref LL_RTC_MONTH_APRIL
1758:../Drivers/STM32L4xx_HAL_Driver/Inc/stm32l4xx_ll_rtc.h ****   *         @arg @ref LL_RTC_MONTH_MAY
1759:../Drivers/STM32L4xx_HAL_Driver/Inc/stm32l4xx_ll_rtc.h ****   *         @arg @ref LL_RTC_MONTH_JUNE
1760:../Drivers/STM32L4xx_HAL_Driver/Inc/stm32l4xx_ll_rtc.h ****   *         @arg @ref LL_RTC_MONTH_JULY
1761:../Drivers/STM32L4xx_HAL_Driver/Inc/stm32l4xx_ll_rtc.h ****   *         @arg @ref LL_RTC_MONTH_AUGUST
1762:../Drivers/STM32L4xx_HAL_Driver/Inc/stm32l4xx_ll_rtc.h ****   *         @arg @ref LL_RTC_MONTH_SEPTEMBER
1763:../Drivers/STM32L4xx_HAL_Driver/Inc/stm32l4xx_ll_rtc.h ****   *         @arg @ref LL_RTC_MONTH_OCTOBER
1764:../Drivers/STM32L4xx_HAL_Driver/Inc/stm32l4xx_ll_rtc.h ****   *         @arg @ref LL_RTC_MONTH_NOVEMBER
1765:../Drivers/STM32L4xx_HAL_Driver/Inc/stm32l4xx_ll_rtc.h ****   *         @arg @ref LL_RTC_MONTH_DECEMBER
1766:../Drivers/STM32L4xx_HAL_Driver/Inc/stm32l4xx_ll_rtc.h ****   */
1767:../Drivers/STM32L4xx_HAL_Driver/Inc/stm32l4xx_ll_rtc.h **** __STATIC_INLINE uint32_t LL_RTC_DATE_GetMonth(RTC_TypeDef *RTCx)
1768:../Drivers/STM32L4xx_HAL_Driver/Inc/stm32l4xx_ll_rtc.h **** {
1769:../Drivers/STM32L4xx_HAL_Driver/Inc/stm32l4xx_ll_rtc.h ****   return ((READ_BIT(RTCx->DR, (RTC_DR_MT | RTC_DR_MU))) >> RTC_DR_MU_Pos);
1770:../Drivers/STM32L4xx_HAL_Driver/Inc/stm32l4xx_ll_rtc.h **** }
1771:../Drivers/STM32L4xx_HAL_Driver/Inc/stm32l4xx_ll_rtc.h **** 
1772:../Drivers/STM32L4xx_HAL_Driver/Inc/stm32l4xx_ll_rtc.h **** /**
1773:../Drivers/STM32L4xx_HAL_Driver/Inc/stm32l4xx_ll_rtc.h ****   * @brief  Set Day in BCD format
1774:../Drivers/STM32L4xx_HAL_Driver/Inc/stm32l4xx_ll_rtc.h ****   * @note helper macro __LL_RTC_CONVERT_BIN2BCD is available to convert Day from binary to BCD form
1775:../Drivers/STM32L4xx_HAL_Driver/Inc/stm32l4xx_ll_rtc.h ****   * @rmtoll RTC_DR           DT            LL_RTC_DATE_SetDay\n
1776:../Drivers/STM32L4xx_HAL_Driver/Inc/stm32l4xx_ll_rtc.h ****   *         RTC_DR           DU            LL_RTC_DATE_SetDay
1777:../Drivers/STM32L4xx_HAL_Driver/Inc/stm32l4xx_ll_rtc.h ****   * @param  RTCx RTC Instance
1778:../Drivers/STM32L4xx_HAL_Driver/Inc/stm32l4xx_ll_rtc.h ****   * @param  Day Value between Min_Data=0x01 and Max_Data=0x31
1779:../Drivers/STM32L4xx_HAL_Driver/Inc/stm32l4xx_ll_rtc.h ****   * @retval None
1780:../Drivers/STM32L4xx_HAL_Driver/Inc/stm32l4xx_ll_rtc.h ****   */
1781:../Drivers/STM32L4xx_HAL_Driver/Inc/stm32l4xx_ll_rtc.h **** __STATIC_INLINE void LL_RTC_DATE_SetDay(RTC_TypeDef *RTCx, uint32_t Day)
1782:../Drivers/STM32L4xx_HAL_Driver/Inc/stm32l4xx_ll_rtc.h **** {
1783:../Drivers/STM32L4xx_HAL_Driver/Inc/stm32l4xx_ll_rtc.h ****   MODIFY_REG(RTCx->DR, (RTC_DR_DT | RTC_DR_DU),
1784:../Drivers/STM32L4xx_HAL_Driver/Inc/stm32l4xx_ll_rtc.h ****              (((Day & 0xF0U) << (RTC_DR_DT_Pos - 4U)) | ((Day & 0x0FU) << RTC_DR_DU_Pos)));
1785:../Drivers/STM32L4xx_HAL_Driver/Inc/stm32l4xx_ll_rtc.h **** }
1786:../Drivers/STM32L4xx_HAL_Driver/Inc/stm32l4xx_ll_rtc.h **** 
1787:../Drivers/STM32L4xx_HAL_Driver/Inc/stm32l4xx_ll_rtc.h **** /**
1788:../Drivers/STM32L4xx_HAL_Driver/Inc/stm32l4xx_ll_rtc.h ****   * @brief  Get Day in BCD format
1789:../Drivers/STM32L4xx_HAL_Driver/Inc/stm32l4xx_ll_rtc.h ****   * @note if shadow mode is disabled (BYPSHAD=0), need to check if RSF flag is set
1790:../Drivers/STM32L4xx_HAL_Driver/Inc/stm32l4xx_ll_rtc.h ****   *       before reading this bit
1791:../Drivers/STM32L4xx_HAL_Driver/Inc/stm32l4xx_ll_rtc.h ****   * @note helper macro __LL_RTC_CONVERT_BCD2BIN is available to convert Day from BCD to Binary form
1792:../Drivers/STM32L4xx_HAL_Driver/Inc/stm32l4xx_ll_rtc.h ****   * @rmtoll RTC_DR           DT            LL_RTC_DATE_GetDay\n
1793:../Drivers/STM32L4xx_HAL_Driver/Inc/stm32l4xx_ll_rtc.h ****   *         RTC_DR           DU            LL_RTC_DATE_GetDay
1794:../Drivers/STM32L4xx_HAL_Driver/Inc/stm32l4xx_ll_rtc.h ****   * @param  RTCx RTC Instance
1795:../Drivers/STM32L4xx_HAL_Driver/Inc/stm32l4xx_ll_rtc.h ****   * @retval Value between Min_Data=0x01 and Max_Data=0x31
1796:../Drivers/STM32L4xx_HAL_Driver/Inc/stm32l4xx_ll_rtc.h ****   */
1797:../Drivers/STM32L4xx_HAL_Driver/Inc/stm32l4xx_ll_rtc.h **** __STATIC_INLINE uint32_t LL_RTC_DATE_GetDay(RTC_TypeDef *RTCx)
1798:../Drivers/STM32L4xx_HAL_Driver/Inc/stm32l4xx_ll_rtc.h **** {
1799:../Drivers/STM32L4xx_HAL_Driver/Inc/stm32l4xx_ll_rtc.h ****   return ((READ_BIT(RTCx->DR, (RTC_DR_DT | RTC_DR_DU))) >> RTC_DR_DU_Pos);
1800:../Drivers/STM32L4xx_HAL_Driver/Inc/stm32l4xx_ll_rtc.h **** }
1801:../Drivers/STM32L4xx_HAL_Driver/Inc/stm32l4xx_ll_rtc.h **** 
1802:../Drivers/STM32L4xx_HAL_Driver/Inc/stm32l4xx_ll_rtc.h **** /**
1803:../Drivers/STM32L4xx_HAL_Driver/Inc/stm32l4xx_ll_rtc.h ****   * @brief  Set date (WeekDay, Day, Month and Year) in BCD format
1804:../Drivers/STM32L4xx_HAL_Driver/Inc/stm32l4xx_ll_rtc.h ****   * @rmtoll RTC_DR           WDU           LL_RTC_DATE_Config\n
1805:../Drivers/STM32L4xx_HAL_Driver/Inc/stm32l4xx_ll_rtc.h ****   *         RTC_DR           MT            LL_RTC_DATE_Config\n
1806:../Drivers/STM32L4xx_HAL_Driver/Inc/stm32l4xx_ll_rtc.h ****   *         RTC_DR           MU            LL_RTC_DATE_Config\n
1807:../Drivers/STM32L4xx_HAL_Driver/Inc/stm32l4xx_ll_rtc.h ****   *         RTC_DR           DT            LL_RTC_DATE_Config\n
1808:../Drivers/STM32L4xx_HAL_Driver/Inc/stm32l4xx_ll_rtc.h ****   *         RTC_DR           DU            LL_RTC_DATE_Config\n
1809:../Drivers/STM32L4xx_HAL_Driver/Inc/stm32l4xx_ll_rtc.h ****   *         RTC_DR           YT            LL_RTC_DATE_Config\n
1810:../Drivers/STM32L4xx_HAL_Driver/Inc/stm32l4xx_ll_rtc.h ****   *         RTC_DR           YU            LL_RTC_DATE_Config
1811:../Drivers/STM32L4xx_HAL_Driver/Inc/stm32l4xx_ll_rtc.h ****   * @param  RTCx RTC Instance
ARM GAS  /tmp/cc5oboQK.s 			page 42


1812:../Drivers/STM32L4xx_HAL_Driver/Inc/stm32l4xx_ll_rtc.h ****   * @param  WeekDay This parameter can be one of the following values:
1813:../Drivers/STM32L4xx_HAL_Driver/Inc/stm32l4xx_ll_rtc.h ****   *         @arg @ref LL_RTC_WEEKDAY_MONDAY
1814:../Drivers/STM32L4xx_HAL_Driver/Inc/stm32l4xx_ll_rtc.h ****   *         @arg @ref LL_RTC_WEEKDAY_TUESDAY
1815:../Drivers/STM32L4xx_HAL_Driver/Inc/stm32l4xx_ll_rtc.h ****   *         @arg @ref LL_RTC_WEEKDAY_WEDNESDAY
1816:../Drivers/STM32L4xx_HAL_Driver/Inc/stm32l4xx_ll_rtc.h ****   *         @arg @ref LL_RTC_WEEKDAY_THURSDAY
1817:../Drivers/STM32L4xx_HAL_Driver/Inc/stm32l4xx_ll_rtc.h ****   *         @arg @ref LL_RTC_WEEKDAY_FRIDAY
1818:../Drivers/STM32L4xx_HAL_Driver/Inc/stm32l4xx_ll_rtc.h ****   *         @arg @ref LL_RTC_WEEKDAY_SATURDAY
1819:../Drivers/STM32L4xx_HAL_Driver/Inc/stm32l4xx_ll_rtc.h ****   *         @arg @ref LL_RTC_WEEKDAY_SUNDAY
1820:../Drivers/STM32L4xx_HAL_Driver/Inc/stm32l4xx_ll_rtc.h ****   * @param  Day Value between Min_Data=0x01 and Max_Data=0x31
1821:../Drivers/STM32L4xx_HAL_Driver/Inc/stm32l4xx_ll_rtc.h ****   * @param  Month This parameter can be one of the following values:
1822:../Drivers/STM32L4xx_HAL_Driver/Inc/stm32l4xx_ll_rtc.h ****   *         @arg @ref LL_RTC_MONTH_JANUARY
1823:../Drivers/STM32L4xx_HAL_Driver/Inc/stm32l4xx_ll_rtc.h ****   *         @arg @ref LL_RTC_MONTH_FEBRUARY
1824:../Drivers/STM32L4xx_HAL_Driver/Inc/stm32l4xx_ll_rtc.h ****   *         @arg @ref LL_RTC_MONTH_MARCH
1825:../Drivers/STM32L4xx_HAL_Driver/Inc/stm32l4xx_ll_rtc.h ****   *         @arg @ref LL_RTC_MONTH_APRIL
1826:../Drivers/STM32L4xx_HAL_Driver/Inc/stm32l4xx_ll_rtc.h ****   *         @arg @ref LL_RTC_MONTH_MAY
1827:../Drivers/STM32L4xx_HAL_Driver/Inc/stm32l4xx_ll_rtc.h ****   *         @arg @ref LL_RTC_MONTH_JUNE
1828:../Drivers/STM32L4xx_HAL_Driver/Inc/stm32l4xx_ll_rtc.h ****   *         @arg @ref LL_RTC_MONTH_JULY
1829:../Drivers/STM32L4xx_HAL_Driver/Inc/stm32l4xx_ll_rtc.h ****   *         @arg @ref LL_RTC_MONTH_AUGUST
1830:../Drivers/STM32L4xx_HAL_Driver/Inc/stm32l4xx_ll_rtc.h ****   *         @arg @ref LL_RTC_MONTH_SEPTEMBER
1831:../Drivers/STM32L4xx_HAL_Driver/Inc/stm32l4xx_ll_rtc.h ****   *         @arg @ref LL_RTC_MONTH_OCTOBER
1832:../Drivers/STM32L4xx_HAL_Driver/Inc/stm32l4xx_ll_rtc.h ****   *         @arg @ref LL_RTC_MONTH_NOVEMBER
1833:../Drivers/STM32L4xx_HAL_Driver/Inc/stm32l4xx_ll_rtc.h ****   *         @arg @ref LL_RTC_MONTH_DECEMBER
1834:../Drivers/STM32L4xx_HAL_Driver/Inc/stm32l4xx_ll_rtc.h ****   * @param  Year Value between Min_Data=0x00 and Max_Data=0x99
1835:../Drivers/STM32L4xx_HAL_Driver/Inc/stm32l4xx_ll_rtc.h ****   * @retval None
1836:../Drivers/STM32L4xx_HAL_Driver/Inc/stm32l4xx_ll_rtc.h ****   */
1837:../Drivers/STM32L4xx_HAL_Driver/Inc/stm32l4xx_ll_rtc.h **** __STATIC_INLINE void LL_RTC_DATE_Config(RTC_TypeDef *RTCx, uint32_t WeekDay, uint32_t Day, uint32_t
1838:../Drivers/STM32L4xx_HAL_Driver/Inc/stm32l4xx_ll_rtc.h **** {
 545              		.loc 1 1838 1
 546              		.cfi_startproc
 547              		@ args = 4, pretend = 0, frame = 16
 548              		@ frame_needed = 1, uses_anonymous_args = 0
 549              		@ link register save eliminated.
 550 0000 90B4     		push	{r4, r7}
 551              	.LCFI60:
 552              		.cfi_def_cfa_offset 8
 553              		.cfi_offset 4, -8
 554              		.cfi_offset 7, -4
 555 0002 84B0     		sub	sp, sp, #16
 556              	.LCFI61:
 557              		.cfi_def_cfa_offset 24
 558 0004 00AF     		add	r7, sp, #0
 559              	.LCFI62:
 560              		.cfi_def_cfa_register 7
 561 0006 F860     		str	r0, [r7, #12]
 562 0008 B960     		str	r1, [r7, #8]
 563 000a 7A60     		str	r2, [r7, #4]
 564 000c 3B60     		str	r3, [r7]
1839:../Drivers/STM32L4xx_HAL_Driver/Inc/stm32l4xx_ll_rtc.h ****   register uint32_t temp = 0U;
1840:../Drivers/STM32L4xx_HAL_Driver/Inc/stm32l4xx_ll_rtc.h **** 
1841:../Drivers/STM32L4xx_HAL_Driver/Inc/stm32l4xx_ll_rtc.h ****   temp = (WeekDay << RTC_DR_WDU_Pos)                                                        | \
 565              		.loc 1 1841 19
 566 000e BB68     		ldr	r3, [r7, #8]
 567 0010 5A03     		lsls	r2, r3, #13
1842:../Drivers/STM32L4xx_HAL_Driver/Inc/stm32l4xx_ll_rtc.h ****          (((Year & 0xF0U) << (RTC_DR_YT_Pos - 4U)) | ((Year & 0x0FU) << RTC_DR_YU_Pos))   | \
 568              		.loc 1 1842 27
 569 0012 BB69     		ldr	r3, [r7, #24]
 570 0014 1B04     		lsls	r3, r3, #16
ARM GAS  /tmp/cc5oboQK.s 			page 43


 571              		.loc 1 1842 52
 572 0016 03F47F03 		and	r3, r3, #16711680
1841:../Drivers/STM32L4xx_HAL_Driver/Inc/stm32l4xx_ll_rtc.h ****          (((Year & 0xF0U) << (RTC_DR_YT_Pos - 4U)) | ((Year & 0x0FU) << RTC_DR_YU_Pos))   | \
 573              		.loc 1 1841 93
 574 001a 1A43     		orrs	r2, r2, r3
1843:../Drivers/STM32L4xx_HAL_Driver/Inc/stm32l4xx_ll_rtc.h ****          (((Month & 0xF0U) << (RTC_DR_MT_Pos - 4U)) | ((Month & 0x0FU) << RTC_DR_MU_Pos)) | \
 575              		.loc 1 1843 28
 576 001c 3B68     		ldr	r3, [r7]
 577 001e 1B02     		lsls	r3, r3, #8
 578              		.loc 1 1843 53
 579 0020 9BB2     		uxth	r3, r3
1842:../Drivers/STM32L4xx_HAL_Driver/Inc/stm32l4xx_ll_rtc.h ****          (((Year & 0xF0U) << (RTC_DR_YT_Pos - 4U)) | ((Year & 0x0FU) << RTC_DR_YU_Pos))   | \
 580              		.loc 1 1842 91
 581 0022 1A43     		orrs	r2, r2, r3
1844:../Drivers/STM32L4xx_HAL_Driver/Inc/stm32l4xx_ll_rtc.h ****          (((Day & 0xF0U) << (RTC_DR_DT_Pos - 4U)) | ((Day & 0x0FU) << RTC_DR_DU_Pos));
 582              		.loc 1 1844 51
 583 0024 7B68     		ldr	r3, [r7, #4]
 584 0026 DBB2     		uxtb	r3, r3
1841:../Drivers/STM32L4xx_HAL_Driver/Inc/stm32l4xx_ll_rtc.h ****          (((Year & 0xF0U) << (RTC_DR_YT_Pos - 4U)) | ((Year & 0x0FU) << RTC_DR_YU_Pos))   | \
 585              		.loc 1 1841 8
 586 0028 42EA0304 		orr	r4, r2, r3
1845:../Drivers/STM32L4xx_HAL_Driver/Inc/stm32l4xx_ll_rtc.h **** 
1846:../Drivers/STM32L4xx_HAL_Driver/Inc/stm32l4xx_ll_rtc.h ****   MODIFY_REG(RTCx->DR, (RTC_DR_WDU | RTC_DR_MT | RTC_DR_MU | RTC_DR_DT | RTC_DR_DU | RTC_DR_YT | RT
 587              		.loc 1 1846 3
 588 002c FB68     		ldr	r3, [r7, #12]
 589 002e 5A68     		ldr	r2, [r3, #4]
 590 0030 054B     		ldr	r3, .L14
 591 0032 1340     		ands	r3, r3, r2
 592 0034 44EA0302 		orr	r2, r4, r3
 593 0038 FB68     		ldr	r3, [r7, #12]
 594 003a 5A60     		str	r2, [r3, #4]
1847:../Drivers/STM32L4xx_HAL_Driver/Inc/stm32l4xx_ll_rtc.h **** }
 595              		.loc 1 1847 1
 596 003c 00BF     		nop
 597 003e 1037     		adds	r7, r7, #16
 598              	.LCFI63:
 599              		.cfi_def_cfa_offset 8
 600 0040 BD46     		mov	sp, r7
 601              	.LCFI64:
 602              		.cfi_def_cfa_register 13
 603              		@ sp needed
 604 0042 90BC     		pop	{r4, r7}
 605              	.LCFI65:
 606              		.cfi_restore 7
 607              		.cfi_restore 4
 608              		.cfi_def_cfa_offset 0
 609 0044 7047     		bx	lr
 610              	.L15:
 611 0046 00BF     		.align	2
 612              	.L14:
 613 0048 C00000FF 		.word	-16777024
 614              		.cfi_endproc
 615              	.LFE361:
 617              		.section	.text.LL_RTC_ALMA_SetMask,"ax",%progbits
 618              		.align	1
 619              		.syntax unified
 620              		.thumb
ARM GAS  /tmp/cc5oboQK.s 			page 44


 621              		.thumb_func
 622              		.fpu fpv4-sp-d16
 624              	LL_RTC_ALMA_SetMask:
 625              	.LFB365:
1848:../Drivers/STM32L4xx_HAL_Driver/Inc/stm32l4xx_ll_rtc.h **** 
1849:../Drivers/STM32L4xx_HAL_Driver/Inc/stm32l4xx_ll_rtc.h **** /**
1850:../Drivers/STM32L4xx_HAL_Driver/Inc/stm32l4xx_ll_rtc.h ****   * @brief  Get date (WeekDay, Day, Month and Year) in BCD format
1851:../Drivers/STM32L4xx_HAL_Driver/Inc/stm32l4xx_ll_rtc.h ****   * @note if shadow mode is disabled (BYPSHAD=0), need to check if RSF flag is set
1852:../Drivers/STM32L4xx_HAL_Driver/Inc/stm32l4xx_ll_rtc.h ****   *       before reading this bit
1853:../Drivers/STM32L4xx_HAL_Driver/Inc/stm32l4xx_ll_rtc.h ****   * @note helper macros __LL_RTC_GET_WEEKDAY, __LL_RTC_GET_YEAR, __LL_RTC_GET_MONTH,
1854:../Drivers/STM32L4xx_HAL_Driver/Inc/stm32l4xx_ll_rtc.h ****   * and __LL_RTC_GET_DAY are available to get independently each parameter.
1855:../Drivers/STM32L4xx_HAL_Driver/Inc/stm32l4xx_ll_rtc.h ****   * @rmtoll RTC_DR           WDU           LL_RTC_DATE_Get\n
1856:../Drivers/STM32L4xx_HAL_Driver/Inc/stm32l4xx_ll_rtc.h ****   *         RTC_DR           MT            LL_RTC_DATE_Get\n
1857:../Drivers/STM32L4xx_HAL_Driver/Inc/stm32l4xx_ll_rtc.h ****   *         RTC_DR           MU            LL_RTC_DATE_Get\n
1858:../Drivers/STM32L4xx_HAL_Driver/Inc/stm32l4xx_ll_rtc.h ****   *         RTC_DR           DT            LL_RTC_DATE_Get\n
1859:../Drivers/STM32L4xx_HAL_Driver/Inc/stm32l4xx_ll_rtc.h ****   *         RTC_DR           DU            LL_RTC_DATE_Get\n
1860:../Drivers/STM32L4xx_HAL_Driver/Inc/stm32l4xx_ll_rtc.h ****   *         RTC_DR           YT            LL_RTC_DATE_Get\n
1861:../Drivers/STM32L4xx_HAL_Driver/Inc/stm32l4xx_ll_rtc.h ****   *         RTC_DR           YU            LL_RTC_DATE_Get
1862:../Drivers/STM32L4xx_HAL_Driver/Inc/stm32l4xx_ll_rtc.h ****   * @param  RTCx RTC Instance
1863:../Drivers/STM32L4xx_HAL_Driver/Inc/stm32l4xx_ll_rtc.h ****   * @retval Combination of WeekDay, Day, Month and Year (Format: 0xWWDDMMYY).
1864:../Drivers/STM32L4xx_HAL_Driver/Inc/stm32l4xx_ll_rtc.h ****   */
1865:../Drivers/STM32L4xx_HAL_Driver/Inc/stm32l4xx_ll_rtc.h **** __STATIC_INLINE uint32_t LL_RTC_DATE_Get(RTC_TypeDef *RTCx)
1866:../Drivers/STM32L4xx_HAL_Driver/Inc/stm32l4xx_ll_rtc.h **** {
1867:../Drivers/STM32L4xx_HAL_Driver/Inc/stm32l4xx_ll_rtc.h ****   register uint32_t temp = 0U;
1868:../Drivers/STM32L4xx_HAL_Driver/Inc/stm32l4xx_ll_rtc.h **** 
1869:../Drivers/STM32L4xx_HAL_Driver/Inc/stm32l4xx_ll_rtc.h ****   temp = READ_BIT(RTCx->DR, (RTC_DR_WDU | RTC_DR_MT | RTC_DR_MU | RTC_DR_DT | RTC_DR_DU | RTC_DR_YT
1870:../Drivers/STM32L4xx_HAL_Driver/Inc/stm32l4xx_ll_rtc.h ****   return (uint32_t)((((temp & RTC_DR_WDU) >> RTC_DR_WDU_Pos) << RTC_OFFSET_WEEKDAY) | \
1871:../Drivers/STM32L4xx_HAL_Driver/Inc/stm32l4xx_ll_rtc.h ****                     (((((temp & RTC_DR_DT) >> RTC_DR_DT_Pos) << 4U) | ((temp & RTC_DR_DU) >> RTC_DR
1872:../Drivers/STM32L4xx_HAL_Driver/Inc/stm32l4xx_ll_rtc.h ****                     (((((temp & RTC_DR_MT) >> RTC_DR_MT_Pos) << 4U) | ((temp & RTC_DR_MU) >> RTC_DR
1873:../Drivers/STM32L4xx_HAL_Driver/Inc/stm32l4xx_ll_rtc.h ****                     ((((temp & RTC_DR_YT) >> RTC_DR_YT_Pos) << 4U) | ((temp & RTC_DR_YU) >> RTC_DR_
1874:../Drivers/STM32L4xx_HAL_Driver/Inc/stm32l4xx_ll_rtc.h **** }
1875:../Drivers/STM32L4xx_HAL_Driver/Inc/stm32l4xx_ll_rtc.h **** 
1876:../Drivers/STM32L4xx_HAL_Driver/Inc/stm32l4xx_ll_rtc.h **** /**
1877:../Drivers/STM32L4xx_HAL_Driver/Inc/stm32l4xx_ll_rtc.h ****   * @}
1878:../Drivers/STM32L4xx_HAL_Driver/Inc/stm32l4xx_ll_rtc.h ****   */
1879:../Drivers/STM32L4xx_HAL_Driver/Inc/stm32l4xx_ll_rtc.h **** 
1880:../Drivers/STM32L4xx_HAL_Driver/Inc/stm32l4xx_ll_rtc.h **** /** @defgroup RTC_LL_EF_ALARMA ALARMA
1881:../Drivers/STM32L4xx_HAL_Driver/Inc/stm32l4xx_ll_rtc.h ****   * @{
1882:../Drivers/STM32L4xx_HAL_Driver/Inc/stm32l4xx_ll_rtc.h ****   */
1883:../Drivers/STM32L4xx_HAL_Driver/Inc/stm32l4xx_ll_rtc.h **** 
1884:../Drivers/STM32L4xx_HAL_Driver/Inc/stm32l4xx_ll_rtc.h **** /**
1885:../Drivers/STM32L4xx_HAL_Driver/Inc/stm32l4xx_ll_rtc.h ****   * @brief  Enable Alarm A
1886:../Drivers/STM32L4xx_HAL_Driver/Inc/stm32l4xx_ll_rtc.h ****   * @note   Bit is write-protected. @ref LL_RTC_DisableWriteProtection function should be called be
1887:../Drivers/STM32L4xx_HAL_Driver/Inc/stm32l4xx_ll_rtc.h ****   * @rmtoll RTC_CR           ALRAE         LL_RTC_ALMA_Enable
1888:../Drivers/STM32L4xx_HAL_Driver/Inc/stm32l4xx_ll_rtc.h ****   * @param  RTCx RTC Instance
1889:../Drivers/STM32L4xx_HAL_Driver/Inc/stm32l4xx_ll_rtc.h ****   * @retval None
1890:../Drivers/STM32L4xx_HAL_Driver/Inc/stm32l4xx_ll_rtc.h ****   */
1891:../Drivers/STM32L4xx_HAL_Driver/Inc/stm32l4xx_ll_rtc.h **** __STATIC_INLINE void LL_RTC_ALMA_Enable(RTC_TypeDef *RTCx)
1892:../Drivers/STM32L4xx_HAL_Driver/Inc/stm32l4xx_ll_rtc.h **** {
1893:../Drivers/STM32L4xx_HAL_Driver/Inc/stm32l4xx_ll_rtc.h ****   SET_BIT(RTCx->CR, RTC_CR_ALRAE);
1894:../Drivers/STM32L4xx_HAL_Driver/Inc/stm32l4xx_ll_rtc.h **** }
1895:../Drivers/STM32L4xx_HAL_Driver/Inc/stm32l4xx_ll_rtc.h **** 
1896:../Drivers/STM32L4xx_HAL_Driver/Inc/stm32l4xx_ll_rtc.h **** /**
1897:../Drivers/STM32L4xx_HAL_Driver/Inc/stm32l4xx_ll_rtc.h ****   * @brief  Disable Alarm A
1898:../Drivers/STM32L4xx_HAL_Driver/Inc/stm32l4xx_ll_rtc.h ****   * @note   Bit is write-protected. @ref LL_RTC_DisableWriteProtection function should be called be
1899:../Drivers/STM32L4xx_HAL_Driver/Inc/stm32l4xx_ll_rtc.h ****   * @rmtoll RTC_CR           ALRAE         LL_RTC_ALMA_Disable
1900:../Drivers/STM32L4xx_HAL_Driver/Inc/stm32l4xx_ll_rtc.h ****   * @param  RTCx RTC Instance
ARM GAS  /tmp/cc5oboQK.s 			page 45


1901:../Drivers/STM32L4xx_HAL_Driver/Inc/stm32l4xx_ll_rtc.h ****   * @retval None
1902:../Drivers/STM32L4xx_HAL_Driver/Inc/stm32l4xx_ll_rtc.h ****   */
1903:../Drivers/STM32L4xx_HAL_Driver/Inc/stm32l4xx_ll_rtc.h **** __STATIC_INLINE void LL_RTC_ALMA_Disable(RTC_TypeDef *RTCx)
1904:../Drivers/STM32L4xx_HAL_Driver/Inc/stm32l4xx_ll_rtc.h **** {
1905:../Drivers/STM32L4xx_HAL_Driver/Inc/stm32l4xx_ll_rtc.h ****   CLEAR_BIT(RTCx->CR, RTC_CR_ALRAE);
1906:../Drivers/STM32L4xx_HAL_Driver/Inc/stm32l4xx_ll_rtc.h **** }
1907:../Drivers/STM32L4xx_HAL_Driver/Inc/stm32l4xx_ll_rtc.h **** 
1908:../Drivers/STM32L4xx_HAL_Driver/Inc/stm32l4xx_ll_rtc.h **** /**
1909:../Drivers/STM32L4xx_HAL_Driver/Inc/stm32l4xx_ll_rtc.h ****   * @brief  Specify the Alarm A masks.
1910:../Drivers/STM32L4xx_HAL_Driver/Inc/stm32l4xx_ll_rtc.h ****   * @rmtoll RTC_ALRMAR       MSK4          LL_RTC_ALMA_SetMask\n
1911:../Drivers/STM32L4xx_HAL_Driver/Inc/stm32l4xx_ll_rtc.h ****   *         RTC_ALRMAR       MSK3          LL_RTC_ALMA_SetMask\n
1912:../Drivers/STM32L4xx_HAL_Driver/Inc/stm32l4xx_ll_rtc.h ****   *         RTC_ALRMAR       MSK2          LL_RTC_ALMA_SetMask\n
1913:../Drivers/STM32L4xx_HAL_Driver/Inc/stm32l4xx_ll_rtc.h ****   *         RTC_ALRMAR       MSK1          LL_RTC_ALMA_SetMask
1914:../Drivers/STM32L4xx_HAL_Driver/Inc/stm32l4xx_ll_rtc.h ****   * @param  RTCx RTC Instance
1915:../Drivers/STM32L4xx_HAL_Driver/Inc/stm32l4xx_ll_rtc.h ****   * @param  Mask This parameter can be a combination of the following values:
1916:../Drivers/STM32L4xx_HAL_Driver/Inc/stm32l4xx_ll_rtc.h ****   *         @arg @ref LL_RTC_ALMA_MASK_NONE
1917:../Drivers/STM32L4xx_HAL_Driver/Inc/stm32l4xx_ll_rtc.h ****   *         @arg @ref LL_RTC_ALMA_MASK_DATEWEEKDAY
1918:../Drivers/STM32L4xx_HAL_Driver/Inc/stm32l4xx_ll_rtc.h ****   *         @arg @ref LL_RTC_ALMA_MASK_HOURS
1919:../Drivers/STM32L4xx_HAL_Driver/Inc/stm32l4xx_ll_rtc.h ****   *         @arg @ref LL_RTC_ALMA_MASK_MINUTES
1920:../Drivers/STM32L4xx_HAL_Driver/Inc/stm32l4xx_ll_rtc.h ****   *         @arg @ref LL_RTC_ALMA_MASK_SECONDS
1921:../Drivers/STM32L4xx_HAL_Driver/Inc/stm32l4xx_ll_rtc.h ****   *         @arg @ref LL_RTC_ALMA_MASK_ALL
1922:../Drivers/STM32L4xx_HAL_Driver/Inc/stm32l4xx_ll_rtc.h ****   * @retval None
1923:../Drivers/STM32L4xx_HAL_Driver/Inc/stm32l4xx_ll_rtc.h ****   */
1924:../Drivers/STM32L4xx_HAL_Driver/Inc/stm32l4xx_ll_rtc.h **** __STATIC_INLINE void LL_RTC_ALMA_SetMask(RTC_TypeDef *RTCx, uint32_t Mask)
1925:../Drivers/STM32L4xx_HAL_Driver/Inc/stm32l4xx_ll_rtc.h **** {
 626              		.loc 1 1925 1
 627              		.cfi_startproc
 628              		@ args = 0, pretend = 0, frame = 8
 629              		@ frame_needed = 1, uses_anonymous_args = 0
 630              		@ link register save eliminated.
 631 0000 80B4     		push	{r7}
 632              	.LCFI66:
 633              		.cfi_def_cfa_offset 4
 634              		.cfi_offset 7, -4
 635 0002 83B0     		sub	sp, sp, #12
 636              	.LCFI67:
 637              		.cfi_def_cfa_offset 16
 638 0004 00AF     		add	r7, sp, #0
 639              	.LCFI68:
 640              		.cfi_def_cfa_register 7
 641 0006 7860     		str	r0, [r7, #4]
 642 0008 3960     		str	r1, [r7]
1926:../Drivers/STM32L4xx_HAL_Driver/Inc/stm32l4xx_ll_rtc.h ****   MODIFY_REG(RTCx->ALRMAR, RTC_ALRMAR_MSK4 | RTC_ALRMAR_MSK3 | RTC_ALRMAR_MSK2 | RTC_ALRMAR_MSK1, M
 643              		.loc 1 1926 3
 644 000a 7B68     		ldr	r3, [r7, #4]
 645 000c DB69     		ldr	r3, [r3, #28]
 646 000e 03F07F32 		and	r2, r3, #2139062143
 647 0012 3B68     		ldr	r3, [r7]
 648 0014 1A43     		orrs	r2, r2, r3
 649 0016 7B68     		ldr	r3, [r7, #4]
 650 0018 DA61     		str	r2, [r3, #28]
1927:../Drivers/STM32L4xx_HAL_Driver/Inc/stm32l4xx_ll_rtc.h **** }
 651              		.loc 1 1927 1
 652 001a 00BF     		nop
 653 001c 0C37     		adds	r7, r7, #12
 654              	.LCFI69:
 655              		.cfi_def_cfa_offset 4
ARM GAS  /tmp/cc5oboQK.s 			page 46


 656 001e BD46     		mov	sp, r7
 657              	.LCFI70:
 658              		.cfi_def_cfa_register 13
 659              		@ sp needed
 660 0020 5DF8047B 		ldr	r7, [sp], #4
 661              	.LCFI71:
 662              		.cfi_restore 7
 663              		.cfi_def_cfa_offset 0
 664 0024 7047     		bx	lr
 665              		.cfi_endproc
 666              	.LFE365:
 668              		.section	.text.LL_RTC_ALMA_EnableWeekday,"ax",%progbits
 669              		.align	1
 670              		.syntax unified
 671              		.thumb
 672              		.thumb_func
 673              		.fpu fpv4-sp-d16
 675              	LL_RTC_ALMA_EnableWeekday:
 676              	.LFB367:
1928:../Drivers/STM32L4xx_HAL_Driver/Inc/stm32l4xx_ll_rtc.h **** 
1929:../Drivers/STM32L4xx_HAL_Driver/Inc/stm32l4xx_ll_rtc.h **** /**
1930:../Drivers/STM32L4xx_HAL_Driver/Inc/stm32l4xx_ll_rtc.h ****   * @brief  Get the Alarm A masks.
1931:../Drivers/STM32L4xx_HAL_Driver/Inc/stm32l4xx_ll_rtc.h ****   * @rmtoll RTC_ALRMAR       MSK4          LL_RTC_ALMA_GetMask\n
1932:../Drivers/STM32L4xx_HAL_Driver/Inc/stm32l4xx_ll_rtc.h ****   *         RTC_ALRMAR       MSK3          LL_RTC_ALMA_GetMask\n
1933:../Drivers/STM32L4xx_HAL_Driver/Inc/stm32l4xx_ll_rtc.h ****   *         RTC_ALRMAR       MSK2          LL_RTC_ALMA_GetMask\n
1934:../Drivers/STM32L4xx_HAL_Driver/Inc/stm32l4xx_ll_rtc.h ****   *         RTC_ALRMAR       MSK1          LL_RTC_ALMA_GetMask
1935:../Drivers/STM32L4xx_HAL_Driver/Inc/stm32l4xx_ll_rtc.h ****   * @param  RTCx RTC Instance
1936:../Drivers/STM32L4xx_HAL_Driver/Inc/stm32l4xx_ll_rtc.h ****   * @retval Returned value can be can be a combination of the following values:
1937:../Drivers/STM32L4xx_HAL_Driver/Inc/stm32l4xx_ll_rtc.h ****   *         @arg @ref LL_RTC_ALMA_MASK_NONE
1938:../Drivers/STM32L4xx_HAL_Driver/Inc/stm32l4xx_ll_rtc.h ****   *         @arg @ref LL_RTC_ALMA_MASK_DATEWEEKDAY
1939:../Drivers/STM32L4xx_HAL_Driver/Inc/stm32l4xx_ll_rtc.h ****   *         @arg @ref LL_RTC_ALMA_MASK_HOURS
1940:../Drivers/STM32L4xx_HAL_Driver/Inc/stm32l4xx_ll_rtc.h ****   *         @arg @ref LL_RTC_ALMA_MASK_MINUTES
1941:../Drivers/STM32L4xx_HAL_Driver/Inc/stm32l4xx_ll_rtc.h ****   *         @arg @ref LL_RTC_ALMA_MASK_SECONDS
1942:../Drivers/STM32L4xx_HAL_Driver/Inc/stm32l4xx_ll_rtc.h ****   *         @arg @ref LL_RTC_ALMA_MASK_ALL
1943:../Drivers/STM32L4xx_HAL_Driver/Inc/stm32l4xx_ll_rtc.h ****   */
1944:../Drivers/STM32L4xx_HAL_Driver/Inc/stm32l4xx_ll_rtc.h **** __STATIC_INLINE uint32_t LL_RTC_ALMA_GetMask(RTC_TypeDef *RTCx)
1945:../Drivers/STM32L4xx_HAL_Driver/Inc/stm32l4xx_ll_rtc.h **** {
1946:../Drivers/STM32L4xx_HAL_Driver/Inc/stm32l4xx_ll_rtc.h ****   return (uint32_t)(READ_BIT(RTCx->ALRMAR, RTC_ALRMAR_MSK4 | RTC_ALRMAR_MSK3 | RTC_ALRMAR_MSK2 | RT
1947:../Drivers/STM32L4xx_HAL_Driver/Inc/stm32l4xx_ll_rtc.h **** }
1948:../Drivers/STM32L4xx_HAL_Driver/Inc/stm32l4xx_ll_rtc.h **** 
1949:../Drivers/STM32L4xx_HAL_Driver/Inc/stm32l4xx_ll_rtc.h **** /**
1950:../Drivers/STM32L4xx_HAL_Driver/Inc/stm32l4xx_ll_rtc.h ****   * @brief  Enable AlarmA Week day selection (DU[3:0] represents the week day. DT[1:0] is do not ca
1951:../Drivers/STM32L4xx_HAL_Driver/Inc/stm32l4xx_ll_rtc.h ****   * @rmtoll RTC_ALRMAR       WDSEL         LL_RTC_ALMA_EnableWeekday
1952:../Drivers/STM32L4xx_HAL_Driver/Inc/stm32l4xx_ll_rtc.h ****   * @param  RTCx RTC Instance
1953:../Drivers/STM32L4xx_HAL_Driver/Inc/stm32l4xx_ll_rtc.h ****   * @retval None
1954:../Drivers/STM32L4xx_HAL_Driver/Inc/stm32l4xx_ll_rtc.h ****   */
1955:../Drivers/STM32L4xx_HAL_Driver/Inc/stm32l4xx_ll_rtc.h **** __STATIC_INLINE void LL_RTC_ALMA_EnableWeekday(RTC_TypeDef *RTCx)
1956:../Drivers/STM32L4xx_HAL_Driver/Inc/stm32l4xx_ll_rtc.h **** {
 677              		.loc 1 1956 1
 678              		.cfi_startproc
 679              		@ args = 0, pretend = 0, frame = 8
 680              		@ frame_needed = 1, uses_anonymous_args = 0
 681              		@ link register save eliminated.
 682 0000 80B4     		push	{r7}
 683              	.LCFI72:
 684              		.cfi_def_cfa_offset 4
 685              		.cfi_offset 7, -4
ARM GAS  /tmp/cc5oboQK.s 			page 47


 686 0002 83B0     		sub	sp, sp, #12
 687              	.LCFI73:
 688              		.cfi_def_cfa_offset 16
 689 0004 00AF     		add	r7, sp, #0
 690              	.LCFI74:
 691              		.cfi_def_cfa_register 7
 692 0006 7860     		str	r0, [r7, #4]
1957:../Drivers/STM32L4xx_HAL_Driver/Inc/stm32l4xx_ll_rtc.h ****   SET_BIT(RTCx->ALRMAR, RTC_ALRMAR_WDSEL);
 693              		.loc 1 1957 3
 694 0008 7B68     		ldr	r3, [r7, #4]
 695 000a DB69     		ldr	r3, [r3, #28]
 696 000c 43F08042 		orr	r2, r3, #1073741824
 697 0010 7B68     		ldr	r3, [r7, #4]
 698 0012 DA61     		str	r2, [r3, #28]
1958:../Drivers/STM32L4xx_HAL_Driver/Inc/stm32l4xx_ll_rtc.h **** }
 699              		.loc 1 1958 1
 700 0014 00BF     		nop
 701 0016 0C37     		adds	r7, r7, #12
 702              	.LCFI75:
 703              		.cfi_def_cfa_offset 4
 704 0018 BD46     		mov	sp, r7
 705              	.LCFI76:
 706              		.cfi_def_cfa_register 13
 707              		@ sp needed
 708 001a 5DF8047B 		ldr	r7, [sp], #4
 709              	.LCFI77:
 710              		.cfi_restore 7
 711              		.cfi_def_cfa_offset 0
 712 001e 7047     		bx	lr
 713              		.cfi_endproc
 714              	.LFE367:
 716              		.section	.text.LL_RTC_ALMA_DisableWeekday,"ax",%progbits
 717              		.align	1
 718              		.syntax unified
 719              		.thumb
 720              		.thumb_func
 721              		.fpu fpv4-sp-d16
 723              	LL_RTC_ALMA_DisableWeekday:
 724              	.LFB368:
1959:../Drivers/STM32L4xx_HAL_Driver/Inc/stm32l4xx_ll_rtc.h **** 
1960:../Drivers/STM32L4xx_HAL_Driver/Inc/stm32l4xx_ll_rtc.h **** /**
1961:../Drivers/STM32L4xx_HAL_Driver/Inc/stm32l4xx_ll_rtc.h ****   * @brief  Disable AlarmA Week day selection (DU[3:0] represents the date )
1962:../Drivers/STM32L4xx_HAL_Driver/Inc/stm32l4xx_ll_rtc.h ****   * @rmtoll RTC_ALRMAR       WDSEL         LL_RTC_ALMA_DisableWeekday
1963:../Drivers/STM32L4xx_HAL_Driver/Inc/stm32l4xx_ll_rtc.h ****   * @param  RTCx RTC Instance
1964:../Drivers/STM32L4xx_HAL_Driver/Inc/stm32l4xx_ll_rtc.h ****   * @retval None
1965:../Drivers/STM32L4xx_HAL_Driver/Inc/stm32l4xx_ll_rtc.h ****   */
1966:../Drivers/STM32L4xx_HAL_Driver/Inc/stm32l4xx_ll_rtc.h **** __STATIC_INLINE void LL_RTC_ALMA_DisableWeekday(RTC_TypeDef *RTCx)
1967:../Drivers/STM32L4xx_HAL_Driver/Inc/stm32l4xx_ll_rtc.h **** {
 725              		.loc 1 1967 1
 726              		.cfi_startproc
 727              		@ args = 0, pretend = 0, frame = 8
 728              		@ frame_needed = 1, uses_anonymous_args = 0
 729              		@ link register save eliminated.
 730 0000 80B4     		push	{r7}
 731              	.LCFI78:
 732              		.cfi_def_cfa_offset 4
 733              		.cfi_offset 7, -4
ARM GAS  /tmp/cc5oboQK.s 			page 48


 734 0002 83B0     		sub	sp, sp, #12
 735              	.LCFI79:
 736              		.cfi_def_cfa_offset 16
 737 0004 00AF     		add	r7, sp, #0
 738              	.LCFI80:
 739              		.cfi_def_cfa_register 7
 740 0006 7860     		str	r0, [r7, #4]
1968:../Drivers/STM32L4xx_HAL_Driver/Inc/stm32l4xx_ll_rtc.h ****   CLEAR_BIT(RTCx->ALRMAR, RTC_ALRMAR_WDSEL);
 741              		.loc 1 1968 3
 742 0008 7B68     		ldr	r3, [r7, #4]
 743 000a DB69     		ldr	r3, [r3, #28]
 744 000c 23F08042 		bic	r2, r3, #1073741824
 745 0010 7B68     		ldr	r3, [r7, #4]
 746 0012 DA61     		str	r2, [r3, #28]
1969:../Drivers/STM32L4xx_HAL_Driver/Inc/stm32l4xx_ll_rtc.h **** }
 747              		.loc 1 1969 1
 748 0014 00BF     		nop
 749 0016 0C37     		adds	r7, r7, #12
 750              	.LCFI81:
 751              		.cfi_def_cfa_offset 4
 752 0018 BD46     		mov	sp, r7
 753              	.LCFI82:
 754              		.cfi_def_cfa_register 13
 755              		@ sp needed
 756 001a 5DF8047B 		ldr	r7, [sp], #4
 757              	.LCFI83:
 758              		.cfi_restore 7
 759              		.cfi_def_cfa_offset 0
 760 001e 7047     		bx	lr
 761              		.cfi_endproc
 762              	.LFE368:
 764              		.section	.text.LL_RTC_ALMA_SetDay,"ax",%progbits
 765              		.align	1
 766              		.syntax unified
 767              		.thumb
 768              		.thumb_func
 769              		.fpu fpv4-sp-d16
 771              	LL_RTC_ALMA_SetDay:
 772              	.LFB369:
1970:../Drivers/STM32L4xx_HAL_Driver/Inc/stm32l4xx_ll_rtc.h **** 
1971:../Drivers/STM32L4xx_HAL_Driver/Inc/stm32l4xx_ll_rtc.h **** /**
1972:../Drivers/STM32L4xx_HAL_Driver/Inc/stm32l4xx_ll_rtc.h ****   * @brief  Set ALARM A Day in BCD format
1973:../Drivers/STM32L4xx_HAL_Driver/Inc/stm32l4xx_ll_rtc.h ****   * @note helper macro __LL_RTC_CONVERT_BIN2BCD is available to convert Day from binary to BCD form
1974:../Drivers/STM32L4xx_HAL_Driver/Inc/stm32l4xx_ll_rtc.h ****   * @rmtoll RTC_ALRMAR       DT            LL_RTC_ALMA_SetDay\n
1975:../Drivers/STM32L4xx_HAL_Driver/Inc/stm32l4xx_ll_rtc.h ****   *         RTC_ALRMAR       DU            LL_RTC_ALMA_SetDay
1976:../Drivers/STM32L4xx_HAL_Driver/Inc/stm32l4xx_ll_rtc.h ****   * @param  RTCx RTC Instance
1977:../Drivers/STM32L4xx_HAL_Driver/Inc/stm32l4xx_ll_rtc.h ****   * @param  Day Value between Min_Data=0x01 and Max_Data=0x31
1978:../Drivers/STM32L4xx_HAL_Driver/Inc/stm32l4xx_ll_rtc.h ****   * @retval None
1979:../Drivers/STM32L4xx_HAL_Driver/Inc/stm32l4xx_ll_rtc.h ****   */
1980:../Drivers/STM32L4xx_HAL_Driver/Inc/stm32l4xx_ll_rtc.h **** __STATIC_INLINE void LL_RTC_ALMA_SetDay(RTC_TypeDef *RTCx, uint32_t Day)
1981:../Drivers/STM32L4xx_HAL_Driver/Inc/stm32l4xx_ll_rtc.h **** {
 773              		.loc 1 1981 1
 774              		.cfi_startproc
 775              		@ args = 0, pretend = 0, frame = 8
 776              		@ frame_needed = 1, uses_anonymous_args = 0
 777              		@ link register save eliminated.
 778 0000 80B4     		push	{r7}
ARM GAS  /tmp/cc5oboQK.s 			page 49


 779              	.LCFI84:
 780              		.cfi_def_cfa_offset 4
 781              		.cfi_offset 7, -4
 782 0002 83B0     		sub	sp, sp, #12
 783              	.LCFI85:
 784              		.cfi_def_cfa_offset 16
 785 0004 00AF     		add	r7, sp, #0
 786              	.LCFI86:
 787              		.cfi_def_cfa_register 7
 788 0006 7860     		str	r0, [r7, #4]
 789 0008 3960     		str	r1, [r7]
1982:../Drivers/STM32L4xx_HAL_Driver/Inc/stm32l4xx_ll_rtc.h ****   MODIFY_REG(RTCx->ALRMAR, (RTC_ALRMAR_DT | RTC_ALRMAR_DU),
 790              		.loc 1 1982 3
 791 000a 7B68     		ldr	r3, [r7, #4]
 792 000c DB69     		ldr	r3, [r3, #28]
 793 000e 23F07C52 		bic	r2, r3, #1056964608
 794 0012 3B68     		ldr	r3, [r7]
 795 0014 1B06     		lsls	r3, r3, #24
 796 0016 1A43     		orrs	r2, r2, r3
 797 0018 7B68     		ldr	r3, [r7, #4]
 798 001a DA61     		str	r2, [r3, #28]
1983:../Drivers/STM32L4xx_HAL_Driver/Inc/stm32l4xx_ll_rtc.h ****              (((Day & 0xF0U) << (RTC_ALRMAR_DT_Pos - 4U)) | ((Day & 0x0FU) << RTC_ALRMAR_DU_Pos)));
1984:../Drivers/STM32L4xx_HAL_Driver/Inc/stm32l4xx_ll_rtc.h **** }
 799              		.loc 1 1984 1
 800 001c 00BF     		nop
 801 001e 0C37     		adds	r7, r7, #12
 802              	.LCFI87:
 803              		.cfi_def_cfa_offset 4
 804 0020 BD46     		mov	sp, r7
 805              	.LCFI88:
 806              		.cfi_def_cfa_register 13
 807              		@ sp needed
 808 0022 5DF8047B 		ldr	r7, [sp], #4
 809              	.LCFI89:
 810              		.cfi_restore 7
 811              		.cfi_def_cfa_offset 0
 812 0026 7047     		bx	lr
 813              		.cfi_endproc
 814              	.LFE369:
 816              		.section	.text.LL_RTC_ALMA_SetWeekDay,"ax",%progbits
 817              		.align	1
 818              		.syntax unified
 819              		.thumb
 820              		.thumb_func
 821              		.fpu fpv4-sp-d16
 823              	LL_RTC_ALMA_SetWeekDay:
 824              	.LFB371:
1985:../Drivers/STM32L4xx_HAL_Driver/Inc/stm32l4xx_ll_rtc.h **** 
1986:../Drivers/STM32L4xx_HAL_Driver/Inc/stm32l4xx_ll_rtc.h **** /**
1987:../Drivers/STM32L4xx_HAL_Driver/Inc/stm32l4xx_ll_rtc.h ****   * @brief  Get ALARM A Day in BCD format
1988:../Drivers/STM32L4xx_HAL_Driver/Inc/stm32l4xx_ll_rtc.h ****   * @note helper macro __LL_RTC_CONVERT_BCD2BIN is available to convert Day from BCD to Binary form
1989:../Drivers/STM32L4xx_HAL_Driver/Inc/stm32l4xx_ll_rtc.h ****   * @rmtoll RTC_ALRMAR       DT            LL_RTC_ALMA_GetDay\n
1990:../Drivers/STM32L4xx_HAL_Driver/Inc/stm32l4xx_ll_rtc.h ****   *         RTC_ALRMAR       DU            LL_RTC_ALMA_GetDay
1991:../Drivers/STM32L4xx_HAL_Driver/Inc/stm32l4xx_ll_rtc.h ****   * @param  RTCx RTC Instance
1992:../Drivers/STM32L4xx_HAL_Driver/Inc/stm32l4xx_ll_rtc.h ****   * @retval Value between Min_Data=0x01 and Max_Data=0x31
1993:../Drivers/STM32L4xx_HAL_Driver/Inc/stm32l4xx_ll_rtc.h ****   */
1994:../Drivers/STM32L4xx_HAL_Driver/Inc/stm32l4xx_ll_rtc.h **** __STATIC_INLINE uint32_t LL_RTC_ALMA_GetDay(RTC_TypeDef *RTCx)
ARM GAS  /tmp/cc5oboQK.s 			page 50


1995:../Drivers/STM32L4xx_HAL_Driver/Inc/stm32l4xx_ll_rtc.h **** {
1996:../Drivers/STM32L4xx_HAL_Driver/Inc/stm32l4xx_ll_rtc.h ****   return ((READ_BIT(RTCx->ALRMAR, (RTC_ALRMAR_DT | RTC_ALRMAR_DU))) >> RTC_ALRMAR_DU_Pos);
1997:../Drivers/STM32L4xx_HAL_Driver/Inc/stm32l4xx_ll_rtc.h **** }
1998:../Drivers/STM32L4xx_HAL_Driver/Inc/stm32l4xx_ll_rtc.h **** 
1999:../Drivers/STM32L4xx_HAL_Driver/Inc/stm32l4xx_ll_rtc.h **** /**
2000:../Drivers/STM32L4xx_HAL_Driver/Inc/stm32l4xx_ll_rtc.h ****   * @brief  Set ALARM A Weekday
2001:../Drivers/STM32L4xx_HAL_Driver/Inc/stm32l4xx_ll_rtc.h ****   * @rmtoll RTC_ALRMAR       DU            LL_RTC_ALMA_SetWeekDay
2002:../Drivers/STM32L4xx_HAL_Driver/Inc/stm32l4xx_ll_rtc.h ****   * @param  RTCx RTC Instance
2003:../Drivers/STM32L4xx_HAL_Driver/Inc/stm32l4xx_ll_rtc.h ****   * @param  WeekDay This parameter can be one of the following values:
2004:../Drivers/STM32L4xx_HAL_Driver/Inc/stm32l4xx_ll_rtc.h ****   *         @arg @ref LL_RTC_WEEKDAY_MONDAY
2005:../Drivers/STM32L4xx_HAL_Driver/Inc/stm32l4xx_ll_rtc.h ****   *         @arg @ref LL_RTC_WEEKDAY_TUESDAY
2006:../Drivers/STM32L4xx_HAL_Driver/Inc/stm32l4xx_ll_rtc.h ****   *         @arg @ref LL_RTC_WEEKDAY_WEDNESDAY
2007:../Drivers/STM32L4xx_HAL_Driver/Inc/stm32l4xx_ll_rtc.h ****   *         @arg @ref LL_RTC_WEEKDAY_THURSDAY
2008:../Drivers/STM32L4xx_HAL_Driver/Inc/stm32l4xx_ll_rtc.h ****   *         @arg @ref LL_RTC_WEEKDAY_FRIDAY
2009:../Drivers/STM32L4xx_HAL_Driver/Inc/stm32l4xx_ll_rtc.h ****   *         @arg @ref LL_RTC_WEEKDAY_SATURDAY
2010:../Drivers/STM32L4xx_HAL_Driver/Inc/stm32l4xx_ll_rtc.h ****   *         @arg @ref LL_RTC_WEEKDAY_SUNDAY
2011:../Drivers/STM32L4xx_HAL_Driver/Inc/stm32l4xx_ll_rtc.h ****   * @retval None
2012:../Drivers/STM32L4xx_HAL_Driver/Inc/stm32l4xx_ll_rtc.h ****   */
2013:../Drivers/STM32L4xx_HAL_Driver/Inc/stm32l4xx_ll_rtc.h **** __STATIC_INLINE void LL_RTC_ALMA_SetWeekDay(RTC_TypeDef *RTCx, uint32_t WeekDay)
2014:../Drivers/STM32L4xx_HAL_Driver/Inc/stm32l4xx_ll_rtc.h **** {
 825              		.loc 1 2014 1
 826              		.cfi_startproc
 827              		@ args = 0, pretend = 0, frame = 8
 828              		@ frame_needed = 1, uses_anonymous_args = 0
 829              		@ link register save eliminated.
 830 0000 80B4     		push	{r7}
 831              	.LCFI90:
 832              		.cfi_def_cfa_offset 4
 833              		.cfi_offset 7, -4
 834 0002 83B0     		sub	sp, sp, #12
 835              	.LCFI91:
 836              		.cfi_def_cfa_offset 16
 837 0004 00AF     		add	r7, sp, #0
 838              	.LCFI92:
 839              		.cfi_def_cfa_register 7
 840 0006 7860     		str	r0, [r7, #4]
 841 0008 3960     		str	r1, [r7]
2015:../Drivers/STM32L4xx_HAL_Driver/Inc/stm32l4xx_ll_rtc.h ****   MODIFY_REG(RTCx->ALRMAR, RTC_ALRMAR_DU, WeekDay << RTC_ALRMAR_DU_Pos);
 842              		.loc 1 2015 3
 843 000a 7B68     		ldr	r3, [r7, #4]
 844 000c DB69     		ldr	r3, [r3, #28]
 845 000e 23F07062 		bic	r2, r3, #251658240
 846 0012 3B68     		ldr	r3, [r7]
 847 0014 1B06     		lsls	r3, r3, #24
 848 0016 1A43     		orrs	r2, r2, r3
 849 0018 7B68     		ldr	r3, [r7, #4]
 850 001a DA61     		str	r2, [r3, #28]
2016:../Drivers/STM32L4xx_HAL_Driver/Inc/stm32l4xx_ll_rtc.h **** }
 851              		.loc 1 2016 1
 852 001c 00BF     		nop
 853 001e 0C37     		adds	r7, r7, #12
 854              	.LCFI93:
 855              		.cfi_def_cfa_offset 4
 856 0020 BD46     		mov	sp, r7
 857              	.LCFI94:
 858              		.cfi_def_cfa_register 13
 859              		@ sp needed
ARM GAS  /tmp/cc5oboQK.s 			page 51


 860 0022 5DF8047B 		ldr	r7, [sp], #4
 861              	.LCFI95:
 862              		.cfi_restore 7
 863              		.cfi_def_cfa_offset 0
 864 0026 7047     		bx	lr
 865              		.cfi_endproc
 866              	.LFE371:
 868              		.section	.text.LL_RTC_ALMA_ConfigTime,"ax",%progbits
 869              		.align	1
 870              		.syntax unified
 871              		.thumb
 872              		.thumb_func
 873              		.fpu fpv4-sp-d16
 875              	LL_RTC_ALMA_ConfigTime:
 876              	.LFB381:
2017:../Drivers/STM32L4xx_HAL_Driver/Inc/stm32l4xx_ll_rtc.h **** 
2018:../Drivers/STM32L4xx_HAL_Driver/Inc/stm32l4xx_ll_rtc.h **** /**
2019:../Drivers/STM32L4xx_HAL_Driver/Inc/stm32l4xx_ll_rtc.h ****   * @brief  Get ALARM A Weekday
2020:../Drivers/STM32L4xx_HAL_Driver/Inc/stm32l4xx_ll_rtc.h ****   * @rmtoll RTC_ALRMAR       DU            LL_RTC_ALMA_GetWeekDay
2021:../Drivers/STM32L4xx_HAL_Driver/Inc/stm32l4xx_ll_rtc.h ****   * @param  RTCx RTC Instance
2022:../Drivers/STM32L4xx_HAL_Driver/Inc/stm32l4xx_ll_rtc.h ****   * @retval Returned value can be one of the following values:
2023:../Drivers/STM32L4xx_HAL_Driver/Inc/stm32l4xx_ll_rtc.h ****   *         @arg @ref LL_RTC_WEEKDAY_MONDAY
2024:../Drivers/STM32L4xx_HAL_Driver/Inc/stm32l4xx_ll_rtc.h ****   *         @arg @ref LL_RTC_WEEKDAY_TUESDAY
2025:../Drivers/STM32L4xx_HAL_Driver/Inc/stm32l4xx_ll_rtc.h ****   *         @arg @ref LL_RTC_WEEKDAY_WEDNESDAY
2026:../Drivers/STM32L4xx_HAL_Driver/Inc/stm32l4xx_ll_rtc.h ****   *         @arg @ref LL_RTC_WEEKDAY_THURSDAY
2027:../Drivers/STM32L4xx_HAL_Driver/Inc/stm32l4xx_ll_rtc.h ****   *         @arg @ref LL_RTC_WEEKDAY_FRIDAY
2028:../Drivers/STM32L4xx_HAL_Driver/Inc/stm32l4xx_ll_rtc.h ****   *         @arg @ref LL_RTC_WEEKDAY_SATURDAY
2029:../Drivers/STM32L4xx_HAL_Driver/Inc/stm32l4xx_ll_rtc.h ****   *         @arg @ref LL_RTC_WEEKDAY_SUNDAY
2030:../Drivers/STM32L4xx_HAL_Driver/Inc/stm32l4xx_ll_rtc.h ****   */
2031:../Drivers/STM32L4xx_HAL_Driver/Inc/stm32l4xx_ll_rtc.h **** __STATIC_INLINE uint32_t LL_RTC_ALMA_GetWeekDay(RTC_TypeDef *RTCx)
2032:../Drivers/STM32L4xx_HAL_Driver/Inc/stm32l4xx_ll_rtc.h **** {
2033:../Drivers/STM32L4xx_HAL_Driver/Inc/stm32l4xx_ll_rtc.h ****   return (uint32_t)(READ_BIT(RTCx->ALRMAR, RTC_ALRMAR_DU) >> RTC_ALRMAR_DU_Pos);
2034:../Drivers/STM32L4xx_HAL_Driver/Inc/stm32l4xx_ll_rtc.h **** }
2035:../Drivers/STM32L4xx_HAL_Driver/Inc/stm32l4xx_ll_rtc.h **** 
2036:../Drivers/STM32L4xx_HAL_Driver/Inc/stm32l4xx_ll_rtc.h **** /**
2037:../Drivers/STM32L4xx_HAL_Driver/Inc/stm32l4xx_ll_rtc.h ****   * @brief  Set Alarm A time format (AM/24-hour or PM notation)
2038:../Drivers/STM32L4xx_HAL_Driver/Inc/stm32l4xx_ll_rtc.h ****   * @rmtoll RTC_ALRMAR       PM            LL_RTC_ALMA_SetTimeFormat
2039:../Drivers/STM32L4xx_HAL_Driver/Inc/stm32l4xx_ll_rtc.h ****   * @param  RTCx RTC Instance
2040:../Drivers/STM32L4xx_HAL_Driver/Inc/stm32l4xx_ll_rtc.h ****   * @param  TimeFormat This parameter can be one of the following values:
2041:../Drivers/STM32L4xx_HAL_Driver/Inc/stm32l4xx_ll_rtc.h ****   *         @arg @ref LL_RTC_ALMA_TIME_FORMAT_AM
2042:../Drivers/STM32L4xx_HAL_Driver/Inc/stm32l4xx_ll_rtc.h ****   *         @arg @ref LL_RTC_ALMA_TIME_FORMAT_PM
2043:../Drivers/STM32L4xx_HAL_Driver/Inc/stm32l4xx_ll_rtc.h ****   * @retval None
2044:../Drivers/STM32L4xx_HAL_Driver/Inc/stm32l4xx_ll_rtc.h ****   */
2045:../Drivers/STM32L4xx_HAL_Driver/Inc/stm32l4xx_ll_rtc.h **** __STATIC_INLINE void LL_RTC_ALMA_SetTimeFormat(RTC_TypeDef *RTCx, uint32_t TimeFormat)
2046:../Drivers/STM32L4xx_HAL_Driver/Inc/stm32l4xx_ll_rtc.h **** {
2047:../Drivers/STM32L4xx_HAL_Driver/Inc/stm32l4xx_ll_rtc.h ****   MODIFY_REG(RTCx->ALRMAR, RTC_ALRMAR_PM, TimeFormat);
2048:../Drivers/STM32L4xx_HAL_Driver/Inc/stm32l4xx_ll_rtc.h **** }
2049:../Drivers/STM32L4xx_HAL_Driver/Inc/stm32l4xx_ll_rtc.h **** 
2050:../Drivers/STM32L4xx_HAL_Driver/Inc/stm32l4xx_ll_rtc.h **** /**
2051:../Drivers/STM32L4xx_HAL_Driver/Inc/stm32l4xx_ll_rtc.h ****   * @brief  Get Alarm A time format (AM or PM notation)
2052:../Drivers/STM32L4xx_HAL_Driver/Inc/stm32l4xx_ll_rtc.h ****   * @rmtoll RTC_ALRMAR       PM            LL_RTC_ALMA_GetTimeFormat
2053:../Drivers/STM32L4xx_HAL_Driver/Inc/stm32l4xx_ll_rtc.h ****   * @param  RTCx RTC Instance
2054:../Drivers/STM32L4xx_HAL_Driver/Inc/stm32l4xx_ll_rtc.h ****   * @retval Returned value can be one of the following values:
2055:../Drivers/STM32L4xx_HAL_Driver/Inc/stm32l4xx_ll_rtc.h ****   *         @arg @ref LL_RTC_ALMA_TIME_FORMAT_AM
2056:../Drivers/STM32L4xx_HAL_Driver/Inc/stm32l4xx_ll_rtc.h ****   *         @arg @ref LL_RTC_ALMA_TIME_FORMAT_PM
2057:../Drivers/STM32L4xx_HAL_Driver/Inc/stm32l4xx_ll_rtc.h ****   */
2058:../Drivers/STM32L4xx_HAL_Driver/Inc/stm32l4xx_ll_rtc.h **** __STATIC_INLINE uint32_t LL_RTC_ALMA_GetTimeFormat(RTC_TypeDef *RTCx)
ARM GAS  /tmp/cc5oboQK.s 			page 52


2059:../Drivers/STM32L4xx_HAL_Driver/Inc/stm32l4xx_ll_rtc.h **** {
2060:../Drivers/STM32L4xx_HAL_Driver/Inc/stm32l4xx_ll_rtc.h ****   return (uint32_t)(READ_BIT(RTCx->ALRMAR, RTC_ALRMAR_PM));
2061:../Drivers/STM32L4xx_HAL_Driver/Inc/stm32l4xx_ll_rtc.h **** }
2062:../Drivers/STM32L4xx_HAL_Driver/Inc/stm32l4xx_ll_rtc.h **** 
2063:../Drivers/STM32L4xx_HAL_Driver/Inc/stm32l4xx_ll_rtc.h **** /**
2064:../Drivers/STM32L4xx_HAL_Driver/Inc/stm32l4xx_ll_rtc.h ****   * @brief  Set ALARM A Hours in BCD format
2065:../Drivers/STM32L4xx_HAL_Driver/Inc/stm32l4xx_ll_rtc.h ****   * @note helper macro __LL_RTC_CONVERT_BIN2BCD is available to convert Hours from binary to BCD fo
2066:../Drivers/STM32L4xx_HAL_Driver/Inc/stm32l4xx_ll_rtc.h ****   * @rmtoll RTC_ALRMAR       HT            LL_RTC_ALMA_SetHour\n
2067:../Drivers/STM32L4xx_HAL_Driver/Inc/stm32l4xx_ll_rtc.h ****   *         RTC_ALRMAR       HU            LL_RTC_ALMA_SetHour
2068:../Drivers/STM32L4xx_HAL_Driver/Inc/stm32l4xx_ll_rtc.h ****   * @param  RTCx RTC Instance
2069:../Drivers/STM32L4xx_HAL_Driver/Inc/stm32l4xx_ll_rtc.h ****   * @param  Hours Value between Min_Data=0x01 and Max_Data=0x12 or between Min_Data=0x00 and Max_Da
2070:../Drivers/STM32L4xx_HAL_Driver/Inc/stm32l4xx_ll_rtc.h ****   * @retval None
2071:../Drivers/STM32L4xx_HAL_Driver/Inc/stm32l4xx_ll_rtc.h ****   */
2072:../Drivers/STM32L4xx_HAL_Driver/Inc/stm32l4xx_ll_rtc.h **** __STATIC_INLINE void LL_RTC_ALMA_SetHour(RTC_TypeDef *RTCx, uint32_t Hours)
2073:../Drivers/STM32L4xx_HAL_Driver/Inc/stm32l4xx_ll_rtc.h **** {
2074:../Drivers/STM32L4xx_HAL_Driver/Inc/stm32l4xx_ll_rtc.h ****   MODIFY_REG(RTCx->ALRMAR, (RTC_ALRMAR_HT | RTC_ALRMAR_HU),
2075:../Drivers/STM32L4xx_HAL_Driver/Inc/stm32l4xx_ll_rtc.h ****              (((Hours & 0xF0U) << (RTC_ALRMAR_HT_Pos - 4U)) | ((Hours & 0x0FU) << RTC_ALRMAR_HU_Pos
2076:../Drivers/STM32L4xx_HAL_Driver/Inc/stm32l4xx_ll_rtc.h **** }
2077:../Drivers/STM32L4xx_HAL_Driver/Inc/stm32l4xx_ll_rtc.h **** 
2078:../Drivers/STM32L4xx_HAL_Driver/Inc/stm32l4xx_ll_rtc.h **** /**
2079:../Drivers/STM32L4xx_HAL_Driver/Inc/stm32l4xx_ll_rtc.h ****   * @brief  Get ALARM A Hours in BCD format
2080:../Drivers/STM32L4xx_HAL_Driver/Inc/stm32l4xx_ll_rtc.h ****   * @note helper macro __LL_RTC_CONVERT_BCD2BIN is available to convert Hours from BCD to Binary fo
2081:../Drivers/STM32L4xx_HAL_Driver/Inc/stm32l4xx_ll_rtc.h ****   * @rmtoll RTC_ALRMAR       HT            LL_RTC_ALMA_GetHour\n
2082:../Drivers/STM32L4xx_HAL_Driver/Inc/stm32l4xx_ll_rtc.h ****   *         RTC_ALRMAR       HU            LL_RTC_ALMA_GetHour
2083:../Drivers/STM32L4xx_HAL_Driver/Inc/stm32l4xx_ll_rtc.h ****   * @param  RTCx RTC Instance
2084:../Drivers/STM32L4xx_HAL_Driver/Inc/stm32l4xx_ll_rtc.h ****   * @retval Value between Min_Data=0x01 and Max_Data=0x12 or between Min_Data=0x00 and Max_Data=0x2
2085:../Drivers/STM32L4xx_HAL_Driver/Inc/stm32l4xx_ll_rtc.h ****   */
2086:../Drivers/STM32L4xx_HAL_Driver/Inc/stm32l4xx_ll_rtc.h **** __STATIC_INLINE uint32_t LL_RTC_ALMA_GetHour(RTC_TypeDef *RTCx)
