ARM GAS  /tmp/ccsazin5.s 			page 1


   1              		.cpu cortex-m0
   2              		.eabi_attribute 23, 1
   3              		.eabi_attribute 24, 1
   4              		.eabi_attribute 25, 1
   5              		.eabi_attribute 26, 1
   6              		.eabi_attribute 30, 4
   7              		.eabi_attribute 34, 0
   8              		.eabi_attribute 18, 4
   9              		.file	"alc_sync.c"
  10              		.text
  11              		.section	.text.alc_sync_init,"ax",%progbits
  12              		.align	1
  13              		.global	alc_sync_init
  14              		.arch armv6s-m
  15              		.syntax unified
  16              		.code	16
  17              		.thumb_func
  18              		.fpu softvfp
  20              	alc_sync_init:
  21              		@ args = 0, pretend = 0, frame = 0
  22              		@ frame_needed = 0, uses_anonymous_args = 0
  23              		@ link register save eliminated.
  24 0000 0023     		movs	r3, #0
  25              		@ sp needed
  26 0002 064A     		ldr	r2, .L2
  27 0004 4370     		strb	r3, [r0, #1]
  28 0006 8282     		strh	r2, [r0, #20]
  29 0008 054A     		ldr	r2, .L2+4
  30 000a 8370     		strb	r3, [r0, #2]
  31 000c 8261     		str	r2, [r0, #24]
  32 000e 054A     		ldr	r2, .L2+8
  33 0010 4382     		strh	r3, [r0, #18]
  34 0012 C361     		str	r3, [r0, #28]
  35 0014 0362     		str	r3, [r0, #32]
  36 0016 4262     		str	r2, [r0, #36]
  37 0018 0385     		strh	r3, [r0, #40]
  38 001a 7047     		bx	lr
  39              	.L3:
  40              		.align	2
  41              	.L2:
  42 001c 0FCAFFFF 		.word	-13809
  43 0020 40FA0100 		.word	129600
  44 0024 80994000 		.word	4233600
  46              		.section	.rodata.alc_sync_parser.str1.1,"aMS",%progbits,1
  47              	.LC0:
  48 0000 6C626D2F 		.ascii	"lbm/smtc_modem_core/smtc_modem_services/src/alc_syn"
  48      736D7463 
  48      5F6D6F64 
  48      656D5F63 
  48      6F72652F 
  49 0033 632F616C 		.ascii	"c/alc_sync.c\000"
  49      635F7379 
  49      6E632E63 
  49      00
  50              	.LC2:
  51 0040 494E464F 		.ascii	"INFO\000"
  51      00
ARM GAS  /tmp/ccsazin5.s 			page 2


  52              	.LC4:
  53 0045 25732028 		.ascii	"%s (%s:%d) \000"
  53      25733A25 
  53      64292000 
  54              	.LC6:
  55 0051 414C4320 		.ascii	"ALC Sync time correction %d s -> new GPS Time: %d s"
  55      53796E63 
  55      2074696D 
  55      6520636F 
  55      72726563 
  56 0084 0A00     		.ascii	"\012\000"
  57              	.LC8:
  58 0086 5741524E 		.ascii	"WARN\000"
  58      00
  59              	.LC10:
  60 008b 414C4320 		.ascii	"ALC Sync token mismatch: %d - %d\012\000"
  60      53796E63 
  60      20746F6B 
  60      656E206D 
  60      69736D61 
  61              	.LC12:
  62 00ad 4552524F 		.ascii	"ERROR\000"
  62      5200
  63              	.LC15:
  64 00b3 25730A00 		.ascii	"%s\012\000"
  65              	.LC18:
  66 00b7 25732049 		.ascii	"%s Illegal state\012 \000"
  66      6C6C6567 
  66      616C2073 
  66      74617465 
  66      0A2000
  67              		.section	.text.alc_sync_parser,"ax",%progbits
  68              		.align	1
  69              		.global	alc_sync_parser
  70              		.syntax unified
  71              		.code	16
  72              		.thumb_func
  73              		.fpu softvfp
  75              	alc_sync_parser:
  76              		@ args = 0, pretend = 0, frame = 8
  77              		@ frame_needed = 0, uses_anonymous_args = 0
  78 0000 F7B5     		push	{r0, r1, r2, r4, r5, r6, r7, lr}
  79 0002 0024     		movs	r4, #0
  80 0004 0500     		movs	r5, r0
  81 0006 0091     		str	r1, [sp]
  82 0008 0192     		str	r2, [sp, #4]
  83 000a 8470     		strb	r4, [r0, #2]
  84 000c 4470     		strb	r4, [r0, #1]
  85              	.L5:
  86 000e 019B     		ldr	r3, [sp, #4]
  87 0010 A342     		cmp	r3, r4
  88 0012 00D8     		bhi	.LCB47
  89 0014 E6E0     		b	.L44	@long jump
  90              	.LCB47:
  91 0016 009B     		ldr	r3, [sp]
  92 0018 185D     		ldrb	r0, [r3, r4]
  93 001a 0328     		cmp	r0, #3
ARM GAS  /tmp/ccsazin5.s 			page 3


  94 001c 00D9     		bls	.LCB51
  95 001e CBE0     		b	.L6	@long jump
  96              	.LCB51:
  97 0020 FFF7FEFF 		bl	__gnu_thumb1_case_uqi
  98              	.L8:
  99 0024 02       		.byte	(.L11-.L8)/2
 100 0025 09       		.byte	(.L10-.L8)/2
 101 0026 7C       		.byte	(.L9-.L8)/2
 102 0027 AD       		.byte	(.L7-.L8)/2
 103              		.p2align 1
 104              	.L11:
 105 0028 0123     		movs	r3, #1
 106 002a 6A78     		ldrb	r2, [r5, #1]
 107 002c 0134     		adds	r4, r4, #1
 108 002e 1343     		orrs	r3, r2
 109 0030 6B70     		strb	r3, [r5, #1]
 110              	.L46:
 111 0032 E4B2     		uxtb	r4, r4
 112 0034 EBE7     		b	.L5
 113              	.L10:
 114 0036 019A     		ldr	r2, [sp, #4]
 115 0038 631D     		adds	r3, r4, #5
 116 003a 6B4E     		ldr	r6, .L49
 117 003c 9342     		cmp	r3, r2
 118 003e 57DA     		bge	.L13
 119 0040 0F21     		movs	r1, #15
 120 0042 009B     		ldr	r3, [sp]
 121 0044 671C     		adds	r7, r4, #1
 122 0046 DF19     		adds	r7, r3, r7
 123 0048 3A79     		ldrb	r2, [r7, #4]
 124 004a EB7C     		ldrb	r3, [r5, #19]
 125 004c 0A40     		ands	r2, r1
 126 004e 9342     		cmp	r3, r2
 127 0050 36D1     		bne	.L14
 128 0052 0133     		adds	r3, r3, #1
 129 0054 0B40     		ands	r3, r1
 130 0056 EB74     		strb	r3, [r5, #19]
 131 0058 7B78     		ldrb	r3, [r7, #1]
 132 005a 3A78     		ldrb	r2, [r7]
 133 005c 1B02     		lsls	r3, r3, #8
 134 005e 9B18     		adds	r3, r3, r2
 135 0060 BA78     		ldrb	r2, [r7, #2]
 136 0062 1204     		lsls	r2, r2, #16
 137 0064 9B18     		adds	r3, r3, r2
 138 0066 FA78     		ldrb	r2, [r7, #3]
 139 0068 1206     		lsls	r2, r2, #24
 140 006a 9B18     		adds	r3, r3, r2
 141 006c EA69     		ldr	r2, [r5, #28]
 142 006e D318     		adds	r3, r2, r3
 143 0070 EB61     		str	r3, [r5, #28]
 144 0072 0023     		movs	r3, #0
 145 0074 AB74     		strb	r3, [r5, #18]
 146 0076 2B00     		movs	r3, r5
 147 0078 0222     		movs	r2, #2
 148 007a 2833     		adds	r3, r3, #40
 149 007c 1A70     		strb	r2, [r3]
 150 007e FFF7FEFF 		bl	smtc_modem_services_get_time_s
ARM GAS  /tmp/ccsazin5.s 			page 4


 151 0082 2F21     		movs	r1, #47
 152 0084 2862     		str	r0, [r5, #32]
 153 0086 3000     		movs	r0, r6
 154 0088 FFF7FEFF 		bl	strrchr
 155 008c 3200     		movs	r2, r6
 156 008e 0028     		cmp	r0, #0
 157 0090 04D0     		beq	.L15
 158 0092 2F21     		movs	r1, #47
 159 0094 3000     		movs	r0, r6
 160 0096 FFF7FEFF 		bl	strrchr
 161 009a 421C     		adds	r2, r0, #1
 162              	.L15:
 163 009c 534B     		ldr	r3, .L49+4
 164 009e 5449     		ldr	r1, .L49+8
 165 00a0 5448     		ldr	r0, .L49+12
 166 00a2 FFF7FEFF 		bl	smtc_modem_hal_print_trace
 167 00a6 EB69     		ldr	r3, [r5, #28]
 168 00a8 2A6A     		ldr	r2, [r5, #32]
 169 00aa 1900     		movs	r1, r3
 170 00ac 5248     		ldr	r0, .L49+16
 171 00ae 9A18     		adds	r2, r3, r2
 172              	.L45:
 173 00b0 FFF7FEFF 		bl	smtc_modem_hal_print_trace
 174 00b4 0223     		movs	r3, #2
 175 00b6 6A78     		ldrb	r2, [r5, #1]
 176 00b8 1343     		orrs	r3, r2
 177 00ba 6B70     		strb	r3, [r5, #1]
 178              	.L18:
 179 00bc 0634     		adds	r4, r4, #6
 180 00be B8E7     		b	.L46
 181              	.L14:
 182 00c0 2F21     		movs	r1, #47
 183 00c2 3000     		movs	r0, r6
 184 00c4 FFF7FEFF 		bl	strrchr
 185 00c8 3200     		movs	r2, r6
 186 00ca 0028     		cmp	r0, #0
 187 00cc 04D0     		beq	.L17
 188 00ce 2F21     		movs	r1, #47
 189 00d0 3000     		movs	r0, r6
 190 00d2 FFF7FEFF 		bl	strrchr
 191 00d6 421C     		adds	r2, r0, #1
 192              	.L17:
 193 00d8 8623     		movs	r3, #134
 194 00da 4849     		ldr	r1, .L49+20
 195 00dc 4548     		ldr	r0, .L49+12
 196 00de 9B00     		lsls	r3, r3, #2
 197 00e0 FFF7FEFF 		bl	smtc_modem_hal_print_trace
 198 00e4 0F23     		movs	r3, #15
 199 00e6 3A79     		ldrb	r2, [r7, #4]
 200 00e8 E97C     		ldrb	r1, [r5, #19]
 201 00ea 4548     		ldr	r0, .L49+24
 202 00ec 1A40     		ands	r2, r3
 203 00ee DFE7     		b	.L45
 204              	.L13:
 205 00f0 2F21     		movs	r1, #47
 206 00f2 3000     		movs	r0, r6
 207 00f4 FFF7FEFF 		bl	strrchr
ARM GAS  /tmp/ccsazin5.s 			page 5


 208 00f8 3200     		movs	r2, r6
 209 00fa 0028     		cmp	r0, #0
 210 00fc 04D0     		beq	.L19
 211 00fe 2F21     		movs	r1, #47
 212 0100 3000     		movs	r0, r6
 213 0102 FFF7FEFF 		bl	strrchr
 214 0106 421C     		adds	r2, r0, #1
 215              	.L19:
 216 0108 D123     		movs	r3, #209
 217 010a 3E49     		ldr	r1, .L49+28
 218 010c 3948     		ldr	r0, .L49+12
 219 010e FFF7FEFF 		bl	smtc_modem_hal_print_trace
 220 0112 3D49     		ldr	r1, .L49+32
 221 0114 3D48     		ldr	r0, .L49+36
 222 0116 FFF7FEFF 		bl	smtc_modem_hal_print_trace
 223 011a CFE7     		b	.L18
 224              	.L9:
 225 011c 019A     		ldr	r2, [sp, #4]
 226 011e 631C     		adds	r3, r4, #1
 227 0120 9342     		cmp	r3, r2
 228 0122 15DA     		bge	.L20
 229 0124 009B     		ldr	r3, [sp]
 230 0126 1B19     		adds	r3, r3, r4
 231 0128 5A78     		ldrb	r2, [r3, #1]
 232 012a 0F23     		movs	r3, #15
 233 012c 1A40     		ands	r2, r3
 234 012e 7133     		adds	r3, r3, #113
 235 0130 9340     		lsls	r3, r3, r2
 236 0132 1A00     		movs	r2, r3
 237 0134 AB61     		str	r3, [r5, #24]
 238 0136 0323     		movs	r3, #3
 239 0138 5343     		muls	r3, r2
 240 013a 354A     		ldr	r2, .L49+40
 241 013c 9342     		cmp	r3, r2
 242 013e 00D9     		bls	.L21
 243 0140 1300     		movs	r3, r2
 244              	.L21:
 245 0142 6B62     		str	r3, [r5, #36]
 246 0144 0423     		movs	r3, #4
 247 0146 6A78     		ldrb	r2, [r5, #1]
 248              	.L48:
 249 0148 1343     		orrs	r3, r2
 250 014a 6B70     		strb	r3, [r5, #1]
 251              	.L25:
 252 014c 0234     		adds	r4, r4, #2
 253 014e 70E7     		b	.L46
 254              	.L20:
 255 0150 254E     		ldr	r6, .L49
 256 0152 2F21     		movs	r1, #47
 257 0154 3000     		movs	r0, r6
 258 0156 FFF7FEFF 		bl	strrchr
 259 015a 3200     		movs	r2, r6
 260 015c 0028     		cmp	r0, #0
 261 015e 04D0     		beq	.L23
 262 0160 2F21     		movs	r1, #47
 263 0162 3000     		movs	r0, r6
 264 0164 FFF7FEFF 		bl	strrchr
ARM GAS  /tmp/ccsazin5.s 			page 6


 265 0168 421C     		adds	r2, r0, #1
 266              	.L23:
 267 016a E023     		movs	r3, #224
 268              	.L47:
 269 016c 2549     		ldr	r1, .L49+28
 270 016e 2148     		ldr	r0, .L49+12
 271 0170 FFF7FEFF 		bl	smtc_modem_hal_print_trace
 272 0174 2449     		ldr	r1, .L49+32
 273 0176 2548     		ldr	r0, .L49+36
 274 0178 FFF7FEFF 		bl	smtc_modem_hal_print_trace
 275 017c E6E7     		b	.L25
 276              	.L7:
 277 017e 019A     		ldr	r2, [sp, #4]
 278 0180 631C     		adds	r3, r4, #1
 279 0182 9342     		cmp	r3, r2
 280 0184 09DA     		bge	.L24
 281 0186 0722     		movs	r2, #7
 282 0188 009B     		ldr	r3, [sp]
 283 018a 1B19     		adds	r3, r3, r4
 284 018c 5B78     		ldrb	r3, [r3, #1]
 285 018e 1340     		ands	r3, r2
 286 0190 AB74     		strb	r3, [r5, #18]
 287 0192 DBD0     		beq	.L25
 288 0194 0823     		movs	r3, #8
 289 0196 6A78     		ldrb	r2, [r5, #1]
 290 0198 D6E7     		b	.L48
 291              	.L24:
 292 019a 134E     		ldr	r6, .L49
 293 019c 2F21     		movs	r1, #47
 294 019e 3000     		movs	r0, r6
 295 01a0 FFF7FEFF 		bl	strrchr
 296 01a4 3200     		movs	r2, r6
 297 01a6 0028     		cmp	r0, #0
 298 01a8 04D0     		beq	.L26
 299 01aa 2F21     		movs	r1, #47
 300 01ac 3000     		movs	r0, r6
 301 01ae FFF7FEFF 		bl	strrchr
 302 01b2 421C     		adds	r2, r0, #1
 303              	.L26:
 304 01b4 F323     		movs	r3, #243
 305 01b6 D9E7     		b	.L47
 306              	.L6:
 307 01b8 0B4C     		ldr	r4, .L49
 308 01ba 2F21     		movs	r1, #47
 309 01bc 2000     		movs	r0, r4
 310 01be FFF7FEFF 		bl	strrchr
 311 01c2 2200     		movs	r2, r4
 312 01c4 0028     		cmp	r0, #0
 313 01c6 04D0     		beq	.L27
 314 01c8 2F21     		movs	r1, #47
 315 01ca 2000     		movs	r0, r4
 316 01cc FFF7FEFF 		bl	strrchr
 317 01d0 421C     		adds	r2, r0, #1
 318              	.L27:
 319 01d2 0C49     		ldr	r1, .L49+28
 320 01d4 0748     		ldr	r0, .L49+12
 321 01d6 F923     		movs	r3, #249
ARM GAS  /tmp/ccsazin5.s 			page 7


 322 01d8 FFF7FEFF 		bl	smtc_modem_hal_print_trace
 323 01dc 0D49     		ldr	r1, .L49+44
 324 01de 0E48     		ldr	r0, .L49+48
 325 01e0 FFF7FEFF 		bl	smtc_modem_hal_print_trace
 326              	.L44:
 327              		@ sp needed
 328 01e4 6878     		ldrb	r0, [r5, #1]
 329 01e6 FEBD     		pop	{r1, r2, r3, r4, r5, r6, r7, pc}
 330              	.L50:
 331              		.align	2
 332              	.L49:
 333 01e8 00000000 		.word	.LC0
 334 01ec 13020000 		.word	531
 335 01f0 40000000 		.word	.LC2
 336 01f4 45000000 		.word	.LC4
 337 01f8 51000000 		.word	.LC6
 338 01fc 86000000 		.word	.LC8
 339 0200 8B000000 		.word	.LC10
 340 0204 AD000000 		.word	.LC12
 341 0208 00000000 		.word	.LANCHOR0
 342 020c B3000000 		.word	.LC15
 343 0210 80994000 		.word	4233600
 344 0214 00000000 		.word	.LANCHOR1
 345 0218 B7000000 		.word	.LC18
 347              		.section	.text.alc_sync_get_interval_second,"ax",%progbits
 348              		.align	1
 349              		.global	alc_sync_get_interval_second
 350              		.syntax unified
 351              		.code	16
 352              		.thumb_func
 353              		.fpu softvfp
 355              	alc_sync_get_interval_second:
 356              		@ args = 0, pretend = 0, frame = 0
 357              		@ frame_needed = 0, uses_anonymous_args = 0
 358              		@ link register save eliminated.
 359 0000 8069     		ldr	r0, [r0, #24]
 360              		@ sp needed
 361 0002 7047     		bx	lr
 363              		.section	.text.alc_sync_set_interval_second,"ax",%progbits
 364              		.align	1
 365              		.global	alc_sync_set_interval_second
 366              		.syntax unified
 367              		.code	16
 368              		.thumb_func
 369              		.fpu softvfp
 371              	alc_sync_set_interval_second:
 372              		@ args = 0, pretend = 0, frame = 0
 373              		@ frame_needed = 0, uses_anonymous_args = 0
 374              		@ link register save eliminated.
 375 0000 0300     		movs	r3, r0
 376 0002 5A6A     		ldr	r2, [r3, #36]
 377 0004 0020     		movs	r0, #0
 378 0006 8A42     		cmp	r2, r1
 379 0008 01D9     		bls	.L53
 380 000a 9961     		str	r1, [r3, #24]
 381 000c 0130     		adds	r0, r0, #1
 382              	.L53:
ARM GAS  /tmp/ccsazin5.s 			page 8


 383              		@ sp needed
 384 000e 7047     		bx	lr
 386              		.section	.text.alc_sync_get_time_correction_second,"ax",%progbits
 387              		.align	1
 388              		.global	alc_sync_get_time_correction_second
 389              		.syntax unified
 390              		.code	16
 391              		.thumb_func
 392              		.fpu softvfp
 394              	alc_sync_get_time_correction_second:
 395              		@ args = 0, pretend = 0, frame = 0
 396              		@ frame_needed = 0, uses_anonymous_args = 0
 397              		@ link register save eliminated.
 398 0000 C069     		ldr	r0, [r0, #28]
 399              		@ sp needed
 400 0002 7047     		bx	lr
 402              		.section	.text.alc_sync_set_time_correction_second,"ax",%progbits
 403              		.align	1
 404              		.global	alc_sync_set_time_correction_second
 405              		.syntax unified
 406              		.code	16
 407              		.thumb_func
 408              		.fpu softvfp
 410              	alc_sync_set_time_correction_second:
 411              		@ args = 0, pretend = 0, frame = 0
 412              		@ frame_needed = 0, uses_anonymous_args = 0
 413 0000 10B5     		push	{r4, lr}
 414 0002 C161     		str	r1, [r0, #28]
 415 0004 0400     		movs	r4, r0
 416              		@ sp needed
 417 0006 FFF7FEFF 		bl	smtc_modem_services_get_time_s
 418 000a 0123     		movs	r3, #1
 419 000c 2062     		str	r0, [r4, #32]
 420 000e 2834     		adds	r4, r4, #40
 421 0010 2370     		strb	r3, [r4]
 422 0012 10BD     		pop	{r4, pc}
 424              		.section	.text.alc_sync_get_gps_time_second,"ax",%progbits
 425              		.align	1
 426              		.global	alc_sync_get_gps_time_second
 427              		.syntax unified
 428              		.code	16
 429              		.thumb_func
 430              		.fpu softvfp
 432              	alc_sync_get_gps_time_second:
 433              		@ args = 0, pretend = 0, frame = 0
 434              		@ frame_needed = 0, uses_anonymous_args = 0
 435 0000 10B5     		push	{r4, lr}
 436 0002 0400     		movs	r4, r0
 437              		@ sp needed
 438 0004 FFF7FEFF 		bl	smtc_modem_services_get_time_s
 439 0008 E369     		ldr	r3, [r4, #28]
 440 000a C018     		adds	r0, r0, r3
 441 000c 10BD     		pop	{r4, pc}
 443              		.section	.text.alc_sync_get_time_left_connection_lost,"ax",%progbits
 444              		.align	1
 445              		.global	alc_sync_get_time_left_connection_lost
 446              		.syntax unified
ARM GAS  /tmp/ccsazin5.s 			page 9


 447              		.code	16
 448              		.thumb_func
 449              		.fpu softvfp
 451              	alc_sync_get_time_left_connection_lost:
 452              		@ args = 0, pretend = 0, frame = 0
 453              		@ frame_needed = 0, uses_anonymous_args = 0
 454 0000 10B5     		push	{r4, lr}
 455 0002 0400     		movs	r4, r0
 456 0004 FFF7FEFF 		bl	smtc_modem_services_get_time_s
 457 0008 236A     		ldr	r3, [r4, #32]
 458 000a 0200     		movs	r2, r0
 459 000c 606A     		ldr	r0, [r4, #36]
 460 000e 002B     		cmp	r3, #0
 461 0010 08D0     		beq	.L58
 462 0012 D11A     		subs	r1, r2, r3
 463 0014 8842     		cmp	r0, r1
 464 0016 05D3     		bcc	.L58
 465 0018 1B18     		adds	r3, r3, r0
 466 001a 9B1A     		subs	r3, r3, r2
 467 001c 9842     		cmp	r0, r3
 468 001e 02D2     		bcs	.L60
 469 0020 E120     		movs	r0, #225
 470 0022 0001     		lsls	r0, r0, #4
 471              	.L58:
 472              		@ sp needed
 473 0024 10BD     		pop	{r4, pc}
 474              	.L60:
 475 0026 1800     		movs	r0, r3
 476 0028 FCE7     		b	.L58
 478              		.section	.text.is_alc_sync_done,"ax",%progbits
 479              		.align	1
 480              		.global	is_alc_sync_done
 481              		.syntax unified
 482              		.code	16
 483              		.thumb_func
 484              		.fpu softvfp
 486              	is_alc_sync_done:
 487              		@ args = 0, pretend = 0, frame = 0
 488              		@ frame_needed = 0, uses_anonymous_args = 0
 489              		@ link register save eliminated.
 490 0000 2830     		adds	r0, r0, #40
 491 0002 0378     		ldrb	r3, [r0]
 492 0004 0122     		movs	r2, #1
 493              		@ sp needed
 494 0006 0020     		movs	r0, #0
 495 0008 013B     		subs	r3, r3, #1
 496 000a DBB2     		uxtb	r3, r3
 497 000c 9A42     		cmp	r2, r3
 498 000e 4041     		adcs	r0, r0, r0
 499 0010 C0B2     		uxtb	r0, r0
 500 0012 7047     		bx	lr
 502              		.section	.text.is_alc_sync_time_valid,"ax",%progbits
 503              		.align	1
 504              		.global	is_alc_sync_time_valid
 505              		.syntax unified
 506              		.code	16
 507              		.thumb_func
ARM GAS  /tmp/ccsazin5.s 			page 10


 508              		.fpu softvfp
 510              	is_alc_sync_time_valid:
 511              		@ args = 0, pretend = 0, frame = 0
 512              		@ frame_needed = 0, uses_anonymous_args = 0
 513 0000 10B5     		push	{r4, lr}
 514 0002 0400     		movs	r4, r0
 515 0004 FFF7FEFF 		bl	smtc_modem_services_get_time_s
 516 0008 0300     		movs	r3, r0
 517 000a 0020     		movs	r0, #0
 518 000c 226A     		ldr	r2, [r4, #32]
 519 000e 8242     		cmp	r2, r0
 520 0010 04D0     		beq	.L66
 521 0012 9B1A     		subs	r3, r3, r2
 522 0014 626A     		ldr	r2, [r4, #36]
 523 0016 9A42     		cmp	r2, r3
 524 0018 4041     		adcs	r0, r0, r0
 525 001a C0B2     		uxtb	r0, r0
 526              	.L66:
 527              		@ sp needed
 528 001c 10BD     		pop	{r4, pc}
 530              		.section	.text.alc_sync_set_valid_delay_second,"ax",%progbits
 531              		.align	1
 532              		.global	alc_sync_set_valid_delay_second
 533              		.syntax unified
 534              		.code	16
 535              		.thumb_func
 536              		.fpu softvfp
 538              	alc_sync_set_valid_delay_second:
 539              		@ args = 0, pretend = 0, frame = 0
 540              		@ frame_needed = 0, uses_anonymous_args = 0
 541              		@ link register save eliminated.
 542 0000 034A     		ldr	r2, .L72
 543 0002 0300     		movs	r3, r0
 544 0004 0020     		movs	r0, #0
 545 0006 9142     		cmp	r1, r2
 546 0008 01D8     		bhi	.L70
 547 000a 5962     		str	r1, [r3, #36]
 548 000c 0130     		adds	r0, r0, #1
 549              	.L70:
 550              		@ sp needed
 551 000e 7047     		bx	lr
 552              	.L73:
 553              		.align	2
 554              	.L72:
 555 0010 80994000 		.word	4233600
 557              		.section	.text.alc_sync_get_valid_delay_second,"ax",%progbits
 558              		.align	1
 559              		.global	alc_sync_get_valid_delay_second
 560              		.syntax unified
 561              		.code	16
 562              		.thumb_func
 563              		.fpu softvfp
 565              	alc_sync_get_valid_delay_second:
 566              		@ args = 0, pretend = 0, frame = 0
 567              		@ frame_needed = 0, uses_anonymous_args = 0
 568              		@ link register save eliminated.
 569 0000 406A     		ldr	r0, [r0, #36]
ARM GAS  /tmp/ccsazin5.s 			page 11


 570              		@ sp needed
 571 0002 7047     		bx	lr
 573              		.section	.text.alc_sync_set_sync_lost,"ax",%progbits
 574              		.align	1
 575              		.global	alc_sync_set_sync_lost
 576              		.syntax unified
 577              		.code	16
 578              		.thumb_func
 579              		.fpu softvfp
 581              	alc_sync_set_sync_lost:
 582              		@ args = 0, pretend = 0, frame = 0
 583              		@ frame_needed = 0, uses_anonymous_args = 0
 584              		@ link register save eliminated.
 585 0000 0200     		movs	r2, r0
 586              		@ sp needed
 587 0002 0023     		movs	r3, #0
 588 0004 2832     		adds	r2, r2, #40
 589 0006 1370     		strb	r3, [r2]
 590 0008 0362     		str	r3, [r0, #32]
 591 000a 7047     		bx	lr
 593              		.section	.text.alc_sync_get_nb_transmission,"ax",%progbits
 594              		.align	1
 595              		.global	alc_sync_get_nb_transmission
 596              		.syntax unified
 597              		.code	16
 598              		.thumb_func
 599              		.fpu softvfp
 601              	alc_sync_get_nb_transmission:
 602              		@ args = 0, pretend = 0, frame = 0
 603              		@ frame_needed = 0, uses_anonymous_args = 0
 604              		@ link register save eliminated.
 605 0000 807C     		ldrb	r0, [r0, #18]
 606              		@ sp needed
 607 0002 7047     		bx	lr
 609              		.section	.text.alc_sync_get_token_req,"ax",%progbits
 610              		.align	1
 611              		.global	alc_sync_get_token_req
 612              		.syntax unified
 613              		.code	16
 614              		.thumb_func
 615              		.fpu softvfp
 617              	alc_sync_get_token_req:
 618              		@ args = 0, pretend = 0, frame = 0
 619              		@ frame_needed = 0, uses_anonymous_args = 0
 620              		@ link register save eliminated.
 621 0000 C07C     		ldrb	r0, [r0, #19]
 622              		@ sp needed
 623 0002 7047     		bx	lr
 625              		.section	.text.alc_sync_set_max_length_up_payload,"ax",%progbits
 626              		.align	1
 627              		.global	alc_sync_set_max_length_up_payload
 628              		.syntax unified
 629              		.code	16
 630              		.thumb_func
 631              		.fpu softvfp
 633              	alc_sync_set_max_length_up_payload:
 634              		@ args = 0, pretend = 0, frame = 0
ARM GAS  /tmp/ccsazin5.s 			page 12


 635              		@ frame_needed = 0, uses_anonymous_args = 0
 636              		@ link register save eliminated.
 637 0000 0175     		strb	r1, [r0, #20]
 638              		@ sp needed
 639 0002 7047     		bx	lr
 641              		.section	.text.alc_sync_get_timestamp_last_correction_s,"ax",%progbits
 642              		.align	1
 643              		.global	alc_sync_get_timestamp_last_correction_s
 644              		.syntax unified
 645              		.code	16
 646              		.thumb_func
 647              		.fpu softvfp
 649              	alc_sync_get_timestamp_last_correction_s:
 650              		@ args = 0, pretend = 0, frame = 0
 651              		@ frame_needed = 0, uses_anonymous_args = 0
 652              		@ link register save eliminated.
 653 0000 006A     		ldr	r0, [r0, #32]
 654              		@ sp needed
 655 0002 7047     		bx	lr
 657              		.section	.text.alc_sync_get_timestamp_ans_requested_s,"ax",%progbits
 658              		.align	1
 659              		.global	alc_sync_get_timestamp_ans_requested_s
 660              		.syntax unified
 661              		.code	16
 662              		.thumb_func
 663              		.fpu softvfp
 665              	alc_sync_get_timestamp_ans_requested_s:
 666              		@ args = 0, pretend = 0, frame = 0
 667              		@ frame_needed = 0, uses_anonymous_args = 0
 668              		@ link register save eliminated.
 669 0000 0323     		movs	r3, #3
 670 0002 0200     		movs	r2, r0
 671 0004 8069     		ldr	r0, [r0, #24]
 672 0006 526A     		ldr	r2, [r2, #36]
 673 0008 4343     		muls	r3, r0
 674 000a 1E30     		adds	r0, r0, #30
 675 000c 9342     		cmp	r3, r2
 676 000e 01D8     		bhi	.L80
 677 0010 1E32     		adds	r2, r2, #30
 678 0012 D01A     		subs	r0, r2, r3
 679              	.L80:
 680              		@ sp needed
 681 0014 7047     		bx	lr
 683              		.section	.rodata.alc_sync_create_uplink_payload.str1.1,"aMS",%progbits,1
 684              	.LC23:
 685 0000 6374782D 		.ascii	"ctx->tx_payload buffer is full\012\000"
 685      3E74785F 
 685      7061796C 
 685      6F616420 
 685      62756666 
 686              		.section	.text.alc_sync_create_uplink_payload,"ax",%progbits
 687              		.align	1
 688              		.global	alc_sync_create_uplink_payload
 689              		.syntax unified
 690              		.code	16
 691              		.thumb_func
 692              		.fpu softvfp
ARM GAS  /tmp/ccsazin5.s 			page 13


 694              	alc_sync_create_uplink_payload:
 695              		@ args = 12, pretend = 0, frame = 8
 696              		@ frame_needed = 0, uses_anonymous_args = 0
 697 0000 F7B5     		push	{r0, r1, r2, r4, r5, r6, r7, lr}
 698 0002 0400     		movs	r4, r0
 699 0004 1600     		movs	r6, r2
 700 0006 0122     		movs	r2, #1
 701 0008 0193     		str	r3, [sp, #4]
 702 000a 08AB     		add	r3, sp, #32
 703 000c 0D00     		movs	r5, r1
 704 000e 1878     		ldrb	r0, [r3]
 705 0010 6178     		ldrb	r1, [r4, #1]
 706 0012 2075     		strb	r0, [r4, #20]
 707 0014 1142     		tst	r1, r2
 708 0016 18D0     		beq	.L84
 709 0018 A378     		ldrb	r3, [r4, #2]
 710 001a 0028     		cmp	r0, #0
 711 001c 60D1     		bne	.L85
 712 001e 5D4F     		ldr	r7, .L113
 713 0020 2F21     		movs	r1, #47
 714 0022 3800     		movs	r0, r7
 715 0024 FFF7FEFF 		bl	strrchr
 716 0028 3A00     		movs	r2, r7
 717 002a 0028     		cmp	r0, #0
 718 002c 04D0     		beq	.L86
 719 002e 2F21     		movs	r1, #47
 720 0030 3800     		movs	r0, r7
 721 0032 FFF7FEFF 		bl	strrchr
 722 0036 421C     		adds	r2, r0, #1
 723              	.L86:
 724 0038 A623     		movs	r3, #166
 725 003a 5748     		ldr	r0, .L113+4
 726 003c 5749     		ldr	r1, .L113+8
 727 003e FF33     		adds	r3, r3, #255
 728 0040 FFF7FEFF 		bl	smtc_modem_hal_print_trace
 729 0044 5648     		ldr	r0, .L113+12
 730 0046 FFF7FEFF 		bl	smtc_modem_hal_print_trace
 731              	.L84:
 732 004a 019B     		ldr	r3, [sp, #4]
 733 004c 012B     		cmp	r3, #1
 734 004e 03D1     		bne	.L87
 735 0050 A37C     		ldrb	r3, [r4, #18]
 736 0052 002B     		cmp	r3, #0
 737 0054 1AD0     		beq	.L88
 738 0056 0026     		movs	r6, #0
 739              	.L87:
 740 0058 227D     		ldrb	r2, [r4, #20]
 741 005a A378     		ldrb	r3, [r4, #2]
 742 005c 002A     		cmp	r2, #0
 743 005e 4FD1     		bne	.L89
 744 0060 4C4E     		ldr	r6, .L113
 745 0062 2F21     		movs	r1, #47
 746 0064 3000     		movs	r0, r6
 747 0066 FFF7FEFF 		bl	strrchr
 748 006a 3200     		movs	r2, r6
 749 006c 0028     		cmp	r0, #0
 750 006e 04D0     		beq	.L90
ARM GAS  /tmp/ccsazin5.s 			page 14


 751 0070 2F21     		movs	r1, #47
 752 0072 3000     		movs	r0, r6
 753 0074 FFF7FEFF 		bl	strrchr
 754 0078 421C     		adds	r2, r0, #1
 755              	.L90:
 756 007a C423     		movs	r3, #196
 757 007c 4648     		ldr	r0, .L113+4
 758 007e 4749     		ldr	r1, .L113+8
 759 0080 FF33     		adds	r3, r3, #255
 760 0082 FFF7FEFF 		bl	smtc_modem_hal_print_trace
 761 0086 4648     		ldr	r0, .L113+12
 762 0088 FFF7FEFF 		bl	smtc_modem_hal_print_trace
 763              	.L88:
 764 008c 6278     		ldrb	r2, [r4, #1]
 765 008e 5307     		lsls	r3, r2, #29
 766 0090 19D5     		bpl	.L92
 767 0092 217D     		ldrb	r1, [r4, #20]
 768 0094 A378     		ldrb	r3, [r4, #2]
 769 0096 0029     		cmp	r1, #0
 770 0098 5BD1     		bne	.L93
 771 009a 3E4D     		ldr	r5, .L113
 772 009c 2F31     		adds	r1, r1, #47
 773 009e 2800     		movs	r0, r5
 774 00a0 FFF7FEFF 		bl	strrchr
 775 00a4 2A00     		movs	r2, r5
 776 00a6 0028     		cmp	r0, #0
 777 00a8 04D0     		beq	.L94
 778 00aa 2F21     		movs	r1, #47
 779 00ac 2800     		movs	r0, r5
 780 00ae FFF7FEFF 		bl	strrchr
 781 00b2 421C     		adds	r2, r0, #1
 782              	.L94:
 783 00b4 DE23     		movs	r3, #222
 784 00b6 3848     		ldr	r0, .L113+4
 785 00b8 3849     		ldr	r1, .L113+8
 786 00ba FF33     		adds	r3, r3, #255
 787 00bc FFF7FEFF 		bl	smtc_modem_hal_print_trace
 788 00c0 3748     		ldr	r0, .L113+12
 789 00c2 FFF7FEFF 		bl	smtc_modem_hal_print_trace
 790              	.L92:
 791              		@ sp needed
 792 00c6 A278     		ldrb	r2, [r4, #2]
 793 00c8 0998     		ldr	r0, [sp, #36]
 794 00ca E11C     		adds	r1, r4, #3
 795 00cc FFF7FEFF 		bl	memcpy
 796 00d0 A378     		ldrb	r3, [r4, #2]
 797 00d2 0A9A     		ldr	r2, [sp, #40]
 798 00d4 1370     		strb	r3, [r2]
 799 00d6 0023     		movs	r3, #0
 800 00d8 A370     		strb	r3, [r4, #2]
 801 00da 0F33     		adds	r3, r3, #15
 802 00dc 2375     		strb	r3, [r4, #20]
 803 00de F7BD     		pop	{r0, r1, r2, r4, r5, r6, r7, pc}
 804              	.L85:
 805 00e0 0020     		movs	r0, #0
 806 00e2 9143     		bics	r1, r2
 807 00e4 6170     		strb	r1, [r4, #1]
ARM GAS  /tmp/ccsazin5.s 			page 15


 808 00e6 E118     		adds	r1, r4, r3
 809 00e8 C870     		strb	r0, [r1, #3]
 810 00ea 591C     		adds	r1, r3, #1
 811 00ec C9B2     		uxtb	r1, r1
 812 00ee 6118     		adds	r1, r4, r1
 813 00f0 CA70     		strb	r2, [r1, #3]
 814 00f2 D91C     		adds	r1, r3, #3
 815 00f4 0233     		adds	r3, r3, #2
 816 00f6 DBB2     		uxtb	r3, r3
 817 00f8 E318     		adds	r3, r4, r3
 818 00fa A170     		strb	r1, [r4, #2]
 819 00fc DA70     		strb	r2, [r3, #3]
 820 00fe A4E7     		b	.L84
 821              	.L89:
 822 0100 A27C     		ldrb	r2, [r4, #18]
 823 0102 002A     		cmp	r2, #0
 824 0104 01D0     		beq	.L91
 825 0106 013A     		subs	r2, r2, #1
 826 0108 A274     		strb	r2, [r4, #18]
 827              	.L91:
 828 010a 0121     		movs	r1, #1
 829 010c E218     		adds	r2, r4, r3
 830 010e D170     		strb	r1, [r2, #3]
 831 0110 5A18     		adds	r2, r3, r1
 832 0112 D2B2     		uxtb	r2, r2
 833 0114 A218     		adds	r2, r4, r2
 834 0116 D570     		strb	r5, [r2, #3]
 835 0118 9A1C     		adds	r2, r3, #2
 836 011a D2B2     		uxtb	r2, r2
 837 011c A218     		adds	r2, r4, r2
 838 011e 290A     		lsrs	r1, r5, #8
 839 0120 D170     		strb	r1, [r2, #3]
 840 0122 DA1C     		adds	r2, r3, #3
 841 0124 D2B2     		uxtb	r2, r2
 842 0126 A218     		adds	r2, r4, r2
 843 0128 290C     		lsrs	r1, r5, #16
 844 012a D170     		strb	r1, [r2, #3]
 845 012c 1A1D     		adds	r2, r3, #4
 846 012e D2B2     		uxtb	r2, r2
 847 0130 A218     		adds	r2, r4, r2
 848 0132 290E     		lsrs	r1, r5, #24
 849 0134 D170     		strb	r1, [r2, #3]
 850 0136 1022     		movs	r2, #16
 851 0138 0F21     		movs	r1, #15
 852 013a 3601     		lsls	r6, r6, #4
 853 013c 1640     		ands	r6, r2
 854 013e E27C     		ldrb	r2, [r4, #19]
 855 0140 0A40     		ands	r2, r1
 856 0142 1643     		orrs	r6, r2
 857 0144 9A1D     		adds	r2, r3, #6
 858 0146 0533     		adds	r3, r3, #5
 859 0148 DBB2     		uxtb	r3, r3
 860 014a E318     		adds	r3, r4, r3
 861 014c A270     		strb	r2, [r4, #2]
 862 014e DE70     		strb	r6, [r3, #3]
 863 0150 9CE7     		b	.L88
 864              	.L93:
ARM GAS  /tmp/ccsazin5.s 			page 16


 865 0152 0421     		movs	r1, #4
 866 0154 8A43     		bics	r2, r1
 867 0156 6270     		strb	r2, [r4, #1]
 868 0158 0239     		subs	r1, r1, #2
 869 015a E218     		adds	r2, r4, r3
 870 015c D170     		strb	r1, [r2, #3]
 871 015e 0021     		movs	r1, #0
 872 0160 5A1C     		adds	r2, r3, #1
 873 0162 D2B2     		uxtb	r2, r2
 874 0164 A218     		adds	r2, r4, r2
 875 0166 D170     		strb	r1, [r2, #3]
 876 0168 9A1C     		adds	r2, r3, #2
 877 016a D2B2     		uxtb	r2, r2
 878 016c A218     		adds	r2, r4, r2
 879 016e D570     		strb	r5, [r2, #3]
 880 0170 DA1C     		adds	r2, r3, #3
 881 0172 D2B2     		uxtb	r2, r2
 882 0174 290A     		lsrs	r1, r5, #8
 883 0176 A218     		adds	r2, r4, r2
 884 0178 D170     		strb	r1, [r2, #3]
 885 017a 1A1D     		adds	r2, r3, #4
 886 017c D2B2     		uxtb	r2, r2
 887 017e A218     		adds	r2, r4, r2
 888 0180 290C     		lsrs	r1, r5, #16
 889 0182 D170     		strb	r1, [r2, #3]
 890 0184 9A1D     		adds	r2, r3, #6
 891 0186 0533     		adds	r3, r3, #5
 892 0188 DBB2     		uxtb	r3, r3
 893 018a E318     		adds	r3, r4, r3
 894 018c 2D0E     		lsrs	r5, r5, #24
 895 018e A270     		strb	r2, [r4, #2]
 896 0190 DD70     		strb	r5, [r3, #3]
 897 0192 98E7     		b	.L92
 898              	.L114:
 899              		.align	2
 900              	.L113:
 901 0194 00000000 		.word	.LC0
 902 0198 45000000 		.word	.LC4
 903 019c AD000000 		.word	.LC12
 904 01a0 00000000 		.word	.LC23
 906              		.section	.rodata.__func__.0,"a"
 907              		.set	.LANCHOR1,. + 0
 910              	__func__.0:
 911 0000 616C635F 		.ascii	"alc_sync_parser\000"
 911      73796E63 
 911      5F706172 
 911      73657200 
 912              		.section	.rodata.alc_sync_bad_size_str,"a"
 913              		.align	2
 914              		.set	.LANCHOR0,. + 0
 917              	alc_sync_bad_size_str:
 918 0000 414C4320 		.ascii	"ALC Sync payload bad size\000"
 918      53796E63 
 918      20706179 
 918      6C6F6164 
 918      20626164 
 919              		.ident	"GCC: (15:10.3-2021.07-4) 10.3.1 20210621 (release)"
ARM GAS  /tmp/ccsazin5.s 			page 17


ARM GAS  /tmp/ccsazin5.s 			page 18

