ARM GAS  /tmp/ccSk0DF5.s 			page 1


   1              		.cpu cortex-m0
   2              		.eabi_attribute 23, 1
   3              		.eabi_attribute 24, 1
   4              		.eabi_attribute 25, 1
   5              		.eabi_attribute 26, 1
   6              		.eabi_attribute 30, 4
   7              		.eabi_attribute 34, 0
   8              		.eabi_attribute 18, 4
   9              		.file	"lorawan_api.c"
  10              		.text
  11              		.section	.rodata.lorawan_api_class_b_downlink_callback.str1.1,"aMS",%progbits,1
  12              	.LC2:
  13 0000 1B5B303B 		.ascii	"\033[0;31mERROR: crash log :%s\012\000"
  13      33316D45 
  13      52524F52 
  13      3A206372 
  13      61736820 
  14              	.LC4:
  15 001d 1B5B306D 		.ascii	"\033[0m\000"
  15      00
  16              	.LC6:
  17 0022 1B5B303B 		.ascii	"\033[0;31mERROR: -> Fifo problem\012\000"
  17      33316D45 
  17      52524F52 
  17      3A202D3E 
  17      20466966 
  18              		.section	.text.lorawan_api_class_b_downlink_callback,"ax",%progbits
  19              		.align	1
  20              		.arch armv6s-m
  21              		.syntax unified
  22              		.code	16
  23              		.thumb_func
  24              		.fpu softvfp
  26              	lorawan_api_class_b_downlink_callback:
  27              		@ args = 0, pretend = 0, frame = 0
  28              		@ frame_needed = 0, uses_anonymous_args = 0
  29 0000 9223     		movs	r3, #146
  30 0002 73B5     		push	{r0, r1, r4, r5, r6, lr}
  31 0004 FF33     		adds	r3, r3, #255
  32 0006 C35C     		ldrb	r3, [r0, r3]
  33 0008 0500     		movs	r5, r0
  34 000a 0600     		movs	r6, r0
  35 000c 5A1E     		subs	r2, r3, #1
  36 000e 9341     		sbcs	r3, r3, r2
  37 0010 4030     		adds	r0, r0, #64
  38 0012 4135     		adds	r5, r5, #65
  39 0014 2C36     		adds	r6, r6, #44
  40 0016 0400     		movs	r4, r0
  41 0018 0178     		ldrb	r1, [r0]
  42 001a 3200     		movs	r2, r6
  43 001c 2800     		movs	r0, r5
  44 001e DBB2     		uxtb	r3, r3
  45 0020 FFF7FEFF 		bl	modem_supervisor_update_downlink_frame
  46 0024 0028     		cmp	r0, #0
  47 0026 21D0     		beq	.L1
  48 0028 1423     		movs	r3, #20
  49 002a 2278     		ldrb	r2, [r4]
ARM GAS  /tmp/ccSk0DF5.s 			page 2


  50 002c 124C     		ldr	r4, .L7
  51 002e 0093     		str	r3, [sp]
  52 0030 2900     		movs	r1, r5
  53 0032 3300     		movs	r3, r6
  54 0034 2000     		movs	r0, r4
  55 0036 FFF7FEFF 		bl	fifo_ctrl_set
  56 003a 0028     		cmp	r0, #0
  57 003c 17D0     		beq	.L3
  58 003e 0F4C     		ldr	r4, .L7+4
  59 0040 2000     		movs	r0, r4
  60 0042 FFF7FEFF 		bl	smtc_modem_hal_store_crashlog
  61 0046 0120     		movs	r0, #1
  62 0048 FFF7FEFF 		bl	smtc_modem_hal_set_crashlog_status
  63 004c 2100     		movs	r1, r4
  64 004e 0C48     		ldr	r0, .L7+8
  65 0050 FFF7FEFF 		bl	smtc_modem_hal_print_trace
  66 0054 0B4C     		ldr	r4, .L7+12
  67 0056 2000     		movs	r0, r4
  68 0058 FFF7FEFF 		bl	smtc_modem_hal_print_trace
  69 005c 0A48     		ldr	r0, .L7+16
  70 005e FFF7FEFF 		bl	smtc_modem_hal_print_trace
  71 0062 2000     		movs	r0, r4
  72 0064 FFF7FEFF 		bl	smtc_modem_hal_print_trace
  73 0068 FFF7FEFF 		bl	smtc_modem_hal_reset_mcu
  74              	.L1:
  75              		@ sp needed
  76 006c 73BD     		pop	{r0, r1, r4, r5, r6, pc}
  77              	.L3:
  78 006e 2000     		movs	r0, r4
  79 0070 FFF7FEFF 		bl	fifo_ctrl_print_stat
  80 0074 FAE7     		b	.L1
  81              	.L8:
  82 0076 C046     		.align	2
  83              	.L7:
  84 0078 6C0A0000 		.word	lr1mac_core_context+2668
  85 007c 00000000 		.word	.LANCHOR0
  86 0080 00000000 		.word	.LC2
  87 0084 1D000000 		.word	.LC4
  88 0088 22000000 		.word	.LC6
  90              		.section	.text.lorawan_api_class_c_downlink_callback,"ax",%progbits
  91              		.align	1
  92              		.syntax unified
  93              		.code	16
  94              		.thumb_func
  95              		.fpu softvfp
  97              	lorawan_api_class_c_downlink_callback:
  98              		@ args = 0, pretend = 0, frame = 0
  99              		@ frame_needed = 0, uses_anonymous_args = 0
 100 0000 7E23     		movs	r3, #126
 101 0002 73B5     		push	{r0, r1, r4, r5, r6, lr}
 102 0004 FF33     		adds	r3, r3, #255
 103 0006 C35C     		ldrb	r3, [r0, r3]
 104 0008 0500     		movs	r5, r0
 105 000a 0600     		movs	r6, r0
 106 000c 5A1E     		subs	r2, r3, #1
 107 000e 9341     		sbcs	r3, r3, r2
 108 0010 3830     		adds	r0, r0, #56
ARM GAS  /tmp/ccSk0DF5.s 			page 3


 109 0012 3935     		adds	r5, r5, #57
 110 0014 2436     		adds	r6, r6, #36
 111 0016 0400     		movs	r4, r0
 112 0018 0178     		ldrb	r1, [r0]
 113 001a 3200     		movs	r2, r6
 114 001c 2800     		movs	r0, r5
 115 001e DBB2     		uxtb	r3, r3
 116 0020 FFF7FEFF 		bl	modem_supervisor_update_downlink_frame
 117 0024 0028     		cmp	r0, #0
 118 0026 21D0     		beq	.L9
 119 0028 1423     		movs	r3, #20
 120 002a 2278     		ldrb	r2, [r4]
 121 002c 124C     		ldr	r4, .L15
 122 002e 0093     		str	r3, [sp]
 123 0030 2900     		movs	r1, r5
 124 0032 3300     		movs	r3, r6
 125 0034 2000     		movs	r0, r4
 126 0036 FFF7FEFF 		bl	fifo_ctrl_set
 127 003a 0028     		cmp	r0, #0
 128 003c 17D0     		beq	.L11
 129 003e 0F4C     		ldr	r4, .L15+4
 130 0040 2000     		movs	r0, r4
 131 0042 FFF7FEFF 		bl	smtc_modem_hal_store_crashlog
 132 0046 0120     		movs	r0, #1
 133 0048 FFF7FEFF 		bl	smtc_modem_hal_set_crashlog_status
 134 004c 2100     		movs	r1, r4
 135 004e 0C48     		ldr	r0, .L15+8
 136 0050 FFF7FEFF 		bl	smtc_modem_hal_print_trace
 137 0054 0B4C     		ldr	r4, .L15+12
 138 0056 2000     		movs	r0, r4
 139 0058 FFF7FEFF 		bl	smtc_modem_hal_print_trace
 140 005c 0A48     		ldr	r0, .L15+16
 141 005e FFF7FEFF 		bl	smtc_modem_hal_print_trace
 142 0062 2000     		movs	r0, r4
 143 0064 FFF7FEFF 		bl	smtc_modem_hal_print_trace
 144 0068 FFF7FEFF 		bl	smtc_modem_hal_reset_mcu
 145              	.L9:
 146              		@ sp needed
 147 006c 73BD     		pop	{r0, r1, r4, r5, r6, pc}
 148              	.L11:
 149 006e 2000     		movs	r0, r4
 150 0070 FFF7FEFF 		bl	fifo_ctrl_print_stat
 151 0074 FAE7     		b	.L9
 152              	.L16:
 153 0076 C046     		.align	2
 154              	.L15:
 155 0078 6C0A0000 		.word	lr1mac_core_context+2668
 156 007c 00000000 		.word	.LANCHOR1
 157 0080 00000000 		.word	.LC2
 158 0084 1D000000 		.word	.LC4
 159 0088 22000000 		.word	.LC6
 161              		.section	.rodata.lorawan_api_class_a_downlink_callback.str1.1,"aMS",%progbits,1
 162              	.LC14:
 163 0000 4669666F 		.ascii	"Fifo problem\012\000"
 163      2070726F 
 163      626C656D 
 163      0A00
ARM GAS  /tmp/ccSk0DF5.s 			page 4


 164              		.section	.text.lorawan_api_class_a_downlink_callback,"ax",%progbits
 165              		.align	1
 166              		.syntax unified
 167              		.code	16
 168              		.thumb_func
 169              		.fpu softvfp
 171              	lorawan_api_class_a_downlink_callback:
 172              		@ args = 0, pretend = 0, frame = 0
 173              		@ frame_needed = 0, uses_anonymous_args = 0
 174 0000 8423     		movs	r3, #132
 175 0002 9B00     		lsls	r3, r3, #2
 176 0004 F7B5     		push	{r0, r1, r2, r4, r5, r6, r7, lr}
 177 0006 C518     		adds	r5, r0, r3
 178 0008 9A23     		movs	r3, #154
 179 000a 0F4F     		ldr	r7, .L23
 180 000c DB00     		lsls	r3, r3, #3
 181 000e C618     		adds	r6, r0, r3
 182 0010 0400     		movs	r4, r0
 183 0012 C15D     		ldrb	r1, [r0, r7]
 184 0014 0023     		movs	r3, #0
 185 0016 3200     		movs	r2, r6
 186 0018 2800     		movs	r0, r5
 187 001a FFF7FEFF 		bl	modem_supervisor_update_downlink_frame
 188 001e 0028     		cmp	r0, #0
 189 0020 0DD0     		beq	.L17
 190 0022 1423     		movs	r3, #20
 191 0024 E25D     		ldrb	r2, [r4, r7]
 192 0026 094C     		ldr	r4, .L23+4
 193 0028 0093     		str	r3, [sp]
 194 002a 2900     		movs	r1, r5
 195 002c 3300     		movs	r3, r6
 196 002e 2000     		movs	r0, r4
 197 0030 FFF7FEFF 		bl	fifo_ctrl_set
 198 0034 0028     		cmp	r0, #0
 199 0036 03D0     		beq	.L19
 200 0038 0548     		ldr	r0, .L23+8
 201 003a FFF7FEFF 		bl	smtc_modem_hal_print_trace
 202              	.L17:
 203              		@ sp needed
 204 003e F7BD     		pop	{r0, r1, r2, r4, r5, r6, r7, pc}
 205              	.L19:
 206 0040 2000     		movs	r0, r4
 207 0042 FFF7FEFF 		bl	fifo_ctrl_print_stat
 208 0046 FAE7     		b	.L17
 209              	.L24:
 210              		.align	2
 211              	.L23:
 212 0048 0F020000 		.word	527
 213 004c 6C0A0000 		.word	lr1mac_core_context+2668
 214 0050 00000000 		.word	.LC14
 216              		.section	.text.lorawan_api_class_b_beacon_callback,"ax",%progbits
 217              		.align	1
 218              		.syntax unified
 219              		.code	16
 220              		.thumb_func
 221              		.fpu softvfp
 223              	lorawan_api_class_b_beacon_callback:
ARM GAS  /tmp/ccSk0DF5.s 			page 5


 224              		@ args = 0, pretend = 0, frame = 0
 225              		@ frame_needed = 0, uses_anonymous_args = 0
 226 0000 73B5     		push	{r0, r1, r4, r5, r6, lr}
 227 0002 0500     		movs	r5, r0
 228 0004 0600     		movs	r6, r0
 229 0006 1035     		adds	r5, r5, #16
 230 0008 2930     		adds	r0, r0, #41
 231 000a 7036     		adds	r6, r6, #112
 232 000c 0400     		movs	r4, r0
 233 000e 0178     		ldrb	r1, [r0]
 234 0010 0023     		movs	r3, #0
 235 0012 3200     		movs	r2, r6
 236 0014 2800     		movs	r0, r5
 237 0016 FFF7FEFF 		bl	modem_supervisor_update_downlink_frame
 238 001a 0028     		cmp	r0, #0
 239 001c 21D0     		beq	.L25
 240 001e 1423     		movs	r3, #20
 241 0020 2278     		ldrb	r2, [r4]
 242 0022 124C     		ldr	r4, .L31
 243 0024 0093     		str	r3, [sp]
 244 0026 2900     		movs	r1, r5
 245 0028 3300     		movs	r3, r6
 246 002a 2000     		movs	r0, r4
 247 002c FFF7FEFF 		bl	fifo_ctrl_set
 248 0030 0028     		cmp	r0, #0
 249 0032 17D0     		beq	.L27
 250 0034 0E4C     		ldr	r4, .L31+4
 251 0036 2000     		movs	r0, r4
 252 0038 FFF7FEFF 		bl	smtc_modem_hal_store_crashlog
 253 003c 0120     		movs	r0, #1
 254 003e FFF7FEFF 		bl	smtc_modem_hal_set_crashlog_status
 255 0042 2100     		movs	r1, r4
 256 0044 0B48     		ldr	r0, .L31+8
 257 0046 FFF7FEFF 		bl	smtc_modem_hal_print_trace
 258 004a 0B4C     		ldr	r4, .L31+12
 259 004c 2000     		movs	r0, r4
 260 004e FFF7FEFF 		bl	smtc_modem_hal_print_trace
 261 0052 0A48     		ldr	r0, .L31+16
 262 0054 FFF7FEFF 		bl	smtc_modem_hal_print_trace
 263 0058 2000     		movs	r0, r4
 264 005a FFF7FEFF 		bl	smtc_modem_hal_print_trace
 265 005e FFF7FEFF 		bl	smtc_modem_hal_reset_mcu
 266              	.L25:
 267              		@ sp needed
 268 0062 73BD     		pop	{r0, r1, r4, r5, r6, pc}
 269              	.L27:
 270 0064 2000     		movs	r0, r4
 271 0066 FFF7FEFF 		bl	fifo_ctrl_print_stat
 272 006a FAE7     		b	.L25
 273              	.L32:
 274              		.align	2
 275              	.L31:
 276 006c 6C0A0000 		.word	lr1mac_core_context+2668
 277 0070 00000000 		.word	.LANCHOR2
 278 0074 00000000 		.word	.LC2
 279 0078 1D000000 		.word	.LC4
 280 007c 22000000 		.word	.LC6
ARM GAS  /tmp/ccSk0DF5.s 			page 6


 282              		.section	.text.lorawan_api_init,"ax",%progbits
 283              		.align	1
 284              		.global	lorawan_api_init
 285              		.syntax unified
 286              		.code	16
 287              		.thumb_func
 288              		.fpu softvfp
 290              	lorawan_api_init:
 291              		@ args = 0, pretend = 0, frame = 0
 292              		@ frame_needed = 0, uses_anonymous_args = 0
 293 0000 F0B5     		push	{r4, r5, r6, r7, lr}
 294 0002 244B     		ldr	r3, .L34
 295 0004 87B0     		sub	sp, sp, #28
 296 0006 0393     		str	r3, [sp, #12]
 297 0008 0123     		movs	r3, #1
 298 000a 0293     		str	r3, [sp, #8]
 299 000c 0023     		movs	r3, #0
 300 000e 224D     		ldr	r5, .L34+4
 301 0010 0400     		movs	r4, r0
 302 0012 0193     		str	r3, [sp, #4]
 303 0014 0090     		str	r0, [sp]
 304 0016 214B     		ldr	r3, .L34+8
 305 0018 2800     		movs	r0, r5
 306 001a 214A     		ldr	r2, .L34+12
 307 001c 2149     		ldr	r1, .L34+16
 308 001e 0495     		str	r5, [sp, #16]
 309 0020 FFF7FEFF 		bl	lr1mac_core_init
 310 0024 8022     		movs	r2, #128
 311 0026 2049     		ldr	r1, .L34+20
 312 0028 9200     		lsls	r2, r2, #2
 313 002a 2048     		ldr	r0, .L34+24
 314 002c FFF7FEFF 		bl	fifo_ctrl_init
 315 0030 1F4F     		ldr	r7, .L34+28
 316 0032 3800     		movs	r0, r7
 317 0034 FFF7FEFF 		bl	smtc_multicast_init
 318 0038 1E4B     		ldr	r3, .L34+32
 319 003a 1F48     		ldr	r0, .L34+36
 320 003c 0393     		str	r3, [sp, #12]
 321 003e 1F4B     		ldr	r3, .L34+40
 322 0040 3A00     		movs	r2, r7
 323 0042 0193     		str	r3, [sp, #4]
 324 0044 0A23     		movs	r3, #10
 325 0046 2900     		movs	r1, r5
 326 0048 0490     		str	r0, [sp, #16]
 327 004a 0290     		str	r0, [sp, #8]
 328 004c 0093     		str	r3, [sp]
 329 004e 2300     		movs	r3, r4
 330 0050 FFF7FEFF 		bl	lr1mac_class_c_init
 331 0054 1A4B     		ldr	r3, .L34+44
 332 0056 1B4E     		ldr	r6, .L34+48
 333 0058 0393     		str	r3, [sp, #12]
 334 005a 1B4B     		ldr	r3, .L34+52
 335 005c 3A00     		movs	r2, r7
 336 005e 0193     		str	r3, [sp, #4]
 337 0060 0723     		movs	r3, #7
 338 0062 2900     		movs	r1, r5
 339 0064 3000     		movs	r0, r6
ARM GAS  /tmp/ccSk0DF5.s 			page 7


 340 0066 0093     		str	r3, [sp]
 341 0068 0496     		str	r6, [sp, #16]
 342 006a 2300     		movs	r3, r4
 343 006c 0296     		str	r6, [sp, #8]
 344 006e FFF7FEFF 		bl	smtc_ping_slot_init
 345 0072 164B     		ldr	r3, .L34+56
 346 0074 1648     		ldr	r0, .L34+60
 347 0076 0193     		str	r3, [sp, #4]
 348 0078 0623     		movs	r3, #6
 349 007a 2A00     		movs	r2, r5
 350 007c 3100     		movs	r1, r6
 351 007e 0290     		str	r0, [sp, #8]
 352 0080 0093     		str	r3, [sp]
 353 0082 2300     		movs	r3, r4
 354 0084 FFF7FEFF 		bl	smtc_beacon_sniff_init
 355 0088 1248     		ldr	r0, .L34+64
 356 008a FFF7FEFF 		bl	lorawan_certification_init
 357 008e 07B0     		add	sp, sp, #28
 358              		@ sp needed
 359 0090 F0BD     		pop	{r4, r5, r6, r7, pc}
 360              	.L35:
 361 0092 C046     		.align	2
 362              	.L34:
 363 0094 00000000 		.word	lorawan_api_class_a_downlink_callback
 364 0098 00000000 		.word	lr1mac_core_context
 365 009c F4060000 		.word	lr1mac_core_context+1780
 366 00a0 B4060000 		.word	lr1mac_core_context+1716
 367 00a4 54050000 		.word	lr1mac_core_context+1364
 368 00a8 00000000 		.word	fifo_buffer
 369 00ac 6C0A0000 		.word	lr1mac_core_context+2668
 370 00b0 C40C0000 		.word	lr1mac_core_context+3268
 371 00b4 00000000 		.word	lorawan_api_class_c_downlink_callback
 372 00b8 D8080000 		.word	lr1mac_core_context+2264
 373 00bc 00000000 		.word	lr1mac_class_c_mac_rp_callback
 374 00c0 00000000 		.word	lorawan_api_class_b_downlink_callback
 375 00c4 0C0B0000 		.word	lr1mac_core_context+2828
 376 00c8 00000000 		.word	smtc_ping_slot_mac_rp_callback
 377 00cc 00000000 		.word	lorawan_api_class_b_beacon_callback
 378 00d0 880A0000 		.word	lr1mac_core_context+2696
 379 00d4 740D0000 		.word	lr1mac_core_context+3444
 381              		.section	.text.lorawan_api_get_region,"ax",%progbits
 382              		.align	1
 383              		.global	lorawan_api_get_region
 384              		.syntax unified
 385              		.code	16
 386              		.thumb_func
 387              		.fpu softvfp
 389              	lorawan_api_get_region:
 390              		@ args = 0, pretend = 0, frame = 0
 391              		@ frame_needed = 0, uses_anonymous_args = 0
 392 0000 10B5     		push	{r4, lr}
 393 0002 0248     		ldr	r0, .L37
 394 0004 FFF7FEFF 		bl	lr1mac_core_get_region
 395              		@ sp needed
 396 0008 10BD     		pop	{r4, pc}
 397              	.L38:
 398 000a C046     		.align	2
ARM GAS  /tmp/ccSk0DF5.s 			page 8


 399              	.L37:
 400 000c 00000000 		.word	lr1mac_core_context
 402              		.section	.text.lorawan_api_set_region,"ax",%progbits
 403              		.align	1
 404              		.global	lorawan_api_set_region
 405              		.syntax unified
 406              		.code	16
 407              		.thumb_func
 408              		.fpu softvfp
 410              	lorawan_api_set_region:
 411              		@ args = 0, pretend = 0, frame = 0
 412              		@ frame_needed = 0, uses_anonymous_args = 0
 413 0000 10B5     		push	{r4, lr}
 414 0002 0100     		movs	r1, r0
 415              		@ sp needed
 416 0004 0148     		ldr	r0, .L40
 417 0006 FFF7FEFF 		bl	lr1mac_core_set_region
 418 000a 10BD     		pop	{r4, pc}
 419              	.L41:
 420              		.align	2
 421              	.L40:
 422 000c 00000000 		.word	lr1mac_core_context
 424              		.section	.text.lorawan_api_payload_send,"ax",%progbits
 425              		.align	1
 426              		.global	lorawan_api_payload_send
 427              		.syntax unified
 428              		.code	16
 429              		.thumb_func
 430              		.fpu softvfp
 432              	lorawan_api_payload_send:
 433              		@ args = 8, pretend = 0, frame = 0
 434              		@ frame_needed = 0, uses_anonymous_args = 0
 435 0000 30B5     		push	{r4, r5, lr}
 436 0002 85B0     		sub	sp, sp, #20
 437 0004 08AC     		add	r4, sp, #32
 438 0006 2478     		ldrb	r4, [r4]
 439 0008 099D     		ldr	r5, [sp, #36]
 440 000a 0093     		str	r3, [sp]
 441 000c 0295     		str	r5, [sp, #8]
 442 000e 1300     		movs	r3, r2
 443 0010 0194     		str	r4, [sp, #4]
 444 0012 0A00     		movs	r2, r1
 445 0014 0100     		movs	r1, r0
 446 0016 0248     		ldr	r0, .L43
 447 0018 FFF7FEFF 		bl	lr1mac_core_payload_send
 448 001c 05B0     		add	sp, sp, #20
 449              		@ sp needed
 450 001e 30BD     		pop	{r4, r5, pc}
 451              	.L44:
 452              		.align	2
 453              	.L43:
 454 0020 00000000 		.word	lr1mac_core_context
 456              		.section	.text.lorawan_api_payload_send_at_time,"ax",%progbits
 457              		.align	1
 458              		.global	lorawan_api_payload_send_at_time
 459              		.syntax unified
 460              		.code	16
ARM GAS  /tmp/ccSk0DF5.s 			page 9


 461              		.thumb_func
 462              		.fpu softvfp
 464              	lorawan_api_payload_send_at_time:
 465              		@ args = 8, pretend = 0, frame = 0
 466              		@ frame_needed = 0, uses_anonymous_args = 0
 467 0000 30B5     		push	{r4, r5, lr}
 468 0002 85B0     		sub	sp, sp, #20
 469 0004 08AC     		add	r4, sp, #32
 470 0006 2478     		ldrb	r4, [r4]
 471 0008 099D     		ldr	r5, [sp, #36]
 472 000a 0093     		str	r3, [sp]
 473 000c 0295     		str	r5, [sp, #8]
 474 000e 1300     		movs	r3, r2
 475 0010 0194     		str	r4, [sp, #4]
 476 0012 0A00     		movs	r2, r1
 477 0014 0100     		movs	r1, r0
 478 0016 0248     		ldr	r0, .L46
 479 0018 FFF7FEFF 		bl	lr1mac_core_payload_send_at_time
 480 001c 05B0     		add	sp, sp, #20
 481              		@ sp needed
 482 001e 30BD     		pop	{r4, r5, pc}
 483              	.L47:
 484              		.align	2
 485              	.L46:
 486 0020 00000000 		.word	lr1mac_core_context
 488              		.section	.text.lorawan_api_send_stack_cid_req,"ax",%progbits
 489              		.align	1
 490              		.global	lorawan_api_send_stack_cid_req
 491              		.syntax unified
 492              		.code	16
 493              		.thumb_func
 494              		.fpu softvfp
 496              	lorawan_api_send_stack_cid_req:
 497              		@ args = 0, pretend = 0, frame = 0
 498              		@ frame_needed = 0, uses_anonymous_args = 0
 499 0000 10B5     		push	{r4, lr}
 500 0002 0100     		movs	r1, r0
 501              		@ sp needed
 502 0004 0148     		ldr	r0, .L49
 503 0006 FFF7FEFF 		bl	lr1mac_core_send_stack_cid_req
 504 000a 10BD     		pop	{r4, pc}
 505              	.L50:
 506              		.align	2
 507              	.L49:
 508 000c 00000000 		.word	lr1mac_core_context
 510              		.section	.text.lorawan_api_join,"ax",%progbits
 511              		.align	1
 512              		.global	lorawan_api_join
 513              		.syntax unified
 514              		.code	16
 515              		.thumb_func
 516              		.fpu softvfp
 518              	lorawan_api_join:
 519              		@ args = 0, pretend = 0, frame = 0
 520              		@ frame_needed = 0, uses_anonymous_args = 0
 521 0000 10B5     		push	{r4, lr}
 522 0002 0100     		movs	r1, r0
ARM GAS  /tmp/ccSk0DF5.s 			page 10


 523              		@ sp needed
 524 0004 0148     		ldr	r0, .L52
 525 0006 FFF7FEFF 		bl	lr1mac_core_join
 526 000a 10BD     		pop	{r4, pc}
 527              	.L53:
 528              		.align	2
 529              	.L52:
 530 000c 00000000 		.word	lr1mac_core_context
 532              		.section	.text.lorawan_api_isjoined,"ax",%progbits
 533              		.align	1
 534              		.global	lorawan_api_isjoined
 535              		.syntax unified
 536              		.code	16
 537              		.thumb_func
 538              		.fpu softvfp
 540              	lorawan_api_isjoined:
 541              		@ args = 0, pretend = 0, frame = 0
 542              		@ frame_needed = 0, uses_anonymous_args = 0
 543 0000 10B5     		push	{r4, lr}
 544 0002 0248     		ldr	r0, .L55
 545 0004 FFF7FEFF 		bl	lr1_mac_joined_status_get
 546              		@ sp needed
 547 0008 10BD     		pop	{r4, pc}
 548              	.L56:
 549 000a C046     		.align	2
 550              	.L55:
 551 000c 00000000 		.word	lr1mac_core_context
 553              		.section	.text.lorawan_api_join_status_clear,"ax",%progbits
 554              		.align	1
 555              		.global	lorawan_api_join_status_clear
 556              		.syntax unified
 557              		.code	16
 558              		.thumb_func
 559              		.fpu softvfp
 561              	lorawan_api_join_status_clear:
 562              		@ args = 0, pretend = 0, frame = 0
 563              		@ frame_needed = 0, uses_anonymous_args = 0
 564 0000 10B5     		push	{r4, lr}
 565 0002 0248     		ldr	r0, .L58
 566 0004 FFF7FEFF 		bl	lr1mac_core_join_status_clear
 567              		@ sp needed
 568 0008 10BD     		pop	{r4, pc}
 569              	.L59:
 570 000a C046     		.align	2
 571              	.L58:
 572 000c 00000000 		.word	lr1mac_core_context
 574              		.section	.text.lorawan_api_dr_strategy_set,"ax",%progbits
 575              		.align	1
 576              		.global	lorawan_api_dr_strategy_set
 577              		.syntax unified
 578              		.code	16
 579              		.thumb_func
 580              		.fpu softvfp
 582              	lorawan_api_dr_strategy_set:
 583              		@ args = 0, pretend = 0, frame = 0
 584              		@ frame_needed = 0, uses_anonymous_args = 0
 585 0000 10B5     		push	{r4, lr}
ARM GAS  /tmp/ccSk0DF5.s 			page 11


 586 0002 0100     		movs	r1, r0
 587              		@ sp needed
 588 0004 0148     		ldr	r0, .L61
 589 0006 FFF7FEFF 		bl	lr1mac_core_dr_strategy_set
 590 000a 10BD     		pop	{r4, pc}
 591              	.L62:
 592              		.align	2
 593              	.L61:
 594 000c 00000000 		.word	lr1mac_core_context
 596              		.section	.text.lorawan_api_dr_strategy_get,"ax",%progbits
 597              		.align	1
 598              		.global	lorawan_api_dr_strategy_get
 599              		.syntax unified
 600              		.code	16
 601              		.thumb_func
 602              		.fpu softvfp
 604              	lorawan_api_dr_strategy_get:
 605              		@ args = 0, pretend = 0, frame = 0
 606              		@ frame_needed = 0, uses_anonymous_args = 0
 607 0000 10B5     		push	{r4, lr}
 608 0002 0248     		ldr	r0, .L64
 609 0004 FFF7FEFF 		bl	lr1mac_core_dr_strategy_get
 610              		@ sp needed
 611 0008 10BD     		pop	{r4, pc}
 612              	.L65:
 613 000a C046     		.align	2
 614              	.L64:
 615 000c 00000000 		.word	lr1mac_core_context
 617              		.section	.text.lorawan_api_dr_custom_set,"ax",%progbits
 618              		.align	1
 619              		.global	lorawan_api_dr_custom_set
 620              		.syntax unified
 621              		.code	16
 622              		.thumb_func
 623              		.fpu softvfp
 625              	lorawan_api_dr_custom_set:
 626              		@ args = 0, pretend = 0, frame = 0
 627              		@ frame_needed = 0, uses_anonymous_args = 0
 628 0000 10B5     		push	{r4, lr}
 629 0002 0100     		movs	r1, r0
 630              		@ sp needed
 631 0004 0148     		ldr	r0, .L67
 632 0006 FFF7FEFF 		bl	lr1mac_core_dr_custom_set
 633 000a 10BD     		pop	{r4, pc}
 634              	.L68:
 635              		.align	2
 636              	.L67:
 637 000c 00000000 		.word	lr1mac_core_context
 639              		.section	.text.lorawan_api_process,"ax",%progbits
 640              		.align	1
 641              		.global	lorawan_api_process
 642              		.syntax unified
 643              		.code	16
 644              		.thumb_func
 645              		.fpu softvfp
 647              	lorawan_api_process:
 648              		@ args = 0, pretend = 0, frame = 0
ARM GAS  /tmp/ccSk0DF5.s 			page 12


 649              		@ frame_needed = 0, uses_anonymous_args = 0
 650 0000 10B5     		push	{r4, lr}
 651 0002 0248     		ldr	r0, .L70
 652 0004 FFF7FEFF 		bl	lr1mac_core_process
 653              		@ sp needed
 654 0008 10BD     		pop	{r4, pc}
 655              	.L71:
 656 000a C046     		.align	2
 657              	.L70:
 658 000c 00000000 		.word	lr1mac_core_context
 660              		.section	.text.lorawan_api_context_load,"ax",%progbits
 661              		.align	1
 662              		.global	lorawan_api_context_load
 663              		.syntax unified
 664              		.code	16
 665              		.thumb_func
 666              		.fpu softvfp
 668              	lorawan_api_context_load:
 669              		@ args = 0, pretend = 0, frame = 0
 670              		@ frame_needed = 0, uses_anonymous_args = 0
 671 0000 10B5     		push	{r4, lr}
 672 0002 0248     		ldr	r0, .L73
 673 0004 FFF7FEFF 		bl	lr1mac_core_context_load
 674              		@ sp needed
 675 0008 10BD     		pop	{r4, pc}
 676              	.L74:
 677 000a C046     		.align	2
 678              	.L73:
 679 000c 00000000 		.word	lr1mac_core_context
 681              		.section	.text.lorawan_api_context_save,"ax",%progbits
 682              		.align	1
 683              		.global	lorawan_api_context_save
 684              		.syntax unified
 685              		.code	16
 686              		.thumb_func
 687              		.fpu softvfp
 689              	lorawan_api_context_save:
 690              		@ args = 0, pretend = 0, frame = 0
 691              		@ frame_needed = 0, uses_anonymous_args = 0
 692 0000 10B5     		push	{r4, lr}
 693 0002 0248     		ldr	r0, .L76
 694 0004 FFF7FEFF 		bl	lr1mac_core_context_save
 695              		@ sp needed
 696 0008 10BD     		pop	{r4, pc}
 697              	.L77:
 698 000a C046     		.align	2
 699              	.L76:
 700 000c 00000000 		.word	lr1mac_core_context
 702              		.section	.text.lorawan_api_last_snr_get,"ax",%progbits
 703              		.align	1
 704              		.global	lorawan_api_last_snr_get
 705              		.syntax unified
 706              		.code	16
 707              		.thumb_func
 708              		.fpu softvfp
 710              	lorawan_api_last_snr_get:
 711              		@ args = 0, pretend = 0, frame = 0
ARM GAS  /tmp/ccSk0DF5.s 			page 13


 712              		@ frame_needed = 0, uses_anonymous_args = 0
 713 0000 10B5     		push	{r4, lr}
 714 0002 0248     		ldr	r0, .L79
 715 0004 FFF7FEFF 		bl	lr1mac_core_last_snr_get
 716              		@ sp needed
 717 0008 10BD     		pop	{r4, pc}
 718              	.L80:
 719 000a C046     		.align	2
 720              	.L79:
 721 000c 00000000 		.word	lr1mac_core_context
 723              		.section	.text.lorawan_api_last_rssi_get,"ax",%progbits
 724              		.align	1
 725              		.global	lorawan_api_last_rssi_get
 726              		.syntax unified
 727              		.code	16
 728              		.thumb_func
 729              		.fpu softvfp
 731              	lorawan_api_last_rssi_get:
 732              		@ args = 0, pretend = 0, frame = 0
 733              		@ frame_needed = 0, uses_anonymous_args = 0
 734 0000 10B5     		push	{r4, lr}
 735 0002 0248     		ldr	r0, .L82
 736 0004 FFF7FEFF 		bl	lr1mac_core_last_rssi_get
 737              		@ sp needed
 738 0008 10BD     		pop	{r4, pc}
 739              	.L83:
 740 000a C046     		.align	2
 741              	.L82:
 742 000c 00000000 		.word	lr1mac_core_context
 744              		.section	.text.lorawan_api_factory_reset,"ax",%progbits
 745              		.align	1
 746              		.global	lorawan_api_factory_reset
 747              		.syntax unified
 748              		.code	16
 749              		.thumb_func
 750              		.fpu softvfp
 752              	lorawan_api_factory_reset:
 753              		@ args = 0, pretend = 0, frame = 0
 754              		@ frame_needed = 0, uses_anonymous_args = 0
 755 0000 10B5     		push	{r4, lr}
 756 0002 0248     		ldr	r0, .L85
 757 0004 FFF7FEFF 		bl	lr1mac_core_factory_reset
 758              		@ sp needed
 759 0008 10BD     		pop	{r4, pc}
 760              	.L86:
 761 000a C046     		.align	2
 762              	.L85:
 763 000c 00000000 		.word	lr1mac_core_context
 765              		.section	.text.lorawan_api_get_activation_mode,"ax",%progbits
 766              		.align	1
 767              		.global	lorawan_api_get_activation_mode
 768              		.syntax unified
 769              		.code	16
 770              		.thumb_func
 771              		.fpu softvfp
 773              	lorawan_api_get_activation_mode:
 774              		@ args = 0, pretend = 0, frame = 0
ARM GAS  /tmp/ccSk0DF5.s 			page 14


 775              		@ frame_needed = 0, uses_anonymous_args = 0
 776 0000 10B5     		push	{r4, lr}
 777 0002 0248     		ldr	r0, .L88
 778 0004 FFF7FEFF 		bl	lr1mac_core_get_activation_mode
 779              		@ sp needed
 780 0008 10BD     		pop	{r4, pc}
 781              	.L89:
 782 000a C046     		.align	2
 783              	.L88:
 784 000c 00000000 		.word	lr1mac_core_context
 786              		.section	.text.lorawan_api_set_activation_mode,"ax",%progbits
 787              		.align	1
 788              		.global	lorawan_api_set_activation_mode
 789              		.syntax unified
 790              		.code	16
 791              		.thumb_func
 792              		.fpu softvfp
 794              	lorawan_api_set_activation_mode:
 795              		@ args = 0, pretend = 0, frame = 0
 796              		@ frame_needed = 0, uses_anonymous_args = 0
 797 0000 10B5     		push	{r4, lr}
 798 0002 0100     		movs	r1, r0
 799              		@ sp needed
 800 0004 0148     		ldr	r0, .L91
 801 0006 FFF7FEFF 		bl	lr1mac_core_set_activation_mode
 802 000a 10BD     		pop	{r4, pc}
 803              	.L92:
 804              		.align	2
 805              	.L91:
 806 000c 00000000 		.word	lr1mac_core_context
 808              		.section	.text.lorawan_api_next_max_payload_length_get,"ax",%progbits
 809              		.align	1
 810              		.global	lorawan_api_next_max_payload_length_get
 811              		.syntax unified
 812              		.code	16
 813              		.thumb_func
 814              		.fpu softvfp
 816              	lorawan_api_next_max_payload_length_get:
 817              		@ args = 0, pretend = 0, frame = 0
 818              		@ frame_needed = 0, uses_anonymous_args = 0
 819 0000 10B5     		push	{r4, lr}
 820 0002 0248     		ldr	r0, .L94
 821 0004 FFF7FEFF 		bl	lr1mac_core_next_max_payload_length_get
 822              		@ sp needed
 823 0008 10BD     		pop	{r4, pc}
 824              	.L95:
 825 000a C046     		.align	2
 826              	.L94:
 827 000c 00000000 		.word	lr1mac_core_context
 829              		.section	.text.lorawan_api_devaddr_get,"ax",%progbits
 830              		.align	1
 831              		.global	lorawan_api_devaddr_get
 832              		.syntax unified
 833              		.code	16
 834              		.thumb_func
 835              		.fpu softvfp
 837              	lorawan_api_devaddr_get:
ARM GAS  /tmp/ccSk0DF5.s 			page 15


 838              		@ args = 0, pretend = 0, frame = 0
 839              		@ frame_needed = 0, uses_anonymous_args = 0
 840 0000 10B5     		push	{r4, lr}
 841 0002 0248     		ldr	r0, .L97
 842 0004 FFF7FEFF 		bl	lr1mac_core_devaddr_get
 843              		@ sp needed
 844 0008 10BD     		pop	{r4, pc}
 845              	.L98:
 846 000a C046     		.align	2
 847              	.L97:
 848 000c 00000000 		.word	lr1mac_core_context
 850              		.section	.text.lorawan_api_get_deveui,"ax",%progbits
 851              		.align	1
 852              		.global	lorawan_api_get_deveui
 853              		.syntax unified
 854              		.code	16
 855              		.thumb_func
 856              		.fpu softvfp
 858              	lorawan_api_get_deveui:
 859              		@ args = 0, pretend = 0, frame = 0
 860              		@ frame_needed = 0, uses_anonymous_args = 0
 861 0000 10B5     		push	{r4, lr}
 862 0002 FFF7FEFF 		bl	smtc_secure_element_get_deveui
 863              		@ sp needed
 864 0006 431E     		subs	r3, r0, #1
 865 0008 9841     		sbcs	r0, r0, r3
 866 000a 4042     		rsbs	r0, r0, #0
 867 000c 10BD     		pop	{r4, pc}
 869              		.section	.text.lorawan_api_set_deveui,"ax",%progbits
 870              		.align	1
 871              		.global	lorawan_api_set_deveui
 872              		.syntax unified
 873              		.code	16
 874              		.thumb_func
 875              		.fpu softvfp
 877              	lorawan_api_set_deveui:
 878              		@ args = 0, pretend = 0, frame = 0
 879              		@ frame_needed = 0, uses_anonymous_args = 0
 880 0000 10B5     		push	{r4, lr}
 881 0002 FFF7FEFF 		bl	smtc_secure_element_set_deveui
 882              		@ sp needed
 883 0006 431E     		subs	r3, r0, #1
 884 0008 9841     		sbcs	r0, r0, r3
 885 000a 4042     		rsbs	r0, r0, #0
 886 000c 10BD     		pop	{r4, pc}
 888              		.section	.text.lorawan_api_set_appkey,"ax",%progbits
 889              		.align	1
 890              		.global	lorawan_api_set_appkey
 891              		.syntax unified
 892              		.code	16
 893              		.thumb_func
 894              		.fpu softvfp
 896              	lorawan_api_set_appkey:
 897              		@ args = 0, pretend = 0, frame = 0
 898              		@ frame_needed = 0, uses_anonymous_args = 0
 899 0000 10B5     		push	{r4, lr}
 900 0002 0100     		movs	r1, r0
ARM GAS  /tmp/ccSk0DF5.s 			page 16


 901 0004 0400     		movs	r4, r0
 902 0006 0120     		movs	r0, #1
 903 0008 FFF7FEFF 		bl	smtc_modem_crypto_set_key
 904 000c 0028     		cmp	r0, #0
 905 000e 06D1     		bne	.L103
 906 0010 2100     		movs	r1, r4
 907 0012 FFF7FEFF 		bl	smtc_modem_crypto_set_key
 908 0016 431E     		subs	r3, r0, #1
 909 0018 9841     		sbcs	r0, r0, r3
 910              	.L104:
 911              		@ sp needed
 912 001a 4042     		rsbs	r0, r0, #0
 913 001c 10BD     		pop	{r4, pc}
 914              	.L103:
 915 001e 0120     		movs	r0, #1
 916 0020 FBE7     		b	.L104
 918              		.section	.text.lorawan_api_get_joineui,"ax",%progbits
 919              		.align	1
 920              		.global	lorawan_api_get_joineui
 921              		.syntax unified
 922              		.code	16
 923              		.thumb_func
 924              		.fpu softvfp
 926              	lorawan_api_get_joineui:
 927              		@ args = 0, pretend = 0, frame = 0
 928              		@ frame_needed = 0, uses_anonymous_args = 0
 929 0000 10B5     		push	{r4, lr}
 930 0002 FFF7FEFF 		bl	smtc_secure_element_get_joineui
 931              		@ sp needed
 932 0006 431E     		subs	r3, r0, #1
 933 0008 9841     		sbcs	r0, r0, r3
 934 000a 4042     		rsbs	r0, r0, #0
 935 000c 10BD     		pop	{r4, pc}
 937              		.section	.text.lorawan_api_set_joineui,"ax",%progbits
 938              		.align	1
 939              		.global	lorawan_api_set_joineui
 940              		.syntax unified
 941              		.code	16
 942              		.thumb_func
 943              		.fpu softvfp
 945              	lorawan_api_set_joineui:
 946              		@ args = 0, pretend = 0, frame = 0
 947              		@ frame_needed = 0, uses_anonymous_args = 0
 948 0000 10B5     		push	{r4, lr}
 949 0002 FFF7FEFF 		bl	smtc_secure_element_set_joineui
 950              		@ sp needed
 951 0006 431E     		subs	r3, r0, #1
 952 0008 9841     		sbcs	r0, r0, r3
 953 000a 4042     		rsbs	r0, r0, #0
 954 000c 10BD     		pop	{r4, pc}
 956              		.section	.text.lorawan_api_next_power_get,"ax",%progbits
 957              		.align	1
 958              		.global	lorawan_api_next_power_get
 959              		.syntax unified
 960              		.code	16
 961              		.thumb_func
 962              		.fpu softvfp
ARM GAS  /tmp/ccSk0DF5.s 			page 17


 964              	lorawan_api_next_power_get:
 965              		@ args = 0, pretend = 0, frame = 0
 966              		@ frame_needed = 0, uses_anonymous_args = 0
 967 0000 10B5     		push	{r4, lr}
 968 0002 0248     		ldr	r0, .L108
 969 0004 FFF7FEFF 		bl	lr1mac_core_next_power_get
 970              		@ sp needed
 971 0008 10BD     		pop	{r4, pc}
 972              	.L109:
 973 000a C046     		.align	2
 974              	.L108:
 975 000c 00000000 		.word	lr1mac_core_context
 977              		.section	.text.lorawan_api_next_dr_get,"ax",%progbits
 978              		.align	1
 979              		.global	lorawan_api_next_dr_get
 980              		.syntax unified
 981              		.code	16
 982              		.thumb_func
 983              		.fpu softvfp
 985              	lorawan_api_next_dr_get:
 986              		@ args = 0, pretend = 0, frame = 0
 987              		@ frame_needed = 0, uses_anonymous_args = 0
 988 0000 10B5     		push	{r4, lr}
 989 0002 0248     		ldr	r0, .L111
 990 0004 FFF7FEFF 		bl	lr1mac_core_next_dr_get
 991              		@ sp needed
 992 0008 10BD     		pop	{r4, pc}
 993              	.L112:
 994 000a C046     		.align	2
 995              	.L111:
 996 000c 00000000 		.word	lr1mac_core_context
 998              		.section	.text.lorawan_api_next_frequency_get,"ax",%progbits
 999              		.align	1
 1000              		.global	lorawan_api_next_frequency_get
 1001              		.syntax unified
 1002              		.code	16
 1003              		.thumb_func
 1004              		.fpu softvfp
 1006              	lorawan_api_next_frequency_get:
 1007              		@ args = 0, pretend = 0, frame = 0
 1008              		@ frame_needed = 0, uses_anonymous_args = 0
 1009 0000 10B5     		push	{r4, lr}
 1010 0002 0248     		ldr	r0, .L114
 1011 0004 FFF7FEFF 		bl	lr1mac_core_next_frequency_get
 1012              		@ sp needed
 1013 0008 10BD     		pop	{r4, pc}
 1014              	.L115:
 1015 000a C046     		.align	2
 1016              	.L114:
 1017 000c 00000000 		.word	lr1mac_core_context
 1019              		.section	.text.lorawan_api_max_tx_dr_get,"ax",%progbits
 1020              		.align	1
 1021              		.global	lorawan_api_max_tx_dr_get
 1022              		.syntax unified
 1023              		.code	16
 1024              		.thumb_func
 1025              		.fpu softvfp
ARM GAS  /tmp/ccSk0DF5.s 			page 18


 1027              	lorawan_api_max_tx_dr_get:
 1028              		@ args = 0, pretend = 0, frame = 0
 1029              		@ frame_needed = 0, uses_anonymous_args = 0
 1030 0000 10B5     		push	{r4, lr}
 1031 0002 0248     		ldr	r0, .L117
 1032 0004 FFF7FEFF 		bl	smtc_real_get_max_tx_channel_dr
 1033              		@ sp needed
 1034 0008 10BD     		pop	{r4, pc}
 1035              	.L118:
 1036 000a C046     		.align	2
 1037              	.L117:
 1038 000c 00000000 		.word	lr1mac_core_context
 1040              		.section	.text.lorawan_api_mask_tx_dr_channel_up_dwell_time_check,"ax",%progbits
 1041              		.align	1
 1042              		.global	lorawan_api_mask_tx_dr_channel_up_dwell_time_check
 1043              		.syntax unified
 1044              		.code	16
 1045              		.thumb_func
 1046              		.fpu softvfp
 1048              	lorawan_api_mask_tx_dr_channel_up_dwell_time_check:
 1049              		@ args = 0, pretend = 0, frame = 0
 1050              		@ frame_needed = 0, uses_anonymous_args = 0
 1051 0000 10B5     		push	{r4, lr}
 1052 0002 0248     		ldr	r0, .L120
 1053 0004 FFF7FEFF 		bl	smtc_real_mask_tx_dr_channel_up_dwell_time_check
 1054              		@ sp needed
 1055 0008 10BD     		pop	{r4, pc}
 1056              	.L121:
 1057 000a C046     		.align	2
 1058              	.L120:
 1059 000c 00000000 		.word	lr1mac_core_context
 1061              		.section	.text.lorawan_api_min_tx_dr_get,"ax",%progbits
 1062              		.align	1
 1063              		.global	lorawan_api_min_tx_dr_get
 1064              		.syntax unified
 1065              		.code	16
 1066              		.thumb_func
 1067              		.fpu softvfp
 1069              	lorawan_api_min_tx_dr_get:
 1070              		@ args = 0, pretend = 0, frame = 0
 1071              		@ frame_needed = 0, uses_anonymous_args = 0
 1072 0000 10B5     		push	{r4, lr}
 1073 0002 0248     		ldr	r0, .L123
 1074 0004 FFF7FEFF 		bl	smtc_real_get_min_tx_channel_dr
 1075              		@ sp needed
 1076 0008 10BD     		pop	{r4, pc}
 1077              	.L124:
 1078 000a C046     		.align	2
 1079              	.L123:
 1080 000c 00000000 		.word	lr1mac_core_context
 1082              		.section	.text.lorawan_api_state_get,"ax",%progbits
 1083              		.align	1
 1084              		.global	lorawan_api_state_get
 1085              		.syntax unified
 1086              		.code	16
 1087              		.thumb_func
 1088              		.fpu softvfp
ARM GAS  /tmp/ccSk0DF5.s 			page 19


 1090              	lorawan_api_state_get:
 1091              		@ args = 0, pretend = 0, frame = 0
 1092              		@ frame_needed = 0, uses_anonymous_args = 0
 1093 0000 10B5     		push	{r4, lr}
 1094 0002 0248     		ldr	r0, .L126
 1095 0004 FFF7FEFF 		bl	lr1mac_core_state_get
 1096              		@ sp needed
 1097 0008 10BD     		pop	{r4, pc}
 1098              	.L127:
 1099 000a C046     		.align	2
 1100              	.L126:
 1101 000c 00000000 		.word	lr1mac_core_context
 1103              		.section	.text.lorawan_api_nb_reset_get,"ax",%progbits
 1104              		.align	1
 1105              		.global	lorawan_api_nb_reset_get
 1106              		.syntax unified
 1107              		.code	16
 1108              		.thumb_func
 1109              		.fpu softvfp
 1111              	lorawan_api_nb_reset_get:
 1112              		@ args = 0, pretend = 0, frame = 0
 1113              		@ frame_needed = 0, uses_anonymous_args = 0
 1114 0000 10B5     		push	{r4, lr}
 1115 0002 0248     		ldr	r0, .L129
 1116 0004 FFF7FEFF 		bl	lr1mac_core_nb_reset_get
 1117              		@ sp needed
 1118 0008 10BD     		pop	{r4, pc}
 1119              	.L130:
 1120 000a C046     		.align	2
 1121              	.L129:
 1122 000c 00000000 		.word	lr1mac_core_context
 1124              		.section	.text.lorawan_api_devnonce_get,"ax",%progbits
 1125              		.align	1
 1126              		.global	lorawan_api_devnonce_get
 1127              		.syntax unified
 1128              		.code	16
 1129              		.thumb_func
 1130              		.fpu softvfp
 1132              	lorawan_api_devnonce_get:
 1133              		@ args = 0, pretend = 0, frame = 0
 1134              		@ frame_needed = 0, uses_anonymous_args = 0
 1135 0000 10B5     		push	{r4, lr}
 1136 0002 0248     		ldr	r0, .L132
 1137 0004 FFF7FEFF 		bl	lr1mac_core_devnonce_get
 1138              		@ sp needed
 1139 0008 10BD     		pop	{r4, pc}
 1140              	.L133:
 1141 000a C046     		.align	2
 1142              	.L132:
 1143 000c 00000000 		.word	lr1mac_core_context
 1145              		.section	.text.lorawan_api_rx_window_get,"ax",%progbits
 1146              		.align	1
 1147              		.global	lorawan_api_rx_window_get
 1148              		.syntax unified
 1149              		.code	16
 1150              		.thumb_func
 1151              		.fpu softvfp
ARM GAS  /tmp/ccSk0DF5.s 			page 20


 1153              	lorawan_api_rx_window_get:
 1154              		@ args = 0, pretend = 0, frame = 0
 1155              		@ frame_needed = 0, uses_anonymous_args = 0
 1156 0000 10B5     		push	{r4, lr}
 1157 0002 0248     		ldr	r0, .L135
 1158 0004 FFF7FEFF 		bl	lr1mac_core_rx_window_get
 1159              		@ sp needed
 1160 0008 10BD     		pop	{r4, pc}
 1161              	.L136:
 1162 000a C046     		.align	2
 1163              	.L135:
 1164 000c 00000000 		.word	lr1mac_core_context
 1166              		.section	.text.lorawan_api_next_join_time_second_get,"ax",%progbits
 1167              		.align	1
 1168              		.global	lorawan_api_next_join_time_second_get
 1169              		.syntax unified
 1170              		.code	16
 1171              		.thumb_func
 1172              		.fpu softvfp
 1174              	lorawan_api_next_join_time_second_get:
 1175              		@ args = 0, pretend = 0, frame = 0
 1176              		@ frame_needed = 0, uses_anonymous_args = 0
 1177 0000 10B5     		push	{r4, lr}
 1178 0002 0248     		ldr	r0, .L138
 1179 0004 FFF7FEFF 		bl	lr1mac_core_next_join_time_second_get
 1180              		@ sp needed
 1181 0008 10BD     		pop	{r4, pc}
 1182              	.L139:
 1183 000a C046     		.align	2
 1184              	.L138:
 1185 000c 00000000 		.word	lr1mac_core_context
 1187              		.section	.text.lorawan_api_next_free_duty_cycle_ms_get,"ax",%progbits
 1188              		.align	1
 1189              		.global	lorawan_api_next_free_duty_cycle_ms_get
 1190              		.syntax unified
 1191              		.code	16
 1192              		.thumb_func
 1193              		.fpu softvfp
 1195              	lorawan_api_next_free_duty_cycle_ms_get:
 1196              		@ args = 0, pretend = 0, frame = 0
 1197              		@ frame_needed = 0, uses_anonymous_args = 0
 1198 0000 10B5     		push	{r4, lr}
 1199 0002 0248     		ldr	r0, .L141
 1200 0004 FFF7FEFF 		bl	lr1mac_core_next_free_duty_cycle_ms_get
 1201              		@ sp needed
 1202 0008 10BD     		pop	{r4, pc}
 1203              	.L142:
 1204 000a C046     		.align	2
 1205              	.L141:
 1206 000c 00000000 		.word	lr1mac_core_context
 1208              		.section	.text.lorawan_api_duty_cycle_enable_set,"ax",%progbits
 1209              		.align	1
 1210              		.global	lorawan_api_duty_cycle_enable_set
 1211              		.syntax unified
 1212              		.code	16
 1213              		.thumb_func
 1214              		.fpu softvfp
ARM GAS  /tmp/ccSk0DF5.s 			page 21


 1216              	lorawan_api_duty_cycle_enable_set:
 1217              		@ args = 0, pretend = 0, frame = 0
 1218              		@ frame_needed = 0, uses_anonymous_args = 0
 1219 0000 054B     		ldr	r3, .L144
 1220 0002 0100     		movs	r1, r0
 1221 0004 10B5     		push	{r4, lr}
 1222 0006 D86B     		ldr	r0, [r3, #60]
 1223 0008 FFF7FEFF 		bl	smtc_duty_cycle_enable_set
 1224              		@ sp needed
 1225 000c 0138     		subs	r0, r0, #1
 1226 000e 431E     		subs	r3, r0, #1
 1227 0010 9841     		sbcs	r0, r0, r3
 1228 0012 4042     		rsbs	r0, r0, #0
 1229 0014 10BD     		pop	{r4, pc}
 1230              	.L145:
 1231 0016 C046     		.align	2
 1232              	.L144:
 1233 0018 00000000 		.word	lr1mac_core_context
 1235              		.section	.text.lorawan_api_duty_cycle_enable_get,"ax",%progbits
 1236              		.align	1
 1237              		.global	lorawan_api_duty_cycle_enable_get
 1238              		.syntax unified
 1239              		.code	16
 1240              		.thumb_func
 1241              		.fpu softvfp
 1243              	lorawan_api_duty_cycle_enable_get:
 1244              		@ args = 0, pretend = 0, frame = 0
 1245              		@ frame_needed = 0, uses_anonymous_args = 0
 1246 0000 10B5     		push	{r4, lr}
 1247 0002 024B     		ldr	r3, .L147
 1248              		@ sp needed
 1249 0004 D86B     		ldr	r0, [r3, #60]
 1250 0006 FFF7FEFF 		bl	smtc_duty_cycle_enable_get
 1251 000a 10BD     		pop	{r4, pc}
 1252              	.L148:
 1253              		.align	2
 1254              	.L147:
 1255 000c 00000000 		.word	lr1mac_core_context
 1257              		.section	.text.lorawan_api_fcnt_up_get,"ax",%progbits
 1258              		.align	1
 1259              		.global	lorawan_api_fcnt_up_get
 1260              		.syntax unified
 1261              		.code	16
 1262              		.thumb_func
 1263              		.fpu softvfp
 1265              	lorawan_api_fcnt_up_get:
 1266              		@ args = 0, pretend = 0, frame = 0
 1267              		@ frame_needed = 0, uses_anonymous_args = 0
 1268 0000 10B5     		push	{r4, lr}
 1269 0002 0248     		ldr	r0, .L150
 1270 0004 FFF7FEFF 		bl	lr1mac_core_fcnt_up_get
 1271              		@ sp needed
 1272 0008 10BD     		pop	{r4, pc}
 1273              	.L151:
 1274 000a C046     		.align	2
 1275              	.L150:
 1276 000c 00000000 		.word	lr1mac_core_context
ARM GAS  /tmp/ccSk0DF5.s 			page 22


 1278              		.section	.text.lorawan_api_rp_hook_id_get,"ax",%progbits
 1279              		.align	1
 1280              		.global	lorawan_api_rp_hook_id_get
 1281              		.syntax unified
 1282              		.code	16
 1283              		.thumb_func
 1284              		.fpu softvfp
 1286              	lorawan_api_rp_hook_id_get:
 1287              		@ args = 0, pretend = 0, frame = 8
 1288              		@ frame_needed = 0, uses_anonymous_args = 0
 1289 0000 37B5     		push	{r0, r1, r2, r4, r5, lr}
 1290 0002 064D     		ldr	r5, .L153
 1291              		@ sp needed
 1292 0004 2800     		movs	r0, r5
 1293 0006 FFF7FEFF 		bl	lr1mac_core_rp_get
 1294 000a 6B46     		mov	r3, sp
 1295 000c DC1D     		adds	r4, r3, #7
 1296 000e 2900     		movs	r1, r5
 1297 0010 2200     		movs	r2, r4
 1298 0012 FFF7FEFF 		bl	rp_hook_get_id
 1299 0016 2078     		ldrb	r0, [r4]
 1300 0018 3EBD     		pop	{r1, r2, r3, r4, r5, pc}
 1301              	.L154:
 1302 001a C046     		.align	2
 1303              	.L153:
 1304 001c 00000000 		.word	lr1mac_core_context
 1306              		.section	.text.lorawan_api_class_c_enabled,"ax",%progbits
 1307              		.align	1
 1308              		.global	lorawan_api_class_c_enabled
 1309              		.syntax unified
 1310              		.code	16
 1311              		.thumb_func
 1312              		.fpu softvfp
 1314              	lorawan_api_class_c_enabled:
 1315              		@ args = 0, pretend = 0, frame = 0
 1316              		@ frame_needed = 0, uses_anonymous_args = 0
 1317 0000 10B5     		push	{r4, lr}
 1318 0002 064C     		ldr	r4, .L157
 1319 0004 0100     		movs	r1, r0
 1320 0006 2000     		movs	r0, r4
 1321 0008 FFF7FEFF 		bl	lr1mac_class_c_enabled
 1322 000c FFF7FEFF 		bl	lorawan_api_isjoined
 1323 0010 0228     		cmp	r0, #2
 1324 0012 02D1     		bne	.L155
 1325 0014 2000     		movs	r0, r4
 1326 0016 FFF7FEFF 		bl	lr1mac_class_c_start
 1327              	.L155:
 1328              		@ sp needed
 1329 001a 10BD     		pop	{r4, pc}
 1330              	.L158:
 1331              		.align	2
 1332              	.L157:
 1333 001c D8080000 		.word	lr1mac_core_context+2264
 1335              		.section	.text.lorawan_api_class_c_start,"ax",%progbits
 1336              		.align	1
 1337              		.global	lorawan_api_class_c_start
 1338              		.syntax unified
ARM GAS  /tmp/ccSk0DF5.s 			page 23


 1339              		.code	16
 1340              		.thumb_func
 1341              		.fpu softvfp
 1343              	lorawan_api_class_c_start:
 1344              		@ args = 0, pretend = 0, frame = 0
 1345              		@ frame_needed = 0, uses_anonymous_args = 0
 1346 0000 10B5     		push	{r4, lr}
 1347 0002 0248     		ldr	r0, .L160
 1348 0004 FFF7FEFF 		bl	lr1mac_class_c_start
 1349              		@ sp needed
 1350 0008 10BD     		pop	{r4, pc}
 1351              	.L161:
 1352 000a C046     		.align	2
 1353              	.L160:
 1354 000c D8080000 		.word	lr1mac_core_context+2264
 1356              		.section	.text.lorawan_api_class_c_stop,"ax",%progbits
 1357              		.align	1
 1358              		.global	lorawan_api_class_c_stop
 1359              		.syntax unified
 1360              		.code	16
 1361              		.thumb_func
 1362              		.fpu softvfp
 1364              	lorawan_api_class_c_stop:
 1365              		@ args = 0, pretend = 0, frame = 0
 1366              		@ frame_needed = 0, uses_anonymous_args = 0
 1367 0000 10B5     		push	{r4, lr}
 1368 0002 0248     		ldr	r0, .L163
 1369 0004 FFF7FEFF 		bl	lr1mac_class_c_stop
 1370              		@ sp needed
 1371 0008 10BD     		pop	{r4, pc}
 1372              	.L164:
 1373 000a C046     		.align	2
 1374              	.L163:
 1375 000c D8080000 		.word	lr1mac_core_context+2264
 1377              		.section	.text.lorawan_api_multicast_set_group_session_keys,"ax",%progbits
 1378              		.align	1
 1379              		.global	lorawan_api_multicast_set_group_session_keys
 1380              		.syntax unified
 1381              		.code	16
 1382              		.thumb_func
 1383              		.fpu softvfp
 1385              	lorawan_api_multicast_set_group_session_keys:
 1386              		@ args = 0, pretend = 0, frame = 0
 1387              		@ frame_needed = 0, uses_anonymous_args = 0
 1388 0000 10B5     		push	{r4, lr}
 1389 0002 1300     		movs	r3, r2
 1390              		@ sp needed
 1391 0004 0A00     		movs	r2, r1
 1392 0006 0100     		movs	r1, r0
 1393 0008 0148     		ldr	r0, .L166
 1394 000a FFF7FEFF 		bl	smtc_multicast_set_group_keys
 1395 000e 10BD     		pop	{r4, pc}
 1396              	.L167:
 1397              		.align	2
 1398              	.L166:
 1399 0010 C40C0000 		.word	lr1mac_core_context+3268
 1401              		.section	.text.lorawan_api_multicast_set_group_address,"ax",%progbits
ARM GAS  /tmp/ccSk0DF5.s 			page 24


 1402              		.align	1
 1403              		.global	lorawan_api_multicast_set_group_address
 1404              		.syntax unified
 1405              		.code	16
 1406              		.thumb_func
 1407              		.fpu softvfp
 1409              	lorawan_api_multicast_set_group_address:
 1410              		@ args = 0, pretend = 0, frame = 0
 1411              		@ frame_needed = 0, uses_anonymous_args = 0
 1412 0000 10B5     		push	{r4, lr}
 1413 0002 0A00     		movs	r2, r1
 1414              		@ sp needed
 1415 0004 0100     		movs	r1, r0
 1416 0006 0248     		ldr	r0, .L169
 1417 0008 FFF7FEFF 		bl	smtc_multicast_set_group_address
 1418 000c 10BD     		pop	{r4, pc}
 1419              	.L170:
 1420 000e C046     		.align	2
 1421              	.L169:
 1422 0010 C40C0000 		.word	lr1mac_core_context+3268
 1424              		.section	.text.lorawan_api_multicast_get_group_address,"ax",%progbits
 1425              		.align	1
 1426              		.global	lorawan_api_multicast_get_group_address
 1427              		.syntax unified
 1428              		.code	16
 1429              		.thumb_func
 1430              		.fpu softvfp
 1432              	lorawan_api_multicast_get_group_address:
 1433              		@ args = 0, pretend = 0, frame = 0
 1434              		@ frame_needed = 0, uses_anonymous_args = 0
 1435 0000 10B5     		push	{r4, lr}
 1436 0002 0A00     		movs	r2, r1
 1437              		@ sp needed
 1438 0004 0100     		movs	r1, r0
 1439 0006 0248     		ldr	r0, .L172
 1440 0008 FFF7FEFF 		bl	smtc_multicast_get_group_address
 1441 000c 10BD     		pop	{r4, pc}
 1442              	.L173:
 1443 000e C046     		.align	2
 1444              	.L172:
 1445 0010 C40C0000 		.word	lr1mac_core_context+3268
 1447              		.section	.text.lorawan_api_multicast_get_running_status,"ax",%progbits
 1448              		.align	1
 1449              		.global	lorawan_api_multicast_get_running_status
 1450              		.syntax unified
 1451              		.code	16
 1452              		.thumb_func
 1453              		.fpu softvfp
 1455              	lorawan_api_multicast_get_running_status:
 1456              		@ args = 0, pretend = 0, frame = 0
 1457              		@ frame_needed = 0, uses_anonymous_args = 0
 1458 0000 10B5     		push	{r4, lr}
 1459 0002 0A00     		movs	r2, r1
 1460              		@ sp needed
 1461 0004 0100     		movs	r1, r0
 1462 0006 0248     		ldr	r0, .L175
 1463 0008 FFF7FEFF 		bl	smtc_multicast_get_running_status
ARM GAS  /tmp/ccSk0DF5.s 			page 25


 1464 000c 10BD     		pop	{r4, pc}
 1465              	.L176:
 1466 000e C046     		.align	2
 1467              	.L175:
 1468 0010 C40C0000 		.word	lr1mac_core_context+3268
 1470              		.section	.text.lorawan_api_multicast_c_get_session_status,"ax",%progbits
 1471              		.align	1
 1472              		.global	lorawan_api_multicast_c_get_session_status
 1473              		.syntax unified
 1474              		.code	16
 1475              		.thumb_func
 1476              		.fpu softvfp
 1478              	lorawan_api_multicast_c_get_session_status:
 1479              		@ args = 0, pretend = 0, frame = 0
 1480              		@ frame_needed = 0, uses_anonymous_args = 0
 1481 0000 07B5     		push	{r0, r1, r2, lr}
 1482 0002 0093     		str	r3, [sp]
 1483 0004 1300     		movs	r3, r2
 1484              		@ sp needed
 1485 0006 0A00     		movs	r2, r1
 1486 0008 0100     		movs	r1, r0
 1487 000a 0248     		ldr	r0, .L178
 1488 000c FFF7FEFF 		bl	lr1mac_class_c_multicast_get_session_status
 1489 0010 0EBD     		pop	{r1, r2, r3, pc}
 1490              	.L179:
 1491 0012 C046     		.align	2
 1492              	.L178:
 1493 0014 D8080000 		.word	lr1mac_core_context+2264
 1495              		.section	.text.lorawan_api_multicast_c_start_session,"ax",%progbits
 1496              		.align	1
 1497              		.global	lorawan_api_multicast_c_start_session
 1498              		.syntax unified
 1499              		.code	16
 1500              		.thumb_func
 1501              		.fpu softvfp
 1503              	lorawan_api_multicast_c_start_session:
 1504              		@ args = 0, pretend = 0, frame = 0
 1505              		@ frame_needed = 0, uses_anonymous_args = 0
 1506 0000 10B5     		push	{r4, lr}
 1507 0002 1300     		movs	r3, r2
 1508              		@ sp needed
 1509 0004 0A00     		movs	r2, r1
 1510 0006 0100     		movs	r1, r0
 1511 0008 0148     		ldr	r0, .L181
 1512 000a FFF7FEFF 		bl	lr1mac_class_c_multicast_start_session
 1513 000e 10BD     		pop	{r4, pc}
 1514              	.L182:
 1515              		.align	2
 1516              	.L181:
 1517 0010 D8080000 		.word	lr1mac_core_context+2264
 1519              		.section	.text.lorawan_api_multicast_c_stop_session,"ax",%progbits
 1520              		.align	1
 1521              		.global	lorawan_api_multicast_c_stop_session
 1522              		.syntax unified
 1523              		.code	16
 1524              		.thumb_func
 1525              		.fpu softvfp
ARM GAS  /tmp/ccSk0DF5.s 			page 26


 1527              	lorawan_api_multicast_c_stop_session:
 1528              		@ args = 0, pretend = 0, frame = 0
 1529              		@ frame_needed = 0, uses_anonymous_args = 0
 1530 0000 10B5     		push	{r4, lr}
 1531 0002 0100     		movs	r1, r0
 1532              		@ sp needed
 1533 0004 0148     		ldr	r0, .L184
 1534 0006 FFF7FEFF 		bl	lr1mac_class_c_multicast_stop_session
 1535 000a 10BD     		pop	{r4, pc}
 1536              	.L185:
 1537              		.align	2
 1538              	.L184:
 1539 000c D8080000 		.word	lr1mac_core_context+2264
 1541              		.section	.text.lorawan_api_multicast_c_stop_all_sessions,"ax",%progbits
 1542              		.align	1
 1543              		.global	lorawan_api_multicast_c_stop_all_sessions
 1544              		.syntax unified
 1545              		.code	16
 1546              		.thumb_func
 1547              		.fpu softvfp
 1549              	lorawan_api_multicast_c_stop_all_sessions:
 1550              		@ args = 0, pretend = 0, frame = 0
 1551              		@ frame_needed = 0, uses_anonymous_args = 0
 1552 0000 10B5     		push	{r4, lr}
 1553 0002 0248     		ldr	r0, .L187
 1554 0004 FFF7FEFF 		bl	lr1mac_class_c_multicast_stop_all_sessions
 1555              		@ sp needed
 1556 0008 10BD     		pop	{r4, pc}
 1557              	.L188:
 1558 000a C046     		.align	2
 1559              	.L187:
 1560 000c D8080000 		.word	lr1mac_core_context+2264
 1562              		.section	.text.lorawan_api_multicast_b_get_session_status,"ax",%progbits
 1563              		.align	1
 1564              		.global	lorawan_api_multicast_b_get_session_status
 1565              		.syntax unified
 1566              		.code	16
 1567              		.thumb_func
 1568              		.fpu softvfp
 1570              	lorawan_api_multicast_b_get_session_status:
 1571              		@ args = 8, pretend = 0, frame = 0
 1572              		@ frame_needed = 0, uses_anonymous_args = 0
 1573 0000 1FB5     		push	{r0, r1, r2, r3, r4, lr}
 1574 0002 079C     		ldr	r4, [sp, #28]
 1575 0004 0093     		str	r3, [sp]
 1576 0006 0294     		str	r4, [sp, #8]
 1577 0008 069C     		ldr	r4, [sp, #24]
 1578 000a 1300     		movs	r3, r2
 1579 000c 0194     		str	r4, [sp, #4]
 1580 000e 0A00     		movs	r2, r1
 1581 0010 0100     		movs	r1, r0
 1582 0012 0248     		ldr	r0, .L190
 1583 0014 FFF7FEFF 		bl	smtc_ping_slot_multicast_b_get_session_status
 1584 0018 04B0     		add	sp, sp, #16
 1585              		@ sp needed
 1586 001a 10BD     		pop	{r4, pc}
 1587              	.L191:
ARM GAS  /tmp/ccSk0DF5.s 			page 27


 1588              		.align	2
 1589              	.L190:
 1590 001c 0C0B0000 		.word	lr1mac_core_context+2828
 1592              		.section	.text.lorawan_api_multicast_b_start_session,"ax",%progbits
 1593              		.align	1
 1594              		.global	lorawan_api_multicast_b_start_session
 1595              		.syntax unified
 1596              		.code	16
 1597              		.thumb_func
 1598              		.fpu softvfp
 1600              	lorawan_api_multicast_b_start_session:
 1601              		@ args = 0, pretend = 0, frame = 0
 1602              		@ frame_needed = 0, uses_anonymous_args = 0
 1603 0000 07B5     		push	{r0, r1, r2, lr}
 1604 0002 0093     		str	r3, [sp]
 1605 0004 1300     		movs	r3, r2
 1606              		@ sp needed
 1607 0006 0A00     		movs	r2, r1
 1608 0008 0100     		movs	r1, r0
 1609 000a 0248     		ldr	r0, .L193
 1610 000c FFF7FEFF 		bl	smtc_ping_slot_multicast_b_start_session
 1611 0010 0EBD     		pop	{r1, r2, r3, pc}
 1612              	.L194:
 1613 0012 C046     		.align	2
 1614              	.L193:
 1615 0014 0C0B0000 		.word	lr1mac_core_context+2828
 1617              		.section	.text.lorawan_api_multicast_b_stop_session,"ax",%progbits
 1618              		.align	1
 1619              		.global	lorawan_api_multicast_b_stop_session
 1620              		.syntax unified
 1621              		.code	16
 1622              		.thumb_func
 1623              		.fpu softvfp
 1625              	lorawan_api_multicast_b_stop_session:
 1626              		@ args = 0, pretend = 0, frame = 0
 1627              		@ frame_needed = 0, uses_anonymous_args = 0
 1628 0000 10B5     		push	{r4, lr}
 1629 0002 0100     		movs	r1, r0
 1630              		@ sp needed
 1631 0004 0148     		ldr	r0, .L196
 1632 0006 FFF7FEFF 		bl	smtc_ping_slot_multicast_b_stop_session
 1633 000a 10BD     		pop	{r4, pc}
 1634              	.L197:
 1635              		.align	2
 1636              	.L196:
 1637 000c 0C0B0000 		.word	lr1mac_core_context+2828
 1639              		.section	.text.lorawan_api_multicast_b_stop_all_sessions,"ax",%progbits
 1640              		.align	1
 1641              		.global	lorawan_api_multicast_b_stop_all_sessions
 1642              		.syntax unified
 1643              		.code	16
 1644              		.thumb_func
 1645              		.fpu softvfp
 1647              	lorawan_api_multicast_b_stop_all_sessions:
 1648              		@ args = 0, pretend = 0, frame = 0
 1649              		@ frame_needed = 0, uses_anonymous_args = 0
 1650 0000 10B5     		push	{r4, lr}
ARM GAS  /tmp/ccSk0DF5.s 			page 28


 1651 0002 0248     		ldr	r0, .L199
 1652 0004 FFF7FEFF 		bl	smtc_ping_slot_multicast_b_stop_all_sessions
 1653              		@ sp needed
 1654 0008 10BD     		pop	{r4, pc}
 1655              	.L200:
 1656 000a C046     		.align	2
 1657              	.L199:
 1658 000c 0C0B0000 		.word	lr1mac_core_context+2828
 1660              		.section	.text.lorawan_api_rx_ack_bit_get,"ax",%progbits
 1661              		.align	1
 1662              		.global	lorawan_api_rx_ack_bit_get
 1663              		.syntax unified
 1664              		.code	16
 1665              		.thumb_func
 1666              		.fpu softvfp
 1668              	lorawan_api_rx_ack_bit_get:
 1669              		@ args = 0, pretend = 0, frame = 0
 1670              		@ frame_needed = 0, uses_anonymous_args = 0
 1671 0000 10B5     		push	{r4, lr}
 1672 0002 0248     		ldr	r0, .L202
 1673 0004 FFF7FEFF 		bl	lr1mac_core_rx_ack_bit_get
 1674              		@ sp needed
 1675 0008 10BD     		pop	{r4, pc}
 1676              	.L203:
 1677 000a C046     		.align	2
 1678              	.L202:
 1679 000c 00000000 		.word	lr1mac_core_context
 1681              		.section	.text.lorawan_api_rx_fpending_bit_get,"ax",%progbits
 1682              		.align	1
 1683              		.global	lorawan_api_rx_fpending_bit_get
 1684              		.syntax unified
 1685              		.code	16
 1686              		.thumb_func
 1687              		.fpu softvfp
 1689              	lorawan_api_rx_fpending_bit_get:
 1690              		@ args = 0, pretend = 0, frame = 0
 1691              		@ frame_needed = 0, uses_anonymous_args = 0
 1692 0000 10B5     		push	{r4, lr}
 1693 0002 0248     		ldr	r0, .L205
 1694 0004 FFF7FEFF 		bl	lr1mac_core_rx_fpending_bit_get
 1695              		@ sp needed
 1696 0008 10BD     		pop	{r4, pc}
 1697              	.L206:
 1698 000a C046     		.align	2
 1699              	.L205:
 1700 000c 00000000 		.word	lr1mac_core_context
 1702              		.section	.text.lorawan_api_set_no_rx_packet_threshold,"ax",%progbits
 1703              		.align	1
 1704              		.global	lorawan_api_set_no_rx_packet_threshold
 1705              		.syntax unified
 1706              		.code	16
 1707              		.thumb_func
 1708              		.fpu softvfp
 1710              	lorawan_api_set_no_rx_packet_threshold:
 1711              		@ args = 0, pretend = 0, frame = 0
 1712              		@ frame_needed = 0, uses_anonymous_args = 0
 1713 0000 10B5     		push	{r4, lr}
ARM GAS  /tmp/ccSk0DF5.s 			page 29


 1714 0002 0100     		movs	r1, r0
 1715              		@ sp needed
 1716 0004 0148     		ldr	r0, .L208
 1717 0006 FFF7FEFF 		bl	lr1mac_core_set_no_rx_packet_threshold
 1718 000a 10BD     		pop	{r4, pc}
 1719              	.L209:
 1720              		.align	2
 1721              	.L208:
 1722 000c 00000000 		.word	lr1mac_core_context
 1724              		.section	.text.lorawan_api_get_no_rx_packet_threshold,"ax",%progbits
 1725              		.align	1
 1726              		.global	lorawan_api_get_no_rx_packet_threshold
 1727              		.syntax unified
 1728              		.code	16
 1729              		.thumb_func
 1730              		.fpu softvfp
 1732              	lorawan_api_get_no_rx_packet_threshold:
 1733              		@ args = 0, pretend = 0, frame = 0
 1734              		@ frame_needed = 0, uses_anonymous_args = 0
 1735 0000 10B5     		push	{r4, lr}
 1736 0002 0248     		ldr	r0, .L211
 1737 0004 FFF7FEFF 		bl	lr1mac_core_get_no_rx_packet_threshold
 1738              		@ sp needed
 1739 0008 10BD     		pop	{r4, pc}
 1740              	.L212:
 1741 000a C046     		.align	2
 1742              	.L211:
 1743 000c 00000000 		.word	lr1mac_core_context
 1745              		.section	.text.lorawan_api_get_current_adr_ack_cnt,"ax",%progbits
 1746              		.align	1
 1747              		.global	lorawan_api_get_current_adr_ack_cnt
 1748              		.syntax unified
 1749              		.code	16
 1750              		.thumb_func
 1751              		.fpu softvfp
 1753              	lorawan_api_get_current_adr_ack_cnt:
 1754              		@ args = 0, pretend = 0, frame = 0
 1755              		@ frame_needed = 0, uses_anonymous_args = 0
 1756 0000 10B5     		push	{r4, lr}
 1757 0002 0248     		ldr	r0, .L214
 1758 0004 FFF7FEFF 		bl	lr1mac_core_get_current_adr_ack_cnt
 1759              		@ sp needed
 1760 0008 10BD     		pop	{r4, pc}
 1761              	.L215:
 1762 000a C046     		.align	2
 1763              	.L214:
 1764 000c 00000000 		.word	lr1mac_core_context
 1766              		.section	.text.lorawan_api_reset_no_rx_packet_in_mobile_mode_cnt,"ax",%progbits
 1767              		.align	1
 1768              		.global	lorawan_api_reset_no_rx_packet_in_mobile_mode_cnt
 1769              		.syntax unified
 1770              		.code	16
 1771              		.thumb_func
 1772              		.fpu softvfp
 1774              	lorawan_api_reset_no_rx_packet_in_mobile_mode_cnt:
 1775              		@ args = 0, pretend = 0, frame = 0
 1776              		@ frame_needed = 0, uses_anonymous_args = 0
ARM GAS  /tmp/ccSk0DF5.s 			page 30


 1777 0000 10B5     		push	{r4, lr}
 1778 0002 0248     		ldr	r0, .L217
 1779 0004 FFF7FEFF 		bl	lr1mac_core_reset_no_rx_packet_in_mobile_mode_cnt
 1780              		@ sp needed
 1781 0008 10BD     		pop	{r4, pc}
 1782              	.L218:
 1783 000a C046     		.align	2
 1784              	.L217:
 1785 000c 00000000 		.word	lr1mac_core_context
 1787              		.section	.text.lorawan_api_get_current_no_rx_packet_in_mobile_mode_cnt,"ax",%progbits
 1788              		.align	1
 1789              		.global	lorawan_api_get_current_no_rx_packet_in_mobile_mode_cnt
 1790              		.syntax unified
 1791              		.code	16
 1792              		.thumb_func
 1793              		.fpu softvfp
 1795              	lorawan_api_get_current_no_rx_packet_in_mobile_mode_cnt:
 1796              		@ args = 0, pretend = 0, frame = 0
 1797              		@ frame_needed = 0, uses_anonymous_args = 0
 1798 0000 10B5     		push	{r4, lr}
 1799 0002 0248     		ldr	r0, .L220
 1800 0004 FFF7FEFF 		bl	lr1mac_core_get_current_no_rx_packet_in_mobile_mode
 1801              		@ sp needed
 1802 0008 10BD     		pop	{r4, pc}
 1803              	.L221:
 1804 000a C046     		.align	2
 1805              	.L220:
 1806 000c 00000000 		.word	lr1mac_core_context
 1808              		.section	.text.lorawan_api_get_current_no_rx_packet_cnt,"ax",%progbits
 1809              		.align	1
 1810              		.global	lorawan_api_get_current_no_rx_packet_cnt
 1811              		.syntax unified
 1812              		.code	16
 1813              		.thumb_func
 1814              		.fpu softvfp
 1816              	lorawan_api_get_current_no_rx_packet_cnt:
 1817              		@ args = 0, pretend = 0, frame = 0
 1818              		@ frame_needed = 0, uses_anonymous_args = 0
 1819 0000 10B5     		push	{r4, lr}
 1820 0002 0248     		ldr	r0, .L223
 1821 0004 FFF7FEFF 		bl	lr1mac_core_get_current_no_rx_packet_cnt
 1822              		@ sp needed
 1823 0008 10BD     		pop	{r4, pc}
 1824              	.L224:
 1825 000a C046     		.align	2
 1826              	.L223:
 1827 000c 00000000 		.word	lr1mac_core_context
 1829              		.section	.text.lorawan_api_certification_is_enabled,"ax",%progbits
 1830              		.align	1
 1831              		.global	lorawan_api_certification_is_enabled
 1832              		.syntax unified
 1833              		.code	16
 1834              		.thumb_func
 1835              		.fpu softvfp
 1837              	lorawan_api_certification_is_enabled:
 1838              		@ args = 0, pretend = 0, frame = 0
 1839              		@ frame_needed = 0, uses_anonymous_args = 0
ARM GAS  /tmp/ccSk0DF5.s 			page 31


 1840 0000 10B5     		push	{r4, lr}
 1841 0002 0248     		ldr	r0, .L226
 1842 0004 FFF7FEFF 		bl	lorawan_certification_get_enabled
 1843              		@ sp needed
 1844 0008 10BD     		pop	{r4, pc}
 1845              	.L227:
 1846 000a C046     		.align	2
 1847              	.L226:
 1848 000c 740D0000 		.word	lr1mac_core_context+3444
 1850              		.section	.text.lorawan_api_certification_get_ul_periodicity,"ax",%progbits
 1851              		.align	1
 1852              		.global	lorawan_api_certification_get_ul_periodicity
 1853              		.syntax unified
 1854              		.code	16
 1855              		.thumb_func
 1856              		.fpu softvfp
 1858              	lorawan_api_certification_get_ul_periodicity:
 1859              		@ args = 0, pretend = 0, frame = 0
 1860              		@ frame_needed = 0, uses_anonymous_args = 0
 1861 0000 10B5     		push	{r4, lr}
 1862 0002 0248     		ldr	r0, .L229
 1863 0004 FFF7FEFF 		bl	lorawan_certification_get_ul_periodicity
 1864              		@ sp needed
 1865 0008 10BD     		pop	{r4, pc}
 1866              	.L230:
 1867 000a C046     		.align	2
 1868              	.L229:
 1869 000c 740D0000 		.word	lr1mac_core_context+3444
 1871              		.section	.text.lorawan_api_certification_get_frame_type,"ax",%progbits
 1872              		.align	1
 1873              		.global	lorawan_api_certification_get_frame_type
 1874              		.syntax unified
 1875              		.code	16
 1876              		.thumb_func
 1877              		.fpu softvfp
 1879              	lorawan_api_certification_get_frame_type:
 1880              		@ args = 0, pretend = 0, frame = 0
 1881              		@ frame_needed = 0, uses_anonymous_args = 0
 1882 0000 10B5     		push	{r4, lr}
 1883 0002 0248     		ldr	r0, .L232
 1884 0004 FFF7FEFF 		bl	lorawan_certification_get_frame_type
 1885              		@ sp needed
 1886 0008 10BD     		pop	{r4, pc}
 1887              	.L233:
 1888 000a C046     		.align	2
 1889              	.L232:
 1890 000c 740D0000 		.word	lr1mac_core_context+3444
 1892              		.section	.text.lorawan_api_certification_get_cw_config,"ax",%progbits
 1893              		.align	1
 1894              		.global	lorawan_api_certification_get_cw_config
 1895              		.syntax unified
 1896              		.code	16
 1897              		.thumb_func
 1898              		.fpu softvfp
 1900              	lorawan_api_certification_get_cw_config:
 1901              		@ args = 0, pretend = 0, frame = 0
 1902              		@ frame_needed = 0, uses_anonymous_args = 0
ARM GAS  /tmp/ccSk0DF5.s 			page 32


 1903 0000 10B5     		push	{r4, lr}
 1904 0002 1300     		movs	r3, r2
 1905              		@ sp needed
 1906 0004 0A00     		movs	r2, r1
 1907 0006 0100     		movs	r1, r0
 1908 0008 0148     		ldr	r0, .L235
 1909 000a FFF7FEFF 		bl	lorawan_certification_get_cw_config
 1910 000e 10BD     		pop	{r4, pc}
 1911              	.L236:
 1912              		.align	2
 1913              	.L235:
 1914 0010 740D0000 		.word	lr1mac_core_context+3444
 1916              		.section	.text.lorawan_api_certification_is_cw_running,"ax",%progbits
 1917              		.align	1
 1918              		.global	lorawan_api_certification_is_cw_running
 1919              		.syntax unified
 1920              		.code	16
 1921              		.thumb_func
 1922              		.fpu softvfp
 1924              	lorawan_api_certification_is_cw_running:
 1925              		@ args = 0, pretend = 0, frame = 0
 1926              		@ frame_needed = 0, uses_anonymous_args = 0
 1927 0000 10B5     		push	{r4, lr}
 1928 0002 0248     		ldr	r0, .L238
 1929 0004 FFF7FEFF 		bl	lorawan_certification_is_cw_running
 1930              		@ sp needed
 1931 0008 10BD     		pop	{r4, pc}
 1932              	.L239:
 1933 000a C046     		.align	2
 1934              	.L238:
 1935 000c 740D0000 		.word	lr1mac_core_context+3444
 1937              		.section	.text.lorawan_api_certification_cw_set_as_stopped,"ax",%progbits
 1938              		.align	1
 1939              		.global	lorawan_api_certification_cw_set_as_stopped
 1940              		.syntax unified
 1941              		.code	16
 1942              		.thumb_func
 1943              		.fpu softvfp
 1945              	lorawan_api_certification_cw_set_as_stopped:
 1946              		@ args = 0, pretend = 0, frame = 0
 1947              		@ frame_needed = 0, uses_anonymous_args = 0
 1948 0000 10B5     		push	{r4, lr}
 1949 0002 0248     		ldr	r0, .L241
 1950 0004 FFF7FEFF 		bl	lorawan_certification_cw_set_as_stopped
 1951              		@ sp needed
 1952 0008 10BD     		pop	{r4, pc}
 1953              	.L242:
 1954 000a C046     		.align	2
 1955              	.L241:
 1956 000c 740D0000 		.word	lr1mac_core_context+3444
 1958              		.section	.text.lorawan_api_certification_get_beacon_rx_status_ind_ctrl,"ax",%progbits
 1959              		.align	1
 1960              		.global	lorawan_api_certification_get_beacon_rx_status_ind_ctrl
 1961              		.syntax unified
 1962              		.code	16
 1963              		.thumb_func
 1964              		.fpu softvfp
ARM GAS  /tmp/ccSk0DF5.s 			page 33


 1966              	lorawan_api_certification_get_beacon_rx_status_ind_ctrl:
 1967              		@ args = 0, pretend = 0, frame = 0
 1968              		@ frame_needed = 0, uses_anonymous_args = 0
 1969 0000 10B5     		push	{r4, lr}
 1970 0002 0248     		ldr	r0, .L244
 1971 0004 FFF7FEFF 		bl	lorawan_certification_get_beacon_rx_status_ind_ctrl
 1972              		@ sp needed
 1973 0008 10BD     		pop	{r4, pc}
 1974              	.L245:
 1975 000a C046     		.align	2
 1976              	.L244:
 1977 000c 740D0000 		.word	lr1mac_core_context+3444
 1979              		.section	.text.lorawan_api_modem_certification_is_enabled,"ax",%progbits
 1980              		.align	1
 1981              		.global	lorawan_api_modem_certification_is_enabled
 1982              		.syntax unified
 1983              		.code	16
 1984              		.thumb_func
 1985              		.fpu softvfp
 1987              	lorawan_api_modem_certification_is_enabled:
 1988              		@ args = 0, pretend = 0, frame = 0
 1989              		@ frame_needed = 0, uses_anonymous_args = 0
 1990 0000 10B5     		push	{r4, lr}
 1991 0002 0248     		ldr	r0, .L247
 1992 0004 FFF7FEFF 		bl	lr1mac_core_certification_get
 1993              		@ sp needed
 1994 0008 10BD     		pop	{r4, pc}
 1995              	.L248:
 1996 000a C046     		.align	2
 1997              	.L247:
 1998 000c 00000000 		.word	lr1mac_core_context
 2000              		.section	.text.lorawan_api_certification_get_requested_class,"ax",%progbits
 2001              		.align	1
 2002              		.global	lorawan_api_certification_get_requested_class
 2003              		.syntax unified
 2004              		.code	16
 2005              		.thumb_func
 2006              		.fpu softvfp
 2008              	lorawan_api_certification_get_requested_class:
 2009              		@ args = 0, pretend = 0, frame = 0
 2010              		@ frame_needed = 0, uses_anonymous_args = 0
 2011 0000 10B5     		push	{r4, lr}
 2012 0002 0248     		ldr	r0, .L250
 2013 0004 FFF7FEFF 		bl	lorawan_certification_get_requested_class
 2014              		@ sp needed
 2015 0008 10BD     		pop	{r4, pc}
 2016              	.L251:
 2017 000a C046     		.align	2
 2018              	.L250:
 2019 000c 740D0000 		.word	lr1mac_core_context+3444
 2021              		.section	.text.lorawan_api_certification,"ax",%progbits
 2022              		.align	1
 2023              		.global	lorawan_api_certification
 2024              		.syntax unified
 2025              		.code	16
 2026              		.thumb_func
 2027              		.fpu softvfp
ARM GAS  /tmp/ccSk0DF5.s 			page 34


 2029              	lorawan_api_certification:
 2030              		@ args = 4, pretend = 0, frame = 0
 2031              		@ frame_needed = 0, uses_anonymous_args = 0
 2032 0000 13B5     		push	{r0, r1, r4, lr}
 2033 0002 049C     		ldr	r4, [sp, #16]
 2034 0004 0093     		str	r3, [sp]
 2035 0006 0194     		str	r4, [sp, #4]
 2036 0008 1300     		movs	r3, r2
 2037              		@ sp needed
 2038 000a 0A00     		movs	r2, r1
 2039 000c 0100     		movs	r1, r0
 2040 000e 0248     		ldr	r0, .L253
 2041 0010 FFF7FEFF 		bl	lorawan_certification_parser
 2042 0014 16BD     		pop	{r1, r2, r4, pc}
 2043              	.L254:
 2044 0016 C046     		.align	2
 2045              	.L253:
 2046 0018 740D0000 		.word	lr1mac_core_context+3444
 2048              		.section	.text.lorawan_api_certification_build_beacon_rx_status_ind,"ax",%progbits
 2049              		.align	1
 2050              		.global	lorawan_api_certification_build_beacon_rx_status_ind
 2051              		.syntax unified
 2052              		.code	16
 2053              		.thumb_func
 2054              		.fpu softvfp
 2056              	lorawan_api_certification_build_beacon_rx_status_ind:
 2057              		@ args = 16, pretend = 0, frame = 0
 2058              		@ frame_needed = 0, uses_anonymous_args = 0
 2059 0000 F0B5     		push	{r4, r5, r6, r7, lr}
 2060 0002 87B0     		sub	sp, sp, #28
 2061 0004 0CAC     		add	r4, sp, #48
 2062 0006 0DAD     		add	r5, sp, #52
 2063 0008 2478     		ldrb	r4, [r4]
 2064 000a 2D78     		ldrb	r5, [r5]
 2065 000c 0EAE     		add	r6, sp, #56
 2066 000e 3678     		ldrb	r6, [r6]
 2067 0010 0F9F     		ldr	r7, [sp, #60]
 2068 0012 64B2     		sxtb	r4, r4
 2069 0014 6DB2     		sxtb	r5, r5
 2070 0016 0093     		str	r3, [sp]
 2071 0018 0497     		str	r7, [sp, #16]
 2072 001a 1300     		movs	r3, r2
 2073 001c 0396     		str	r6, [sp, #12]
 2074 001e 0A00     		movs	r2, r1
 2075 0020 0295     		str	r5, [sp, #8]
 2076 0022 0100     		movs	r1, r0
 2077 0024 0194     		str	r4, [sp, #4]
 2078 0026 0248     		ldr	r0, .L256
 2079 0028 FFF7FEFF 		bl	lorawan_certification_build_beacon_rx_status_ind
 2080 002c 07B0     		add	sp, sp, #28
 2081              		@ sp needed
 2082 002e F0BD     		pop	{r4, r5, r6, r7, pc}
 2083              	.L257:
 2084              		.align	2
 2085              	.L256:
 2086 0030 740D0000 		.word	lr1mac_core_context+3444
 2088              		.section	.text.lorawan_api_available_link_adr_get,"ax",%progbits
ARM GAS  /tmp/ccSk0DF5.s 			page 35


 2089              		.align	1
 2090              		.global	lorawan_api_available_link_adr_get
 2091              		.syntax unified
 2092              		.code	16
 2093              		.thumb_func
 2094              		.fpu softvfp
 2096              	lorawan_api_available_link_adr_get:
 2097              		@ args = 0, pretend = 0, frame = 0
 2098              		@ frame_needed = 0, uses_anonymous_args = 0
 2099 0000 10B5     		push	{r4, lr}
 2100 0002 0248     		ldr	r0, .L259
 2101 0004 FFF7FEFF 		bl	lr1mac_core_available_link_adr_get
 2102              		@ sp needed
 2103 0008 10BD     		pop	{r4, pc}
 2104              	.L260:
 2105 000a C046     		.align	2
 2106              	.L259:
 2107 000c 00000000 		.word	lr1mac_core_context
 2109              		.section	.text.lorawan_api_stack_mac_get,"ax",%progbits
 2110              		.align	1
 2111              		.global	lorawan_api_stack_mac_get
 2112              		.syntax unified
 2113              		.code	16
 2114              		.thumb_func
 2115              		.fpu softvfp
 2117              	lorawan_api_stack_mac_get:
 2118              		@ args = 0, pretend = 0, frame = 0
 2119              		@ frame_needed = 0, uses_anonymous_args = 0
 2120              		@ link register save eliminated.
 2121 0000 0048     		ldr	r0, .L262
 2122              		@ sp needed
 2123 0002 7047     		bx	lr
 2124              	.L263:
 2125              		.align	2
 2126              	.L262:
 2127 0004 00000000 		.word	lr1mac_core_context
 2129              		.section	.text.lorawan_api_get_fifo_obj,"ax",%progbits
 2130              		.align	1
 2131              		.global	lorawan_api_get_fifo_obj
 2132              		.syntax unified
 2133              		.code	16
 2134              		.thumb_func
 2135              		.fpu softvfp
 2137              	lorawan_api_get_fifo_obj:
 2138              		@ args = 0, pretend = 0, frame = 0
 2139              		@ frame_needed = 0, uses_anonymous_args = 0
 2140              		@ link register save eliminated.
 2141 0000 0048     		ldr	r0, .L265
 2142              		@ sp needed
 2143 0002 7047     		bx	lr
 2144              	.L266:
 2145              		.align	2
 2146              	.L265:
 2147 0004 6C0A0000 		.word	lr1mac_core_context+2668
 2149              		.section	.text.lorawan_api_set_network_type,"ax",%progbits
 2150              		.align	1
 2151              		.global	lorawan_api_set_network_type
ARM GAS  /tmp/ccSk0DF5.s 			page 36


 2152              		.syntax unified
 2153              		.code	16
 2154              		.thumb_func
 2155              		.fpu softvfp
 2157              	lorawan_api_set_network_type:
 2158              		@ args = 0, pretend = 0, frame = 0
 2159              		@ frame_needed = 0, uses_anonymous_args = 0
 2160 0000 10B5     		push	{r4, lr}
 2161 0002 074C     		ldr	r4, .L271
 2162 0004 0028     		cmp	r0, #0
 2163 0006 07D0     		beq	.L268
 2164 0008 2000     		movs	r0, r4
 2165 000a FFF7FEFF 		bl	smtc_real_get_public_sync_word
 2166              	.L270:
 2167              		@ sp needed
 2168 000e 0100     		movs	r1, r0
 2169 0010 2000     		movs	r0, r4
 2170 0012 FFF7FEFF 		bl	smtc_real_set_sync_word
 2171 0016 10BD     		pop	{r4, pc}
 2172              	.L268:
 2173 0018 2000     		movs	r0, r4
 2174 001a FFF7FEFF 		bl	smtc_real_get_private_sync_word
 2175 001e F6E7     		b	.L270
 2176              	.L272:
 2177              		.align	2
 2178              	.L271:
 2179 0020 00000000 		.word	lr1mac_core_context
 2181              		.section	.text.lorawan_api_get_network_type,"ax",%progbits
 2182              		.align	1
 2183              		.global	lorawan_api_get_network_type
 2184              		.syntax unified
 2185              		.code	16
 2186              		.thumb_func
 2187              		.fpu softvfp
 2189              	lorawan_api_get_network_type:
 2190              		@ args = 0, pretend = 0, frame = 0
 2191              		@ frame_needed = 0, uses_anonymous_args = 0
 2192 0000 70B5     		push	{r4, r5, r6, lr}
 2193 0002 064D     		ldr	r5, .L274
 2194              		@ sp needed
 2195 0004 2800     		movs	r0, r5
 2196 0006 FFF7FEFF 		bl	smtc_real_get_sync_word
 2197 000a 0400     		movs	r4, r0
 2198 000c 2800     		movs	r0, r5
 2199 000e FFF7FEFF 		bl	smtc_real_get_public_sync_word
 2200 0012 001B     		subs	r0, r0, r4
 2201 0014 4342     		rsbs	r3, r0, #0
 2202 0016 5841     		adcs	r0, r0, r3
 2203 0018 C0B2     		uxtb	r0, r0
 2204 001a 70BD     		pop	{r4, r5, r6, pc}
 2205              	.L275:
 2206              		.align	2
 2207              	.L274:
 2208 001c 00000000 		.word	lr1mac_core_context
 2210              		.section	.text.lorawan_api_nb_trans_get,"ax",%progbits
 2211              		.align	1
 2212              		.global	lorawan_api_nb_trans_get
ARM GAS  /tmp/ccSk0DF5.s 			page 37


 2213              		.syntax unified
 2214              		.code	16
 2215              		.thumb_func
 2216              		.fpu softvfp
 2218              	lorawan_api_nb_trans_get:
 2219              		@ args = 0, pretend = 0, frame = 0
 2220              		@ frame_needed = 0, uses_anonymous_args = 0
 2221 0000 10B5     		push	{r4, lr}
 2222 0002 0248     		ldr	r0, .L277
 2223 0004 FFF7FEFF 		bl	lr1_stack_nb_trans_get
 2224              		@ sp needed
 2225 0008 10BD     		pop	{r4, pc}
 2226              	.L278:
 2227 000a C046     		.align	2
 2228              	.L277:
 2229 000c 00000000 		.word	lr1mac_core_context
 2231              		.section	.text.lorawan_api_nb_trans_set,"ax",%progbits
 2232              		.align	1
 2233              		.global	lorawan_api_nb_trans_set
 2234              		.syntax unified
 2235              		.code	16
 2236              		.thumb_func
 2237              		.fpu softvfp
 2239              	lorawan_api_nb_trans_set:
 2240              		@ args = 0, pretend = 0, frame = 0
 2241              		@ frame_needed = 0, uses_anonymous_args = 0
 2242 0000 10B5     		push	{r4, lr}
 2243 0002 0100     		movs	r1, r0
 2244              		@ sp needed
 2245 0004 0148     		ldr	r0, .L280
 2246 0006 FFF7FEFF 		bl	lr1_stack_nb_trans_set
 2247 000a 10BD     		pop	{r4, pc}
 2248              	.L281:
 2249              		.align	2
 2250              	.L280:
 2251 000c 00000000 		.word	lr1mac_core_context
 2253              		.section	.text.lorawan_api_get_crystal_error,"ax",%progbits
 2254              		.align	1
 2255              		.global	lorawan_api_get_crystal_error
 2256              		.syntax unified
 2257              		.code	16
 2258              		.thumb_func
 2259              		.fpu softvfp
 2261              	lorawan_api_get_crystal_error:
 2262              		@ args = 0, pretend = 0, frame = 0
 2263              		@ frame_needed = 0, uses_anonymous_args = 0
 2264 0000 10B5     		push	{r4, lr}
 2265 0002 0248     		ldr	r0, .L283
 2266 0004 FFF7FEFF 		bl	lr1_stack_get_crystal_error
 2267              		@ sp needed
 2268 0008 10BD     		pop	{r4, pc}
 2269              	.L284:
 2270 000a C046     		.align	2
 2271              	.L283:
 2272 000c 00000000 		.word	lr1mac_core_context
 2274              		.section	.text.lorawan_api_set_crystal_error,"ax",%progbits
 2275              		.align	1
ARM GAS  /tmp/ccSk0DF5.s 			page 38


 2276              		.global	lorawan_api_set_crystal_error
 2277              		.syntax unified
 2278              		.code	16
 2279              		.thumb_func
 2280              		.fpu softvfp
 2282              	lorawan_api_set_crystal_error:
 2283              		@ args = 0, pretend = 0, frame = 0
 2284              		@ frame_needed = 0, uses_anonymous_args = 0
 2285 0000 10B5     		push	{r4, lr}
 2286 0002 0100     		movs	r1, r0
 2287              		@ sp needed
 2288 0004 0148     		ldr	r0, .L286
 2289 0006 FFF7FEFF 		bl	lr1_stack_set_crystal_error
 2290 000a 10BD     		pop	{r4, pc}
 2291              	.L287:
 2292              		.align	2
 2293              	.L286:
 2294 000c 00000000 		.word	lr1mac_core_context
 2296              		.section	.text.lorawan_api_get_spec_version,"ax",%progbits
 2297              		.align	1
 2298              		.global	lorawan_api_get_spec_version
 2299              		.syntax unified
 2300              		.code	16
 2301              		.thumb_func
 2302              		.fpu softvfp
 2304              	lorawan_api_get_spec_version:
 2305              		@ args = 0, pretend = 0, frame = 8
 2306              		@ frame_needed = 0, uses_anonymous_args = 0
 2307 0000 13B5     		push	{r0, r1, r4, lr}
 2308 0002 0948     		ldr	r0, .L289
 2309 0004 FFF7FEFF 		bl	lr1mac_core_get_lorawan_version
 2310              		@ sp needed
 2311 0008 FF24     		movs	r4, #255
 2312 000a 0300     		movs	r3, r0
 2313 000c 010A     		lsrs	r1, r0, #8
 2314 000e 020C     		lsrs	r2, r0, #16
 2315 0010 2140     		ands	r1, r4
 2316 0012 2340     		ands	r3, r4
 2317 0014 0902     		lsls	r1, r1, #8
 2318 0016 2240     		ands	r2, r4
 2319 0018 1204     		lsls	r2, r2, #16
 2320 001a 0B43     		orrs	r3, r1
 2321 001c 000E     		lsrs	r0, r0, #24
 2322 001e 1343     		orrs	r3, r2
 2323 0020 0006     		lsls	r0, r0, #24
 2324 0022 1843     		orrs	r0, r3
 2325 0024 16BD     		pop	{r1, r2, r4, pc}
 2326              	.L290:
 2327 0026 C046     		.align	2
 2328              	.L289:
 2329 0028 00000000 		.word	lr1mac_core_context
 2331              		.section	.text.lorawan_api_get_regional_parameters_version,"ax",%progbits
 2332              		.align	1
 2333              		.global	lorawan_api_get_regional_parameters_version
 2334              		.syntax unified
 2335              		.code	16
 2336              		.thumb_func
ARM GAS  /tmp/ccSk0DF5.s 			page 39


 2337              		.fpu softvfp
 2339              	lorawan_api_get_regional_parameters_version:
 2340              		@ args = 0, pretend = 0, frame = 8
 2341              		@ frame_needed = 0, uses_anonymous_args = 0
 2342 0000 13B5     		push	{r0, r1, r4, lr}
 2343 0002 FFF7FEFF 		bl	smtc_real_get_regional_parameters_version
 2344              		@ sp needed
 2345 0006 FF24     		movs	r4, #255
 2346 0008 0300     		movs	r3, r0
 2347 000a 010A     		lsrs	r1, r0, #8
 2348 000c 020C     		lsrs	r2, r0, #16
 2349 000e 2140     		ands	r1, r4
 2350 0010 2340     		ands	r3, r4
 2351 0012 0902     		lsls	r1, r1, #8
 2352 0014 2240     		ands	r2, r4
 2353 0016 1204     		lsls	r2, r2, #16
 2354 0018 0B43     		orrs	r3, r1
 2355 001a 000E     		lsrs	r0, r0, #24
 2356 001c 1343     		orrs	r3, r2
 2357 001e 0006     		lsls	r0, r0, #24
 2358 0020 1843     		orrs	r0, r3
 2359 0022 16BD     		pop	{r1, r2, r4, pc}
 2361              		.section	.text.lorawan_api_convert_rtc_to_gps_epoch_time,"ax",%progbits
 2362              		.align	1
 2363              		.global	lorawan_api_convert_rtc_to_gps_epoch_time
 2364              		.syntax unified
 2365              		.code	16
 2366              		.thumb_func
 2367              		.fpu softvfp
 2369              	lorawan_api_convert_rtc_to_gps_epoch_time:
 2370              		@ args = 0, pretend = 0, frame = 0
 2371              		@ frame_needed = 0, uses_anonymous_args = 0
 2372 0000 10B5     		push	{r4, lr}
 2373 0002 1300     		movs	r3, r2
 2374              		@ sp needed
 2375 0004 0A00     		movs	r2, r1
 2376 0006 0100     		movs	r1, r0
 2377 0008 0148     		ldr	r0, .L293
 2378 000a FFF7FEFF 		bl	lr1mac_core_convert_rtc_to_gps_epoch_time
 2379 000e 10BD     		pop	{r4, pc}
 2380              	.L294:
 2381              		.align	2
 2382              	.L293:
 2383 0010 00000000 		.word	lr1mac_core_context
 2385              		.section	.text.lorawan_api_is_time_valid,"ax",%progbits
 2386              		.align	1
 2387              		.global	lorawan_api_is_time_valid
 2388              		.syntax unified
 2389              		.code	16
 2390              		.thumb_func
 2391              		.fpu softvfp
 2393              	lorawan_api_is_time_valid:
 2394              		@ args = 0, pretend = 0, frame = 0
 2395              		@ frame_needed = 0, uses_anonymous_args = 0
 2396 0000 10B5     		push	{r4, lr}
 2397 0002 0248     		ldr	r0, .L296
 2398 0004 FFF7FEFF 		bl	lr1mac_core_is_time_valid
ARM GAS  /tmp/ccSk0DF5.s 			page 40


 2399              		@ sp needed
 2400 0008 10BD     		pop	{r4, pc}
 2401              	.L297:
 2402 000a C046     		.align	2
 2403              	.L296:
 2404 000c 00000000 		.word	lr1mac_core_context
 2406              		.section	.text.lorawan_api_get_timestamp_last_device_time_ans_s,"ax",%progbits
 2407              		.align	1
 2408              		.global	lorawan_api_get_timestamp_last_device_time_ans_s
 2409              		.syntax unified
 2410              		.code	16
 2411              		.thumb_func
 2412              		.fpu softvfp
 2414              	lorawan_api_get_timestamp_last_device_time_ans_s:
 2415              		@ args = 0, pretend = 0, frame = 0
 2416              		@ frame_needed = 0, uses_anonymous_args = 0
 2417 0000 10B5     		push	{r4, lr}
 2418 0002 0248     		ldr	r0, .L299
 2419 0004 FFF7FEFF 		bl	lr1mac_core_get_timestamp_last_device_time_ans_s
 2420              		@ sp needed
 2421 0008 10BD     		pop	{r4, pc}
 2422              	.L300:
 2423 000a C046     		.align	2
 2424              	.L299:
 2425 000c 00000000 		.word	lr1mac_core_context
 2427              		.section	.text.lorawan_api_get_time_left_connection_lost,"ax",%progbits
 2428              		.align	1
 2429              		.global	lorawan_api_get_time_left_connection_lost
 2430              		.syntax unified
 2431              		.code	16
 2432              		.thumb_func
 2433              		.fpu softvfp
 2435              	lorawan_api_get_time_left_connection_lost:
 2436              		@ args = 0, pretend = 0, frame = 0
 2437              		@ frame_needed = 0, uses_anonymous_args = 0
 2438 0000 10B5     		push	{r4, lr}
 2439 0002 0248     		ldr	r0, .L302
 2440 0004 FFF7FEFF 		bl	lr1mac_core_get_time_left_connection_lost
 2441              		@ sp needed
 2442 0008 10BD     		pop	{r4, pc}
 2443              	.L303:
 2444 000a C046     		.align	2
 2445              	.L302:
 2446 000c 00000000 		.word	lr1mac_core_context
 2448              		.section	.text.lorawan_api_set_device_time_callback,"ax",%progbits
 2449              		.align	1
 2450              		.global	lorawan_api_set_device_time_callback
 2451              		.syntax unified
 2452              		.code	16
 2453              		.thumb_func
 2454              		.fpu softvfp
 2456              	lorawan_api_set_device_time_callback:
 2457              		@ args = 0, pretend = 0, frame = 0
 2458              		@ frame_needed = 0, uses_anonymous_args = 0
 2459 0000 10B5     		push	{r4, lr}
 2460 0002 1300     		movs	r3, r2
 2461              		@ sp needed
ARM GAS  /tmp/ccSk0DF5.s 			page 41


 2462 0004 0A00     		movs	r2, r1
 2463 0006 0100     		movs	r1, r0
 2464 0008 0148     		ldr	r0, .L305
 2465 000a FFF7FEFF 		bl	lr1mac_core_set_device_time_callback
 2466 000e 10BD     		pop	{r4, pc}
 2467              	.L306:
 2468              		.align	2
 2469              	.L305:
 2470 0010 00000000 		.word	lr1mac_core_context
 2472              		.section	.text.lorawan_api_set_device_time_invalid_delay_s,"ax",%progbits
 2473              		.align	1
 2474              		.global	lorawan_api_set_device_time_invalid_delay_s
 2475              		.syntax unified
 2476              		.code	16
 2477              		.thumb_func
 2478              		.fpu softvfp
 2480              	lorawan_api_set_device_time_invalid_delay_s:
 2481              		@ args = 0, pretend = 0, frame = 0
 2482              		@ frame_needed = 0, uses_anonymous_args = 0
 2483 0000 10B5     		push	{r4, lr}
 2484 0002 0100     		movs	r1, r0
 2485              		@ sp needed
 2486 0004 0148     		ldr	r0, .L308
 2487 0006 FFF7FEFF 		bl	lr1_mac_core_set_device_time_invalid_delay_s
 2488 000a 10BD     		pop	{r4, pc}
 2489              	.L309:
 2490              		.align	2
 2491              	.L308:
 2492 000c 00000000 		.word	lr1mac_core_context
 2494              		.section	.text.lorawan_api_get_device_time_invalid_delay_s,"ax",%progbits
 2495              		.align	1
 2496              		.global	lorawan_api_get_device_time_invalid_delay_s
 2497              		.syntax unified
 2498              		.code	16
 2499              		.thumb_func
 2500              		.fpu softvfp
 2502              	lorawan_api_get_device_time_invalid_delay_s:
 2503              		@ args = 0, pretend = 0, frame = 0
 2504              		@ frame_needed = 0, uses_anonymous_args = 0
 2505 0000 10B5     		push	{r4, lr}
 2506 0002 0248     		ldr	r0, .L311
 2507 0004 FFF7FEFF 		bl	lr1_mac_core_get_device_time_invalid_delay_s
 2508              		@ sp needed
 2509 0008 10BD     		pop	{r4, pc}
 2510              	.L312:
 2511 000a C046     		.align	2
 2512              	.L311:
 2513 000c 00000000 		.word	lr1mac_core_context
 2515              		.section	.text.lorawan_api_get_link_check_ans,"ax",%progbits
 2516              		.align	1
 2517              		.global	lorawan_api_get_link_check_ans
 2518              		.syntax unified
 2519              		.code	16
 2520              		.thumb_func
 2521              		.fpu softvfp
 2523              	lorawan_api_get_link_check_ans:
 2524              		@ args = 0, pretend = 0, frame = 0
ARM GAS  /tmp/ccSk0DF5.s 			page 42


 2525              		@ frame_needed = 0, uses_anonymous_args = 0
 2526 0000 10B5     		push	{r4, lr}
 2527 0002 0A00     		movs	r2, r1
 2528              		@ sp needed
 2529 0004 0100     		movs	r1, r0
 2530 0006 0248     		ldr	r0, .L314
 2531 0008 FFF7FEFF 		bl	lr1_mac_core_get_link_check_ans
 2532 000c 10BD     		pop	{r4, pc}
 2533              	.L315:
 2534 000e C046     		.align	2
 2535              	.L314:
 2536 0010 00000000 		.word	lr1mac_core_context
 2538              		.section	.text.lorawan_api_get_device_time_req_status,"ax",%progbits
 2539              		.align	1
 2540              		.global	lorawan_api_get_device_time_req_status
 2541              		.syntax unified
 2542              		.code	16
 2543              		.thumb_func
 2544              		.fpu softvfp
 2546              	lorawan_api_get_device_time_req_status:
 2547              		@ args = 0, pretend = 0, frame = 0
 2548              		@ frame_needed = 0, uses_anonymous_args = 0
 2549 0000 10B5     		push	{r4, lr}
 2550 0002 0248     		ldr	r0, .L317
 2551 0004 FFF7FEFF 		bl	lr1_mac_core_get_device_time_req_status
 2552              		@ sp needed
 2553 0008 10BD     		pop	{r4, pc}
 2554              	.L318:
 2555 000a C046     		.align	2
 2556              	.L317:
 2557 000c 00000000 		.word	lr1mac_core_context
 2559              		.section	.text.lorawan_api_lbt_set_parameters,"ax",%progbits
 2560              		.align	1
 2561              		.global	lorawan_api_lbt_set_parameters
 2562              		.syntax unified
 2563              		.code	16
 2564              		.thumb_func
 2565              		.fpu softvfp
 2567              	lorawan_api_lbt_set_parameters:
 2568              		@ args = 0, pretend = 0, frame = 0
 2569              		@ frame_needed = 0, uses_anonymous_args = 0
 2570 0000 10B5     		push	{r4, lr}
 2571 0002 1300     		movs	r3, r2
 2572              		@ sp needed
 2573 0004 0A00     		movs	r2, r1
 2574 0006 0100     		movs	r1, r0
 2575 0008 0148     		ldr	r0, .L320
 2576 000a FFF7FEFF 		bl	smtc_lbt_set_parameters
 2577 000e 10BD     		pop	{r4, pc}
 2578              	.L321:
 2579              		.align	2
 2580              	.L320:
 2581 0010 B4060000 		.word	lr1mac_core_context+1716
 2583              		.section	.text.lorawan_api_lbt_get_parameters,"ax",%progbits
 2584              		.align	1
 2585              		.global	lorawan_api_lbt_get_parameters
 2586              		.syntax unified
ARM GAS  /tmp/ccSk0DF5.s 			page 43


 2587              		.code	16
 2588              		.thumb_func
 2589              		.fpu softvfp
 2591              	lorawan_api_lbt_get_parameters:
 2592              		@ args = 0, pretend = 0, frame = 0
 2593              		@ frame_needed = 0, uses_anonymous_args = 0
 2594 0000 10B5     		push	{r4, lr}
 2595 0002 1300     		movs	r3, r2
 2596              		@ sp needed
 2597 0004 0A00     		movs	r2, r1
 2598 0006 0100     		movs	r1, r0
 2599 0008 0148     		ldr	r0, .L323
 2600 000a FFF7FEFF 		bl	smtc_lbt_get_parameters
 2601 000e 10BD     		pop	{r4, pc}
 2602              	.L324:
 2603              		.align	2
 2604              	.L323:
 2605 0010 B4060000 		.word	lr1mac_core_context+1716
 2607              		.section	.text.lorawan_api_lbt_set_state,"ax",%progbits
 2608              		.align	1
 2609              		.global	lorawan_api_lbt_set_state
 2610              		.syntax unified
 2611              		.code	16
 2612              		.thumb_func
 2613              		.fpu softvfp
 2615              	lorawan_api_lbt_set_state:
 2616              		@ args = 0, pretend = 0, frame = 0
 2617              		@ frame_needed = 0, uses_anonymous_args = 0
 2618 0000 10B5     		push	{r4, lr}
 2619 0002 0100     		movs	r1, r0
 2620              		@ sp needed
 2621 0004 0148     		ldr	r0, .L326
 2622 0006 FFF7FEFF 		bl	smtc_lbt_set_state
 2623 000a 10BD     		pop	{r4, pc}
 2624              	.L327:
 2625              		.align	2
 2626              	.L326:
 2627 000c B4060000 		.word	lr1mac_core_context+1716
 2629              		.section	.text.lorawan_api_lbt_get_state,"ax",%progbits
 2630              		.align	1
 2631              		.global	lorawan_api_lbt_get_state
 2632              		.syntax unified
 2633              		.code	16
 2634              		.thumb_func
 2635              		.fpu softvfp
 2637              	lorawan_api_lbt_get_state:
 2638              		@ args = 0, pretend = 0, frame = 0
 2639              		@ frame_needed = 0, uses_anonymous_args = 0
 2640 0000 10B5     		push	{r4, lr}
 2641 0002 0248     		ldr	r0, .L329
 2642 0004 FFF7FEFF 		bl	smtc_lbt_get_state
 2643              		@ sp needed
 2644 0008 10BD     		pop	{r4, pc}
 2645              	.L330:
 2646 000a C046     		.align	2
 2647              	.L329:
 2648 000c B4060000 		.word	lr1mac_core_context+1716
ARM GAS  /tmp/ccSk0DF5.s 			page 44


 2650              		.section	.text.lorawan_api_class_b_enabled,"ax",%progbits
 2651              		.align	1
 2652              		.global	lorawan_api_class_b_enabled
 2653              		.syntax unified
 2654              		.code	16
 2655              		.thumb_func
 2656              		.fpu softvfp
 2658              	lorawan_api_class_b_enabled:
 2659              		@ args = 0, pretend = 0, frame = 0
 2660              		@ frame_needed = 0, uses_anonymous_args = 0
 2661 0000 70B5     		push	{r4, r5, r6, lr}
 2662 0002 084D     		ldr	r5, .L336
 2663 0004 0100     		movs	r1, r0
 2664 0006 0400     		movs	r4, r0
 2665 0008 2800     		movs	r0, r5
 2666 000a FFF7FEFF 		bl	smtc_beacon_class_b_enable_service
 2667 000e FFF7FEFF 		bl	lorawan_api_isjoined
 2668 0012 0228     		cmp	r0, #2
 2669 0014 04D1     		bne	.L331
 2670 0016 002C     		cmp	r4, #0
 2671 0018 02D0     		beq	.L331
 2672 001a 2800     		movs	r0, r5
 2673 001c FFF7FEFF 		bl	smtc_beacon_sniff_start
 2674              	.L331:
 2675              		@ sp needed
 2676 0020 70BD     		pop	{r4, r5, r6, pc}
 2677              	.L337:
 2678 0022 C046     		.align	2
 2679              	.L336:
 2680 0024 880A0000 		.word	lr1mac_core_context+2696
 2682              		.section	.text.lorawan_api_beacon_sniff_start,"ax",%progbits
 2683              		.align	1
 2684              		.global	lorawan_api_beacon_sniff_start
 2685              		.syntax unified
 2686              		.code	16
 2687              		.thumb_func
 2688              		.fpu softvfp
 2690              	lorawan_api_beacon_sniff_start:
 2691              		@ args = 0, pretend = 0, frame = 0
 2692              		@ frame_needed = 0, uses_anonymous_args = 0
 2693 0000 10B5     		push	{r4, lr}
 2694 0002 0248     		ldr	r0, .L339
 2695 0004 FFF7FEFF 		bl	smtc_beacon_sniff_start
 2696              		@ sp needed
 2697 0008 10BD     		pop	{r4, pc}
 2698              	.L340:
 2699 000a C046     		.align	2
 2700              	.L339:
 2701 000c 880A0000 		.word	lr1mac_core_context+2696
 2703              		.section	.text.lorawan_api_beacon_sniff_stop,"ax",%progbits
 2704              		.align	1
 2705              		.global	lorawan_api_beacon_sniff_stop
 2706              		.syntax unified
 2707              		.code	16
 2708              		.thumb_func
 2709              		.fpu softvfp
 2711              	lorawan_api_beacon_sniff_stop:
ARM GAS  /tmp/ccSk0DF5.s 			page 45


 2712              		@ args = 0, pretend = 0, frame = 0
 2713              		@ frame_needed = 0, uses_anonymous_args = 0
 2714 0000 10B5     		push	{r4, lr}
 2715 0002 0248     		ldr	r0, .L342
 2716 0004 FFF7FEFF 		bl	smtc_beacon_sniff_stop
 2717              		@ sp needed
 2718 0008 10BD     		pop	{r4, pc}
 2719              	.L343:
 2720 000a C046     		.align	2
 2721              	.L342:
 2722 000c 880A0000 		.word	lr1mac_core_context+2696
 2724              		.section	.text.lorawan_api_beacon_get_metadata,"ax",%progbits
 2725              		.align	1
 2726              		.global	lorawan_api_beacon_get_metadata
 2727              		.syntax unified
 2728              		.code	16
 2729              		.thumb_func
 2730              		.fpu softvfp
 2732              	lorawan_api_beacon_get_metadata:
 2733              		@ args = 0, pretend = 0, frame = 0
 2734              		@ frame_needed = 0, uses_anonymous_args = 0
 2735 0000 10B5     		push	{r4, lr}
 2736 0002 0100     		movs	r1, r0
 2737              		@ sp needed
 2738 0004 0148     		ldr	r0, .L345
 2739 0006 FFF7FEFF 		bl	smtc_beacon_sniff_get_metadata
 2740 000a 10BD     		pop	{r4, pc}
 2741              	.L346:
 2742              		.align	2
 2743              	.L345:
 2744 000c 880A0000 		.word	lr1mac_core_context+2696
 2746              		.section	.text.lorawan_api_get_ping_slot_info_req_status,"ax",%progbits
 2747              		.align	1
 2748              		.global	lorawan_api_get_ping_slot_info_req_status
 2749              		.syntax unified
 2750              		.code	16
 2751              		.thumb_func
 2752              		.fpu softvfp
 2754              	lorawan_api_get_ping_slot_info_req_status:
 2755              		@ args = 0, pretend = 0, frame = 0
 2756              		@ frame_needed = 0, uses_anonymous_args = 0
 2757 0000 10B5     		push	{r4, lr}
 2758 0002 0248     		ldr	r0, .L348
 2759 0004 FFF7FEFF 		bl	lr1_mac_core_get_ping_slot_info_req_status
 2760              		@ sp needed
 2761 0008 10BD     		pop	{r4, pc}
 2762              	.L349:
 2763 000a C046     		.align	2
 2764              	.L348:
 2765 000c 00000000 		.word	lr1mac_core_context
 2767              		.section	.text.lorawan_api_set_ping_slot_periodicity,"ax",%progbits
 2768              		.align	1
 2769              		.global	lorawan_api_set_ping_slot_periodicity
 2770              		.syntax unified
 2771              		.code	16
 2772              		.thumb_func
 2773              		.fpu softvfp
ARM GAS  /tmp/ccSk0DF5.s 			page 46


 2775              	lorawan_api_set_ping_slot_periodicity:
 2776              		@ args = 0, pretend = 0, frame = 0
 2777              		@ frame_needed = 0, uses_anonymous_args = 0
 2778 0000 10B5     		push	{r4, lr}
 2779 0002 0100     		movs	r1, r0
 2780              		@ sp needed
 2781 0004 0148     		ldr	r0, .L351
 2782 0006 FFF7FEFF 		bl	lr1mac_core_set_ping_slot_periodicity
 2783 000a 10BD     		pop	{r4, pc}
 2784              	.L352:
 2785              		.align	2
 2786              	.L351:
 2787 000c 00000000 		.word	lr1mac_core_context
 2789              		.section	.text.lorawan_api_get_ping_slot_periodicity,"ax",%progbits
 2790              		.align	1
 2791              		.global	lorawan_api_get_ping_slot_periodicity
 2792              		.syntax unified
 2793              		.code	16
 2794              		.thumb_func
 2795              		.fpu softvfp
 2797              	lorawan_api_get_ping_slot_periodicity:
 2798              		@ args = 0, pretend = 0, frame = 0
 2799              		@ frame_needed = 0, uses_anonymous_args = 0
 2800 0000 10B5     		push	{r4, lr}
 2801 0002 0248     		ldr	r0, .L354
 2802 0004 FFF7FEFF 		bl	lr1mac_core_get_ping_slot_periodicity
 2803              		@ sp needed
 2804 0008 10BD     		pop	{r4, pc}
 2805              	.L355:
 2806 000a C046     		.align	2
 2807              	.L354:
 2808 000c 00000000 		.word	lr1mac_core_context
 2810              		.section	.text.lorawan_api_get_class_b_status,"ax",%progbits
 2811              		.align	1
 2812              		.global	lorawan_api_get_class_b_status
 2813              		.syntax unified
 2814              		.code	16
 2815              		.thumb_func
 2816              		.fpu softvfp
 2818              	lorawan_api_get_class_b_status:
 2819              		@ args = 0, pretend = 0, frame = 0
 2820              		@ frame_needed = 0, uses_anonymous_args = 0
 2821 0000 10B5     		push	{r4, lr}
 2822 0002 0248     		ldr	r0, .L357
 2823 0004 FFF7FEFF 		bl	lr1mac_core_get_class_b_status
 2824              		@ sp needed
 2825 0008 10BD     		pop	{r4, pc}
 2826              	.L358:
 2827 000a C046     		.align	2
 2828              	.L357:
 2829 000c 00000000 		.word	lr1mac_core_context
 2831              		.section	.text.lorawan_api_lora_dr_to_sf_bw,"ax",%progbits
 2832              		.align	1
 2833              		.global	lorawan_api_lora_dr_to_sf_bw
 2834              		.syntax unified
 2835              		.code	16
 2836              		.thumb_func
ARM GAS  /tmp/ccSk0DF5.s 			page 47


 2837              		.fpu softvfp
 2839              	lorawan_api_lora_dr_to_sf_bw:
 2840              		@ args = 0, pretend = 0, frame = 0
 2841              		@ frame_needed = 0, uses_anonymous_args = 0
 2842 0000 10B5     		push	{r4, lr}
 2843 0002 1300     		movs	r3, r2
 2844              		@ sp needed
 2845 0004 0A00     		movs	r2, r1
 2846 0006 0100     		movs	r1, r0
 2847 0008 0148     		ldr	r0, .L360
 2848 000a FFF7FEFF 		bl	smtc_real_lora_dr_to_sf_bw
 2849 000e 10BD     		pop	{r4, pc}
 2850              	.L361:
 2851              		.align	2
 2852              	.L360:
 2853 0010 00000000 		.word	lr1mac_core_context
 2855              		.section	.text.lorawan_api_get_frequency_factor,"ax",%progbits
 2856              		.align	1
 2857              		.global	lorawan_api_get_frequency_factor
 2858              		.syntax unified
 2859              		.code	16
 2860              		.thumb_func
 2861              		.fpu softvfp
 2863              	lorawan_api_get_frequency_factor:
 2864              		@ args = 0, pretend = 0, frame = 0
 2865              		@ frame_needed = 0, uses_anonymous_args = 0
 2866 0000 10B5     		push	{r4, lr}
 2867 0002 0248     		ldr	r0, .L363
 2868 0004 FFF7FEFF 		bl	smtc_real_get_frequency_factor
 2869              		@ sp needed
 2870 0008 10BD     		pop	{r4, pc}
 2871              	.L364:
 2872 000a C046     		.align	2
 2873              	.L363:
 2874 000c 00000000 		.word	lr1mac_core_context
 2876              		.section	.text.lorawan_api_get_status_push_network_downlink_to_user,"ax",%progbits
 2877              		.align	1
 2878              		.global	lorawan_api_get_status_push_network_downlink_to_user
 2879              		.syntax unified
 2880              		.code	16
 2881              		.thumb_func
 2882              		.fpu softvfp
 2884              	lorawan_api_get_status_push_network_downlink_to_user:
 2885              		@ args = 0, pretend = 0, frame = 0
 2886              		@ frame_needed = 0, uses_anonymous_args = 0
 2887 0000 10B5     		push	{r4, lr}
 2888 0002 0248     		ldr	r0, .L366
 2889 0004 FFF7FEFF 		bl	lr1mac_core_get_status_push_network_downlink_to_user
 2890              		@ sp needed
 2891 0008 10BD     		pop	{r4, pc}
 2892              	.L367:
 2893 000a C046     		.align	2
 2894              	.L366:
 2895 000c 00000000 		.word	lr1mac_core_context
 2897              		.section	.text.lorawan_api_set_status_push_network_downlink_to_user,"ax",%progbits
 2898              		.align	1
 2899              		.global	lorawan_api_set_status_push_network_downlink_to_user
ARM GAS  /tmp/ccSk0DF5.s 			page 48


 2900              		.syntax unified
 2901              		.code	16
 2902              		.thumb_func
 2903              		.fpu softvfp
 2905              	lorawan_api_set_status_push_network_downlink_to_user:
 2906              		@ args = 0, pretend = 0, frame = 0
 2907              		@ frame_needed = 0, uses_anonymous_args = 0
 2908 0000 10B5     		push	{r4, lr}
 2909 0002 0100     		movs	r1, r0
 2910              		@ sp needed
 2911 0004 0148     		ldr	r0, .L369
 2912 0006 FFF7FEFF 		bl	lr1mac_core_set_status_push_network_downlink_to_user
 2913 000a 10BD     		pop	{r4, pc}
 2914              	.L370:
 2915              		.align	2
 2916              	.L369:
 2917 000c 00000000 		.word	lr1mac_core_context
 2919              		.section	.text.lorawan_api_modem_certification_set,"ax",%progbits
 2920              		.align	1
 2921              		.global	lorawan_api_modem_certification_set
 2922              		.syntax unified
 2923              		.code	16
 2924              		.thumb_func
 2925              		.fpu softvfp
 2927              	lorawan_api_modem_certification_set:
 2928              		@ args = 0, pretend = 0, frame = 0
 2929              		@ frame_needed = 0, uses_anonymous_args = 0
 2930 0000 10B5     		push	{r4, lr}
 2931 0002 0400     		movs	r4, r0
 2932              		@ sp needed
 2933 0004 631E     		subs	r3, r4, #1
 2934 0006 9C41     		sbcs	r4, r4, r3
 2935 0008 0100     		movs	r1, r0
 2936 000a E4B2     		uxtb	r4, r4
 2937 000c 0548     		ldr	r0, .L372
 2938 000e FFF7FEFF 		bl	lr1mac_core_certification_set
 2939 0012 2100     		movs	r1, r4
 2940 0014 0448     		ldr	r0, .L372+4
 2941 0016 FFF7FEFF 		bl	lorawan_certification_set_enabled
 2942 001a 2000     		movs	r0, r4
 2943 001c FFF7FEFF 		bl	lorawan_api_set_status_push_network_downlink_to_user
 2944 0020 10BD     		pop	{r4, pc}
 2945              	.L373:
 2946 0022 C046     		.align	2
 2947              	.L372:
 2948 0024 00000000 		.word	lr1mac_core_context
 2949 0028 740D0000 		.word	lr1mac_core_context+3444
 2951              		.section	.text.lorawan_api_set_adr_ack_limit_delay,"ax",%progbits
 2952              		.align	1
 2953              		.global	lorawan_api_set_adr_ack_limit_delay
 2954              		.syntax unified
 2955              		.code	16
 2956              		.thumb_func
 2957              		.fpu softvfp
 2959              	lorawan_api_set_adr_ack_limit_delay:
 2960              		@ args = 0, pretend = 0, frame = 0
 2961              		@ frame_needed = 0, uses_anonymous_args = 0
ARM GAS  /tmp/ccSk0DF5.s 			page 49


 2962 0000 10B5     		push	{r4, lr}
 2963 0002 0A00     		movs	r2, r1
 2964              		@ sp needed
 2965 0004 0100     		movs	r1, r0
 2966 0006 0248     		ldr	r0, .L375
 2967 0008 FFF7FEFF 		bl	lr1mac_core_set_adr_ack_limit_delay
 2968 000c 10BD     		pop	{r4, pc}
 2969              	.L376:
 2970 000e C046     		.align	2
 2971              	.L375:
 2972 0010 00000000 		.word	lr1mac_core_context
 2974              		.section	.text.lorawan_api_get_adr_ack_limit_delay,"ax",%progbits
 2975              		.align	1
 2976              		.global	lorawan_api_get_adr_ack_limit_delay
 2977              		.syntax unified
 2978              		.code	16
 2979              		.thumb_func
 2980              		.fpu softvfp
 2982              	lorawan_api_get_adr_ack_limit_delay:
 2983              		@ args = 0, pretend = 0, frame = 0
 2984              		@ frame_needed = 0, uses_anonymous_args = 0
 2985 0000 10B5     		push	{r4, lr}
 2986 0002 0A00     		movs	r2, r1
 2987              		@ sp needed
 2988 0004 0100     		movs	r1, r0
 2989 0006 0248     		ldr	r0, .L378
 2990 0008 FFF7FEFF 		bl	lr1mac_core_get_adr_ack_limit_delay
 2991 000c 10BD     		pop	{r4, pc}
 2992              	.L379:
 2993 000e C046     		.align	2
 2994              	.L378:
 2995 0010 00000000 		.word	lr1mac_core_context
 2997              		.section	.text.lorawan_api_class_b_d2d_request_tx,"ax",%progbits
 2998              		.align	1
 2999              		.global	lorawan_api_class_b_d2d_request_tx
 3000              		.syntax unified
 3001              		.code	16
 3002              		.thumb_func
 3003              		.fpu softvfp
 3005              	lorawan_api_class_b_d2d_request_tx:
 3006              		@ args = 20, pretend = 0, frame = 0
 3007              		@ frame_needed = 0, uses_anonymous_args = 0
 3008              		@ link register save eliminated.
 3009 0000 0020     		movs	r0, #0
 3010              		@ sp needed
 3011 0002 7047     		bx	lr
 3013              		.section	.text.lorawan_api_class_b_d2d_next_max_payload_length_get,"ax",%progbits
 3014              		.align	1
 3015              		.global	lorawan_api_class_b_d2d_next_max_payload_length_get
 3016              		.syntax unified
 3017              		.code	16
 3018              		.thumb_func
 3019              		.fpu softvfp
 3021              	lorawan_api_class_b_d2d_next_max_payload_length_get:
 3022              		@ args = 0, pretend = 0, frame = 0
 3023              		@ frame_needed = 0, uses_anonymous_args = 0
 3024              		@ link register save eliminated.
ARM GAS  /tmp/ccSk0DF5.s 			page 50


 3025 0000 0020     		movs	r0, #0
 3026              		@ sp needed
 3027 0002 7047     		bx	lr
 3029              		.global	fifo_buffer
 3030              		.section	.bss.fifo_buffer,"aw",%nobits
 3031              		.align	2
 3034              	fifo_buffer:
 3035 0000 00000000 		.space	512
 3035      00000000 
 3035      00000000 
 3035      00000000 
 3035      00000000 
 3036              		.section	.bss.lr1mac_core_context,"aw",%nobits
 3037              		.align	2
 3040              	lr1mac_core_context:
 3041 0000 00000000 		.space	3468
 3041      00000000 
 3041      00000000 
 3041      00000000 
 3041      00000000 
 3042              		.section	.rodata.__func__.0,"a"
 3043              		.set	.LANCHOR1,. + 0
 3046              	__func__.0:
 3047 0000 6C6F7261 		.ascii	"lorawan_api_class_c_downlink_callback\000"
 3047      77616E5F 
 3047      6170695F 
 3047      636C6173 
 3047      735F635F 
 3048              		.section	.rodata.__func__.1,"a"
 3049              		.set	.LANCHOR0,. + 0
 3052              	__func__.1:
 3053 0000 6C6F7261 		.ascii	"lorawan_api_class_b_downlink_callback\000"
 3053      77616E5F 
 3053      6170695F 
 3053      636C6173 
 3053      735F625F 
 3054              		.section	.rodata.__func__.2,"a"
 3055              		.set	.LANCHOR2,. + 0
 3058              	__func__.2:
 3059 0000 6C6F7261 		.ascii	"lorawan_api_class_b_beacon_callback\000"
 3059      77616E5F 
 3059      6170695F 
 3059      636C6173 
 3059      735F625F 
 3060              		.ident	"GCC: (15:10.3-2021.07-4) 10.3.1 20210621 (release)"
ARM GAS  /tmp/ccSk0DF5.s 			page 51

