ARM GAS  /tmp/ccW9QRuN.s 			page 1


   1              		.cpu cortex-m0
   2              		.eabi_attribute 23, 1
   3              		.eabi_attribute 24, 1
   4              		.eabi_attribute 25, 1
   5              		.eabi_attribute 26, 1
   6              		.eabi_attribute 30, 4
   7              		.eabi_attribute 34, 0
   8              		.eabi_attribute 18, 4
   9              		.file	"lr1mac_utilities.c"
  10              		.text
  11              		.section	.text.memcpy1,"ax",%progbits
  12              		.align	1
  13              		.global	memcpy1
  14              		.arch armv6s-m
  15              		.syntax unified
  16              		.code	16
  17              		.thumb_func
  18              		.fpu softvfp
  20              	memcpy1:
  21              		@ args = 0, pretend = 0, frame = 0
  22              		@ frame_needed = 0, uses_anonymous_args = 0
  23 0000 0023     		movs	r3, #0
  24 0002 10B5     		push	{r4, lr}
  25              	.L2:
  26 0004 9342     		cmp	r3, r2
  27 0006 00D1     		bne	.L3
  28              		@ sp needed
  29 0008 10BD     		pop	{r4, pc}
  30              	.L3:
  31 000a CC5C     		ldrb	r4, [r1, r3]
  32 000c C454     		strb	r4, [r0, r3]
  33 000e 0133     		adds	r3, r3, #1
  34 0010 F8E7     		b	.L2
  36              		.section	.text.memcpy1_r,"ax",%progbits
  37              		.align	1
  38              		.global	memcpy1_r
  39              		.syntax unified
  40              		.code	16
  41              		.thumb_func
  42              		.fpu softvfp
  44              	memcpy1_r:
  45              		@ args = 0, pretend = 0, frame = 0
  46              		@ frame_needed = 0, uses_anonymous_args = 0
  47 0000 531E     		subs	r3, r2, #1
  48 0002 C918     		adds	r1, r1, r3
  49 0004 0023     		movs	r3, #0
  50 0006 10B5     		push	{r4, lr}
  51              	.L5:
  52 0008 9A42     		cmp	r2, r3
  53 000a 00D1     		bne	.L6
  54              		@ sp needed
  55 000c 10BD     		pop	{r4, pc}
  56              	.L6:
  57 000e 5C42     		rsbs	r4, r3, #0
  58 0010 0C5D     		ldrb	r4, [r1, r4]
  59 0012 C454     		strb	r4, [r0, r3]
  60 0014 0133     		adds	r3, r3, #1
ARM GAS  /tmp/ccW9QRuN.s 			page 2


  61 0016 F7E7     		b	.L5
  63              		.section	.text.memset1,"ax",%progbits
  64              		.align	1
  65              		.global	memset1
  66              		.syntax unified
  67              		.code	16
  68              		.thumb_func
  69              		.fpu softvfp
  71              	memset1:
  72              		@ args = 0, pretend = 0, frame = 0
  73              		@ frame_needed = 0, uses_anonymous_args = 0
  74              		@ link register save eliminated.
  75 0000 044B     		ldr	r3, .L10
  76              	.L8:
  77 0002 013A     		subs	r2, r2, #1
  78 0004 92B2     		uxth	r2, r2
  79 0006 9A42     		cmp	r2, r3
  80 0008 00D1     		bne	.L9
  81              		@ sp needed
  82 000a 7047     		bx	lr
  83              	.L9:
  84 000c 0170     		strb	r1, [r0]
  85 000e 0130     		adds	r0, r0, #1
  86 0010 F7E7     		b	.L8
  87              	.L11:
  88 0012 C046     		.align	2
  89              	.L10:
  90 0014 FFFF0000 		.word	65535
  92              		.section	.text.lr1mac_utilities_crc,"ax",%progbits
  93              		.align	1
  94              		.global	lr1mac_utilities_crc
  95              		.syntax unified
  96              		.code	16
  97              		.thumb_func
  98              		.fpu softvfp
 100              	lr1mac_utilities_crc:
 101              		@ args = 0, pretend = 0, frame = 0
 102              		@ frame_needed = 0, uses_anonymous_args = 0
 103 0000 0623     		movs	r3, #6
 104 0002 70B5     		push	{r4, r5, r6, lr}
 105 0004 0124     		movs	r4, #1
 106 0006 0B4D     		ldr	r5, .L17
 107 0008 5B42     		rsbs	r3, r3, #0
 108 000a 4118     		adds	r1, r0, r1
 109              	.L13:
 110 000c 0A1A     		subs	r2, r1, r0
 111 000e 002A     		cmp	r2, #0
 112 0010 02DC     		bgt	.L15
 113              		@ sp needed
 114 0012 0220     		movs	r0, #2
 115 0014 C01A     		subs	r0, r0, r3
 116 0016 70BD     		pop	{r4, r5, r6, pc}
 117              	.L15:
 118 0018 0278     		ldrb	r2, [r0]
 119 001a 5340     		eors	r3, r2
 120 001c 0822     		movs	r2, #8
 121              	.L14:
ARM GAS  /tmp/ccW9QRuN.s 			page 3


 122 001e 5E08     		lsrs	r6, r3, #1
 123 0020 2340     		ands	r3, r4
 124 0022 5B42     		rsbs	r3, r3, #0
 125 0024 2B40     		ands	r3, r5
 126 0026 013A     		subs	r2, r2, #1
 127 0028 7340     		eors	r3, r6
 128 002a 002A     		cmp	r2, #0
 129 002c F7D1     		bne	.L14
 130 002e 0130     		adds	r0, r0, #1
 131 0030 ECE7     		b	.L13
 132              	.L18:
 133 0032 C046     		.align	2
 134              	.L17:
 135 0034 2083B8ED 		.word	-306674912
 137              		.global	__aeabi_uidiv
 138              		.section	.text.lr1mac_utilities_get_symb_time_us,"ax",%progbits
 139              		.align	1
 140              		.global	lr1mac_utilities_get_symb_time_us
 141              		.syntax unified
 142              		.code	16
 143              		.thumb_func
 144              		.fpu softvfp
 146              	lr1mac_utilities_get_symb_time_us:
 147              		@ args = 0, pretend = 0, frame = 0
 148              		@ frame_needed = 0, uses_anonymous_args = 0
 149 0000 10B5     		push	{r4, lr}
 150 0002 4C1F     		subs	r4, r1, #5
 151 0004 0300     		movs	r3, r0
 152 0006 0020     		movs	r0, #0
 153 0008 072C     		cmp	r4, #7
 154 000a 0AD8     		bhi	.L19
 155 000c 0D2A     		cmp	r2, #13
 156 000e 08D8     		bhi	.L19
 157 0010 FA20     		movs	r0, #250
 158 0012 8000     		lsls	r0, r0, #2
 159 0014 5843     		muls	r0, r3
 160 0016 034B     		ldr	r3, .L23
 161 0018 5200     		lsls	r2, r2, #1
 162 001a 8840     		lsls	r0, r0, r1
 163 001c D15A     		ldrh	r1, [r2, r3]
 164 001e FFF7FEFF 		bl	__aeabi_uidiv
 165              	.L19:
 166              		@ sp needed
 167 0022 10BD     		pop	{r4, pc}
 168              	.L24:
 169              		.align	2
 170              	.L23:
 171 0024 00000000 		.word	.LANCHOR0
 173              		.section	.text.SMTC_GET_BIT8,"ax",%progbits
 174              		.align	1
 175              		.global	SMTC_GET_BIT8
 176              		.syntax unified
 177              		.code	16
 178              		.thumb_func
 179              		.fpu softvfp
 181              	SMTC_GET_BIT8:
 182              		@ args = 0, pretend = 0, frame = 0
ARM GAS  /tmp/ccW9QRuN.s 			page 4


 183              		@ frame_needed = 0, uses_anonymous_args = 0
 184              		@ link register save eliminated.
 185 0000 CB08     		lsrs	r3, r1, #3
 186 0002 C05C     		ldrb	r0, [r0, r3]
 187 0004 0723     		movs	r3, #7
 188              		@ sp needed
 189 0006 1940     		ands	r1, r3
 190 0008 0841     		asrs	r0, r0, r1
 191 000a 063B     		subs	r3, r3, #6
 192 000c 1840     		ands	r0, r3
 193 000e 7047     		bx	lr
 195              		.section	.text.SMTC_SET_BIT8,"ax",%progbits
 196              		.align	1
 197              		.global	SMTC_SET_BIT8
 198              		.syntax unified
 199              		.code	16
 200              		.thumb_func
 201              		.fpu softvfp
 203              	SMTC_SET_BIT8:
 204              		@ args = 0, pretend = 0, frame = 0
 205              		@ frame_needed = 0, uses_anonymous_args = 0
 206              		@ link register save eliminated.
 207 0000 0723     		movs	r3, #7
 208              		@ sp needed
 209 0002 CA08     		lsrs	r2, r1, #3
 210 0004 1940     		ands	r1, r3
 211 0006 063B     		subs	r3, r3, #6
 212 0008 8B40     		lsls	r3, r3, r1
 213 000a 815C     		ldrb	r1, [r0, r2]
 214 000c 0B43     		orrs	r3, r1
 215 000e 8354     		strb	r3, [r0, r2]
 216 0010 7047     		bx	lr
 218              		.section	.text.SMTC_CLR_BIT8,"ax",%progbits
 219              		.align	1
 220              		.global	SMTC_CLR_BIT8
 221              		.syntax unified
 222              		.code	16
 223              		.thumb_func
 224              		.fpu softvfp
 226              	SMTC_CLR_BIT8:
 227              		@ args = 0, pretend = 0, frame = 0
 228              		@ frame_needed = 0, uses_anonymous_args = 0
 229 0000 0723     		movs	r3, #7
 230 0002 0122     		movs	r2, #1
 231 0004 10B5     		push	{r4, lr}
 232 0006 CC08     		lsrs	r4, r1, #3
 233 0008 1940     		ands	r1, r3
 234 000a 8A40     		lsls	r2, r2, r1
 235              		@ sp needed
 236 000c 035D     		ldrb	r3, [r0, r4]
 237 000e 9343     		bics	r3, r2
 238 0010 0355     		strb	r3, [r0, r4]
 239 0012 10BD     		pop	{r4, pc}
 241              		.section	.text.SMTC_PUT_BIT8,"ax",%progbits
 242              		.align	1
 243              		.global	SMTC_PUT_BIT8
 244              		.syntax unified
ARM GAS  /tmp/ccW9QRuN.s 			page 5


 245              		.code	16
 246              		.thumb_func
 247              		.fpu softvfp
 249              	SMTC_PUT_BIT8:
 250              		@ args = 0, pretend = 0, frame = 0
 251              		@ frame_needed = 0, uses_anonymous_args = 0
 252 0000 10B5     		push	{r4, lr}
 253 0002 D307     		lsls	r3, r2, #31
 254 0004 02D5     		bpl	.L29
 255 0006 FFF7FEFF 		bl	SMTC_SET_BIT8
 256              	.L28:
 257              		@ sp needed
 258 000a 10BD     		pop	{r4, pc}
 259              	.L29:
 260 000c FFF7FEFF 		bl	SMTC_CLR_BIT8
 261 0010 FBE7     		b	.L28
 263              		.section	.text.SMTC_ARE_CLR_BYTE8,"ax",%progbits
 264              		.align	1
 265              		.global	SMTC_ARE_CLR_BYTE8
 266              		.syntax unified
 267              		.code	16
 268              		.thumb_func
 269              		.fpu softvfp
 271              	SMTC_ARE_CLR_BYTE8:
 272              		@ args = 0, pretend = 0, frame = 0
 273              		@ frame_needed = 0, uses_anonymous_args = 0
 274              		@ link register save eliminated.
 275 0000 4118     		adds	r1, r0, r1
 276              	.L32:
 277 0002 8842     		cmp	r0, r1
 278 0004 01D1     		bne	.L34
 279 0006 0120     		movs	r0, #1
 280              	.L33:
 281              		@ sp needed
 282 0008 7047     		bx	lr
 283              	.L34:
 284 000a 0130     		adds	r0, r0, #1
 285 000c 431E     		subs	r3, r0, #1
 286 000e 1B78     		ldrb	r3, [r3]
 287 0010 002B     		cmp	r3, #0
 288 0012 F6D0     		beq	.L32
 289 0014 0020     		movs	r0, #0
 290 0016 F7E7     		b	.L33
 292              		.section	.text.SMTC_GET_BIT16,"ax",%progbits
 293              		.align	1
 294              		.global	SMTC_GET_BIT16
 295              		.syntax unified
 296              		.code	16
 297              		.thumb_func
 298              		.fpu softvfp
 300              	SMTC_GET_BIT16:
 301              		@ args = 0, pretend = 0, frame = 0
 302              		@ frame_needed = 0, uses_anonymous_args = 0
 303              		@ link register save eliminated.
 304 0000 0B09     		lsrs	r3, r1, #4
 305 0002 5B00     		lsls	r3, r3, #1
 306 0004 185A     		ldrh	r0, [r3, r0]
ARM GAS  /tmp/ccW9QRuN.s 			page 6


 307 0006 0F23     		movs	r3, #15
 308              		@ sp needed
 309 0008 1940     		ands	r1, r3
 310 000a 0841     		asrs	r0, r0, r1
 311 000c 0E3B     		subs	r3, r3, #14
 312 000e 1840     		ands	r0, r3
 313 0010 7047     		bx	lr
 315              		.section	.text.SMTC_SET_BIT16,"ax",%progbits
 316              		.align	1
 317              		.global	SMTC_SET_BIT16
 318              		.syntax unified
 319              		.code	16
 320              		.thumb_func
 321              		.fpu softvfp
 323              	SMTC_SET_BIT16:
 324              		@ args = 0, pretend = 0, frame = 0
 325              		@ frame_needed = 0, uses_anonymous_args = 0
 326              		@ link register save eliminated.
 327 0000 0F23     		movs	r3, #15
 328              		@ sp needed
 329 0002 0A09     		lsrs	r2, r1, #4
 330 0004 1940     		ands	r1, r3
 331 0006 0E3B     		subs	r3, r3, #14
 332 0008 8B40     		lsls	r3, r3, r1
 333 000a 5200     		lsls	r2, r2, #1
 334 000c 815A     		ldrh	r1, [r0, r2]
 335 000e 0B43     		orrs	r3, r1
 336 0010 8352     		strh	r3, [r0, r2]
 337 0012 7047     		bx	lr
 339              		.section	.text.SMTC_CLR_BIT16,"ax",%progbits
 340              		.align	1
 341              		.global	SMTC_CLR_BIT16
 342              		.syntax unified
 343              		.code	16
 344              		.thumb_func
 345              		.fpu softvfp
 347              	SMTC_CLR_BIT16:
 348              		@ args = 0, pretend = 0, frame = 0
 349              		@ frame_needed = 0, uses_anonymous_args = 0
 350              		@ link register save eliminated.
 351 0000 0F22     		movs	r2, #15
 352              		@ sp needed
 353 0002 0B09     		lsrs	r3, r1, #4
 354 0004 1140     		ands	r1, r2
 355 0006 0E3A     		subs	r2, r2, #14
 356 0008 8A40     		lsls	r2, r2, r1
 357 000a 1100     		movs	r1, r2
 358 000c 5B00     		lsls	r3, r3, #1
 359 000e C25A     		ldrh	r2, [r0, r3]
 360 0010 8A43     		bics	r2, r1
 361 0012 C252     		strh	r2, [r0, r3]
 362 0014 7047     		bx	lr
 364              		.section	.text.SMTC_PUT_BIT16,"ax",%progbits
 365              		.align	1
 366              		.global	SMTC_PUT_BIT16
 367              		.syntax unified
 368              		.code	16
ARM GAS  /tmp/ccW9QRuN.s 			page 7


 369              		.thumb_func
 370              		.fpu softvfp
 372              	SMTC_PUT_BIT16:
 373              		@ args = 0, pretend = 0, frame = 0
 374              		@ frame_needed = 0, uses_anonymous_args = 0
 375 0000 10B5     		push	{r4, lr}
 376 0002 D307     		lsls	r3, r2, #31
 377 0004 02D5     		bpl	.L40
 378 0006 FFF7FEFF 		bl	SMTC_SET_BIT16
 379              	.L39:
 380              		@ sp needed
 381 000a 10BD     		pop	{r4, pc}
 382              	.L40:
 383 000c FFF7FEFF 		bl	SMTC_CLR_BIT16
 384 0010 FBE7     		b	.L39
 386              		.section	.text.SMTC_ARE_CLR_BYTE16,"ax",%progbits
 387              		.align	1
 388              		.global	SMTC_ARE_CLR_BYTE16
 389              		.syntax unified
 390              		.code	16
 391              		.thumb_func
 392              		.fpu softvfp
 394              	SMTC_ARE_CLR_BYTE16:
 395              		@ args = 0, pretend = 0, frame = 0
 396              		@ frame_needed = 0, uses_anonymous_args = 0
 397              		@ link register save eliminated.
 398 0000 4900     		lsls	r1, r1, #1
 399 0002 4118     		adds	r1, r0, r1
 400              	.L43:
 401 0004 8842     		cmp	r0, r1
 402 0006 01D1     		bne	.L45
 403 0008 0120     		movs	r0, #1
 404              	.L44:
 405              		@ sp needed
 406 000a 7047     		bx	lr
 407              	.L45:
 408 000c 0230     		adds	r0, r0, #2
 409 000e 831E     		subs	r3, r0, #2
 410 0010 1B88     		ldrh	r3, [r3]
 411 0012 002B     		cmp	r3, #0
 412 0014 F6D0     		beq	.L43
 413 0016 0020     		movs	r0, #0
 414 0018 F7E7     		b	.L44
 416              		.section	.rodata.lr1mac_rx_payload_min_size_check.str1.1,"aMS",%progbits,1
 417              	.LC1:
 418 0000 1B5B303B 		.ascii	"\033[0;31mERROR:  CheckRxPayloadLength = %d \012\000"
 418      33316D45 
 418      52524F52 
 418      3A202043 
 418      6865636B 
 419              	.LC3:
 420 002b 1B5B306D 		.ascii	"\033[0m\000"
 420      00
 421              		.section	.text.lr1mac_rx_payload_min_size_check,"ax",%progbits
 422              		.align	1
 423              		.global	lr1mac_rx_payload_min_size_check
 424              		.syntax unified
ARM GAS  /tmp/ccW9QRuN.s 			page 8


 425              		.code	16
 426              		.thumb_func
 427              		.fpu softvfp
 429              	lr1mac_rx_payload_min_size_check:
 430              		@ args = 0, pretend = 0, frame = 0
 431              		@ frame_needed = 0, uses_anonymous_args = 0
 432 0000 0100     		movs	r1, r0
 433 0002 10B5     		push	{r4, lr}
 434 0004 0020     		movs	r0, #0
 435 0006 0B29     		cmp	r1, #11
 436 0008 07D8     		bhi	.L48
 437 000a 0448     		ldr	r0, .L50
 438 000c FFF7FEFF 		bl	smtc_modem_hal_print_trace
 439 0010 0348     		ldr	r0, .L50+4
 440 0012 FFF7FEFF 		bl	smtc_modem_hal_print_trace
 441 0016 0120     		movs	r0, #1
 442 0018 4042     		rsbs	r0, r0, #0
 443              	.L48:
 444              		@ sp needed
 445 001a 10BD     		pop	{r4, pc}
 446              	.L51:
 447              		.align	2
 448              	.L50:
 449 001c 00000000 		.word	.LC1
 450 0020 2B000000 		.word	.LC3
 452              		.section	.rodata.lr1mac_rx_mhdr_extract.str1.1,"aMS",%progbits,1
 453              	.LC5:
 454 0000 20424144 		.ascii	" BAD RX MHDR\012 \000"
 454      20525820 
 454      4D484452 
 454      0A2000
 455              	.LC8:
 456 000f 25732573 		.ascii	"%s%s\000"
 456      00
 457              		.section	.text.lr1mac_rx_mhdr_extract,"ax",%progbits
 458              		.align	1
 459              		.global	lr1mac_rx_mhdr_extract
 460              		.syntax unified
 461              		.code	16
 462              		.thumb_func
 463              		.fpu softvfp
 465              	lr1mac_rx_mhdr_extract:
 466              		@ args = 0, pretend = 0, frame = 0
 467              		@ frame_needed = 0, uses_anonymous_args = 0
 468 0000 70B5     		push	{r4, r5, r6, lr}
 469 0002 1C00     		movs	r4, r3
 470 0004 0378     		ldrb	r3, [r0]
 471 0006 0D00     		movs	r5, r1
 472 0008 5B09     		lsrs	r3, r3, #5
 473 000a 0B70     		strb	r3, [r1]
 474 000c 0321     		movs	r1, #3
 475 000e 0378     		ldrb	r3, [r0]
 476 0010 0B40     		ands	r3, r1
 477 0012 1370     		strb	r3, [r2]
 478 0014 2978     		ldrb	r1, [r5]
 479 0016 0729     		cmp	r1, #7
 480 0018 03D8     		bhi	.L53
ARM GAS  /tmp/ccW9QRuN.s 			page 9


 481 001a D522     		movs	r2, #213
 482 001c CA40     		lsrs	r2, r2, r1
 483 001e D207     		lsls	r2, r2, #31
 484 0020 02D4     		bmi	.L54
 485              	.L53:
 486 0022 0020     		movs	r0, #0
 487 0024 8342     		cmp	r3, r0
 488 0026 06D0     		beq	.L55
 489              	.L54:
 490 0028 0648     		ldr	r0, .L61
 491 002a 074A     		ldr	r2, .L61+4
 492 002c 0749     		ldr	r1, .L61+8
 493 002e FFF7FEFF 		bl	smtc_modem_hal_print_trace
 494 0032 0120     		movs	r0, #1
 495 0034 4042     		rsbs	r0, r0, #0
 496              	.L55:
 497 0036 2A78     		ldrb	r2, [r5]
 498              		@ sp needed
 499 0038 053A     		subs	r2, r2, #5
 500 003a 5342     		rsbs	r3, r2, #0
 501 003c 5A41     		adcs	r2, r2, r3
 502 003e 2270     		strb	r2, [r4]
 503 0040 70BD     		pop	{r4, r5, r6, pc}
 504              	.L62:
 505 0042 C046     		.align	2
 506              	.L61:
 507 0044 0F000000 		.word	.LC8
 508 0048 00000000 		.word	.LC5
 509 004c 2B000000 		.word	.LC3
 511              		.section	.rodata.lr1mac_rx_fhdr_extract.str1.1,"aMS",%progbits,1
 512              	.LC10:
 513 0000 20454D50 		.ascii	" EMPTY MSG \012\000"
 513      5459204D 
 513      5347200A 
 513      00
 514              	.LC14:
 515 000d 1B5B303B 		.ascii	"\033[0;31mERROR:  Bad DevAddr %x\012 \000"
 515      33316D45 
 515      52524F52 
 515      3A202042 
 515      61642044 
 516              		.section	.text.lr1mac_rx_fhdr_extract,"ax",%progbits
 517              		.align	1
 518              		.global	lr1mac_rx_fhdr_extract
 519              		.syntax unified
 520              		.code	16
 521              		.thumb_func
 522              		.fpu softvfp
 524              	lr1mac_rx_fhdr_extract:
 525              		@ args = 20, pretend = 0, frame = 8
 526              		@ frame_needed = 0, uses_anonymous_args = 0
 527 0000 F7B5     		push	{r0, r1, r2, r4, r5, r6, r7, lr}
 528 0002 8578     		ldrb	r5, [r0, #2]
 529 0004 0191     		str	r1, [sp, #4]
 530 0006 4178     		ldrb	r1, [r0, #1]
 531 0008 2D02     		lsls	r5, r5, #8
 532 000a 6D18     		adds	r5, r5, r1
ARM GAS  /tmp/ccW9QRuN.s 			page 10


 533 000c C178     		ldrb	r1, [r0, #3]
 534 000e 0400     		movs	r4, r0
 535 0010 0904     		lsls	r1, r1, #16
 536 0012 6D18     		adds	r5, r5, r1
 537 0014 0179     		ldrb	r1, [r0, #4]
 538 0016 1700     		movs	r7, r2
 539 0018 0906     		lsls	r1, r1, #24
 540 001a 6D18     		adds	r5, r5, r1
 541 001c 0899     		ldr	r1, [sp, #32]
 542 001e 0B9A     		ldr	r2, [sp, #44]
 543 0020 691A     		subs	r1, r5, r1
 544 0022 481E     		subs	r0, r1, #1
 545 0024 8141     		sbcs	r1, r1, r0
 546 0026 4E42     		rsbs	r6, r1, #0
 547 0028 6179     		ldrb	r1, [r4, #5]
 548 002a 1170     		strb	r1, [r2]
 549 002c E079     		ldrb	r0, [r4, #7]
 550 002e A179     		ldrb	r1, [r4, #6]
 551 0030 0002     		lsls	r0, r0, #8
 552 0032 0918     		adds	r1, r1, r0
 553 0034 1980     		strh	r1, [r3]
 554 0036 0F23     		movs	r3, #15
 555 0038 2100     		movs	r1, r4
 556 003a 1278     		ldrb	r2, [r2]
 557 003c 0C98     		ldr	r0, [sp, #48]
 558 003e 1A40     		ands	r2, r3
 559 0040 3A70     		strb	r2, [r7]
 560 0042 0831     		adds	r1, r1, #8
 561 0044 92B2     		uxth	r2, r2
 562 0046 FFF7FEFF 		bl	memcpy1
 563 004a 3878     		ldrb	r0, [r7]
 564 004c 019A     		ldr	r2, [sp, #4]
 565 004e 0300     		movs	r3, r0
 566 0050 0C33     		adds	r3, r3, #12
 567 0052 9A42     		cmp	r2, r3
 568 0054 12DD     		ble	.L64
 569 0056 2418     		adds	r4, r4, r0
 570 0058 237A     		ldrb	r3, [r4, #8]
 571 005a 099A     		ldr	r2, [sp, #36]
 572 005c 1370     		strb	r3, [r2]
 573 005e 0023     		movs	r3, #0
 574 0060 0A9A     		ldr	r2, [sp, #40]
 575 0062 1370     		strb	r3, [r2]
 576              	.L65:
 577 0064 089B     		ldr	r3, [sp, #32]
 578 0066 9D42     		cmp	r5, r3
 579 0068 06D0     		beq	.L63
 580 006a 0948     		ldr	r0, .L67
 581 006c 2900     		movs	r1, r5
 582 006e FFF7FEFF 		bl	smtc_modem_hal_print_trace
 583 0072 0848     		ldr	r0, .L67+4
 584 0074 FFF7FEFF 		bl	smtc_modem_hal_print_trace
 585              	.L63:
 586              		@ sp needed
 587 0078 3000     		movs	r0, r6
 588 007a FEBD     		pop	{r1, r2, r3, r4, r5, r6, r7, pc}
 589              	.L64:
ARM GAS  /tmp/ccW9QRuN.s 			page 11


 590 007c 0123     		movs	r3, #1
 591 007e 0A9A     		ldr	r2, [sp, #40]
 592 0080 0449     		ldr	r1, .L67+4
 593 0082 1370     		strb	r3, [r2]
 594 0084 0448     		ldr	r0, .L67+8
 595 0086 054A     		ldr	r2, .L67+12
 596 0088 FFF7FEFF 		bl	smtc_modem_hal_print_trace
 597 008c EAE7     		b	.L65
 598              	.L68:
 599 008e C046     		.align	2
 600              	.L67:
 601 0090 0D000000 		.word	.LC14
 602 0094 2B000000 		.word	.LC3
 603 0098 0F000000 		.word	.LC8
 604 009c 00000000 		.word	.LC10
 606              		.section	.rodata.lr1mac_fcnt_dwn_accept.str1.1,"aMS",%progbits,1
 607              	.LC16:
 608 0000 1B5B303B 		.ascii	"\033[0;33mWARN:  FcntDwn is not acceptable fcntDwnR"
 608      33336D57 
 608      41524E3A 
 608      20204663 
 608      6E744477 
 609 0030 65636569 		.ascii	"eceive = %u fcntLoraStack = %d\012\000"
 609      7665203D 
 609      20257520 
 609      66636E74 
 609      4C6F7261 
 610              		.section	.text.lr1mac_fcnt_dwn_accept,"ax",%progbits
 611              		.align	1
 612              		.global	lr1mac_fcnt_dwn_accept
 613              		.syntax unified
 614              		.code	16
 615              		.thumb_func
 616              		.fpu softvfp
 618              	lr1mac_fcnt_dwn_accept:
 619              		@ args = 0, pretend = 0, frame = 0
 620              		@ frame_needed = 0, uses_anonymous_args = 0
 621 0000 0A68     		ldr	r2, [r1]
 622 0002 70B5     		push	{r4, r5, r6, lr}
 623 0004 130C     		lsrs	r3, r2, #16
 624 0006 94B2     		uxth	r4, r2
 625 0008 1B04     		lsls	r3, r3, #16
 626 000a 8442     		cmp	r4, r0
 627 000c 04D3     		bcc	.L70
 628 000e 551C     		adds	r5, r2, #1
 629 0010 06D1     		bne	.L79
 630              	.L81:
 631 0012 0860     		str	r0, [r1]
 632 0014 0020     		movs	r0, #0
 633              	.L74:
 634              		@ sp needed
 635 0016 70BD     		pop	{r4, r5, r6, pc}
 636              	.L70:
 637 0018 0132     		adds	r2, r2, #1
 638 001a FAD0     		beq	.L81
 639              	.L80:
 640 001c C018     		adds	r0, r0, r3
ARM GAS  /tmp/ccW9QRuN.s 			page 12


 641 001e F8E7     		b	.L81
 642              	.L79:
 643 0020 8442     		cmp	r4, r0
 644 0022 03D9     		bls	.L75
 645 0024 8022     		movs	r2, #128
 646 0026 5202     		lsls	r2, r2, #9
 647 0028 8018     		adds	r0, r0, r2
 648 002a F7E7     		b	.L80
 649              	.L75:
 650 002c 0100     		movs	r1, r0
 651 002e 0448     		ldr	r0, .L82
 652 0030 FFF7FEFF 		bl	smtc_modem_hal_print_trace
 653 0034 0348     		ldr	r0, .L82+4
 654 0036 FFF7FEFF 		bl	smtc_modem_hal_print_trace
 655 003a 0120     		movs	r0, #1
 656 003c 4042     		rsbs	r0, r0, #0
 657 003e EAE7     		b	.L74
 658              	.L83:
 659              		.align	2
 660              	.L82:
 661 0040 00000000 		.word	.LC16
 662 0044 2B000000 		.word	.LC3
 664              		.section	.text.lr1_stack_mac_cmd_ans_cut,"ax",%progbits
 665              		.align	1
 666              		.global	lr1_stack_mac_cmd_ans_cut
 667              		.syntax unified
 668              		.code	16
 669              		.thumb_func
 670              		.fpu softvfp
 672              	lr1_stack_mac_cmd_ans_cut:
 673              		@ args = 0, pretend = 0, frame = 8
 674              		@ frame_needed = 0, uses_anonymous_args = 0
 675 0000 F7B5     		push	{r0, r1, r2, r4, r5, r6, r7, lr}
 676 0002 6C46     		mov	r4, sp
 677 0004 E271     		strb	r2, [r4, #7]
 678 0006 0B4C     		ldr	r4, .L91
 679 0008 0300     		movs	r3, r0
 680 000a A446     		mov	ip, r4
 681 000c 0F1C     		adds	r7, r1, #0
 682              	.L85:
 683 000e 6D46     		mov	r5, sp
 684 0010 1C1A     		subs	r4, r3, r0
 685 0012 ED79     		ldrb	r5, [r5, #7]
 686 0014 8A42     		cmp	r2, r1
 687 0016 00D9     		bls	.L87
 688 0018 3D1C     		adds	r5, r7, #0
 689              	.L87:
 690 001a EDB2     		uxtb	r5, r5
 691 001c AC42     		cmp	r4, r5
 692 001e 06DA     		bge	.L88
 693 0020 6646     		mov	r6, ip
 694 0022 1D78     		ldrb	r5, [r3]
 695 0024 755D     		ldrb	r5, [r6, r5]
 696 0026 5B19     		adds	r3, r3, r5
 697 0028 1D1A     		subs	r5, r3, r0
 698 002a 9542     		cmp	r5, r2
 699 002c EFDD     		ble	.L85
ARM GAS  /tmp/ccW9QRuN.s 			page 13


 700              	.L88:
 701 002e E0B2     		uxtb	r0, r4
 702              		@ sp needed
 703 0030 FEBD     		pop	{r1, r2, r3, r4, r5, r6, r7, pc}
 704              	.L92:
 705 0032 C046     		.align	2
 706              	.L91:
 707 0034 00000000 		.word	.LANCHOR1
 709              		.section	.rodata.CSWTCH.18,"a"
 710              		.align	1
 711              		.set	.LANCHOR0,. + 0
 714              	CSWTCH.18:
 715 0000 0700     		.short	7
 716 0002 0A00     		.short	10
 717 0004 0F00     		.short	15
 718 0006 1400     		.short	20
 719 0008 1F00     		.short	31
 720 000a 2900     		.short	41
 721 000c 3E00     		.short	62
 722 000e 7D00     		.short	125
 723 0010 CB00     		.short	203
 724 0012 FA00     		.short	250
 725 0014 9601     		.short	406
 726 0016 F401     		.short	500
 727 0018 2C03     		.short	812
 728 001a 5906     		.short	1625
 729              		.section	.rodata.lr1mac_cmd_mac_ans_size,"a"
 730              		.align	2
 731              		.set	.LANCHOR1,. + 0
 734              	lr1mac_cmd_mac_ans_size:
 735 0000 00000302 		.ascii	"\000\000\003\002\001\002\003\002\001\001\002\000"
 735      01020302 
 735      01010200 
 736 000c 00000000 		.space	8
 736      00000000 
 737              		.ident	"GCC: (15:10.3-2021.07-4) 10.3.1 20210621 (release)"
ARM GAS  /tmp/ccW9QRuN.s 			page 14

