ARM GAS  /tmp/cc54pXIa.s 			page 1


   1              		.cpu cortex-m0
   2              		.eabi_attribute 23, 1
   3              		.eabi_attribute 24, 1
   4              		.eabi_attribute 25, 1
   5              		.eabi_attribute 26, 1
   6              		.eabi_attribute 30, 4
   7              		.eabi_attribute 34, 0
   8              		.eabi_attribute 18, 4
   9              		.file	"modem_context.c"
  10              		.text
  11              		.section	.text.modem_context_empty_callback,"ax",%progbits
  12              		.align	1
  13              		.global	modem_context_empty_callback
  14              		.arch armv6s-m
  15              		.syntax unified
  16              		.code	16
  17              		.thumb_func
  18              		.fpu softvfp
  20              	modem_context_empty_callback:
  21              		@ args = 0, pretend = 0, frame = 0
  22              		@ frame_needed = 0, uses_anonymous_args = 0
  23              		@ link register save eliminated.
  24              		@ sp needed
  25 0000 7047     		bx	lr
  27              		.section	.text.modem_context_init,"ax",%progbits
  28              		.align	1
  29              		.global	modem_context_init
  30              		.syntax unified
  31              		.code	16
  32              		.thumb_func
  33              		.fpu softvfp
  35              	modem_context_init:
  36              		@ args = 0, pretend = 0, frame = 0
  37              		@ frame_needed = 0, uses_anonymous_args = 0
  38 0000 10B5     		push	{r4, lr}
  39 0002 0024     		movs	r4, #0
  40              		@ sp needed
  41 0004 8122     		movs	r2, #129
  42 0006 334B     		ldr	r3, .L3
  43 0008 1C70     		strb	r4, [r3]
  44 000a 334B     		ldr	r3, .L3+4
  45 000c 1A70     		strb	r2, [r3]
  46 000e 334B     		ldr	r3, .L3+8
  47 0010 4632     		adds	r2, r2, #70
  48 0012 1A70     		strb	r2, [r3]
  49 0014 324B     		ldr	r3, .L3+12
  50 0016 1C70     		strb	r4, [r3]
  51 0018 324B     		ldr	r3, .L3+16
  52 001a 1C70     		strb	r4, [r3]
  53 001c 324B     		ldr	r3, .L3+20
  54 001e 1C60     		str	r4, [r3]
  55 0020 324B     		ldr	r3, .L3+24
  56 0022 1C70     		strb	r4, [r3]
  57 0024 324B     		ldr	r3, .L3+28
  58 0026 1C70     		strb	r4, [r3]
  59 0028 324B     		ldr	r3, .L3+32
  60 002a 1A80     		strh	r2, [r3]
ARM GAS  /tmp/cc54pXIa.s 			page 2


  61 002c 9C70     		strb	r4, [r3, #2]
  62 002e 324B     		ldr	r3, .L3+36
  63 0030 4C3A     		subs	r2, r2, #76
  64 0032 1A60     		str	r2, [r3]
  65 0034 314B     		ldr	r3, .L3+40
  66 0036 1C60     		str	r4, [r3]
  67 0038 314B     		ldr	r3, .L3+44
  68 003a 1C70     		strb	r4, [r3]
  69 003c 314B     		ldr	r3, .L3+48
  70 003e 1C70     		strb	r4, [r3]
  71 0040 314B     		ldr	r3, .L3+52
  72 0042 1C70     		strb	r4, [r3]
  73 0044 314B     		ldr	r3, .L3+56
  74 0046 1C80     		strh	r4, [r3]
  75 0048 314B     		ldr	r3, .L3+60
  76 004a 1C60     		str	r4, [r3]
  77 004c 314B     		ldr	r3, .L3+64
  78 004e 1C70     		strb	r4, [r3]
  79 0050 314B     		ldr	r3, .L3+68
  80 0052 1C70     		strb	r4, [r3]
  81 0054 314B     		ldr	r3, .L3+72
  82 0056 1C60     		str	r4, [r3]
  83 0058 314B     		ldr	r3, .L3+76
  84 005a 1C70     		strb	r4, [r3]
  85 005c 314B     		ldr	r3, .L3+80
  86 005e 1C80     		strh	r4, [r3]
  87 0060 314B     		ldr	r3, .L3+84
  88 0062 1C70     		strb	r4, [r3]
  89 0064 314B     		ldr	r3, .L3+88
  90 0066 1C70     		strb	r4, [r3]
  91 0068 314B     		ldr	r3, .L3+92
  92 006a 1C70     		strb	r4, [r3]
  93 006c FFF7FEFF 		bl	compute_crc_fw
  94 0070 0122     		movs	r2, #1
  95 0072 304B     		ldr	r3, .L3+96
  96 0074 2100     		movs	r1, r4
  97 0076 1C70     		strb	r4, [r3]
  98 0078 2F4B     		ldr	r3, .L3+100
  99 007a 3048     		ldr	r0, .L3+104
 100 007c 1C80     		strh	r4, [r3]
 101 007e 304B     		ldr	r3, .L3+108
 102 0080 1C70     		strb	r4, [r3]
 103 0082 304B     		ldr	r3, .L3+112
 104 0084 1C70     		strb	r4, [r3]
 105 0086 304B     		ldr	r3, .L3+116
 106 0088 1C70     		strb	r4, [r3]
 107 008a 304B     		ldr	r3, .L3+120
 108 008c 1C60     		str	r4, [r3]
 109 008e 304B     		ldr	r3, .L3+124
 110 0090 1A80     		strh	r2, [r3]
 111 0092 304B     		ldr	r3, .L3+128
 112 0094 0732     		adds	r2, r2, #7
 113 0096 1C60     		str	r4, [r3]
 114 0098 FFF7FEFF 		bl	memset
 115 009c 1922     		movs	r2, #25
 116 009e 2100     		movs	r1, r4
 117 00a0 2D48     		ldr	r0, .L3+132
ARM GAS  /tmp/cc54pXIa.s 			page 3


 118 00a2 FFF7FEFF 		bl	memset
 119 00a6 1922     		movs	r2, #25
 120 00a8 2100     		movs	r1, r4
 121 00aa 2C48     		ldr	r0, .L3+136
 122 00ac FFF7FEFF 		bl	memset
 123 00b0 1922     		movs	r2, #25
 124 00b2 2100     		movs	r1, r4
 125 00b4 2A48     		ldr	r0, .L3+140
 126 00b6 FFF7FEFF 		bl	memset
 127 00ba 8422     		movs	r2, #132
 128 00bc 2100     		movs	r1, r4
 129 00be 5200     		lsls	r2, r2, #1
 130 00c0 2848     		ldr	r0, .L3+144
 131 00c2 FFF7FEFF 		bl	memset
 132 00c6 1E22     		movs	r2, #30
 133 00c8 8021     		movs	r1, #128
 134 00ca 2748     		ldr	r0, .L3+148
 135 00cc FFF7FEFF 		bl	memset
 136 00d0 10BD     		pop	{r4, pc}
 137              	.L4:
 138 00d2 C046     		.align	2
 139              	.L3:
 140 00d4 00000000 		.word	.LANCHOR0
 141 00d8 00000000 		.word	.LANCHOR1
 142 00dc 00000000 		.word	.LANCHOR2
 143 00e0 00000000 		.word	.LANCHOR3
 144 00e4 00000000 		.word	.LANCHOR4
 145 00e8 00000000 		.word	.LANCHOR5
 146 00ec 00000000 		.word	.LANCHOR6
 147 00f0 00000000 		.word	.LANCHOR7
 148 00f4 00000000 		.word	.LANCHOR8
 149 00f8 00000000 		.word	.LANCHOR9
 150 00fc 00000000 		.word	.LANCHOR10
 151 0100 00000000 		.word	.LANCHOR11
 152 0104 00000000 		.word	.LANCHOR12
 153 0108 00000000 		.word	.LANCHOR13
 154 010c 00000000 		.word	.LANCHOR14
 155 0110 00000000 		.word	.LANCHOR15
 156 0114 00000000 		.word	.LANCHOR16
 157 0118 00000000 		.word	.LANCHOR17
 158 011c 00000000 		.word	.LANCHOR18
 159 0120 00000000 		.word	.LANCHOR19
 160 0124 00000000 		.word	.LANCHOR20
 161 0128 00000000 		.word	.LANCHOR21
 162 012c 00000000 		.word	.LANCHOR22
 163 0130 00000000 		.word	.LANCHOR23
 164 0134 00000000 		.word	.LANCHOR24
 165 0138 00000000 		.word	.LANCHOR25
 166 013c 00000000 		.word	.LANCHOR32
 167 0140 00000000 		.word	.LANCHOR26
 168 0144 00000000 		.word	.LANCHOR27
 169 0148 00000000 		.word	.LANCHOR28
 170 014c 00000000 		.word	.LANCHOR29
 171 0150 00000000 		.word	.LANCHOR30
 172 0154 00000000 		.word	.LANCHOR31
 173 0158 00000000 		.word	.LANCHOR33
 174 015c 00000000 		.word	.LANCHOR34
ARM GAS  /tmp/cc54pXIa.s 			page 4


 175 0160 00000000 		.word	.LANCHOR35
 176 0164 00000000 		.word	modem_dwn_pkt
 177 0168 00000000 		.word	.LANCHOR36
 179              		.section	.rodata.get_modem_event_count.str1.1,"aMS",%progbits,1
 180              	.LC39:
 181 0000 1B5B303B 		.ascii	"\033[0;31mERROR: crash log :%s\012\000"
 181      33316D45 
 181      52524F52 
 181      3A206372 
 181      61736820 
 182              	.LC41:
 183 001d 1B5B306D 		.ascii	"\033[0m\000"
 183      00
 184              	.LC43:
 185 0022 1B5B303B 		.ascii	"\033[0;31mERROR: -> \000"
 185      33316D45 
 185      52524F52 
 185      3A202D3E 
 185      2000
 186              		.section	.text.get_modem_event_count,"ax",%progbits
 187              		.align	1
 188              		.global	get_modem_event_count
 189              		.syntax unified
 190              		.code	16
 191              		.thumb_func
 192              		.fpu softvfp
 194              	get_modem_event_count:
 195              		@ args = 0, pretend = 0, frame = 0
 196              		@ frame_needed = 0, uses_anonymous_args = 0
 197 0000 70B5     		push	{r4, r5, r6, lr}
 198 0002 0400     		movs	r4, r0
 199 0004 1828     		cmp	r0, #24
 200 0006 16D9     		bls	.L6
 201 0008 0C4D     		ldr	r5, .L7
 202 000a 2800     		movs	r0, r5
 203 000c FFF7FEFF 		bl	smtc_modem_hal_store_crashlog
 204 0010 0120     		movs	r0, #1
 205 0012 FFF7FEFF 		bl	smtc_modem_hal_set_crashlog_status
 206 0016 2900     		movs	r1, r5
 207 0018 0948     		ldr	r0, .L7+4
 208 001a FFF7FEFF 		bl	smtc_modem_hal_print_trace
 209 001e 094D     		ldr	r5, .L7+8
 210 0020 2800     		movs	r0, r5
 211 0022 FFF7FEFF 		bl	smtc_modem_hal_print_trace
 212 0026 0848     		ldr	r0, .L7+12
 213 0028 FFF7FEFF 		bl	smtc_modem_hal_print_trace
 214 002c 2800     		movs	r0, r5
 215 002e FFF7FEFF 		bl	smtc_modem_hal_print_trace
 216 0032 FFF7FEFF 		bl	smtc_modem_hal_reset_mcu
 217              	.L6:
 218              		@ sp needed
 219 0036 054B     		ldr	r3, .L7+16
 220 0038 185D     		ldrb	r0, [r3, r4]
 221 003a 70BD     		pop	{r4, r5, r6, pc}
 222              	.L8:
 223              		.align	2
 224              	.L7:
ARM GAS  /tmp/cc54pXIa.s 			page 5


 225 003c 00000000 		.word	.LANCHOR37
 226 0040 00000000 		.word	.LC39
 227 0044 1D000000 		.word	.LC41
 228 0048 22000000 		.word	.LC43
 229 004c 00000000 		.word	.LANCHOR33
 231              		.section	.text.get_modem_event_status,"ax",%progbits
 232              		.align	1
 233              		.global	get_modem_event_status
 234              		.syntax unified
 235              		.code	16
 236              		.thumb_func
 237              		.fpu softvfp
 239              	get_modem_event_status:
 240              		@ args = 0, pretend = 0, frame = 0
 241              		@ frame_needed = 0, uses_anonymous_args = 0
 242 0000 70B5     		push	{r4, r5, r6, lr}
 243 0002 0400     		movs	r4, r0
 244 0004 1828     		cmp	r0, #24
 245 0006 16D9     		bls	.L10
 246 0008 0C4D     		ldr	r5, .L11
 247 000a 2800     		movs	r0, r5
 248 000c FFF7FEFF 		bl	smtc_modem_hal_store_crashlog
 249 0010 0120     		movs	r0, #1
 250 0012 FFF7FEFF 		bl	smtc_modem_hal_set_crashlog_status
 251 0016 2900     		movs	r1, r5
 252 0018 0948     		ldr	r0, .L11+4
 253 001a FFF7FEFF 		bl	smtc_modem_hal_print_trace
 254 001e 094D     		ldr	r5, .L11+8
 255 0020 2800     		movs	r0, r5
 256 0022 FFF7FEFF 		bl	smtc_modem_hal_print_trace
 257 0026 0848     		ldr	r0, .L11+12
 258 0028 FFF7FEFF 		bl	smtc_modem_hal_print_trace
 259 002c 2800     		movs	r0, r5
 260 002e FFF7FEFF 		bl	smtc_modem_hal_print_trace
 261 0032 FFF7FEFF 		bl	smtc_modem_hal_reset_mcu
 262              	.L10:
 263              		@ sp needed
 264 0036 054B     		ldr	r3, .L11+16
 265 0038 185D     		ldrb	r0, [r3, r4]
 266 003a 70BD     		pop	{r4, r5, r6, pc}
 267              	.L12:
 268              		.align	2
 269              	.L11:
 270 003c 00000000 		.word	.LANCHOR38
 271 0040 00000000 		.word	.LC39
 272 0044 1D000000 		.word	.LC41
 273 0048 22000000 		.word	.LC43
 274 004c 00000000 		.word	.LANCHOR34
 276              		.section	.text.set_modem_event_count_and_status,"ax",%progbits
 277              		.align	1
 278              		.global	set_modem_event_count_and_status
 279              		.syntax unified
 280              		.code	16
 281              		.thumb_func
 282              		.fpu softvfp
 284              	set_modem_event_count_and_status:
 285              		@ args = 0, pretend = 0, frame = 0
ARM GAS  /tmp/cc54pXIa.s 			page 6


 286              		@ frame_needed = 0, uses_anonymous_args = 0
 287              		@ link register save eliminated.
 288 0000 1828     		cmp	r0, #24
 289 0002 03D8     		bhi	.L13
 290 0004 024B     		ldr	r3, .L15
 291 0006 1954     		strb	r1, [r3, r0]
 292 0008 024B     		ldr	r3, .L15+4
 293 000a 1A54     		strb	r2, [r3, r0]
 294              	.L13:
 295              		@ sp needed
 296 000c 7047     		bx	lr
 297              	.L16:
 298 000e C046     		.align	2
 299              	.L15:
 300 0010 00000000 		.word	.LANCHOR33
 301 0014 00000000 		.word	.LANCHOR34
 303              		.section	.text.modem_event_init,"ax",%progbits
 304              		.align	1
 305              		.global	modem_event_init
 306              		.syntax unified
 307              		.code	16
 308              		.thumb_func
 309              		.fpu softvfp
 311              	modem_event_init:
 312              		@ args = 0, pretend = 0, frame = 0
 313              		@ frame_needed = 0, uses_anonymous_args = 0
 314 0000 10B5     		push	{r4, lr}
 315 0002 0024     		movs	r4, #0
 316              	.L18:
 317 0004 0022     		movs	r2, #0
 318 0006 E0B2     		uxtb	r0, r4
 319 0008 1100     		movs	r1, r2
 320 000a 0134     		adds	r4, r4, #1
 321 000c FFF7FEFF 		bl	set_modem_event_count_and_status
 322 0010 192C     		cmp	r4, #25
 323 0012 F7D1     		bne	.L18
 324              		@ sp needed
 325 0014 10BD     		pop	{r4, pc}
 327              		.section	.text.increment_modem_event_count_and_status,"ax",%progbits
 328              		.align	1
 329              		.global	increment_modem_event_count_and_status
 330              		.syntax unified
 331              		.code	16
 332              		.thumb_func
 333              		.fpu softvfp
 335              	increment_modem_event_count_and_status:
 336              		@ args = 0, pretend = 0, frame = 0
 337              		@ frame_needed = 0, uses_anonymous_args = 0
 338              		@ link register save eliminated.
 339 0000 1828     		cmp	r0, #24
 340 0002 07D8     		bhi	.L20
 341 0004 044A     		ldr	r2, .L26
 342 0006 135C     		ldrb	r3, [r2, r0]
 343 0008 FF2B     		cmp	r3, #255
 344 000a 01D0     		beq	.L22
 345 000c 0133     		adds	r3, r3, #1
 346 000e 1354     		strb	r3, [r2, r0]
ARM GAS  /tmp/cc54pXIa.s 			page 7


 347              	.L22:
 348 0010 024B     		ldr	r3, .L26+4
 349 0012 1954     		strb	r1, [r3, r0]
 350              	.L20:
 351              		@ sp needed
 352 0014 7047     		bx	lr
 353              	.L27:
 354 0016 C046     		.align	2
 355              	.L26:
 356 0018 00000000 		.word	.LANCHOR33
 357 001c 00000000 		.word	.LANCHOR34
 359              		.section	.text.decrement_asynchronous_msgnumber,"ax",%progbits
 360              		.align	1
 361              		.global	decrement_asynchronous_msgnumber
 362              		.syntax unified
 363              		.code	16
 364              		.thumb_func
 365              		.fpu softvfp
 367              	decrement_asynchronous_msgnumber:
 368              		@ args = 0, pretend = 0, frame = 0
 369              		@ frame_needed = 0, uses_anonymous_args = 0
 370              		@ link register save eliminated.
 371 0000 034A     		ldr	r2, .L33
 372 0002 1378     		ldrb	r3, [r2]
 373 0004 002B     		cmp	r3, #0
 374 0006 01D0     		beq	.L29
 375 0008 013B     		subs	r3, r3, #1
 376 000a DBB2     		uxtb	r3, r3
 377              	.L29:
 378 000c 1370     		strb	r3, [r2]
 379              		@ sp needed
 380 000e 7047     		bx	lr
 381              	.L34:
 382              		.align	2
 383              	.L33:
 384 0010 00000000 		.word	.LANCHOR16
 386              		.section	.text.get_asynchronous_msgnumber,"ax",%progbits
 387              		.align	1
 388              		.global	get_asynchronous_msgnumber
 389              		.syntax unified
 390              		.code	16
 391              		.thumb_func
 392              		.fpu softvfp
 394              	get_asynchronous_msgnumber:
 395              		@ args = 0, pretend = 0, frame = 0
 396              		@ frame_needed = 0, uses_anonymous_args = 0
 397              		@ link register save eliminated.
 398 0000 014B     		ldr	r3, .L36
 399              		@ sp needed
 400 0002 1878     		ldrb	r0, [r3]
 401 0004 7047     		bx	lr
 402              	.L37:
 403 0006 C046     		.align	2
 404              	.L36:
 405 0008 00000000 		.word	.LANCHOR16
 407              		.section	.rodata.increment_asynchronous_msgnumber.str1.1,"aMS",%progbits,1
 408              	.LC58:
ARM GAS  /tmp/cc54pXIa.s 			page 8


 409 0000 1B5B303B 		.ascii	"\033[0;31mERROR:  Modem reach the max number of asy"
 409      33316D45 
 409      52524F52 
 409      3A20204D 
 409      6F64656D 
 410 0030 6E636820 		.ascii	"nch message\012\000"
 410      6D657373 
 410      6167650A 
 410      00
 411              		.section	.text.increment_asynchronous_msgnumber,"ax",%progbits
 412              		.align	1
 413              		.global	increment_asynchronous_msgnumber
 414              		.syntax unified
 415              		.code	16
 416              		.thumb_func
 417              		.fpu softvfp
 419              	increment_asynchronous_msgnumber:
 420              		@ args = 0, pretend = 0, frame = 0
 421              		@ frame_needed = 0, uses_anonymous_args = 0
 422 0000 70B5     		push	{r4, r5, r6, lr}
 423 0002 0E4E     		ldr	r6, .L42
 424 0004 0400     		movs	r4, r0
 425 0006 3378     		ldrb	r3, [r6]
 426 0008 0D00     		movs	r5, r1
 427 000a 192B     		cmp	r3, #25
 428 000c 06D9     		bls	.L39
 429 000e 0C48     		ldr	r0, .L42+4
 430 0010 FFF7FEFF 		bl	smtc_modem_hal_print_trace
 431 0014 0B48     		ldr	r0, .L42+8
 432 0016 FFF7FEFF 		bl	smtc_modem_hal_print_trace
 433              	.L38:
 434              		@ sp needed
 435 001a 70BD     		pop	{r4, r5, r6, pc}
 436              	.L39:
 437 001c FFF7FEFF 		bl	get_modem_event_count
 438 0020 0028     		cmp	r0, #0
 439 0022 05D1     		bne	.L41
 440 0024 3378     		ldrb	r3, [r6]
 441 0026 084A     		ldr	r2, .L42+12
 442 0028 0133     		adds	r3, r3, #1
 443 002a DBB2     		uxtb	r3, r3
 444 002c 3370     		strb	r3, [r6]
 445 002e D454     		strb	r4, [r2, r3]
 446              	.L41:
 447 0030 2900     		movs	r1, r5
 448 0032 2000     		movs	r0, r4
 449 0034 FFF7FEFF 		bl	increment_modem_event_count_and_status
 450 0038 EFE7     		b	.L38
 451              	.L43:
 452 003a C046     		.align	2
 453              	.L42:
 454 003c 00000000 		.word	.LANCHOR16
 455 0040 00000000 		.word	.LC58
 456 0044 1D000000 		.word	.LC41
 457 0048 00000000 		.word	.LANCHOR35
 459              		.section	.text.get_last_msg_event,"ax",%progbits
 460              		.align	1
ARM GAS  /tmp/cc54pXIa.s 			page 9


 461              		.global	get_last_msg_event
 462              		.syntax unified
 463              		.code	16
 464              		.thumb_func
 465              		.fpu softvfp
 467              	get_last_msg_event:
 468              		@ args = 0, pretend = 0, frame = 0
 469              		@ frame_needed = 0, uses_anonymous_args = 0
 470              		@ link register save eliminated.
 471 0000 024B     		ldr	r3, .L45
 472 0002 034A     		ldr	r2, .L45+4
 473 0004 1B78     		ldrb	r3, [r3]
 474              		@ sp needed
 475 0006 D05C     		ldrb	r0, [r2, r3]
 476 0008 7047     		bx	lr
 477              	.L46:
 478 000a C046     		.align	2
 479              	.L45:
 480 000c 00000000 		.word	.LANCHOR16
 481 0010 00000000 		.word	.LANCHOR35
 483              		.section	.text.get_modem_uptime_s,"ax",%progbits
 484              		.align	1
 485              		.global	get_modem_uptime_s
 486              		.syntax unified
 487              		.code	16
 488              		.thumb_func
 489              		.fpu softvfp
 491              	get_modem_uptime_s:
 492              		@ args = 0, pretend = 0, frame = 0
 493              		@ frame_needed = 0, uses_anonymous_args = 0
 494 0000 10B5     		push	{r4, lr}
 495 0002 FFF7FEFF 		bl	smtc_modem_hal_get_time_in_s
 496              		@ sp needed
 497 0006 024B     		ldr	r3, .L48
 498 0008 1B68     		ldr	r3, [r3]
 499 000a C01A     		subs	r0, r0, r3
 500 000c 10BD     		pop	{r4, pc}
 501              	.L49:
 502 000e C046     		.align	2
 503              	.L48:
 504 0010 00000000 		.word	.LANCHOR5
 506              		.section	.text.set_modem_start_time_s,"ax",%progbits
 507              		.align	1
 508              		.global	set_modem_start_time_s
 509              		.syntax unified
 510              		.code	16
 511              		.thumb_func
 512              		.fpu softvfp
 514              	set_modem_start_time_s:
 515              		@ args = 0, pretend = 0, frame = 0
 516              		@ frame_needed = 0, uses_anonymous_args = 0
 517              		@ link register save eliminated.
 518 0000 044B     		ldr	r3, .L52
 519 0002 1A78     		ldrb	r2, [r3]
 520 0004 002A     		cmp	r2, #0
 521 0006 03D1     		bne	.L50
 522 0008 0132     		adds	r2, r2, #1
ARM GAS  /tmp/cc54pXIa.s 			page 10


 523 000a 1A70     		strb	r2, [r3]
 524 000c 024B     		ldr	r3, .L52+4
 525 000e 1860     		str	r0, [r3]
 526              	.L50:
 527              		@ sp needed
 528 0010 7047     		bx	lr
 529              	.L53:
 530 0012 C046     		.align	2
 531              	.L52:
 532 0014 00000000 		.word	.LANCHOR19
 533 0018 00000000 		.word	.LANCHOR5
 535              		.section	.text.set_modem_dm_interval,"ax",%progbits
 536              		.align	1
 537              		.global	set_modem_dm_interval
 538              		.syntax unified
 539              		.code	16
 540              		.thumb_func
 541              		.fpu softvfp
 543              	set_modem_dm_interval:
 544              		@ args = 0, pretend = 0, frame = 0
 545              		@ frame_needed = 0, uses_anonymous_args = 0
 546              		@ link register save eliminated.
 547 0000 034B     		ldr	r3, .L56
 548 0002 1A78     		ldrb	r2, [r3]
 549 0004 8242     		cmp	r2, r0
 550 0006 00D0     		beq	.L55
 551 0008 1870     		strb	r0, [r3]
 552              	.L55:
 553 000a 0120     		movs	r0, #1
 554              		@ sp needed
 555 000c 7047     		bx	lr
 556              	.L57:
 557 000e C046     		.align	2
 558              	.L56:
 559 0010 00000000 		.word	.LANCHOR1
 561              		.section	.text.get_modem_dm_interval,"ax",%progbits
 562              		.align	1
 563              		.global	get_modem_dm_interval
 564              		.syntax unified
 565              		.code	16
 566              		.thumb_func
 567              		.fpu softvfp
 569              	get_modem_dm_interval:
 570              		@ args = 0, pretend = 0, frame = 0
 571              		@ frame_needed = 0, uses_anonymous_args = 0
 572              		@ link register save eliminated.
 573 0000 014B     		ldr	r3, .L59
 574              		@ sp needed
 575 0002 1878     		ldrb	r0, [r3]
 576 0004 7047     		bx	lr
 577              	.L60:
 578 0006 C046     		.align	2
 579              	.L59:
 580 0008 00000000 		.word	.LANCHOR1
 582              		.section	.text.get_modem_dm_interval_second,"ax",%progbits
 583              		.align	1
 584              		.global	get_modem_dm_interval_second
ARM GAS  /tmp/cc54pXIa.s 			page 11


 585              		.syntax unified
 586              		.code	16
 587              		.thumb_func
 588              		.fpu softvfp
 590              	get_modem_dm_interval_second:
 591              		@ args = 0, pretend = 0, frame = 0
 592              		@ frame_needed = 0, uses_anonymous_args = 0
 593              		@ link register save eliminated.
 594 0000 3F22     		movs	r2, #63
 595 0002 094B     		ldr	r3, .L67
 596 0004 1878     		ldrb	r0, [r3]
 597 0006 8309     		lsrs	r3, r0, #6
 598 0008 1040     		ands	r0, r2
 599 000a 022B     		cmp	r3, #2
 600 000c 06D0     		beq	.L62
 601 000e 032B     		cmp	r3, #3
 602 0010 07D0     		beq	.L63
 603 0012 012B     		cmp	r3, #1
 604 0014 01D1     		bne	.L61
 605 0016 054B     		ldr	r3, .L67+4
 606              	.L66:
 607 0018 5843     		muls	r0, r3
 608              	.L61:
 609              		@ sp needed
 610 001a 7047     		bx	lr
 611              	.L62:
 612 001c E123     		movs	r3, #225
 613 001e 1B01     		lsls	r3, r3, #4
 614 0020 FAE7     		b	.L66
 615              	.L63:
 616 0022 3C23     		movs	r3, #60
 617 0024 F8E7     		b	.L66
 618              	.L68:
 619 0026 C046     		.align	2
 620              	.L67:
 621 0028 00000000 		.word	.LANCHOR1
 622 002c 80510100 		.word	86400
 624              		.section	.text.set_modem_class,"ax",%progbits
 625              		.align	1
 626              		.global	set_modem_class
 627              		.syntax unified
 628              		.code	16
 629              		.thumb_func
 630              		.fpu softvfp
 632              	set_modem_class:
 633              		@ args = 0, pretend = 0, frame = 0
 634              		@ frame_needed = 0, uses_anonymous_args = 0
 635              		@ link register save eliminated.
 636 0000 014B     		ldr	r3, .L70
 637              		@ sp needed
 638 0002 1870     		strb	r0, [r3]
 639 0004 7047     		bx	lr
 640              	.L71:
 641 0006 C046     		.align	2
 642              	.L70:
 643 0008 00000000 		.word	.LANCHOR3
 645              		.section	.text.get_modem_class,"ax",%progbits
ARM GAS  /tmp/cc54pXIa.s 			page 12


 646              		.align	1
 647              		.global	get_modem_class
 648              		.syntax unified
 649              		.code	16
 650              		.thumb_func
 651              		.fpu softvfp
 653              	get_modem_class:
 654              		@ args = 0, pretend = 0, frame = 0
 655              		@ frame_needed = 0, uses_anonymous_args = 0
 656              		@ link register save eliminated.
 657 0000 014B     		ldr	r3, .L73
 658              		@ sp needed
 659 0002 1878     		ldrb	r0, [r3]
 660 0004 7047     		bx	lr
 661              	.L74:
 662 0006 C046     		.align	2
 663              	.L73:
 664 0008 00000000 		.word	.LANCHOR3
 666              		.section	.text.get_modem_dm_port,"ax",%progbits
 667              		.align	1
 668              		.global	get_modem_dm_port
 669              		.syntax unified
 670              		.code	16
 671              		.thumb_func
 672              		.fpu softvfp
 674              	get_modem_dm_port:
 675              		@ args = 0, pretend = 0, frame = 0
 676              		@ frame_needed = 0, uses_anonymous_args = 0
 677              		@ link register save eliminated.
 678 0000 014B     		ldr	r3, .L76
 679              		@ sp needed
 680 0002 1878     		ldrb	r0, [r3]
 681 0004 7047     		bx	lr
 682              	.L77:
 683 0006 C046     		.align	2
 684              	.L76:
 685 0008 00000000 		.word	.LANCHOR2
 687              		.section	.text.get_modem_adr_profile,"ax",%progbits
 688              		.align	1
 689              		.global	get_modem_adr_profile
 690              		.syntax unified
 691              		.code	16
 692              		.thumb_func
 693              		.fpu softvfp
 695              	get_modem_adr_profile:
 696              		@ args = 0, pretend = 0, frame = 0
 697              		@ frame_needed = 0, uses_anonymous_args = 0
 698              		@ link register save eliminated.
 699 0000 014B     		ldr	r3, .L79
 700              		@ sp needed
 701 0002 1878     		ldrb	r0, [r3]
 702 0004 7047     		bx	lr
 703              	.L80:
 704 0006 C046     		.align	2
 705              	.L79:
 706 0008 00000000 		.word	.LANCHOR24
 708              		.section	.text.get_modem_region,"ax",%progbits
ARM GAS  /tmp/cc54pXIa.s 			page 13


 709              		.align	1
 710              		.global	get_modem_region
 711              		.syntax unified
 712              		.code	16
 713              		.thumb_func
 714              		.fpu softvfp
 716              	get_modem_region:
 717              		@ args = 0, pretend = 0, frame = 0
 718              		@ frame_needed = 0, uses_anonymous_args = 0
 719 0000 10B5     		push	{r4, lr}
 720 0002 FFF7FEFF 		bl	lorawan_api_get_region
 721              		@ sp needed
 722 0006 10BD     		pop	{r4, pc}
 724              		.section	.text.set_modem_region,"ax",%progbits
 725              		.align	1
 726              		.global	set_modem_region
 727              		.syntax unified
 728              		.code	16
 729              		.thumb_func
 730              		.fpu softvfp
 732              	set_modem_region:
 733              		@ args = 0, pretend = 0, frame = 0
 734              		@ frame_needed = 0, uses_anonymous_args = 0
 735 0000 10B5     		push	{r4, lr}
 736 0002 FFF7FEFF 		bl	lorawan_api_set_region
 737              		@ sp needed
 738 0006 4342     		rsbs	r3, r0, #0
 739 0008 5841     		adcs	r0, r0, r3
 740 000a C0B2     		uxtb	r0, r0
 741 000c 10BD     		pop	{r4, pc}
 743              		.section	.text.set_modem_appstatus,"ax",%progbits
 744              		.align	1
 745              		.global	set_modem_appstatus
 746              		.syntax unified
 747              		.code	16
 748              		.thumb_func
 749              		.fpu softvfp
 751              	set_modem_appstatus:
 752              		@ args = 0, pretend = 0, frame = 0
 753              		@ frame_needed = 0, uses_anonymous_args = 0
 754 0000 10B5     		push	{r4, lr}
 755 0002 0100     		movs	r1, r0
 756              		@ sp needed
 757 0004 0822     		movs	r2, #8
 758 0006 0248     		ldr	r0, .L84
 759 0008 FFF7FEFF 		bl	memcpy
 760 000c 10BD     		pop	{r4, pc}
 761              	.L85:
 762 000e C046     		.align	2
 763              	.L84:
 764 0010 00000000 		.word	.LANCHOR32
 766              		.section	.text.get_modem_appstatus,"ax",%progbits
 767              		.align	1
 768              		.global	get_modem_appstatus
 769              		.syntax unified
 770              		.code	16
 771              		.thumb_func
ARM GAS  /tmp/cc54pXIa.s 			page 14


 772              		.fpu softvfp
 774              	get_modem_appstatus:
 775              		@ args = 0, pretend = 0, frame = 0
 776              		@ frame_needed = 0, uses_anonymous_args = 0
 777 0000 10B5     		push	{r4, lr}
 778 0002 0822     		movs	r2, #8
 779              		@ sp needed
 780 0004 0149     		ldr	r1, .L87
 781 0006 FFF7FEFF 		bl	memcpy
 782 000a 10BD     		pop	{r4, pc}
 783              	.L88:
 784              		.align	2
 785              	.L87:
 786 000c 00000000 		.word	.LANCHOR32
 788              		.section	.text.modem_supervisor_add_task_dm_status_now,"ax",%progbits
 789              		.align	1
 790              		.global	modem_supervisor_add_task_dm_status_now
 791              		.syntax unified
 792              		.code	16
 793              		.thumb_func
 794              		.fpu softvfp
 796              	modem_supervisor_add_task_dm_status_now:
 797              		@ args = 0, pretend = 0, frame = 24
 798              		@ frame_needed = 0, uses_anonymous_args = 0
 799 0000 70B5     		push	{r4, r5, r6, lr}
 800 0002 0323     		movs	r3, #3
 801 0004 0226     		movs	r6, #2
 802 0006 86B0     		sub	sp, sp, #24
 803 0008 01AC     		add	r4, sp, #4
 804 000a 2370     		strb	r3, [r4]
 805 000c 2372     		strb	r3, [r4, #8]
 806 000e 6674     		strb	r6, [r4, #17]
 807 0010 FFF7FEFF 		bl	smtc_modem_hal_get_time_in_s
 808 0014 0521     		movs	r1, #5
 809 0016 0500     		movs	r5, r0
 810 0018 3000     		movs	r0, r6
 811 001a FFF7FEFF 		bl	smtc_modem_hal_get_random_nb_in_range
 812 001e 2D18     		adds	r5, r5, r0
 813 0020 2000     		movs	r0, r4
 814 0022 0295     		str	r5, [sp, #8]
 815 0024 FFF7FEFF 		bl	modem_supervisor_add_task
 816 0028 06B0     		add	sp, sp, #24
 817              		@ sp needed
 818 002a 70BD     		pop	{r4, r5, r6, pc}
 820              		.section	.text.modem_supervisor_add_task_crash_log,"ax",%progbits
 821              		.align	1
 822              		.global	modem_supervisor_add_task_crash_log
 823              		.syntax unified
 824              		.code	16
 825              		.thumb_func
 826              		.fpu softvfp
 828              	modem_supervisor_add_task_crash_log:
 829              		@ args = 0, pretend = 0, frame = 24
 830              		@ frame_needed = 0, uses_anonymous_args = 0
 831 0000 0E23     		movs	r3, #14
 832 0002 F0B5     		push	{r4, r5, r6, r7, lr}
 833 0004 0227     		movs	r7, #2
ARM GAS  /tmp/cc54pXIa.s 			page 15


 834 0006 87B0     		sub	sp, sp, #28
 835 0008 01AD     		add	r5, sp, #4
 836 000a 2B70     		strb	r3, [r5]
 837 000c 0B3B     		subs	r3, r3, #11
 838 000e 2B72     		strb	r3, [r5, #8]
 839 0010 0600     		movs	r6, r0
 840 0012 6F74     		strb	r7, [r5, #17]
 841 0014 FFF7FEFF 		bl	smtc_modem_hal_get_time_in_s
 842 0018 0521     		movs	r1, #5
 843 001a 0400     		movs	r4, r0
 844 001c 3800     		movs	r0, r7
 845 001e FFF7FEFF 		bl	smtc_modem_hal_get_random_nb_in_range
 846 0022 2418     		adds	r4, r4, r0
 847 0024 A419     		adds	r4, r4, r6
 848 0026 2800     		movs	r0, r5
 849 0028 0294     		str	r4, [sp, #8]
 850 002a FFF7FEFF 		bl	modem_supervisor_add_task
 851 002e 07B0     		add	sp, sp, #28
 852              		@ sp needed
 853 0030 F0BD     		pop	{r4, r5, r6, r7, pc}
 855              		.section	.text.modem_supervisor_add_task_clock_sync_time_req,"ax",%progbits
 856              		.align	1
 857              		.global	modem_supervisor_add_task_clock_sync_time_req
 858              		.syntax unified
 859              		.code	16
 860              		.thumb_func
 861              		.fpu softvfp
 863              	modem_supervisor_add_task_clock_sync_time_req:
 864              		@ args = 0, pretend = 0, frame = 24
 865              		@ frame_needed = 0, uses_anonymous_args = 0
 866 0000 0923     		movs	r3, #9
 867 0002 30B5     		push	{r4, r5, lr}
 868 0004 87B0     		sub	sp, sp, #28
 869 0006 01AC     		add	r4, sp, #4
 870 0008 2370     		strb	r3, [r4]
 871 000a 083B     		subs	r3, r3, #8
 872 000c 2372     		strb	r3, [r4, #8]
 873 000e 0133     		adds	r3, r3, #1
 874 0010 0500     		movs	r5, r0
 875 0012 6374     		strb	r3, [r4, #17]
 876 0014 FFF7FEFF 		bl	smtc_modem_hal_get_time_in_s
 877 0018 4019     		adds	r0, r0, r5
 878 001a 0290     		str	r0, [sp, #8]
 879 001c 2000     		movs	r0, r4
 880 001e FFF7FEFF 		bl	modem_supervisor_add_task
 881 0022 07B0     		add	sp, sp, #28
 882              		@ sp needed
 883 0024 30BD     		pop	{r4, r5, pc}
 885              		.section	.text.modem_supervisor_remove_task_clock_sync,"ax",%progbits
 886              		.align	1
 887              		.global	modem_supervisor_remove_task_clock_sync
 888              		.syntax unified
 889              		.code	16
 890              		.thumb_func
 891              		.fpu softvfp
 893              	modem_supervisor_remove_task_clock_sync:
 894              		@ args = 0, pretend = 0, frame = 0
ARM GAS  /tmp/cc54pXIa.s 			page 16


 895              		@ frame_needed = 0, uses_anonymous_args = 0
 896 0000 10B5     		push	{r4, lr}
 897 0002 0920     		movs	r0, #9
 898 0004 FFF7FEFF 		bl	modem_supervisor_get_task_priority
 899 0008 0428     		cmp	r0, #4
 900 000a 02D0     		beq	.L93
 901 000c 0920     		movs	r0, #9
 902 000e FFF7FEFF 		bl	modem_supervisor_remove_task
 903              	.L93:
 904 0012 0A20     		movs	r0, #10
 905 0014 FFF7FEFF 		bl	modem_supervisor_get_task_priority
 906 0018 0428     		cmp	r0, #4
 907 001a 02D0     		beq	.L92
 908 001c 0A20     		movs	r0, #10
 909 001e FFF7FEFF 		bl	modem_supervisor_remove_task
 910              	.L92:
 911              		@ sp needed
 912 0022 10BD     		pop	{r4, pc}
 914              		.section	.text.modem_supervisor_is_clock_sync_running,"ax",%progbits
 915              		.align	1
 916              		.global	modem_supervisor_is_clock_sync_running
 917              		.syntax unified
 918              		.code	16
 919              		.thumb_func
 920              		.fpu softvfp
 922              	modem_supervisor_is_clock_sync_running:
 923              		@ args = 0, pretend = 0, frame = 0
 924              		@ frame_needed = 0, uses_anonymous_args = 0
 925 0000 10B5     		push	{r4, lr}
 926 0002 0920     		movs	r0, #9
 927              		@ sp needed
 928 0004 FFF7FEFF 		bl	modem_supervisor_get_task_priority
 929 0008 0438     		subs	r0, r0, #4
 930 000a 431E     		subs	r3, r0, #1
 931 000c 9841     		sbcs	r0, r0, r3
 932 000e C0B2     		uxtb	r0, r0
 933 0010 10BD     		pop	{r4, pc}
 935              		.section	.text.modem_supervisor_add_task_modem_mute,"ax",%progbits
 936              		.align	1
 937              		.global	modem_supervisor_add_task_modem_mute
 938              		.syntax unified
 939              		.code	16
 940              		.thumb_func
 941              		.fpu softvfp
 943              	modem_supervisor_add_task_modem_mute:
 944              		@ args = 0, pretend = 0, frame = 24
 945              		@ frame_needed = 0, uses_anonymous_args = 0
 946 0000 7FB5     		push	{r0, r1, r2, r3, r4, r5, r6, lr}
 947 0002 0623     		movs	r3, #6
 948 0004 6A46     		mov	r2, sp
 949 0006 1371     		strb	r3, [r2, #4]
 950 0008 043B     		subs	r3, r3, #4
 951 000a 1373     		strb	r3, [r2, #12]
 952 000c FFF7FEFF 		bl	smtc_modem_hal_get_time_in_s
 953 0010 034B     		ldr	r3, .L103
 954 0012 C018     		adds	r0, r0, r3
 955 0014 0290     		str	r0, [sp, #8]
ARM GAS  /tmp/cc54pXIa.s 			page 17


 956 0016 01A8     		add	r0, sp, #4
 957 0018 FFF7FEFF 		bl	modem_supervisor_add_task
 958 001c 07B0     		add	sp, sp, #28
 959              		@ sp needed
 960 001e 00BD     		pop	{pc}
 961              	.L104:
 962              		.align	2
 963              	.L103:
 964 0020 80510100 		.word	86400
 966              		.section	.text.modem_supervisor_add_task_file_upload,"ax",%progbits
 967              		.align	1
 968              		.global	modem_supervisor_add_task_file_upload
 969              		.syntax unified
 970              		.code	16
 971              		.thumb_func
 972              		.fpu softvfp
 974              	modem_supervisor_add_task_file_upload:
 975              		@ args = 0, pretend = 0, frame = 24
 976              		@ frame_needed = 0, uses_anonymous_args = 0
 977 0000 10B5     		push	{r4, lr}
 978 0002 86B0     		sub	sp, sp, #24
 979 0004 6A46     		mov	r2, sp
 980 0006 0423     		movs	r3, #4
 981 0008 1371     		strb	r3, [r2, #4]
 982 000a 033B     		subs	r3, r3, #3
 983 000c 0400     		movs	r4, r0
 984 000e 1373     		strb	r3, [r2, #12]
 985 0010 FFF7FEFF 		bl	smtc_modem_hal_get_time_in_s
 986 0014 0019     		adds	r0, r0, r4
 987 0016 0290     		str	r0, [sp, #8]
 988 0018 01A8     		add	r0, sp, #4
 989 001a FFF7FEFF 		bl	modem_supervisor_add_task
 990 001e 06B0     		add	sp, sp, #24
 991              		@ sp needed
 992 0020 10BD     		pop	{r4, pc}
 994              		.section	.text.get_modem_gnss_status,"ax",%progbits
 995              		.align	1
 996              		.global	get_modem_gnss_status
 997              		.syntax unified
 998              		.code	16
 999              		.thumb_func
 1000              		.fpu softvfp
 1002              	get_modem_gnss_status:
 1003              		@ args = 0, pretend = 0, frame = 0
 1004              		@ frame_needed = 0, uses_anonymous_args = 0
 1005              		@ link register save eliminated.
 1006              		@ sp needed
 1007 0000 7047     		bx	lr
 1009              		.section	.text.set_modem_status_reset_after_brownout,"ax",%progbits
 1010              		.align	1
 1011              		.global	set_modem_status_reset_after_brownout
 1012              		.syntax unified
 1013              		.code	16
 1014              		.thumb_func
 1015              		.fpu softvfp
 1017              	set_modem_status_reset_after_brownout:
 1018              		@ args = 0, pretend = 0, frame = 0
ARM GAS  /tmp/cc54pXIa.s 			page 18


 1019              		@ frame_needed = 0, uses_anonymous_args = 0
 1020 0000 10B5     		push	{r4, lr}
 1021 0002 054B     		ldr	r3, .L110
 1022 0004 0124     		movs	r4, #1
 1023 0006 1978     		ldrb	r1, [r3]
 1024 0008 0A00     		movs	r2, r1
 1025 000a A243     		bics	r2, r4
 1026 000c 0028     		cmp	r0, #0
 1027 000e 01D0     		beq	.L109
 1028 0010 2200     		movs	r2, r4
 1029 0012 0A43     		orrs	r2, r1
 1030              	.L109:
 1031 0014 1A70     		strb	r2, [r3]
 1032              		@ sp needed
 1033 0016 10BD     		pop	{r4, pc}
 1034              	.L111:
 1035              		.align	2
 1036              	.L110:
 1037 0018 00000000 		.word	.LANCHOR0
 1039              		.section	.text.set_modem_status_reset_after_crash,"ax",%progbits
 1040              		.align	1
 1041              		.global	set_modem_status_reset_after_crash
 1042              		.syntax unified
 1043              		.code	16
 1044              		.thumb_func
 1045              		.fpu softvfp
 1047              	set_modem_status_reset_after_crash:
 1048              		@ args = 0, pretend = 0, frame = 0
 1049              		@ frame_needed = 0, uses_anonymous_args = 0
 1050 0000 10B5     		push	{r4, lr}
 1051 0002 054B     		ldr	r3, .L115
 1052 0004 0224     		movs	r4, #2
 1053 0006 1978     		ldrb	r1, [r3]
 1054 0008 0A00     		movs	r2, r1
 1055 000a A243     		bics	r2, r4
 1056 000c 0028     		cmp	r0, #0
 1057 000e 01D0     		beq	.L114
 1058 0010 2200     		movs	r2, r4
 1059 0012 0A43     		orrs	r2, r1
 1060              	.L114:
 1061 0014 1A70     		strb	r2, [r3]
 1062              		@ sp needed
 1063 0016 10BD     		pop	{r4, pc}
 1064              	.L116:
 1065              		.align	2
 1066              	.L115:
 1067 0018 00000000 		.word	.LANCHOR0
 1069              		.section	.text.set_modem_status_modem_mute,"ax",%progbits
 1070              		.align	1
 1071              		.global	set_modem_status_modem_mute
 1072              		.syntax unified
 1073              		.code	16
 1074              		.thumb_func
 1075              		.fpu softvfp
 1077              	set_modem_status_modem_mute:
 1078              		@ args = 0, pretend = 0, frame = 0
 1079              		@ frame_needed = 0, uses_anonymous_args = 0
ARM GAS  /tmp/cc54pXIa.s 			page 19


 1080 0000 10B5     		push	{r4, lr}
 1081 0002 054B     		ldr	r3, .L120
 1082 0004 0424     		movs	r4, #4
 1083 0006 1978     		ldrb	r1, [r3]
 1084 0008 0A00     		movs	r2, r1
 1085 000a A243     		bics	r2, r4
 1086 000c 0028     		cmp	r0, #0
 1087 000e 01D0     		beq	.L119
 1088 0010 2200     		movs	r2, r4
 1089 0012 0A43     		orrs	r2, r1
 1090              	.L119:
 1091 0014 1A70     		strb	r2, [r3]
 1092              		@ sp needed
 1093 0016 10BD     		pop	{r4, pc}
 1094              	.L121:
 1095              		.align	2
 1096              	.L120:
 1097 0018 00000000 		.word	.LANCHOR0
 1099              		.section	.text.set_modem_status_modem_joined,"ax",%progbits
 1100              		.align	1
 1101              		.global	set_modem_status_modem_joined
 1102              		.syntax unified
 1103              		.code	16
 1104              		.thumb_func
 1105              		.fpu softvfp
 1107              	set_modem_status_modem_joined:
 1108              		@ args = 0, pretend = 0, frame = 0
 1109              		@ frame_needed = 0, uses_anonymous_args = 0
 1110 0000 10B5     		push	{r4, lr}
 1111 0002 054B     		ldr	r3, .L125
 1112 0004 0824     		movs	r4, #8
 1113 0006 1978     		ldrb	r1, [r3]
 1114 0008 0A00     		movs	r2, r1
 1115 000a A243     		bics	r2, r4
 1116 000c 0028     		cmp	r0, #0
 1117 000e 01D0     		beq	.L124
 1118 0010 2200     		movs	r2, r4
 1119 0012 0A43     		orrs	r2, r1
 1120              	.L124:
 1121 0014 1A70     		strb	r2, [r3]
 1122              		@ sp needed
 1123 0016 10BD     		pop	{r4, pc}
 1124              	.L126:
 1125              		.align	2
 1126              	.L125:
 1127 0018 00000000 		.word	.LANCHOR0
 1129              		.section	.text.set_modem_status_radio_suspend,"ax",%progbits
 1130              		.align	1
 1131              		.global	set_modem_status_radio_suspend
 1132              		.syntax unified
 1133              		.code	16
 1134              		.thumb_func
 1135              		.fpu softvfp
 1137              	set_modem_status_radio_suspend:
 1138              		@ args = 0, pretend = 0, frame = 0
 1139              		@ frame_needed = 0, uses_anonymous_args = 0
 1140 0000 10B5     		push	{r4, lr}
ARM GAS  /tmp/cc54pXIa.s 			page 20


 1141 0002 054B     		ldr	r3, .L130
 1142 0004 1024     		movs	r4, #16
 1143 0006 1978     		ldrb	r1, [r3]
 1144 0008 0A00     		movs	r2, r1
 1145 000a A243     		bics	r2, r4
 1146 000c 0028     		cmp	r0, #0
 1147 000e 01D0     		beq	.L129
 1148 0010 2200     		movs	r2, r4
 1149 0012 0A43     		orrs	r2, r1
 1150              	.L129:
 1151 0014 1A70     		strb	r2, [r3]
 1152              		@ sp needed
 1153 0016 10BD     		pop	{r4, pc}
 1154              	.L131:
 1155              		.align	2
 1156              	.L130:
 1157 0018 00000000 		.word	.LANCHOR0
 1159              		.section	.text.set_modem_status_file_upload,"ax",%progbits
 1160              		.align	1
 1161              		.global	set_modem_status_file_upload
 1162              		.syntax unified
 1163              		.code	16
 1164              		.thumb_func
 1165              		.fpu softvfp
 1167              	set_modem_status_file_upload:
 1168              		@ args = 0, pretend = 0, frame = 0
 1169              		@ frame_needed = 0, uses_anonymous_args = 0
 1170 0000 10B5     		push	{r4, lr}
 1171 0002 054B     		ldr	r3, .L135
 1172 0004 2024     		movs	r4, #32
 1173 0006 1978     		ldrb	r1, [r3]
 1174 0008 0A00     		movs	r2, r1
 1175 000a A243     		bics	r2, r4
 1176 000c 0028     		cmp	r0, #0
 1177 000e 01D0     		beq	.L134
 1178 0010 2200     		movs	r2, r4
 1179 0012 0A43     		orrs	r2, r1
 1180              	.L134:
 1181 0014 1A70     		strb	r2, [r3]
 1182              		@ sp needed
 1183 0016 10BD     		pop	{r4, pc}
 1184              	.L136:
 1185              		.align	2
 1186              	.L135:
 1187 0018 00000000 		.word	.LANCHOR0
 1189              		.section	.text.set_modem_status_joining,"ax",%progbits
 1190              		.align	1
 1191              		.global	set_modem_status_joining
 1192              		.syntax unified
 1193              		.code	16
 1194              		.thumb_func
 1195              		.fpu softvfp
 1197              	set_modem_status_joining:
 1198              		@ args = 0, pretend = 0, frame = 0
 1199              		@ frame_needed = 0, uses_anonymous_args = 0
 1200 0000 10B5     		push	{r4, lr}
 1201 0002 054B     		ldr	r3, .L140
ARM GAS  /tmp/cc54pXIa.s 			page 21


 1202 0004 4024     		movs	r4, #64
 1203 0006 1978     		ldrb	r1, [r3]
 1204 0008 0A00     		movs	r2, r1
 1205 000a A243     		bics	r2, r4
 1206 000c 0028     		cmp	r0, #0
 1207 000e 01D0     		beq	.L139
 1208 0010 2200     		movs	r2, r4
 1209 0012 0A43     		orrs	r2, r1
 1210              	.L139:
 1211 0014 1A70     		strb	r2, [r3]
 1212              		@ sp needed
 1213 0016 10BD     		pop	{r4, pc}
 1214              	.L141:
 1215              		.align	2
 1216              	.L140:
 1217 0018 00000000 		.word	.LANCHOR0
 1219              		.section	.rodata.modem_supervisor_add_task_join.str1.1,"aMS",%progbits,1
 1220              	.LC83:
 1221 0000 20537461 		.ascii	" Start a new join sequence now \012\000"
 1221      72742061 
 1221      206E6577 
 1221      206A6F69 
 1221      6E207365 
 1222              	.LC85:
 1223 0021 20537461 		.ascii	" Start a new join sequence in %d seconds \012\000"
 1223      72742061 
 1223      206E6577 
 1223      206A6F69 
 1223      6E207365 
 1224              		.section	.text.modem_supervisor_add_task_join,"ax",%progbits
 1225              		.align	1
 1226              		.global	modem_supervisor_add_task_join
 1227              		.syntax unified
 1228              		.code	16
 1229              		.thumb_func
 1230              		.fpu softvfp
 1232              	modem_supervisor_add_task_join:
 1233              		@ args = 0, pretend = 0, frame = 32
 1234              		@ frame_needed = 0, uses_anonymous_args = 0
 1235 0000 0123     		movs	r3, #1
 1236 0002 10B5     		push	{r4, lr}
 1237 0004 88B0     		sub	sp, sp, #32
 1238 0006 02AA     		add	r2, sp, #8
 1239 0008 1371     		strb	r3, [r2, #4]
 1240 000a 1373     		strb	r3, [r2, #12]
 1241 000c FFF7FEFF 		bl	smtc_modem_hal_get_time_in_s
 1242 0010 0521     		movs	r1, #5
 1243 0012 0400     		movs	r4, r0
 1244 0014 0020     		movs	r0, #0
 1245 0016 FFF7FEFF 		bl	smtc_modem_hal_get_random_nb_in_range
 1246 001a 0490     		str	r0, [sp, #16]
 1247 001c FFF7FEFF 		bl	lorawan_api_modem_certification_is_enabled
 1248 0020 0028     		cmp	r0, #0
 1249 0022 05D1     		bne	.L143
 1250 0024 FFF7FEFF 		bl	lorawan_api_next_join_time_second_get
 1251 0028 049B     		ldr	r3, [sp, #16]
 1252 002a 1818     		adds	r0, r3, r0
ARM GAS  /tmp/cc54pXIa.s 			page 22


 1253 002c 0193     		str	r3, [sp, #4]
 1254 002e 0490     		str	r0, [sp, #16]
 1255              	.L143:
 1256 0030 049B     		ldr	r3, [sp, #16]
 1257 0032 0193     		str	r3, [sp, #4]
 1258 0034 191B     		subs	r1, r3, r4
 1259 0036 0029     		cmp	r1, #0
 1260 0038 0ADC     		bgt	.L144
 1261 003a 0748     		ldr	r0, .L146
 1262 003c FFF7FEFF 		bl	smtc_modem_hal_print_trace
 1263              	.L145:
 1264 0040 0120     		movs	r0, #1
 1265 0042 FFF7FEFF 		bl	set_modem_status_joining
 1266 0046 03A8     		add	r0, sp, #12
 1267 0048 FFF7FEFF 		bl	modem_supervisor_add_task
 1268 004c 08B0     		add	sp, sp, #32
 1269              		@ sp needed
 1270 004e 10BD     		pop	{r4, pc}
 1271              	.L144:
 1272 0050 0248     		ldr	r0, .L146+4
 1273 0052 FFF7FEFF 		bl	smtc_modem_hal_print_trace
 1274 0056 F3E7     		b	.L145
 1275              	.L147:
 1276              		.align	2
 1277              	.L146:
 1278 0058 00000000 		.word	.LC83
 1279 005c 21000000 		.word	.LC85
 1281              		.section	.text.set_modem_status_streaming,"ax",%progbits
 1282              		.align	1
 1283              		.global	set_modem_status_streaming
 1284              		.syntax unified
 1285              		.code	16
 1286              		.thumb_func
 1287              		.fpu softvfp
 1289              	set_modem_status_streaming:
 1290              		@ args = 0, pretend = 0, frame = 0
 1291              		@ frame_needed = 0, uses_anonymous_args = 0
 1292              		@ link register save eliminated.
 1293 0000 054A     		ldr	r2, .L151
 1294 0002 1378     		ldrb	r3, [r2]
 1295 0004 0028     		cmp	r0, #0
 1296 0006 03D0     		beq	.L149
 1297 0008 8021     		movs	r1, #128
 1298 000a 0B43     		orrs	r3, r1
 1299              	.L150:
 1300 000c 1370     		strb	r3, [r2]
 1301              		@ sp needed
 1302 000e 7047     		bx	lr
 1303              	.L149:
 1304 0010 7F21     		movs	r1, #127
 1305 0012 0B40     		ands	r3, r1
 1306 0014 FAE7     		b	.L150
 1307              	.L152:
 1308 0016 C046     		.align	2
 1309              	.L151:
 1310 0018 00000000 		.word	.LANCHOR0
 1312              		.section	.text.modem_supervisor_add_task_stream,"ax",%progbits
ARM GAS  /tmp/cc54pXIa.s 			page 23


 1313              		.align	1
 1314              		.global	modem_supervisor_add_task_stream
 1315              		.syntax unified
 1316              		.code	16
 1317              		.thumb_func
 1318              		.fpu softvfp
 1320              	modem_supervisor_add_task_stream:
 1321              		@ args = 0, pretend = 0, frame = 24
 1322              		@ frame_needed = 0, uses_anonymous_args = 0
 1323 0000 0823     		movs	r3, #8
 1324 0002 30B5     		push	{r4, r5, lr}
 1325 0004 87B0     		sub	sp, sp, #28
 1326 0006 01AC     		add	r4, sp, #4
 1327 0008 2370     		strb	r3, [r4]
 1328 000a FFF7FEFF 		bl	smtc_modem_hal_get_time_in_s
 1329 000e 0321     		movs	r1, #3
 1330 0010 0500     		movs	r5, r0
 1331 0012 0120     		movs	r0, #1
 1332 0014 FFF7FEFF 		bl	smtc_modem_hal_get_random_nb_in_range
 1333 0018 2D18     		adds	r5, r5, r0
 1334 001a 0295     		str	r5, [sp, #8]
 1335 001c 0125     		movs	r5, #1
 1336 001e 064B     		ldr	r3, .L154
 1337 0020 2000     		movs	r0, r4
 1338 0022 1B78     		ldrb	r3, [r3]
 1339 0024 2572     		strb	r5, [r4, #8]
 1340 0026 6372     		strb	r3, [r4, #9]
 1341 0028 A572     		strb	r5, [r4, #10]
 1342 002a FFF7FEFF 		bl	modem_supervisor_add_task
 1343 002e 2800     		movs	r0, r5
 1344 0030 FFF7FEFF 		bl	set_modem_status_streaming
 1345 0034 07B0     		add	sp, sp, #28
 1346              		@ sp needed
 1347 0036 30BD     		pop	{r4, r5, pc}
 1348              	.L155:
 1349              		.align	2
 1350              	.L154:
 1351 0038 00000000 		.word	.LANCHOR8
 1353              		.section	.text.get_modem_status_reset_after_crash,"ax",%progbits
 1354              		.align	1
 1355              		.global	get_modem_status_reset_after_crash
 1356              		.syntax unified
 1357              		.code	16
 1358              		.thumb_func
 1359              		.fpu softvfp
 1361              	get_modem_status_reset_after_crash:
 1362              		@ args = 0, pretend = 0, frame = 0
 1363              		@ frame_needed = 0, uses_anonymous_args = 0
 1364              		@ link register save eliminated.
 1365 0000 024B     		ldr	r3, .L157
 1366              		@ sp needed
 1367 0002 1878     		ldrb	r0, [r3]
 1368 0004 8007     		lsls	r0, r0, #30
 1369 0006 C00F     		lsrs	r0, r0, #31
 1370 0008 7047     		bx	lr
 1371              	.L158:
 1372 000a C046     		.align	2
ARM GAS  /tmp/cc54pXIa.s 			page 24


 1373              	.L157:
 1374 000c 00000000 		.word	.LANCHOR0
 1376              		.section	.text.get_modem_status_file_upload,"ax",%progbits
 1377              		.align	1
 1378              		.global	get_modem_status_file_upload
 1379              		.syntax unified
 1380              		.code	16
 1381              		.thumb_func
 1382              		.fpu softvfp
 1384              	get_modem_status_file_upload:
 1385              		@ args = 0, pretend = 0, frame = 0
 1386              		@ frame_needed = 0, uses_anonymous_args = 0
 1387              		@ link register save eliminated.
 1388 0000 024B     		ldr	r3, .L160
 1389              		@ sp needed
 1390 0002 1878     		ldrb	r0, [r3]
 1391 0004 8006     		lsls	r0, r0, #26
 1392 0006 C00F     		lsrs	r0, r0, #31
 1393 0008 7047     		bx	lr
 1394              	.L161:
 1395 000a C046     		.align	2
 1396              	.L160:
 1397 000c 00000000 		.word	.LANCHOR0
 1399              		.section	.text.get_modem_status_joining,"ax",%progbits
 1400              		.align	1
 1401              		.global	get_modem_status_joining
 1402              		.syntax unified
 1403              		.code	16
 1404              		.thumb_func
 1405              		.fpu softvfp
 1407              	get_modem_status_joining:
 1408              		@ args = 0, pretend = 0, frame = 0
 1409              		@ frame_needed = 0, uses_anonymous_args = 0
 1410              		@ link register save eliminated.
 1411 0000 024B     		ldr	r3, .L163
 1412              		@ sp needed
 1413 0002 1878     		ldrb	r0, [r3]
 1414 0004 4006     		lsls	r0, r0, #25
 1415 0006 C00F     		lsrs	r0, r0, #31
 1416 0008 7047     		bx	lr
 1417              	.L164:
 1418 000a C046     		.align	2
 1419              	.L163:
 1420 000c 00000000 		.word	.LANCHOR0
 1422              		.section	.text.get_join_state,"ax",%progbits
 1423              		.align	1
 1424              		.global	get_join_state
 1425              		.syntax unified
 1426              		.code	16
 1427              		.thumb_func
 1428              		.fpu softvfp
 1430              	get_join_state:
 1431              		@ args = 0, pretend = 0, frame = 0
 1432              		@ frame_needed = 0, uses_anonymous_args = 0
 1433 0000 10B5     		push	{r4, lr}
 1434 0002 FFF7FEFF 		bl	get_modem_status_joining
 1435 0006 0400     		movs	r4, r0
ARM GAS  /tmp/cc54pXIa.s 			page 25


 1436 0008 0120     		movs	r0, #1
 1437 000a 002C     		cmp	r4, #0
 1438 000c 04D1     		bne	.L166
 1439 000e FFF7FEFF 		bl	lorawan_api_isjoined
 1440 0012 0228     		cmp	r0, #2
 1441 0014 00D0     		beq	.L166
 1442 0016 2000     		movs	r0, r4
 1443              	.L166:
 1444              		@ sp needed
 1445 0018 10BD     		pop	{r4, pc}
 1447              		.section	.text.modem_supervisor_add_task_dm_status,"ax",%progbits
 1448              		.align	1
 1449              		.global	modem_supervisor_add_task_dm_status
 1450              		.syntax unified
 1451              		.code	16
 1452              		.thumb_func
 1453              		.fpu softvfp
 1455              	modem_supervisor_add_task_dm_status:
 1456              		@ args = 0, pretend = 0, frame = 24
 1457              		@ frame_needed = 0, uses_anonymous_args = 0
 1458 0000 0223     		movs	r3, #2
 1459 0002 0322     		movs	r2, #3
 1460 0004 30B5     		push	{r4, r5, lr}
 1461 0006 87B0     		sub	sp, sp, #28
 1462 0008 01AC     		add	r4, sp, #4
 1463 000a 0500     		movs	r5, r0
 1464 000c 2370     		strb	r3, [r4]
 1465 000e 2272     		strb	r2, [r4, #8]
 1466 0010 6374     		strb	r3, [r4, #17]
 1467 0012 FFF7FEFF 		bl	smtc_modem_hal_get_time_in_s
 1468 0016 4019     		adds	r0, r0, r5
 1469 0018 0290     		str	r0, [sp, #8]
 1470 001a FFF7FEFF 		bl	get_join_state
 1471 001e 0228     		cmp	r0, #2
 1472 0020 02D1     		bne	.L169
 1473 0022 2000     		movs	r0, r4
 1474 0024 FFF7FEFF 		bl	modem_supervisor_add_task
 1475              	.L169:
 1476 0028 07B0     		add	sp, sp, #28
 1477              		@ sp needed
 1478 002a 30BD     		pop	{r4, r5, pc}
 1480              		.section	.text.modem_supervisor_add_task_alc_sync_ans,"ax",%progbits
 1481              		.align	1
 1482              		.global	modem_supervisor_add_task_alc_sync_ans
 1483              		.syntax unified
 1484              		.code	16
 1485              		.thumb_func
 1486              		.fpu softvfp
 1488              	modem_supervisor_add_task_alc_sync_ans:
 1489              		@ args = 0, pretend = 0, frame = 24
 1490              		@ frame_needed = 0, uses_anonymous_args = 0
 1491 0000 0A23     		movs	r3, #10
 1492 0002 30B5     		push	{r4, r5, lr}
 1493 0004 87B0     		sub	sp, sp, #28
 1494 0006 01AC     		add	r4, sp, #4
 1495 0008 2370     		strb	r3, [r4]
 1496 000a 093B     		subs	r3, r3, #9
ARM GAS  /tmp/cc54pXIa.s 			page 26


 1497 000c 2372     		strb	r3, [r4, #8]
 1498 000e 0133     		adds	r3, r3, #1
 1499 0010 0500     		movs	r5, r0
 1500 0012 6374     		strb	r3, [r4, #17]
 1501 0014 FFF7FEFF 		bl	smtc_modem_hal_get_time_in_s
 1502 0018 4019     		adds	r0, r0, r5
 1503 001a 0290     		str	r0, [sp, #8]
 1504 001c FFF7FEFF 		bl	get_join_state
 1505 0020 0228     		cmp	r0, #2
 1506 0022 02D1     		bne	.L171
 1507 0024 2000     		movs	r0, r4
 1508 0026 FFF7FEFF 		bl	modem_supervisor_add_task
 1509              	.L171:
 1510 002a 07B0     		add	sp, sp, #28
 1511              		@ sp needed
 1512 002c 30BD     		pop	{r4, r5, pc}
 1514              		.section	.text.modem_supervisor_add_task_alm_dbg_ans,"ax",%progbits
 1515              		.align	1
 1516              		.global	modem_supervisor_add_task_alm_dbg_ans
 1517              		.syntax unified
 1518              		.code	16
 1519              		.thumb_func
 1520              		.fpu softvfp
 1522              	modem_supervisor_add_task_alm_dbg_ans:
 1523              		@ args = 0, pretend = 0, frame = 24
 1524              		@ frame_needed = 0, uses_anonymous_args = 0
 1525 0000 0D23     		movs	r3, #13
 1526 0002 30B5     		push	{r4, r5, lr}
 1527 0004 87B0     		sub	sp, sp, #28
 1528 0006 01AC     		add	r4, sp, #4
 1529 0008 2370     		strb	r3, [r4]
 1530 000a 0C3B     		subs	r3, r3, #12
 1531 000c 2372     		strb	r3, [r4, #8]
 1532 000e 0133     		adds	r3, r3, #1
 1533 0010 0500     		movs	r5, r0
 1534 0012 6374     		strb	r3, [r4, #17]
 1535 0014 FFF7FEFF 		bl	smtc_modem_hal_get_time_in_s
 1536 0018 4019     		adds	r0, r0, r5
 1537 001a 0290     		str	r0, [sp, #8]
 1538 001c FFF7FEFF 		bl	get_join_state
 1539 0020 0228     		cmp	r0, #2
 1540 0022 02D1     		bne	.L173
 1541 0024 2000     		movs	r0, r4
 1542 0026 FFF7FEFF 		bl	modem_supervisor_add_task
 1543              	.L173:
 1544 002a 07B0     		add	sp, sp, #28
 1545              		@ sp needed
 1546 002c 30BD     		pop	{r4, r5, pc}
 1548              		.section	.text.modem_supervisor_add_task_retrieve_dl,"ax",%progbits
 1549              		.align	1
 1550              		.global	modem_supervisor_add_task_retrieve_dl
 1551              		.syntax unified
 1552              		.code	16
 1553              		.thumb_func
 1554              		.fpu softvfp
 1556              	modem_supervisor_add_task_retrieve_dl:
 1557              		@ args = 0, pretend = 0, frame = 24
ARM GAS  /tmp/cc54pXIa.s 			page 27


 1558              		@ frame_needed = 0, uses_anonymous_args = 0
 1559 0000 0723     		movs	r3, #7
 1560 0002 30B5     		push	{r4, r5, lr}
 1561 0004 87B0     		sub	sp, sp, #28
 1562 0006 01AC     		add	r4, sp, #4
 1563 0008 2370     		strb	r3, [r4]
 1564 000a 043B     		subs	r3, r3, #4
 1565 000c 2372     		strb	r3, [r4, #8]
 1566 000e FE33     		adds	r3, r3, #254
 1567 0010 FF33     		adds	r3, r3, #255
 1568 0012 0500     		movs	r5, r0
 1569 0014 2382     		strh	r3, [r4, #16]
 1570 0016 FFF7FEFF 		bl	smtc_modem_hal_get_time_in_s
 1571 001a 4019     		adds	r0, r0, r5
 1572 001c 0290     		str	r0, [sp, #8]
 1573 001e FFF7FEFF 		bl	get_join_state
 1574 0022 0228     		cmp	r0, #2
 1575 0024 02D1     		bne	.L175
 1576 0026 2000     		movs	r0, r4
 1577 0028 FFF7FEFF 		bl	modem_supervisor_add_task
 1578              	.L175:
 1579 002c 07B0     		add	sp, sp, #28
 1580              		@ sp needed
 1581 002e 30BD     		pop	{r4, r5, pc}
 1583              		.section	.text.modem_supervisor_add_task_frag,"ax",%progbits
 1584              		.align	1
 1585              		.global	modem_supervisor_add_task_frag
 1586              		.syntax unified
 1587              		.code	16
 1588              		.thumb_func
 1589              		.fpu softvfp
 1591              	modem_supervisor_add_task_frag:
 1592              		@ args = 0, pretend = 0, frame = 24
 1593              		@ frame_needed = 0, uses_anonymous_args = 0
 1594 0000 0B23     		movs	r3, #11
 1595 0002 30B5     		push	{r4, r5, lr}
 1596 0004 87B0     		sub	sp, sp, #28
 1597 0006 01AC     		add	r4, sp, #4
 1598 0008 2370     		strb	r3, [r4]
 1599 000a 0A3B     		subs	r3, r3, #10
 1600 000c 2372     		strb	r3, [r4, #8]
 1601 000e 0133     		adds	r3, r3, #1
 1602 0010 0500     		movs	r5, r0
 1603 0012 6374     		strb	r3, [r4, #17]
 1604 0014 FFF7FEFF 		bl	smtc_modem_hal_get_time_in_s
 1605 0018 4019     		adds	r0, r0, r5
 1606 001a 0290     		str	r0, [sp, #8]
 1607 001c FFF7FEFF 		bl	get_join_state
 1608 0020 0228     		cmp	r0, #2
 1609 0022 02D1     		bne	.L177
 1610 0024 2000     		movs	r0, r4
 1611 0026 FFF7FEFF 		bl	modem_supervisor_add_task
 1612              	.L177:
 1613 002a 07B0     		add	sp, sp, #28
 1614              		@ sp needed
 1615 002c 30BD     		pop	{r4, r5, pc}
 1617              		.section	.text.modem_supervisor_add_task_link_check_req,"ax",%progbits
ARM GAS  /tmp/cc54pXIa.s 			page 28


 1618              		.align	1
 1619              		.global	modem_supervisor_add_task_link_check_req
 1620              		.syntax unified
 1621              		.code	16
 1622              		.thumb_func
 1623              		.fpu softvfp
 1625              	modem_supervisor_add_task_link_check_req:
 1626              		@ args = 0, pretend = 0, frame = 24
 1627              		@ frame_needed = 0, uses_anonymous_args = 0
 1628 0000 0F23     		movs	r3, #15
 1629 0002 30B5     		push	{r4, r5, lr}
 1630 0004 87B0     		sub	sp, sp, #28
 1631 0006 01AC     		add	r4, sp, #4
 1632 0008 2370     		strb	r3, [r4]
 1633 000a 0E3B     		subs	r3, r3, #14
 1634 000c 2372     		strb	r3, [r4, #8]
 1635 000e 0133     		adds	r3, r3, #1
 1636 0010 0500     		movs	r5, r0
 1637 0012 6374     		strb	r3, [r4, #17]
 1638 0014 FFF7FEFF 		bl	smtc_modem_hal_get_time_in_s
 1639 0018 4019     		adds	r0, r0, r5
 1640 001a 0290     		str	r0, [sp, #8]
 1641 001c FFF7FEFF 		bl	get_join_state
 1642 0020 0228     		cmp	r0, #2
 1643 0022 02D1     		bne	.L179
 1644 0024 2000     		movs	r0, r4
 1645 0026 FFF7FEFF 		bl	modem_supervisor_add_task
 1646              	.L179:
 1647 002a 07B0     		add	sp, sp, #28
 1648              		@ sp needed
 1649 002c 30BD     		pop	{r4, r5, pc}
 1651              		.section	.text.modem_supervisor_add_task_device_time_req,"ax",%progbits
 1652              		.align	1
 1653              		.global	modem_supervisor_add_task_device_time_req
 1654              		.syntax unified
 1655              		.code	16
 1656              		.thumb_func
 1657              		.fpu softvfp
 1659              	modem_supervisor_add_task_device_time_req:
 1660              		@ args = 0, pretend = 0, frame = 24
 1661              		@ frame_needed = 0, uses_anonymous_args = 0
 1662 0000 1023     		movs	r3, #16
 1663 0002 30B5     		push	{r4, r5, lr}
 1664 0004 87B0     		sub	sp, sp, #28
 1665 0006 01AC     		add	r4, sp, #4
 1666 0008 2370     		strb	r3, [r4]
 1667 000a 0F3B     		subs	r3, r3, #15
 1668 000c 2372     		strb	r3, [r4, #8]
 1669 000e 0133     		adds	r3, r3, #1
 1670 0010 0500     		movs	r5, r0
 1671 0012 6374     		strb	r3, [r4, #17]
 1672 0014 FFF7FEFF 		bl	smtc_modem_hal_get_time_in_s
 1673 0018 4019     		adds	r0, r0, r5
 1674 001a 0290     		str	r0, [sp, #8]
 1675 001c FFF7FEFF 		bl	get_join_state
 1676 0020 0228     		cmp	r0, #2
 1677 0022 02D1     		bne	.L181
ARM GAS  /tmp/cc54pXIa.s 			page 29


 1678 0024 2000     		movs	r0, r4
 1679 0026 FFF7FEFF 		bl	modem_supervisor_add_task
 1680              	.L181:
 1681 002a 07B0     		add	sp, sp, #28
 1682              		@ sp needed
 1683 002c 30BD     		pop	{r4, r5, pc}
 1685              		.section	.text.modem_supervisor_add_task_ping_slot_info_req,"ax",%progbits
 1686              		.align	1
 1687              		.global	modem_supervisor_add_task_ping_slot_info_req
 1688              		.syntax unified
 1689              		.code	16
 1690              		.thumb_func
 1691              		.fpu softvfp
 1693              	modem_supervisor_add_task_ping_slot_info_req:
 1694              		@ args = 0, pretend = 0, frame = 24
 1695              		@ frame_needed = 0, uses_anonymous_args = 0
 1696 0000 1123     		movs	r3, #17
 1697 0002 30B5     		push	{r4, r5, lr}
 1698 0004 87B0     		sub	sp, sp, #28
 1699 0006 01AC     		add	r4, sp, #4
 1700 0008 2370     		strb	r3, [r4]
 1701 000a 103B     		subs	r3, r3, #16
 1702 000c 2372     		strb	r3, [r4, #8]
 1703 000e 0133     		adds	r3, r3, #1
 1704 0010 0500     		movs	r5, r0
 1705 0012 6374     		strb	r3, [r4, #17]
 1706 0014 FFF7FEFF 		bl	smtc_modem_hal_get_time_in_s
 1707 0018 4019     		adds	r0, r0, r5
 1708 001a 0290     		str	r0, [sp, #8]
 1709 001c FFF7FEFF 		bl	get_join_state
 1710 0020 0228     		cmp	r0, #2
 1711 0022 02D1     		bne	.L183
 1712 0024 2000     		movs	r0, r4
 1713 0026 FFF7FEFF 		bl	modem_supervisor_add_task
 1714              	.L183:
 1715 002a 07B0     		add	sp, sp, #28
 1716              		@ sp needed
 1717 002c 30BD     		pop	{r4, r5, pc}
 1719              		.section	.text.get_modem_status,"ax",%progbits
 1720              		.align	1
 1721              		.global	get_modem_status
 1722              		.syntax unified
 1723              		.code	16
 1724              		.thumb_func
 1725              		.fpu softvfp
 1727              	get_modem_status:
 1728              		@ args = 0, pretend = 0, frame = 0
 1729              		@ frame_needed = 0, uses_anonymous_args = 0
 1730 0000 10B5     		push	{r4, lr}
 1731 0002 FFF7FEFF 		bl	get_join_state
 1732 0006 0228     		cmp	r0, #2
 1733 0008 02D0     		beq	.L186
 1734 000a 0020     		movs	r0, #0
 1735 000c FFF7FEFF 		bl	set_modem_status_modem_joined
 1736              	.L186:
 1737              		@ sp needed
 1738 0010 014B     		ldr	r3, .L190
ARM GAS  /tmp/cc54pXIa.s 			page 30


 1739 0012 1878     		ldrb	r0, [r3]
 1740 0014 10BD     		pop	{r4, pc}
 1741              	.L191:
 1742 0016 C046     		.align	2
 1743              	.L190:
 1744 0018 00000000 		.word	.LANCHOR0
 1746              		.section	.text.get_modem_status_streaming,"ax",%progbits
 1747              		.align	1
 1748              		.global	get_modem_status_streaming
 1749              		.syntax unified
 1750              		.code	16
 1751              		.thumb_func
 1752              		.fpu softvfp
 1754              	get_modem_status_streaming:
 1755              		@ args = 0, pretend = 0, frame = 0
 1756              		@ frame_needed = 0, uses_anonymous_args = 0
 1757              		@ link register save eliminated.
 1758 0000 014B     		ldr	r3, .L193
 1759              		@ sp needed
 1760 0002 1878     		ldrb	r0, [r3]
 1761 0004 C009     		lsrs	r0, r0, #7
 1762 0006 7047     		bx	lr
 1763              	.L194:
 1764              		.align	2
 1765              	.L193:
 1766 0008 00000000 		.word	.LANCHOR0
 1768              		.section	.text.reset_modem_charge,"ax",%progbits
 1769              		.align	1
 1770              		.global	reset_modem_charge
 1771              		.syntax unified
 1772              		.code	16
 1773              		.thumb_func
 1774              		.fpu softvfp
 1776              	reset_modem_charge:
 1777              		@ args = 0, pretend = 0, frame = 0
 1778              		@ frame_needed = 0, uses_anonymous_args = 0
 1779 0000 C422     		movs	r2, #196
 1780 0002 054B     		ldr	r3, .L196
 1781 0004 10B5     		push	{r4, lr}
 1782 0006 1868     		ldr	r0, [r3]
 1783 0008 044B     		ldr	r3, .L196+4
 1784 000a 0021     		movs	r1, #0
 1785              		@ sp needed
 1786 000c C018     		adds	r0, r0, r3
 1787 000e 5200     		lsls	r2, r2, #1
 1788 0010 FFF7FEFF 		bl	memset
 1789 0014 10BD     		pop	{r4, pc}
 1790              	.L197:
 1791 0016 C046     		.align	2
 1792              	.L196:
 1793 0018 00000000 		.word	.LANCHOR29
 1794 001c F4070000 		.word	2036
 1796              		.global	__aeabi_uidiv
 1797              		.section	.text.get_modem_charge_ma_s,"ax",%progbits
 1798              		.align	1
 1799              		.global	get_modem_charge_ma_s
 1800              		.syntax unified
ARM GAS  /tmp/cc54pXIa.s 			page 31


 1801              		.code	16
 1802              		.thumb_func
 1803              		.fpu softvfp
 1805              	get_modem_charge_ma_s:
 1806              		@ args = 0, pretend = 0, frame = 0
 1807              		@ frame_needed = 0, uses_anonymous_args = 0
 1808 0000 FA21     		movs	r1, #250
 1809 0002 094B     		ldr	r3, .L199
 1810 0004 094A     		ldr	r2, .L199+4
 1811 0006 1B68     		ldr	r3, [r3]
 1812 0008 10B5     		push	{r4, lr}
 1813 000a 9858     		ldr	r0, [r3, r2]
 1814 000c 084A     		ldr	r2, .L199+8
 1815 000e 8900     		lsls	r1, r1, #2
 1816 0010 9A58     		ldr	r2, [r3, r2]
 1817              		@ sp needed
 1818 0012 8018     		adds	r0, r0, r2
 1819 0014 074A     		ldr	r2, .L199+12
 1820 0016 9B58     		ldr	r3, [r3, r2]
 1821 0018 C018     		adds	r0, r0, r3
 1822 001a FFF7FEFF 		bl	__aeabi_uidiv
 1823 001e 064B     		ldr	r3, .L199+16
 1824 0020 1B68     		ldr	r3, [r3]
 1825 0022 C018     		adds	r0, r0, r3
 1826 0024 10BD     		pop	{r4, pc}
 1827              	.L200:
 1828 0026 C046     		.align	2
 1829              	.L199:
 1830 0028 00000000 		.word	.LANCHOR29
 1831 002c 34090000 		.word	2356
 1832 0030 38090000 		.word	2360
 1833 0034 3C090000 		.word	2364
 1834 0038 00000000 		.word	.LANCHOR18
 1836              		.section	.text.get_modem_charge_ma_h,"ax",%progbits
 1837              		.align	1
 1838              		.global	get_modem_charge_ma_h
 1839              		.syntax unified
 1840              		.code	16
 1841              		.thumb_func
 1842              		.fpu softvfp
 1844              	get_modem_charge_ma_h:
 1845              		@ args = 0, pretend = 0, frame = 0
 1846              		@ frame_needed = 0, uses_anonymous_args = 0
 1847 0000 10B5     		push	{r4, lr}
 1848 0002 FFF7FEFF 		bl	get_modem_charge_ma_s
 1849              		@ sp needed
 1850 0006 E121     		movs	r1, #225
 1851 0008 0901     		lsls	r1, r1, #4
 1852 000a FFF7FEFF 		bl	__aeabi_uidiv
 1853 000e 10BD     		pop	{r4, pc}
 1855              		.section	.text.get_modem_user_define_charge_ma_h,"ax",%progbits
 1856              		.align	1
 1857              		.global	get_modem_user_define_charge_ma_h
 1858              		.syntax unified
 1859              		.code	16
 1860              		.thumb_func
 1861              		.fpu softvfp
ARM GAS  /tmp/cc54pXIa.s 			page 32


 1863              	get_modem_user_define_charge_ma_h:
 1864              		@ args = 0, pretend = 0, frame = 0
 1865              		@ frame_needed = 0, uses_anonymous_args = 0
 1866              		@ link register save eliminated.
 1867 0000 014B     		ldr	r3, .L203
 1868              		@ sp needed
 1869 0002 1888     		ldrh	r0, [r3]
 1870 0004 7047     		bx	lr
 1871              	.L204:
 1872 0006 C046     		.align	2
 1873              	.L203:
 1874 0008 00000000 		.word	.LANCHOR20
 1876              		.section	.text.set_modem_user_define_charge_ma_h,"ax",%progbits
 1877              		.align	1
 1878              		.global	set_modem_user_define_charge_ma_h
 1879              		.syntax unified
 1880              		.code	16
 1881              		.thumb_func
 1882              		.fpu softvfp
 1884              	set_modem_user_define_charge_ma_h:
 1885              		@ args = 0, pretend = 0, frame = 0
 1886              		@ frame_needed = 0, uses_anonymous_args = 0
 1887              		@ link register save eliminated.
 1888 0000 014B     		ldr	r3, .L206
 1889              		@ sp needed
 1890 0002 1880     		strh	r0, [r3]
 1891 0004 7047     		bx	lr
 1892              	.L207:
 1893 0006 C046     		.align	2
 1894              	.L206:
 1895 0008 00000000 		.word	.LANCHOR20
 1897              		.section	.text.choose_modem_charge_counter,"ax",%progbits
 1898              		.align	1
 1899              		.global	choose_modem_charge_counter
 1900              		.syntax unified
 1901              		.code	16
 1902              		.thumb_func
 1903              		.fpu softvfp
 1905              	choose_modem_charge_counter:
 1906              		@ args = 0, pretend = 0, frame = 0
 1907              		@ frame_needed = 0, uses_anonymous_args = 0
 1908              		@ link register save eliminated.
 1909 0000 0022     		movs	r2, #0
 1910              		@ sp needed
 1911 0002 014B     		ldr	r3, .L209
 1912 0004 1A70     		strb	r2, [r3]
 1913 0006 7047     		bx	lr
 1914              	.L210:
 1915              		.align	2
 1916              	.L209:
 1917 0008 00000000 		.word	.LANCHOR21
 1919              		.section	.text.choose_user_define_charge_counter,"ax",%progbits
 1920              		.align	1
 1921              		.global	choose_user_define_charge_counter
 1922              		.syntax unified
 1923              		.code	16
 1924              		.thumb_func
ARM GAS  /tmp/cc54pXIa.s 			page 33


 1925              		.fpu softvfp
 1927              	choose_user_define_charge_counter:
 1928              		@ args = 0, pretend = 0, frame = 0
 1929              		@ frame_needed = 0, uses_anonymous_args = 0
 1930              		@ link register save eliminated.
 1931 0000 0122     		movs	r2, #1
 1932              		@ sp needed
 1933 0002 014B     		ldr	r3, .L212
 1934 0004 1A70     		strb	r2, [r3]
 1935 0006 7047     		bx	lr
 1936              	.L213:
 1937              		.align	2
 1938              	.L212:
 1939 0008 00000000 		.word	.LANCHOR21
 1941              		.section	.text.get_charge_counter_to_send,"ax",%progbits
 1942              		.align	1
 1943              		.global	get_charge_counter_to_send
 1944              		.syntax unified
 1945              		.code	16
 1946              		.thumb_func
 1947              		.fpu softvfp
 1949              	get_charge_counter_to_send:
 1950              		@ args = 0, pretend = 0, frame = 0
 1951              		@ frame_needed = 0, uses_anonymous_args = 0
 1952              		@ link register save eliminated.
 1953 0000 014B     		ldr	r3, .L215
 1954              		@ sp needed
 1955 0002 1878     		ldrb	r0, [r3]
 1956 0004 7047     		bx	lr
 1957              	.L216:
 1958 0006 C046     		.align	2
 1959              	.L215:
 1960 0008 00000000 		.word	.LANCHOR21
 1962              		.section	.text.get_modem_voltage,"ax",%progbits
 1963              		.align	1
 1964              		.global	get_modem_voltage
 1965              		.syntax unified
 1966              		.code	16
 1967              		.thumb_func
 1968              		.fpu softvfp
 1970              	get_modem_voltage:
 1971              		@ args = 0, pretend = 0, frame = 0
 1972              		@ frame_needed = 0, uses_anonymous_args = 0
 1973 0000 10B5     		push	{r4, lr}
 1974 0002 FFF7FEFF 		bl	smtc_modem_hal_get_voltage
 1975              		@ sp needed
 1976 0006 10BD     		pop	{r4, pc}
 1978              		.section	.text.get_modem_temp,"ax",%progbits
 1979              		.align	1
 1980              		.global	get_modem_temp
 1981              		.syntax unified
 1982              		.code	16
 1983              		.thumb_func
 1984              		.fpu softvfp
 1986              	get_modem_temp:
 1987              		@ args = 0, pretend = 0, frame = 0
 1988              		@ frame_needed = 0, uses_anonymous_args = 0
ARM GAS  /tmp/cc54pXIa.s 			page 34


 1989 0000 10B5     		push	{r4, lr}
 1990 0002 FFF7FEFF 		bl	smtc_modem_hal_get_temperature
 1991              		@ sp needed
 1992 0006 10BD     		pop	{r4, pc}
 1994              		.section	.rodata.dm_check_dminfo_size.str1.1,"aMS",%progbits,1
 1995              	.LC102:
 1996 0000 1B5B303B 		.ascii	"\033[0;31mERROR: Invalid DM command\012\000"
 1996      33316D45 
 1996      52524F52 
 1996      3A20496E 
 1996      76616C69 
 1997              	.LC106:
 1998 0022 1B5B303B 		.ascii	"\033[0;31mERROR: Invalid DM command size\012\000"
 1998      33316D45 
 1998      52524F52 
 1998      3A20496E 
 1998      76616C69 
 1999              		.section	.text.dm_check_dminfo_size,"ax",%progbits
 2000              		.align	1
 2001              		.global	dm_check_dminfo_size
 2002              		.syntax unified
 2003              		.code	16
 2004              		.thumb_func
 2005              		.fpu softvfp
 2007              	dm_check_dminfo_size:
 2008              		@ args = 0, pretend = 0, frame = 0
 2009              		@ frame_needed = 0, uses_anonymous_args = 0
 2010 0000 10B5     		push	{r4, lr}
 2011 0002 1B28     		cmp	r0, #27
 2012 0004 07D9     		bls	.L220
 2013 0006 0748     		ldr	r0, .L224
 2014              	.L223:
 2015 0008 FFF7FEFF 		bl	smtc_modem_hal_print_trace
 2016 000c 0648     		ldr	r0, .L224+4
 2017 000e FFF7FEFF 		bl	smtc_modem_hal_print_trace
 2018 0012 0120     		movs	r0, #1
 2019              	.L221:
 2020              		@ sp needed
 2021 0014 10BD     		pop	{r4, pc}
 2022              	.L220:
 2023 0016 054B     		ldr	r3, .L224+8
 2024 0018 1B5C     		ldrb	r3, [r3, r0]
 2025 001a 0020     		movs	r0, #0
 2026 001c 8B42     		cmp	r3, r1
 2027 001e F9D0     		beq	.L221
 2028 0020 0348     		ldr	r0, .L224+12
 2029 0022 F1E7     		b	.L223
 2030              	.L225:
 2031              		.align	2
 2032              	.L224:
 2033 0024 00000000 		.word	.LC102
 2034 0028 1D000000 		.word	.LC41
 2035 002c 00000000 		.word	.LANCHOR39
 2036 0030 22000000 		.word	.LC106
 2038              		.section	.text.dm_set_conf,"ax",%progbits
 2039              		.align	1
 2040              		.global	dm_set_conf
ARM GAS  /tmp/cc54pXIa.s 			page 35


 2041              		.syntax unified
 2042              		.code	16
 2043              		.thumb_func
 2044              		.fpu softvfp
 2046              	dm_set_conf:
 2047              		@ args = 0, pretend = 0, frame = 8
 2048              		@ frame_needed = 0, uses_anonymous_args = 0
 2049 0000 37B5     		push	{r0, r1, r2, r4, r5, lr}
 2050 0002 0C00     		movs	r4, r1
 2051 0004 1100     		movs	r1, r2
 2052 0006 0500     		movs	r5, r0
 2053 0008 FFF7FEFF 		bl	dm_check_dminfo_size
 2054 000c 0028     		cmp	r0, #0
 2055 000e 01D0     		beq	.L227
 2056              	.L234:
 2057 0010 0020     		movs	r0, #0
 2058              	.L228:
 2059              		@ sp needed
 2060 0012 3EBD     		pop	{r1, r2, r3, r4, r5, pc}
 2061              	.L227:
 2062 0014 2B00     		movs	r3, r5
 2063 0016 083B     		subs	r3, r3, #8
 2064 0018 032B     		cmp	r3, #3
 2065 001a FAD8     		bhi	.L228
 2066 001c 1800     		movs	r0, r3
 2067 001e FFF7FEFF 		bl	__gnu_thumb1_case_uqi
 2068              	.L230:
 2069 0022 02       		.byte	(.L233-.L230)/2
 2070 0023 0F       		.byte	(.L232-.L230)/2
 2071 0024 18       		.byte	(.L231-.L230)/2
 2072 0025 20       		.byte	(.L229-.L230)/2
 2073              		.p2align 1
 2074              	.L233:
 2075 0026 124B     		ldr	r3, .L239
 2076 0028 2078     		ldrb	r0, [r4]
 2077 002a 1870     		strb	r0, [r3]
 2078 002c FFF7FEFF 		bl	lorawan_api_dr_strategy_set
 2079 0030 431C     		adds	r3, r0, #1
 2080 0032 EDD0     		beq	.L234
 2081              	.L235:
 2082 0034 0620     		movs	r0, #6
 2083 0036 2900     		movs	r1, r5
 2084 0038 FFF7FEFF 		bl	increment_asynchronous_msgnumber
 2085 003c 0120     		movs	r0, #1
 2086 003e E8E7     		b	.L228
 2087              	.L232:
 2088 0040 6846     		mov	r0, sp
 2089 0042 0822     		movs	r2, #8
 2090 0044 2100     		movs	r1, r4
 2091 0046 FFF7FEFF 		bl	memcpy1_r
 2092 004a 6846     		mov	r0, sp
 2093 004c FFF7FEFF 		bl	lorawan_api_set_joineui
 2094 0050 F0E7     		b	.L235
 2095              	.L231:
 2096 0052 2078     		ldrb	r0, [r4]
 2097 0054 FFF7FEFF 		bl	set_modem_dm_interval
 2098 0058 FFF7FEFF 		bl	get_modem_dm_interval_second
ARM GAS  /tmp/cc54pXIa.s 			page 36


 2099 005c FFF7FEFF 		bl	modem_supervisor_add_task_dm_status
 2100 0060 E8E7     		b	.L235
 2101              	.L229:
 2102 0062 0020     		movs	r0, #0
 2103 0064 FFF7FEFF 		bl	smtc_modem_leave_network
 2104 0068 2078     		ldrb	r0, [r4]
 2105 006a FFF7FEFF 		bl	set_modem_region
 2106 006e E1E7     		b	.L235
 2107              	.L240:
 2108              		.align	2
 2109              	.L239:
 2110 0070 00000000 		.word	.LANCHOR24
 2112              		.section	.text.get_modem_muted,"ax",%progbits
 2113              		.align	1
 2114              		.global	get_modem_muted
 2115              		.syntax unified
 2116              		.code	16
 2117              		.thumb_func
 2118              		.fpu softvfp
 2120              	get_modem_muted:
 2121              		@ args = 0, pretend = 0, frame = 0
 2122              		@ frame_needed = 0, uses_anonymous_args = 0
 2123              		@ link register save eliminated.
 2124 0000 034B     		ldr	r3, .L246
 2125 0002 1878     		ldrb	r0, [r3]
 2126 0004 FF28     		cmp	r0, #255
 2127 0006 02D0     		beq	.L242
 2128 0008 431E     		subs	r3, r0, #1
 2129 000a 9841     		sbcs	r0, r0, r3
 2130 000c C0B2     		uxtb	r0, r0
 2131              	.L242:
 2132              		@ sp needed
 2133 000e 7047     		bx	lr
 2134              	.L247:
 2135              		.align	2
 2136              	.L246:
 2137 0010 00000000 		.word	.LANCHOR13
 2139              		.section	.text.dm_get_number_of_days_mute,"ax",%progbits
 2140              		.align	1
 2141              		.global	dm_get_number_of_days_mute
 2142              		.syntax unified
 2143              		.code	16
 2144              		.thumb_func
 2145              		.fpu softvfp
 2147              	dm_get_number_of_days_mute:
 2148              		@ args = 0, pretend = 0, frame = 0
 2149              		@ frame_needed = 0, uses_anonymous_args = 0
 2150              		@ link register save eliminated.
 2151 0000 014B     		ldr	r3, .L249
 2152              		@ sp needed
 2153 0002 1878     		ldrb	r0, [r3]
 2154 0004 7047     		bx	lr
 2155              	.L250:
 2156 0006 C046     		.align	2
 2157              	.L249:
 2158 0008 00000000 		.word	.LANCHOR13
 2160              		.section	.rodata.dm_set_number_of_days_mute.str1.1,"aMS",%progbits,1
ARM GAS  /tmp/cc54pXIa.s 			page 37


 2161              	.LC111:
 2162 0000 4D555445 		.ascii	"MUTE for %d days\012\000"
 2162      20666F72 
 2162      20256420 
 2162      64617973 
 2162      0A00
 2163              		.section	.text.dm_set_number_of_days_mute,"ax",%progbits
 2164              		.align	1
 2165              		.global	dm_set_number_of_days_mute
 2166              		.syntax unified
 2167              		.code	16
 2168              		.thumb_func
 2169              		.fpu softvfp
 2171              	dm_set_number_of_days_mute:
 2172              		@ args = 0, pretend = 0, frame = 0
 2173              		@ frame_needed = 0, uses_anonymous_args = 0
 2174 0000 0100     		movs	r1, r0
 2175 0002 10B5     		push	{r4, lr}
 2176 0004 0400     		movs	r4, r0
 2177 0006 0748     		ldr	r0, .L255
 2178 0008 FFF7FEFF 		bl	smtc_modem_hal_print_trace
 2179 000c 064B     		ldr	r3, .L255+4
 2180 000e 1A78     		ldrb	r2, [r3]
 2181 0010 A242     		cmp	r2, r4
 2182 0012 06D0     		beq	.L251
 2183 0014 0120     		movs	r0, #1
 2184 0016 1C70     		strb	r4, [r3]
 2185 0018 002C     		cmp	r4, #0
 2186 001a 00D1     		bne	.L254
 2187 001c 2000     		movs	r0, r4
 2188              	.L254:
 2189 001e FFF7FEFF 		bl	set_modem_status_modem_mute
 2190              	.L251:
 2191              		@ sp needed
 2192 0022 10BD     		pop	{r4, pc}
 2193              	.L256:
 2194              		.align	2
 2195              	.L255:
 2196 0024 00000000 		.word	.LC111
 2197 0028 00000000 		.word	.LANCHOR13
 2199              		.section	.text.get_dm_info_tag_list,"ax",%progbits
 2200              		.align	1
 2201              		.global	get_dm_info_tag_list
 2202              		.syntax unified
 2203              		.code	16
 2204              		.thumb_func
 2205              		.fpu softvfp
 2207              	get_dm_info_tag_list:
 2208              		@ args = 0, pretend = 0, frame = 0
 2209              		@ frame_needed = 0, uses_anonymous_args = 0
 2210 0000 70B5     		push	{r4, r5, r6, lr}
 2211 0002 0A4B     		ldr	r3, .L267
 2212 0004 0129     		cmp	r1, #1
 2213 0006 00D0     		beq	.L266
 2214 0008 094B     		ldr	r3, .L267+4
 2215              	.L266:
 2216 000a 1968     		ldr	r1, [r3]
ARM GAS  /tmp/cc54pXIa.s 			page 38


 2217 000c 0022     		movs	r2, #0
 2218 000e 0300     		movs	r3, r0
 2219 0010 0124     		movs	r4, #1
 2220              	.L261:
 2221 0012 2600     		movs	r6, r4
 2222 0014 9640     		lsls	r6, r6, r2
 2223 0016 D5B2     		uxtb	r5, r2
 2224 0018 3142     		tst	r1, r6
 2225 001a 01D0     		beq	.L260
 2226 001c 1D70     		strb	r5, [r3]
 2227 001e 0133     		adds	r3, r3, #1
 2228              	.L260:
 2229 0020 0132     		adds	r2, r2, #1
 2230 0022 1C2A     		cmp	r2, #28
 2231 0024 F5D1     		bne	.L261
 2232 0026 181A     		subs	r0, r3, r0
 2233 0028 C0B2     		uxtb	r0, r0
 2234              		@ sp needed
 2235 002a 70BD     		pop	{r4, r5, r6, pc}
 2236              	.L268:
 2237              		.align	2
 2238              	.L267:
 2239 002c 00000000 		.word	.LANCHOR10
 2240 0030 00000000 		.word	.LANCHOR9
 2242              		.section	.rodata.set_dm_info.str1.1,"aMS",%progbits,1
 2243              	.LC116:
 2244 0000 1B5B303B 		.ascii	"\033[0;31mERROR: invalid DM info code (0x%02x)\012\000"
 2244      33316D45 
 2244      52524F52 
 2244      3A20696E 
 2244      76616C69 
 2245              		.section	.text.set_dm_info,"ax",%progbits
 2246              		.align	1
 2247              		.global	set_dm_info
 2248              		.syntax unified
 2249              		.code	16
 2250              		.thumb_func
 2251              		.fpu softvfp
 2253              	set_dm_info:
 2254              		@ args = 0, pretend = 0, frame = 8
 2255              		@ frame_needed = 0, uses_anonymous_args = 0
 2256 0000 F7B5     		push	{r0, r1, r2, r4, r5, r6, r7, lr}
 2257 0002 0400     		movs	r4, r0
 2258 0004 0600     		movs	r6, r0
 2259 0006 0700     		movs	r7, r0
 2260 0008 0125     		movs	r5, #1
 2261 000a 4318     		adds	r3, r0, r1
 2262 000c 0092     		str	r2, [sp]
 2263 000e 0193     		str	r3, [sp, #4]
 2264              	.L270:
 2265 0010 019B     		ldr	r3, [sp, #4]
 2266 0012 9F42     		cmp	r7, r3
 2267 0014 04D1     		bne	.L273
 2268 0016 012D     		cmp	r5, #1
 2269 0018 1DD0     		beq	.L274
 2270              	.L279:
 2271 001a 0025     		movs	r5, #0
ARM GAS  /tmp/cc54pXIa.s 			page 39


 2272              	.L275:
 2273              		@ sp needed
 2274 001c 2800     		movs	r0, r5
 2275 001e FEBD     		pop	{r1, r2, r3, r4, r5, r6, r7, pc}
 2276              	.L273:
 2277 0020 3978     		ldrb	r1, [r7]
 2278 0022 1B29     		cmp	r1, #27
 2279 0024 04D8     		bhi	.L271
 2280 0026 1F4B     		ldr	r3, .L290
 2281 0028 0122     		movs	r2, #1
 2282 002a CB40     		lsrs	r3, r3, r1
 2283 002c 9A43     		bics	r2, r3
 2284 002e 06D1     		bne	.L272
 2285              	.L271:
 2286 0030 1D48     		ldr	r0, .L290+4
 2287 0032 FFF7FEFF 		bl	smtc_modem_hal_print_trace
 2288 0036 1D48     		ldr	r0, .L290+8
 2289 0038 FFF7FEFF 		bl	smtc_modem_hal_print_trace
 2290 003c 0025     		movs	r5, #0
 2291              	.L272:
 2292 003e 0137     		adds	r7, r7, #1
 2293 0040 E6E7     		b	.L270
 2294              	.L277:
 2295 0042 2378     		ldrb	r3, [r4]
 2296 0044 0D2B     		cmp	r3, #13
 2297 0046 05D1     		bne	.L276
 2298 0048 009B     		ldr	r3, [sp]
 2299 004a 012B     		cmp	r3, #1
 2300 004c 16D1     		bne	.L284
 2301 004e 0020     		movs	r0, #0
 2302 0050 FFF7FEFF 		bl	modem_supervisor_add_task_crash_log
 2303              	.L276:
 2304 0054 0134     		adds	r4, r4, #1
 2305              	.L274:
 2306 0056 019B     		ldr	r3, [sp, #4]
 2307 0058 A342     		cmp	r3, r4
 2308 005a F2D1     		bne	.L277
 2309 005c 0023     		movs	r3, #0
 2310 005e 2900     		movs	r1, r5
 2311 0060 012D     		cmp	r5, #1
 2312 0062 DAD1     		bne	.L279
 2313              	.L278:
 2314 0064 B442     		cmp	r4, r6
 2315 0066 0BD1     		bne	.L281
 2316 0068 009A     		ldr	r2, [sp]
 2317 006a 012A     		cmp	r2, #1
 2318 006c 10D1     		bne	.L282
 2319 006e 104A     		ldr	r2, .L290+12
 2320 0070 009D     		ldr	r5, [sp]
 2321 0072 1360     		str	r3, [r2]
 2322 0074 0022     		movs	r2, #0
 2323 0076 0F4B     		ldr	r3, .L290+16
 2324 0078 1A70     		strb	r2, [r3]
 2325 007a CFE7     		b	.L275
 2326              	.L284:
 2327 007c 0025     		movs	r5, #0
 2328 007e E9E7     		b	.L276
ARM GAS  /tmp/cc54pXIa.s 			page 40


 2329              	.L281:
 2330 0080 3278     		ldrb	r2, [r6]
 2331 0082 0D2A     		cmp	r2, #13
 2332 0084 02D0     		beq	.L280
 2333 0086 0800     		movs	r0, r1
 2334 0088 9040     		lsls	r0, r0, r2
 2335 008a 0343     		orrs	r3, r0
 2336              	.L280:
 2337 008c 0136     		adds	r6, r6, #1
 2338 008e E9E7     		b	.L278
 2339              	.L282:
 2340 0090 094A     		ldr	r2, .L290+20
 2341 0092 1168     		ldr	r1, [r2]
 2342 0094 9942     		cmp	r1, r3
 2343 0096 C1D0     		beq	.L275
 2344 0098 1360     		str	r3, [r2]
 2345 009a 0022     		movs	r2, #0
 2346 009c 074B     		ldr	r3, .L290+24
 2347 009e 1A70     		strb	r2, [r3]
 2348 00a0 BCE7     		b	.L275
 2349              	.L291:
 2350 00a2 C046     		.align	2
 2351              	.L290:
 2352 00a4 0050920E 		.word	244469760
 2353 00a8 00000000 		.word	.LC116
 2354 00ac 1D000000 		.word	.LC41
 2355 00b0 00000000 		.word	.LANCHOR10
 2356 00b4 00000000 		.word	.LANCHOR12
 2357 00b8 00000000 		.word	.LANCHOR9
 2358 00bc 00000000 		.word	.LANCHOR11
 2360              		.section	.text.set_modem_suspend,"ax",%progbits
 2361              		.align	1
 2362              		.global	set_modem_suspend
 2363              		.syntax unified
 2364              		.code	16
 2365              		.thumb_func
 2366              		.fpu softvfp
 2368              	set_modem_suspend:
 2369              		@ args = 0, pretend = 0, frame = 0
 2370              		@ frame_needed = 0, uses_anonymous_args = 0
 2371 0000 10B5     		push	{r4, lr}
 2372 0002 0400     		movs	r4, r0
 2373              		@ sp needed
 2374 0004 FFF7FEFF 		bl	set_modem_status_radio_suspend
 2375 0008 014B     		ldr	r3, .L293
 2376 000a 0120     		movs	r0, #1
 2377 000c 1C70     		strb	r4, [r3]
 2378 000e 10BD     		pop	{r4, pc}
 2379              	.L294:
 2380              		.align	2
 2381              	.L293:
 2382 0010 00000000 		.word	.LANCHOR4
 2384              		.section	.text.get_modem_suspend,"ax",%progbits
 2385              		.align	1
 2386              		.global	get_modem_suspend
 2387              		.syntax unified
 2388              		.code	16
ARM GAS  /tmp/cc54pXIa.s 			page 41


 2389              		.thumb_func
 2390              		.fpu softvfp
 2392              	get_modem_suspend:
 2393              		@ args = 0, pretend = 0, frame = 0
 2394              		@ frame_needed = 0, uses_anonymous_args = 0
 2395              		@ link register save eliminated.
 2396 0000 034B     		ldr	r3, .L296
 2397              		@ sp needed
 2398 0002 1878     		ldrb	r0, [r3]
 2399 0004 0138     		subs	r0, r0, #1
 2400 0006 4342     		rsbs	r3, r0, #0
 2401 0008 5841     		adcs	r0, r0, r3
 2402 000a C0B2     		uxtb	r0, r0
 2403 000c 7047     		bx	lr
 2404              	.L297:
 2405 000e C046     		.align	2
 2406              	.L296:
 2407 0010 00000000 		.word	.LANCHOR4
 2409              		.section	.rodata.set_modem_adr_profile.str1.1,"aMS",%progbits,1
 2410              	.LC125:
 2411 0000 1B5B303B 		.ascii	"\033[0;31mERROR: user_dr = %d not compatible with a"
 2411      33316D45 
 2411      52524F52 
 2411      3A207573 
 2411      65725F64 
 2412 0030 64722064 		.ascii	"dr data length = %d \012 \000"
 2412      61746120 
 2412      6C656E67 
 2412      7468203D 
 2412      20256420 
 2413              	.LC129:
 2414 0047 1B5B303B 		.ascii	"\033[0;31mERROR: ADR with DataRate out of range\012"
 2414      33316D45 
 2414      52524F52 
 2414      3A204144 
 2414      52207769 
 2415 0074 00       		.ascii	"\000"
 2416              	.LC131:
 2417 0075 1B5B303B 		.ascii	"\033[0;31mERROR: ADR with a bad DataRate value\012\000"
 2417      33316D45 
 2417      52524F52 
 2417      3A204144 
 2417      52207769 
 2418              		.section	.text.set_modem_adr_profile,"ax",%progbits
 2419              		.align	1
 2420              		.global	set_modem_adr_profile
 2421              		.syntax unified
 2422              		.code	16
 2423              		.thumb_func
 2424              		.fpu softvfp
 2426              	set_modem_adr_profile:
 2427              		@ args = 0, pretend = 0, frame = 24
 2428              		@ frame_needed = 0, uses_anonymous_args = 0
 2429 0000 F0B5     		push	{r4, r5, r6, r7, lr}
 2430 0002 0F00     		movs	r7, r1
 2431 0004 87B0     		sub	sp, sp, #28
 2432 0006 0328     		cmp	r0, #3
ARM GAS  /tmp/cc54pXIa.s 			page 42


 2433 0008 14D8     		bhi	.L299
 2434 000a 11D1     		bne	.L300
 2435 000c 102A     		cmp	r2, #16
 2436 000e 11D1     		bne	.L299
 2437              	.L301:
 2438 0010 644B     		ldr	r3, .L373
 2439 0012 1870     		strb	r0, [r3]
 2440 0014 0228     		cmp	r0, #2
 2441 0016 04D0     		beq	.L371
 2442 0018 0328     		cmp	r0, #3
 2443 001a 15D0     		beq	.L304
 2444 001c 0128     		cmp	r0, #1
 2445 001e 00D0     		beq	.L371
 2446 0020 0020     		movs	r0, #0
 2447              	.L371:
 2448 0022 FFF7FEFF 		bl	lorawan_api_dr_strategy_set
 2449 0026 0130     		adds	r0, r0, #1
 2450 0028 431E     		subs	r3, r0, #1
 2451 002a 9841     		sbcs	r0, r0, r3
 2452 002c C0B2     		uxtb	r0, r0
 2453 002e 09E0     		b	.L302
 2454              	.L300:
 2455 0030 002A     		cmp	r2, #0
 2456 0032 EDD0     		beq	.L301
 2457              	.L299:
 2458 0034 0100     		movs	r1, r0
 2459 0036 5C48     		ldr	r0, .L373+4
 2460 0038 FFF7FEFF 		bl	smtc_modem_hal_print_trace
 2461              	.L372:
 2462 003c 5B48     		ldr	r0, .L373+8
 2463 003e FFF7FEFF 		bl	smtc_modem_hal_print_trace
 2464 0042 0020     		movs	r0, #0
 2465              	.L302:
 2466 0044 07B0     		add	sp, sp, #28
 2467              		@ sp needed
 2468 0046 F0BD     		pop	{r4, r5, r6, r7, pc}
 2469              	.L304:
 2470 0048 FFF7FEFF 		bl	lorawan_api_mask_tx_dr_channel_up_dwell_time_check
 2471 004c 0822     		movs	r2, #8
 2472 004e 0390     		str	r0, [sp, #12]
 2473 0050 0021     		movs	r1, #0
 2474 0052 04A8     		add	r0, sp, #16
 2475 0054 FFF7FEFF 		bl	memset
 2476 0058 3B00     		movs	r3, r7
 2477 005a 0024     		movs	r4, #0
 2478 005c 1033     		adds	r3, r3, #16
 2479 005e 0293     		str	r3, [sp, #8]
 2480 0060 2200     		movs	r2, r4
 2481 0062 2500     		movs	r5, r4
 2482 0064 2300     		movs	r3, r4
 2483 0066 A446     		mov	ip, r4
 2484 0068 0120     		movs	r0, #1
 2485 006a 0F26     		movs	r6, #15
 2486 006c 0197     		str	r7, [sp, #4]
 2487              	.L334:
 2488 006e 0199     		ldr	r1, [sp, #4]
 2489 0070 0978     		ldrb	r1, [r1]
ARM GAS  /tmp/cc54pXIa.s 			page 43


 2490 0072 0F29     		cmp	r1, #15
 2491 0074 09D9     		bls	.L307
 2492 0076 002D     		cmp	r5, #0
 2493 0078 00D0     		beq	.L308
 2494 007a 0493     		str	r3, [sp, #16]
 2495              	.L308:
 2496 007c 002C     		cmp	r4, #0
 2497 007e 00D0     		beq	.L309
 2498 0080 0592     		str	r2, [sp, #20]
 2499              	.L309:
 2500 0082 4B48     		ldr	r0, .L373+12
 2501              	.L370:
 2502 0084 FFF7FEFF 		bl	smtc_modem_hal_print_trace
 2503 0088 D8E7     		b	.L372
 2504              	.L307:
 2505 008a 039F     		ldr	r7, [sp, #12]
 2506 008c 0F41     		asrs	r7, r7, r1
 2507 008e 0742     		tst	r7, r0
 2508 0090 0DD0     		beq	.L311
 2509 0092 0127     		movs	r7, #1
 2510 0094 BC44     		add	ip, ip, r7
 2511 0096 6746     		mov	r7, ip
 2512 0098 FFB2     		uxtb	r7, r7
 2513 009a BC46     		mov	ip, r7
 2514 009c 0029     		cmp	r1, #0
 2515 009e 18D1     		bne	.L312
 2516 00a0 190F     		lsrs	r1, r3, #28
 2517 00a2 0F39     		subs	r1, r1, #15
 2518 00a4 4D1E     		subs	r5, r1, #1
 2519 00a6 A941     		sbcs	r1, r1, r5
 2520 00a8 0907     		lsls	r1, r1, #28
 2521              	.L368:
 2522 00aa 0500     		movs	r5, r0
 2523 00ac 5B18     		adds	r3, r3, r1
 2524              	.L311:
 2525 00ae 0199     		ldr	r1, [sp, #4]
 2526 00b0 0131     		adds	r1, r1, #1
 2527 00b2 0191     		str	r1, [sp, #4]
 2528 00b4 019F     		ldr	r7, [sp, #4]
 2529 00b6 0299     		ldr	r1, [sp, #8]
 2530 00b8 8F42     		cmp	r7, r1
 2531 00ba D8D1     		bne	.L334
 2532 00bc 002D     		cmp	r5, #0
 2533 00be 00D0     		beq	.L335
 2534 00c0 0493     		str	r3, [sp, #16]
 2535              	.L335:
 2536 00c2 002C     		cmp	r4, #0
 2537 00c4 00D0     		beq	.L336
 2538 00c6 0592     		str	r2, [sp, #20]
 2539              	.L336:
 2540 00c8 6346     		mov	r3, ip
 2541 00ca 002B     		cmp	r3, #0
 2542 00cc 64D1     		bne	.L337
 2543 00ce 3948     		ldr	r0, .L373+16
 2544 00d0 D8E7     		b	.L370
 2545              	.L312:
 2546 00d2 0129     		cmp	r1, #1
ARM GAS  /tmp/cc54pXIa.s 			page 44


 2547 00d4 06D1     		bne	.L314
 2548 00d6 190E     		lsrs	r1, r3, #24
 2549 00d8 3140     		ands	r1, r6
 2550 00da 0F39     		subs	r1, r1, #15
 2551 00dc 4D1E     		subs	r5, r1, #1
 2552 00de A941     		sbcs	r1, r1, r5
 2553 00e0 0906     		lsls	r1, r1, #24
 2554 00e2 E2E7     		b	.L368
 2555              	.L314:
 2556 00e4 0229     		cmp	r1, #2
 2557 00e6 06D1     		bne	.L316
 2558 00e8 190D     		lsrs	r1, r3, #20
 2559 00ea 3140     		ands	r1, r6
 2560 00ec 0F39     		subs	r1, r1, #15
 2561 00ee 4D1E     		subs	r5, r1, #1
 2562 00f0 A941     		sbcs	r1, r1, r5
 2563 00f2 0905     		lsls	r1, r1, #20
 2564 00f4 D9E7     		b	.L368
 2565              	.L316:
 2566 00f6 0329     		cmp	r1, #3
 2567 00f8 06D1     		bne	.L318
 2568 00fa 190C     		lsrs	r1, r3, #16
 2569 00fc 3140     		ands	r1, r6
 2570 00fe 0F39     		subs	r1, r1, #15
 2571 0100 4D1E     		subs	r5, r1, #1
 2572 0102 A941     		sbcs	r1, r1, r5
 2573 0104 0904     		lsls	r1, r1, #16
 2574 0106 D0E7     		b	.L368
 2575              	.L318:
 2576 0108 0429     		cmp	r1, #4
 2577 010a 06D1     		bne	.L320
 2578 010c 190B     		lsrs	r1, r3, #12
 2579 010e 3140     		ands	r1, r6
 2580 0110 0F39     		subs	r1, r1, #15
 2581 0112 4D1E     		subs	r5, r1, #1
 2582 0114 A941     		sbcs	r1, r1, r5
 2583 0116 0903     		lsls	r1, r1, #12
 2584 0118 C7E7     		b	.L368
 2585              	.L320:
 2586 011a 0529     		cmp	r1, #5
 2587 011c 06D1     		bne	.L322
 2588 011e 190A     		lsrs	r1, r3, #8
 2589 0120 3140     		ands	r1, r6
 2590 0122 0F39     		subs	r1, r1, #15
 2591 0124 4D1E     		subs	r5, r1, #1
 2592 0126 A941     		sbcs	r1, r1, r5
 2593 0128 0902     		lsls	r1, r1, #8
 2594 012a BEE7     		b	.L368
 2595              	.L322:
 2596 012c 0629     		cmp	r1, #6
 2597 012e 06D1     		bne	.L324
 2598 0130 1909     		lsrs	r1, r3, #4
 2599 0132 3140     		ands	r1, r6
 2600 0134 0F39     		subs	r1, r1, #15
 2601 0136 4D1E     		subs	r5, r1, #1
 2602 0138 A941     		sbcs	r1, r1, r5
 2603 013a 0901     		lsls	r1, r1, #4
ARM GAS  /tmp/cc54pXIa.s 			page 45


 2604 013c B5E7     		b	.L368
 2605              	.L324:
 2606 013e 0729     		cmp	r1, #7
 2607 0140 05D1     		bne	.L326
 2608 0142 1900     		movs	r1, r3
 2609 0144 3140     		ands	r1, r6
 2610 0146 0F39     		subs	r1, r1, #15
 2611 0148 4D1E     		subs	r5, r1, #1
 2612 014a A941     		sbcs	r1, r1, r5
 2613 014c ADE7     		b	.L368
 2614              	.L326:
 2615 014e 0829     		cmp	r1, #8
 2616 0150 07D1     		bne	.L327
 2617 0152 110F     		lsrs	r1, r2, #28
 2618 0154 0F39     		subs	r1, r1, #15
 2619 0156 4C1E     		subs	r4, r1, #1
 2620 0158 A141     		sbcs	r1, r1, r4
 2621 015a 0907     		lsls	r1, r1, #28
 2622              	.L369:
 2623 015c 0400     		movs	r4, r0
 2624 015e 5218     		adds	r2, r2, r1
 2625 0160 A5E7     		b	.L311
 2626              	.L327:
 2627 0162 0929     		cmp	r1, #9
 2628 0164 06D1     		bne	.L329
 2629 0166 110E     		lsrs	r1, r2, #24
 2630 0168 3140     		ands	r1, r6
 2631 016a 0F39     		subs	r1, r1, #15
 2632 016c 4C1E     		subs	r4, r1, #1
 2633 016e A141     		sbcs	r1, r1, r4
 2634 0170 0906     		lsls	r1, r1, #24
 2635 0172 F3E7     		b	.L369
 2636              	.L329:
 2637 0174 0A29     		cmp	r1, #10
 2638 0176 06D1     		bne	.L331
 2639 0178 110D     		lsrs	r1, r2, #20
 2640 017a 3140     		ands	r1, r6
 2641 017c 0F39     		subs	r1, r1, #15
 2642 017e 4C1E     		subs	r4, r1, #1
 2643 0180 A141     		sbcs	r1, r1, r4
 2644 0182 0905     		lsls	r1, r1, #20
 2645 0184 EAE7     		b	.L369
 2646              	.L331:
 2647 0186 0B29     		cmp	r1, #11
 2648 0188 91D1     		bne	.L311
 2649 018a 110C     		lsrs	r1, r2, #16
 2650 018c 3140     		ands	r1, r6
 2651 018e 0F39     		subs	r1, r1, #15
 2652 0190 4C1E     		subs	r4, r1, #1
 2653 0192 A141     		sbcs	r1, r1, r4
 2654 0194 0904     		lsls	r1, r1, #16
 2655 0196 E1E7     		b	.L369
 2656              	.L337:
 2657 0198 04A8     		add	r0, sp, #16
 2658 019a FFF7FEFF 		bl	lorawan_api_dr_custom_set
 2659 019e 0320     		movs	r0, #3
 2660 01a0 3FE7     		b	.L371
ARM GAS  /tmp/cc54pXIa.s 			page 46


 2661              	.L374:
 2662 01a2 C046     		.align	2
 2663              	.L373:
 2664 01a4 00000000 		.word	.LANCHOR24
 2665 01a8 00000000 		.word	.LC125
 2666 01ac 1D000000 		.word	.LC41
 2667 01b0 47000000 		.word	.LC129
 2668 01b4 75000000 		.word	.LC131
 2670              		.section	.rodata.set_modem_downlink_frame.str1.1,"aMS",%progbits,1
 2671              	.LC135:
 2672 0000 446F776E 		.ascii	"Downlink frame \000"
 2672      6C696E6B 
 2672      20667261 
 2672      6D652000 
 2673              	.LC137:
 2674 0010 2573202D 		.ascii	"%s - (%lu bytes):\012\000"
 2674      2028256C 
 2674      75206279 
 2674      74657329 
 2674      3A0A00
 2675              	.LC139:
 2676 0023 0A00     		.ascii	"\012\000"
 2677              	.LC141:
 2678 0025 20253032 		.ascii	" %02X\000"
 2678      5800
 2679              	.LC143:
 2680 002b 444C2050 		.ascii	"DL Port = %d , \000"
 2680      6F727420 
 2680      3D202564 
 2680      202C2000 
 2681              	.LC145:
 2682 003b 444C2053 		.ascii	"DL SNR = %d , DL RSSI = %d , \000"
 2682      4E52203D 
 2682      20256420 
 2682      2C20444C 
 2682      20525353 
 2683              	.LC147:
 2684 0059 444C2046 		.ascii	"DL Freq = %lu , DL DR = %d , \000"
 2684      72657120 
 2684      3D20256C 
 2684      75202C20 
 2684      444C2044 
 2685              	.LC149:
 2686 0077 444C2046 		.ascii	"DL Fpending Bit = %d \012\000"
 2686      70656E64 
 2686      696E6720 
 2686      42697420 
 2686      3D202564 
 2687              		.section	.text.set_modem_downlink_frame,"ax",%progbits
 2688              		.align	1
 2689              		.global	set_modem_downlink_frame
 2690              		.syntax unified
 2691              		.code	16
 2692              		.thumb_func
 2693              		.fpu softvfp
 2695              	set_modem_downlink_frame:
 2696              		@ args = 0, pretend = 0, frame = 0
ARM GAS  /tmp/cc54pXIa.s 			page 47


 2697              		@ frame_needed = 0, uses_anonymous_args = 0
 2698 0000 F8B5     		push	{r3, r4, r5, r6, r7, lr}
 2699 0002 2F4E     		ldr	r6, .L382
 2700 0004 1500     		movs	r5, r2
 2701 0006 0F00     		movs	r7, r1
 2702 0008 0A00     		movs	r2, r1
 2703 000a 0100     		movs	r1, r0
 2704 000c 3000     		movs	r0, r6
 2705 000e FFF7FEFF 		bl	memcpy
 2706 0012 2C4C     		ldr	r4, .L382+4
 2707 0014 2C49     		ldr	r1, .L382+8
 2708 0016 2300     		movs	r3, r4
 2709 0018 F333     		adds	r3, r3, #243
 2710 001a 1F70     		strb	r7, [r3]
 2711 001c 2300     		movs	r3, r4
 2712 001e 2A68     		ldr	r2, [r5]
 2713 0020 F833     		adds	r3, r3, #248
 2714 0022 1A60     		str	r2, [r3]
 2715 0024 0422     		movs	r2, #4
 2716 0026 AB5E     		ldrsh	r3, [r5, r2]
 2717 0028 2200     		movs	r2, r4
 2718 002a 9B00     		lsls	r3, r3, #2
 2719 002c F632     		adds	r2, r2, #246
 2720 002e 1380     		strh	r3, [r2]
 2721 0030 2200     		movs	r2, r4
 2722 0032 EB88     		ldrh	r3, [r5, #6]
 2723 0034 F432     		adds	r2, r2, #244
 2724 0036 4033     		adds	r3, r3, #64
 2725 0038 1380     		strh	r3, [r2]
 2726 003a 2B7A     		ldrb	r3, [r5, #8]
 2727 003c 2348     		ldr	r0, .L382+12
 2728 003e 2370     		strb	r3, [r4]
 2729 0040 2300     		movs	r3, r4
 2730 0042 AA7A     		ldrb	r2, [r5, #10]
 2731 0044 FC33     		adds	r3, r3, #252
 2732 0046 1A70     		strb	r2, [r3]
 2733 0048 EA68     		ldr	r2, [r5, #12]
 2734 004a 5A60     		str	r2, [r3, #4]
 2735 004c 2300     		movs	r3, r4
 2736 004e 2A7C     		ldrb	r2, [r5, #16]
 2737 0050 FF33     		adds	r3, r3, #255
 2738 0052 5A71     		strb	r2, [r3, #5]
 2739 0054 3A00     		movs	r2, r7
 2740 0056 FFF7FEFF 		bl	smtc_modem_hal_print_trace
 2741 005a 0025     		movs	r5, #0
 2742 005c 0F27     		movs	r7, #15
 2743              	.L376:
 2744 005e 2300     		movs	r3, r4
 2745 0060 F333     		adds	r3, r3, #243
 2746 0062 1B78     		ldrb	r3, [r3]
 2747 0064 AB42     		cmp	r3, r5
 2748 0066 1ED8     		bhi	.L378
 2749              		@ sp needed
 2750 0068 1948     		ldr	r0, .L382+16
 2751 006a FFF7FEFF 		bl	smtc_modem_hal_print_trace
 2752 006e 2178     		ldrb	r1, [r4]
 2753 0070 1848     		ldr	r0, .L382+20
ARM GAS  /tmp/cc54pXIa.s 			page 48


 2754 0072 FFF7FEFF 		bl	smtc_modem_hal_print_trace
 2755 0076 2300     		movs	r3, r4
 2756 0078 F433     		adds	r3, r3, #244
 2757 007a 0022     		movs	r2, #0
 2758 007c 9A5E     		ldrsh	r2, [r3, r2]
 2759 007e 2300     		movs	r3, r4
 2760 0080 F633     		adds	r3, r3, #246
 2761 0082 0021     		movs	r1, #0
 2762 0084 595E     		ldrsh	r1, [r3, r1]
 2763 0086 1448     		ldr	r0, .L382+24
 2764 0088 FFF7FEFF 		bl	smtc_modem_hal_print_trace
 2765 008c 2300     		movs	r3, r4
 2766 008e FC34     		adds	r4, r4, #252
 2767 0090 FF33     		adds	r3, r3, #255
 2768 0092 5A79     		ldrb	r2, [r3, #5]
 2769 0094 6168     		ldr	r1, [r4, #4]
 2770 0096 1148     		ldr	r0, .L382+28
 2771 0098 FFF7FEFF 		bl	smtc_modem_hal_print_trace
 2772 009c 2178     		ldrb	r1, [r4]
 2773 009e 1048     		ldr	r0, .L382+32
 2774 00a0 FFF7FEFF 		bl	smtc_modem_hal_print_trace
 2775 00a4 F8BD     		pop	{r3, r4, r5, r6, r7, pc}
 2776              	.L378:
 2777 00a6 3D42     		tst	r5, r7
 2778 00a8 04D1     		bne	.L377
 2779 00aa 002D     		cmp	r5, #0
 2780 00ac 02D0     		beq	.L377
 2781 00ae 0848     		ldr	r0, .L382+16
 2782 00b0 FFF7FEFF 		bl	smtc_modem_hal_print_trace
 2783              	.L377:
 2784 00b4 715D     		ldrb	r1, [r6, r5]
 2785 00b6 0B48     		ldr	r0, .L382+36
 2786 00b8 FFF7FEFF 		bl	smtc_modem_hal_print_trace
 2787 00bc 0135     		adds	r5, r5, #1
 2788 00be CEE7     		b	.L376
 2789              	.L383:
 2790              		.align	2
 2791              	.L382:
 2792 00c0 01000000 		.word	modem_dwn_pkt+1
 2793 00c4 00000000 		.word	modem_dwn_pkt
 2794 00c8 00000000 		.word	.LC135
 2795 00cc 10000000 		.word	.LC137
 2796 00d0 23000000 		.word	.LC139
 2797 00d4 2B000000 		.word	.LC143
 2798 00d8 3B000000 		.word	.LC145
 2799 00dc 59000000 		.word	.LC147
 2800 00e0 77000000 		.word	.LC149
 2801 00e4 25000000 		.word	.LC141
 2803              		.section	.text.get_modem_downlink_frame,"ax",%progbits
 2804              		.align	1
 2805              		.global	get_modem_downlink_frame
 2806              		.syntax unified
 2807              		.code	16
 2808              		.thumb_func
 2809              		.fpu softvfp
 2811              	get_modem_downlink_frame:
 2812              		@ args = 0, pretend = 0, frame = 0
ARM GAS  /tmp/cc54pXIa.s 			page 49


 2813              		@ frame_needed = 0, uses_anonymous_args = 0
 2814 0000 134B     		ldr	r3, .L385
 2815 0002 10B5     		push	{r4, lr}
 2816 0004 1A00     		movs	r2, r3
 2817              		@ sp needed
 2818 0006 F832     		adds	r2, r2, #248
 2819 0008 1168     		ldr	r1, [r2]
 2820 000a 0200     		movs	r2, r0
 2821 000c F832     		adds	r2, r2, #248
 2822 000e 1160     		str	r1, [r2]
 2823 0010 1A00     		movs	r2, r3
 2824 0012 F432     		adds	r2, r2, #244
 2825 0014 1168     		ldr	r1, [r2]
 2826 0016 0200     		movs	r2, r0
 2827 0018 F432     		adds	r2, r2, #244
 2828 001a 1160     		str	r1, [r2]
 2829 001c 1A78     		ldrb	r2, [r3]
 2830 001e 1900     		movs	r1, r3
 2831 0020 0270     		strb	r2, [r0]
 2832 0022 0200     		movs	r2, r0
 2833 0024 FC31     		adds	r1, r1, #252
 2834 0026 0C78     		ldrb	r4, [r1]
 2835 0028 4968     		ldr	r1, [r1, #4]
 2836 002a FC32     		adds	r2, r2, #252
 2837 002c 1470     		strb	r4, [r2]
 2838 002e 5160     		str	r1, [r2, #4]
 2839 0030 1A00     		movs	r2, r3
 2840 0032 FF32     		adds	r2, r2, #255
 2841 0034 5179     		ldrb	r1, [r2, #5]
 2842 0036 0200     		movs	r2, r0
 2843 0038 FF32     		adds	r2, r2, #255
 2844 003a 5171     		strb	r1, [r2, #5]
 2845 003c F333     		adds	r3, r3, #243
 2846 003e 1978     		ldrb	r1, [r3]
 2847 0040 0C3A     		subs	r2, r2, #12
 2848 0042 1170     		strb	r1, [r2]
 2849 0044 1A78     		ldrb	r2, [r3]
 2850 0046 0349     		ldr	r1, .L385+4
 2851 0048 0130     		adds	r0, r0, #1
 2852 004a FFF7FEFF 		bl	memcpy
 2853 004e 10BD     		pop	{r4, pc}
 2854              	.L386:
 2855              		.align	2
 2856              	.L385:
 2857 0050 00000000 		.word	modem_dwn_pkt
 2858 0054 01000000 		.word	modem_dwn_pkt+1
 2860              		.section	.rodata.dm_status_payload.str1.1,"aMS",%progbits,1
 2861              	.LC169:
 2862 0000 1B5B303B 		.ascii	"\033[0;31mERROR: max_size must be greater than the "
 2862      33316D45 
 2862      52524F52 
 2862      3A206D61 
 2862      785F7369 
 2863 0030 736D616C 		.ascii	"smallest requested information\012\000"
 2863      6C657374 
 2863      20726571 
 2863      75657374 
ARM GAS  /tmp/cc54pXIa.s 			page 50


 2863      65642069 
 2864              	.LC172:
 2865 0050 1B5B303B 		.ascii	"\033[0;31mERROR: check_dm_status_max_size\012\000"
 2865      33316D45 
 2865      52524F52 
 2865      3A206368 
 2865      65636B5F 
 2866              	.LC179:
 2867 0078 1B5B303B 		.ascii	"\033[0;31mERROR: Construct DM payload report, unkno"
 2867      33316D45 
 2867      52524F52 
 2867      3A20436F 
 2867      6E737472 
 2868 00a8 776E2063 		.ascii	"wn code 0x%02x\012\000"
 2868      6F646520 
 2868      30782530 
 2868      32780A00 
 2869              		.section	.text.dm_status_payload,"ax",%progbits
 2870              		.align	1
 2871              		.global	dm_status_payload
 2872              		.syntax unified
 2873              		.code	16
 2874              		.thumb_func
 2875              		.fpu softvfp
 2877              	dm_status_payload:
 2878              		@ args = 0, pretend = 0, frame = 280
 2879              		@ frame_needed = 0, uses_anonymous_args = 0
 2880 0000 F0B5     		push	{r4, r5, r6, r7, lr}
 2881 0002 C7B0     		sub	sp, sp, #284
 2882 0004 0700     		movs	r7, r0
 2883 0006 0191     		str	r1, [sp, #4]
 2884 0008 0292     		str	r2, [sp, #8]
 2885 000a 012B     		cmp	r3, #1
 2886 000c 22D1     		bne	.L388
 2887 000e 724B     		ldr	r3, .L440
 2888 0010 724E     		ldr	r6, .L440+4
 2889 0012 1B68     		ldr	r3, [r3]
 2890 0014 0093     		str	r3, [sp]
 2891              	.L389:
 2892 0016 0023     		movs	r3, #0
 2893 0018 0122     		movs	r2, #1
 2894 001a 7149     		ldr	r1, .L440+8
 2895              	.L392:
 2896 001c 1000     		movs	r0, r2
 2897 001e 9840     		lsls	r0, r0, r3
 2898 0020 009C     		ldr	r4, [sp]
 2899 0022 0442     		tst	r4, r0
 2900 0024 1BD0     		beq	.L390
 2901 0026 585C     		ldrb	r0, [r3, r1]
 2902 0028 029C     		ldr	r4, [sp, #8]
 2903 002a A042     		cmp	r0, r4
 2904 002c 17D9     		bls	.L390
 2905 002e 0024     		movs	r4, #0
 2906 0030 6C48     		ldr	r0, .L440+12
 2907 0032 FFF7FEFF 		bl	smtc_modem_hal_print_trace
 2908 0036 6C4D     		ldr	r5, .L440+16
 2909 0038 2800     		movs	r0, r5
ARM GAS  /tmp/cc54pXIa.s 			page 51


 2910 003a FFF7FEFF 		bl	smtc_modem_hal_print_trace
 2911 003e 019B     		ldr	r3, [sp, #4]
 2912 0040 6A48     		ldr	r0, .L440+20
 2913 0042 1C70     		strb	r4, [r3]
 2914 0044 FFF7FEFF 		bl	smtc_modem_hal_print_trace
 2915 0048 2800     		movs	r0, r5
 2916 004a FFF7FEFF 		bl	smtc_modem_hal_print_trace
 2917 004e 2000     		movs	r0, r4
 2918              	.L391:
 2919 0050 47B0     		add	sp, sp, #284
 2920              		@ sp needed
 2921 0052 F0BD     		pop	{r4, r5, r6, r7, pc}
 2922              	.L388:
 2923 0054 664B     		ldr	r3, .L440+24
 2924 0056 674E     		ldr	r6, .L440+28
 2925 0058 1B68     		ldr	r3, [r3]
 2926 005a 0093     		str	r3, [sp]
 2927 005c DBE7     		b	.L389
 2928              	.L390:
 2929 005e 0133     		adds	r3, r3, #1
 2930 0060 1C2B     		cmp	r3, #28
 2931 0062 DBD1     		bne	.L392
 2932 0064 3378     		ldrb	r3, [r6]
 2933 0066 1B2B     		cmp	r3, #27
 2934 0068 01D9     		bls	.L393
 2935 006a 0023     		movs	r3, #0
 2936 006c 3370     		strb	r3, [r6]
 2937              	.L393:
 2938 006e 3C00     		movs	r4, r7
 2939              	.L394:
 2940 0070 3178     		ldrb	r1, [r6]
 2941 0072 1B29     		cmp	r1, #27
 2942 0074 04D9     		bls	.L423
 2943 0076 0020     		movs	r0, #0
 2944              	.L422:
 2945 0078 019B     		ldr	r3, [sp, #4]
 2946 007a E41B     		subs	r4, r4, r7
 2947 007c 1C70     		strb	r4, [r3]
 2948 007e E7E7     		b	.L391
 2949              	.L423:
 2950 0080 0123     		movs	r3, #1
 2951 0082 8B40     		lsls	r3, r3, r1
 2952 0084 009A     		ldr	r2, [sp]
 2953 0086 1A42     		tst	r2, r3
 2954 0088 21D0     		beq	.L395
 2955 008a 651C     		adds	r5, r4, #1
 2956 008c 2170     		strb	r1, [r4]
 2957 008e 1829     		cmp	r1, #24
 2958 0090 00D9     		bls	.LCB2954
 2959 0092 97E0     		b	.L396	@long jump
 2960              	.LCB2954:
 2961 0094 0800     		movs	r0, r1
 2962 0096 FFF7FEFF 		bl	__gnu_thumb1_case_uqi
 2963              	.L398:
 2964 009a 0D       		.byte	(.L416-.L398)/2
 2965 009b 1E       		.byte	(.L415-.L398)/2
 2966 009c 2A       		.byte	(.L414-.L398)/2
ARM GAS  /tmp/cc54pXIa.s 			page 52


 2967 009d 2D       		.byte	(.L413-.L398)/2
 2968 009e 30       		.byte	(.L412-.L398)/2
 2969 009f 44       		.byte	(.L411-.L398)/2
 2970 00a0 4B       		.byte	(.L410-.L398)/2
 2971 00a1 5F       		.byte	(.L409-.L398)/2
 2972 00a2 65       		.byte	(.L408-.L398)/2
 2973 00a3 69       		.byte	(.L407-.L398)/2
 2974 00a4 72       		.byte	(.L406-.L398)/2
 2975 00a5 74       		.byte	(.L405-.L398)/2
 2976 00a6 10       		.byte	(.L397-.L398)/2
 2977 00a7 10       		.byte	(.L397-.L398)/2
 2978 00a8 95       		.byte	(.L396-.L398)/2
 2979 00a9 77       		.byte	(.L404-.L398)/2
 2980 00aa 7D       		.byte	(.L403-.L398)/2
 2981 00ab 10       		.byte	(.L397-.L398)/2
 2982 00ac 81       		.byte	(.L402-.L398)/2
 2983 00ad 87       		.byte	(.L401-.L398)/2
 2984 00ae 95       		.byte	(.L396-.L398)/2
 2985 00af 8B       		.byte	(.L400-.L398)/2
 2986 00b0 91       		.byte	(.L399-.L398)/2
 2987 00b1 95       		.byte	(.L396-.L398)/2
 2988 00b2 10       		.byte	(.L397-.L398)/2
 2989 00b3 00       		.p2align 1
 2990              	.L416:
 2991 00b4 FFF7FEFF 		bl	get_modem_status
 2992              	.L433:
 2993 00b8 6070     		strb	r0, [r4, #1]
 2994              	.L397:
 2995 00ba 494A     		ldr	r2, .L440+8
 2996 00bc 3378     		ldrb	r3, [r6]
 2997 00be D35C     		ldrb	r3, [r2, r3]
 2998 00c0 029A     		ldr	r2, [sp, #8]
 2999 00c2 ED18     		adds	r5, r5, r3
 3000 00c4 EB1B     		subs	r3, r5, r7
 3001 00c6 9342     		cmp	r3, r2
 3002 00c8 00DD     		ble	.LCB2976
 3003 00ca 82E0     		b	.L424	@long jump
 3004              	.LCB2976:
 3005 00cc 2C00     		movs	r4, r5
 3006              	.L395:
 3007 00ce 3378     		ldrb	r3, [r6]
 3008 00d0 0133     		adds	r3, r3, #1
 3009 00d2 3370     		strb	r3, [r6]
 3010 00d4 CCE7     		b	.L394
 3011              	.L415:
 3012 00d6 484B     		ldr	r3, .L440+32
 3013 00d8 1B78     		ldrb	r3, [r3]
 3014 00da 002B     		cmp	r3, #0
 3015 00dc 04D1     		bne	.L417
 3016 00de FFF7FEFF 		bl	get_modem_charge_ma_h
 3017              	.L438:
 3018 00e2 6070     		strb	r0, [r4, #1]
 3019              	.L437:
 3020 00e4 000A     		lsrs	r0, r0, #8
 3021 00e6 14E0     		b	.L434
 3022              	.L417:
 3023 00e8 444B     		ldr	r3, .L440+36
ARM GAS  /tmp/cc54pXIa.s 			page 53


 3024 00ea 1888     		ldrh	r0, [r3]
 3025 00ec F9E7     		b	.L438
 3026              	.L414:
 3027 00ee FFF7FEFF 		bl	smtc_modem_hal_get_voltage
 3028 00f2 E1E7     		b	.L433
 3029              	.L413:
 3030 00f4 FFF7FEFF 		bl	smtc_modem_hal_get_temperature
 3031 00f8 DEE7     		b	.L433
 3032              	.L412:
 3033 00fa FFF7FEFF 		bl	lorawan_api_last_rssi_get
 3034 00fe 0300     		movs	r3, r0
 3035 0100 8033     		adds	r3, r3, #128
 3036 0102 9BB2     		uxth	r3, r3
 3037 0104 BF2B     		cmp	r3, #191
 3038 0106 06D8     		bhi	.L419
 3039 0108 4030     		adds	r0, r0, #64
 3040 010a 6070     		strb	r0, [r4, #1]
 3041              	.L420:
 3042 010c FFF7FEFF 		bl	lorawan_api_last_snr_get
 3043 0110 8000     		lsls	r0, r0, #2
 3044              	.L434:
 3045 0112 A070     		strb	r0, [r4, #2]
 3046 0114 D1E7     		b	.L397
 3047              	.L419:
 3048 0116 7F23     		movs	r3, #127
 3049 0118 3F28     		cmp	r0, #63
 3050 011a 00DC     		bgt	.L432
 3051 011c 8023     		movs	r3, #128
 3052              	.L432:
 3053 011e 6370     		strb	r3, [r4, #1]
 3054 0120 F4E7     		b	.L420
 3055              	.L411:
 3056 0122 FFF7FEFF 		bl	get_modem_uptime_s
 3057              	.L439:
 3058 0126 E121     		movs	r1, #225
 3059 0128 0901     		lsls	r1, r1, #4
 3060 012a FFF7FEFF 		bl	__aeabi_uidiv
 3061 012e D8E7     		b	.L438
 3062              	.L410:
 3063 0130 8422     		movs	r2, #132
 3064 0132 0021     		movs	r1, #0
 3065 0134 5200     		lsls	r2, r2, #1
 3066 0136 04A8     		add	r0, sp, #16
 3067 0138 FFF7FEFF 		bl	memset
 3068 013c 04A8     		add	r0, sp, #16
 3069 013e FFF7FEFF 		bl	get_modem_downlink_frame
 3070 0142 FFF7FEFF 		bl	smtc_modem_hal_get_time_in_s
 3071 0146 FA21     		movs	r1, #250
 3072 0148 0390     		str	r0, [sp, #12]
 3073 014a 8900     		lsls	r1, r1, #2
 3074 014c 4298     		ldr	r0, [sp, #264]
 3075 014e FFF7FEFF 		bl	__aeabi_uidiv
 3076 0152 039B     		ldr	r3, [sp, #12]
 3077 0154 181A     		subs	r0, r3, r0
 3078 0156 E6E7     		b	.L439
 3079              	.L409:
 3080 0158 0822     		movs	r2, #8
ARM GAS  /tmp/cc54pXIa.s 			page 54


 3081 015a 0021     		movs	r1, #0
 3082 015c 2800     		movs	r0, r5
 3083 015e FFF7FEFF 		bl	memset
 3084 0162 AAE7     		b	.L397
 3085              	.L408:
 3086 0164 264B     		ldr	r3, .L440+40
 3087              	.L436:
 3088 0166 1B78     		ldrb	r3, [r3]
 3089 0168 6370     		strb	r3, [r4, #1]
 3090 016a A6E7     		b	.L397
 3091              	.L407:
 3092 016c 04A8     		add	r0, sp, #16
 3093 016e FFF7FEFF 		bl	lorawan_api_get_joineui
 3094              	.L435:
 3095 0172 0822     		movs	r2, #8
 3096 0174 2800     		movs	r0, r5
 3097 0176 04A9     		add	r1, sp, #16
 3098 0178 FFF7FEFF 		bl	memcpy1_r
 3099 017c 9DE7     		b	.L397
 3100              	.L406:
 3101 017e 214B     		ldr	r3, .L440+44
 3102 0180 F1E7     		b	.L436
 3103              	.L405:
 3104 0182 FFF7FEFF 		bl	lorawan_api_get_region
 3105 0186 97E7     		b	.L433
 3106              	.L404:
 3107 0188 FFF7FEFF 		bl	lorawan_api_nb_reset_get
 3108 018c 6070     		strb	r0, [r4, #1]
 3109 018e FFF7FEFF 		bl	lorawan_api_nb_reset_get
 3110 0192 A7E7     		b	.L437
 3111              	.L403:
 3112 0194 04A8     		add	r0, sp, #16
 3113 0196 FFF7FEFF 		bl	lorawan_api_get_deveui
 3114 019a EAE7     		b	.L435
 3115              	.L402:
 3116 019c FFF7FEFF 		bl	lorawan_api_devnonce_get
 3117 01a0 6070     		strb	r0, [r4, #1]
 3118 01a2 FFF7FEFF 		bl	lorawan_api_devnonce_get
 3119 01a6 9DE7     		b	.L437
 3120              	.L401:
 3121 01a8 0023     		movs	r3, #0
 3122 01aa 0493     		str	r3, [sp, #16]
 3123 01ac 0593     		str	r3, [sp, #20]
 3124 01ae E0E7     		b	.L435
 3125              	.L400:
 3126 01b0 154B     		ldr	r3, .L440+48
 3127 01b2 1A78     		ldrb	r2, [r3]
 3128 01b4 6270     		strb	r2, [r4, #1]
 3129 01b6 9B78     		ldrb	r3, [r3, #2]
 3130 01b8 A370     		strb	r3, [r4, #2]
 3131 01ba 7EE7     		b	.L397
 3132              	.L399:
 3133 01bc 2800     		movs	r0, r5
 3134 01be FFF7FEFF 		bl	get_modem_appstatus
 3135 01c2 7AE7     		b	.L397
 3136              	.L396:
 3137 01c4 1148     		ldr	r0, .L440+52
ARM GAS  /tmp/cc54pXIa.s 			page 55


 3138 01c6 FFF7FEFF 		bl	smtc_modem_hal_print_trace
 3139 01ca 0748     		ldr	r0, .L440+16
 3140 01cc FFF7FEFF 		bl	smtc_modem_hal_print_trace
 3141 01d0 73E7     		b	.L397
 3142              	.L424:
 3143 01d2 0120     		movs	r0, #1
 3144 01d4 50E7     		b	.L422
 3145              	.L441:
 3146 01d6 C046     		.align	2
 3147              	.L440:
 3148 01d8 00000000 		.word	.LANCHOR10
 3149 01dc 00000000 		.word	.LANCHOR12
 3150 01e0 00000000 		.word	.LANCHOR39
 3151 01e4 00000000 		.word	.LC169
 3152 01e8 1D000000 		.word	.LC41
 3153 01ec 50000000 		.word	.LC172
 3154 01f0 00000000 		.word	.LANCHOR9
 3155 01f4 00000000 		.word	.LANCHOR11
 3156 01f8 00000000 		.word	.LANCHOR21
 3157 01fc 00000000 		.word	.LANCHOR20
 3158 0200 00000000 		.word	.LANCHOR24
 3159 0204 00000000 		.word	.LANCHOR1
 3160 0208 00000000 		.word	.LANCHOR8
 3161 020c 78000000 		.word	.LC179
 3163              		.section	.text.set_dm_retrieve_pending_dl,"ax",%progbits
 3164              		.align	1
 3165              		.global	set_dm_retrieve_pending_dl
 3166              		.syntax unified
 3167              		.code	16
 3168              		.thumb_func
 3169              		.fpu softvfp
 3171              	set_dm_retrieve_pending_dl:
 3172              		@ args = 0, pretend = 0, frame = 0
 3173              		@ frame_needed = 0, uses_anonymous_args = 0
 3174              		@ link register save eliminated.
 3175 0000 034B     		ldr	r3, .L444
 3176 0002 0A1C     		adds	r2, r1, #0
 3177 0004 1870     		strb	r0, [r3]
 3178 0006 1429     		cmp	r1, #20
 3179 0008 00D2     		bcs	.L443
 3180 000a 1422     		movs	r2, #20
 3181              	.L443:
 3182              		@ sp needed
 3183 000c 5A70     		strb	r2, [r3, #1]
 3184 000e 7047     		bx	lr
 3185              	.L445:
 3186              		.align	2
 3187              	.L444:
 3188 0010 00000000 		.word	.LANCHOR14
 3190              		.section	.text.get_dm_retrieve_pending_dl,"ax",%progbits
 3191              		.align	1
 3192              		.global	get_dm_retrieve_pending_dl
 3193              		.syntax unified
 3194              		.code	16
 3195              		.thumb_func
 3196              		.fpu softvfp
 3198              	get_dm_retrieve_pending_dl:
ARM GAS  /tmp/cc54pXIa.s 			page 56


 3199              		@ args = 0, pretend = 0, frame = 0
 3200              		@ frame_needed = 0, uses_anonymous_args = 0
 3201              		@ link register save eliminated.
 3202 0000 024B     		ldr	r3, .L447
 3203              		@ sp needed
 3204 0002 1A78     		ldrb	r2, [r3]
 3205 0004 0270     		strb	r2, [r0]
 3206 0006 5B78     		ldrb	r3, [r3, #1]
 3207 0008 4370     		strb	r3, [r0, #1]
 3208 000a 7047     		bx	lr
 3209              	.L448:
 3210              		.align	2
 3211              	.L447:
 3212 000c 00000000 		.word	.LANCHOR14
 3214              		.section	.text.decrement_dm_retrieve_pending_dl,"ax",%progbits
 3215              		.align	1
 3216              		.global	decrement_dm_retrieve_pending_dl
 3217              		.syntax unified
 3218              		.code	16
 3219              		.thumb_func
 3220              		.fpu softvfp
 3222              	decrement_dm_retrieve_pending_dl:
 3223              		@ args = 0, pretend = 0, frame = 0
 3224              		@ frame_needed = 0, uses_anonymous_args = 0
 3225              		@ link register save eliminated.
 3226 0000 034A     		ldr	r2, .L454
 3227 0002 1378     		ldrb	r3, [r2]
 3228 0004 002B     		cmp	r3, #0
 3229 0006 01D0     		beq	.L449
 3230 0008 013B     		subs	r3, r3, #1
 3231 000a 1370     		strb	r3, [r2]
 3232              	.L449:
 3233              		@ sp needed
 3234 000c 7047     		bx	lr
 3235              	.L455:
 3236 000e C046     		.align	2
 3237              	.L454:
 3238 0010 00000000 		.word	.LANCHOR14
 3240              		.section	.rodata.modem_context_factory_reset.str1.1,"aMS",%progbits,1
 3241              	.LC185:
 3242 0000 1B5B303B 		.ascii	"\033[0;32mINFO: modem_context_factory_reset done\012"
 3242      33326D49 
 3242      4E464F3A 
 3242      206D6F64 
 3242      656D5F63 
 3243 002e 00       		.ascii	"\000"
 3244              		.section	.text.modem_context_factory_reset,"ax",%progbits
 3245              		.align	1
 3246              		.global	modem_context_factory_reset
 3247              		.syntax unified
 3248              		.code	16
 3249              		.thumb_func
 3250              		.fpu softvfp
 3252              	modem_context_factory_reset:
 3253              		@ args = 0, pretend = 0, frame = 32
 3254              		@ frame_needed = 0, uses_anonymous_args = 0
 3255 0000 30B5     		push	{r4, r5, lr}
ARM GAS  /tmp/cc54pXIa.s 			page 57


 3256 0002 1C25     		movs	r5, #28
 3257 0004 89B0     		sub	sp, sp, #36
 3258 0006 2A00     		movs	r2, r5
 3259 0008 0021     		movs	r1, #0
 3260 000a 01A8     		add	r0, sp, #4
 3261 000c FFF7FEFF 		bl	memset
 3262 0010 0124     		movs	r4, #1
 3263 0012 C723     		movs	r3, #199
 3264 0014 6A46     		mov	r2, sp
 3265 0016 1821     		movs	r1, #24
 3266 0018 01A8     		add	r0, sp, #4
 3267 001a 9380     		strh	r3, [r2, #4]
 3268 001c 1472     		strb	r4, [r2, #8]
 3269 001e FFF7FEFF 		bl	crc
 3270 0022 2A00     		movs	r2, r5
 3271 0024 0790     		str	r0, [sp, #28]
 3272 0026 01A9     		add	r1, sp, #4
 3273 0028 0020     		movs	r0, #0
 3274 002a FFF7FEFF 		bl	smtc_modem_hal_context_store
 3275 002e 2A00     		movs	r2, r5
 3276 0030 01A9     		add	r1, sp, #4
 3277 0032 2000     		movs	r0, r4
 3278 0034 FFF7FEFF 		bl	smtc_modem_hal_context_restore
 3279 0038 044B     		ldr	r3, .L457
 3280 003a 0548     		ldr	r0, .L457+4
 3281 003c 1C70     		strb	r4, [r3]
 3282 003e FFF7FEFF 		bl	smtc_modem_hal_print_trace
 3283 0042 0448     		ldr	r0, .L457+8
 3284 0044 FFF7FEFF 		bl	smtc_modem_hal_print_trace
 3285 0048 09B0     		add	sp, sp, #36
 3286              		@ sp needed
 3287 004a 30BD     		pop	{r4, r5, pc}
 3288              	.L458:
 3289              		.align	2
 3290              	.L457:
 3291 004c 00000000 		.word	.LANCHOR17
 3292 0050 00000000 		.word	.LC185
 3293 0054 1D000000 		.word	.LC41
 3295              		.section	.rodata.modem_load_context.str1.1,"aMS",%progbits,1
 3296              	.LC191:
 3297 0000 4D6F6465 		.ascii	"Modem Load Config :\012 Port = %d\012\000"
 3297      6D204C6F 
 3297      61642043 
 3297      6F6E6669 
 3297      67203A0A 
 3298              	.LC194:
 3299 0020 55706C6F 		.ascii	"Upload_sctr = %d\012\000"
 3299      61645F73 
 3299      63747220 
 3299      3D202564 
 3299      0A00
 3300              	.LC196:
 3301 0032 1B5B303B 		.ascii	"\033[0;31mERROR: Restore Modem context fail => Fact"
 3301      33316D45 
 3301      52524F52 
 3301      3A205265 
 3301      73746F72 
ARM GAS  /tmp/cc54pXIa.s 			page 58


 3302 0062 6F727920 		.ascii	"ory Reset Modem\012\000"
 3302      52657365 
 3302      74204D6F 
 3302      64656D0A 
 3302      00
 3303              		.section	.text.modem_load_context,"ax",%progbits
 3304              		.align	1
 3305              		.global	modem_load_context
 3306              		.syntax unified
 3307              		.code	16
 3308              		.thumb_func
 3309              		.fpu softvfp
 3311              	modem_load_context:
 3312              		@ args = 0, pretend = 0, frame = 40
 3313              		@ frame_needed = 0, uses_anonymous_args = 0
 3314 0000 00B5     		push	{lr}
 3315 0002 8BB0     		sub	sp, sp, #44
 3316 0004 1C22     		movs	r2, #28
 3317 0006 0020     		movs	r0, #0
 3318 0008 03A9     		add	r1, sp, #12
 3319 000a FFF7FEFF 		bl	smtc_modem_hal_context_restore
 3320 000e 1821     		movs	r1, #24
 3321 0010 03A8     		add	r0, sp, #12
 3322 0012 FFF7FEFF 		bl	crc
 3323 0016 099B     		ldr	r3, [sp, #36]
 3324 0018 0193     		str	r3, [sp, #4]
 3325 001a 9842     		cmp	r0, r3
 3326 001c 14D1     		bne	.L460
 3327 001e 02AB     		add	r3, sp, #8
 3328 0020 1979     		ldrb	r1, [r3, #4]
 3329 0022 0E4B     		ldr	r3, .L462
 3330 0024 0E48     		ldr	r0, .L462+4
 3331 0026 1970     		strb	r1, [r3]
 3332 0028 02AB     		add	r3, sp, #8
 3333 002a 1A7A     		ldrb	r2, [r3, #8]
 3334 002c 0D4B     		ldr	r3, .L462+8
 3335 002e 1A80     		strh	r2, [r3]
 3336 0030 0D4B     		ldr	r3, .L462+12
 3337 0032 059A     		ldr	r2, [sp, #20]
 3338 0034 1A60     		str	r2, [r3]
 3339 0036 FFF7FEFF 		bl	smtc_modem_hal_print_trace
 3340 003a 0C4B     		ldr	r3, .L462+16
 3341 003c 0C48     		ldr	r0, .L462+20
 3342 003e 1978     		ldrb	r1, [r3]
 3343 0040 FFF7FEFF 		bl	smtc_modem_hal_print_trace
 3344              	.L459:
 3345 0044 0BB0     		add	sp, sp, #44
 3346              		@ sp needed
 3347 0046 00BD     		pop	{pc}
 3348              	.L460:
 3349 0048 0A48     		ldr	r0, .L462+24
 3350 004a FFF7FEFF 		bl	smtc_modem_hal_print_trace
 3351 004e 0A48     		ldr	r0, .L462+28
 3352 0050 FFF7FEFF 		bl	smtc_modem_hal_print_trace
 3353 0054 FFF7FEFF 		bl	modem_context_factory_reset
 3354 0058 F4E7     		b	.L459
 3355              	.L463:
ARM GAS  /tmp/cc54pXIa.s 			page 59


 3356 005a C046     		.align	2
 3357              	.L462:
 3358 005c 00000000 		.word	.LANCHOR2
 3359 0060 00000000 		.word	.LC191
 3360 0064 00000000 		.word	.LANCHOR30
 3361 0068 00000000 		.word	.LANCHOR31
 3362 006c 00000000 		.word	.LANCHOR6
 3363 0070 20000000 		.word	.LC194
 3364 0074 32000000 		.word	.LC196
 3365 0078 1D000000 		.word	.LC41
 3367              		.section	.text.modem_store_context,"ax",%progbits
 3368              		.align	1
 3369              		.global	modem_store_context
 3370              		.syntax unified
 3371              		.code	16
 3372              		.thumb_func
 3373              		.fpu softvfp
 3375              	modem_store_context:
 3376              		@ args = 0, pretend = 0, frame = 40
 3377              		@ frame_needed = 0, uses_anonymous_args = 0
 3378 0000 10B5     		push	{r4, lr}
 3379 0002 1C24     		movs	r4, #28
 3380 0004 8AB0     		sub	sp, sp, #40
 3381 0006 2200     		movs	r2, r4
 3382 0008 0021     		movs	r1, #0
 3383 000a 03A8     		add	r0, sp, #12
 3384 000c FFF7FEFF 		bl	memset
 3385 0010 0C4B     		ldr	r3, .L465
 3386 0012 02AA     		add	r2, sp, #8
 3387 0014 1B78     		ldrb	r3, [r3]
 3388 0016 1821     		movs	r1, #24
 3389 0018 9380     		strh	r3, [r2, #4]
 3390 001a 0B4B     		ldr	r3, .L465+4
 3391 001c 03A8     		add	r0, sp, #12
 3392 001e 1B88     		ldrh	r3, [r3]
 3393 0020 1372     		strb	r3, [r2, #8]
 3394 0022 0A4B     		ldr	r3, .L465+8
 3395 0024 1B68     		ldr	r3, [r3]
 3396 0026 0193     		str	r3, [sp, #4]
 3397 0028 0593     		str	r3, [sp, #20]
 3398 002a FFF7FEFF 		bl	crc
 3399 002e 2200     		movs	r2, r4
 3400 0030 0990     		str	r0, [sp, #36]
 3401 0032 03A9     		add	r1, sp, #12
 3402 0034 0020     		movs	r0, #0
 3403 0036 FFF7FEFF 		bl	smtc_modem_hal_context_store
 3404 003a FFF7FEFF 		bl	modem_load_context
 3405 003e 0AB0     		add	sp, sp, #40
 3406              		@ sp needed
 3407 0040 10BD     		pop	{r4, pc}
 3408              	.L466:
 3409 0042 C046     		.align	2
 3410              	.L465:
 3411 0044 00000000 		.word	.LANCHOR2
 3412 0048 00000000 		.word	.LANCHOR30
 3413 004c 00000000 		.word	.LANCHOR31
 3415              		.section	.rodata.set_modem_dm_port.str1.1,"aMS",%progbits,1
ARM GAS  /tmp/cc54pXIa.s 			page 60


 3416              	.LC202:
 3417 0000 1B5B303B 		.ascii	"\033[0;31mERROR: modem port invalid\012\000"
 3417      33316D45 
 3417      52524F52 
 3417      3A206D6F 
 3417      64656D20 
 3418              		.section	.text.set_modem_dm_port,"ax",%progbits
 3419              		.align	1
 3420              		.global	set_modem_dm_port
 3421              		.syntax unified
 3422              		.code	16
 3423              		.thumb_func
 3424              		.fpu softvfp
 3426              	set_modem_dm_port:
 3427              		@ args = 0, pretend = 0, frame = 0
 3428              		@ frame_needed = 0, uses_anonymous_args = 0
 3429 0000 431E     		subs	r3, r0, #1
 3430 0002 DBB2     		uxtb	r3, r3
 3431 0004 10B5     		push	{r4, lr}
 3432 0006 DE2B     		cmp	r3, #222
 3433 0008 08D9     		bls	.L468
 3434 000a 0948     		ldr	r0, .L471
 3435 000c FFF7FEFF 		bl	smtc_modem_hal_print_trace
 3436 0010 0848     		ldr	r0, .L471+4
 3437 0012 FFF7FEFF 		bl	smtc_modem_hal_print_trace
 3438 0016 0024     		movs	r4, #0
 3439              	.L469:
 3440              		@ sp needed
 3441 0018 2000     		movs	r0, r4
 3442 001a 10BD     		pop	{r4, pc}
 3443              	.L468:
 3444 001c 064B     		ldr	r3, .L471+8
 3445 001e 0124     		movs	r4, #1
 3446 0020 1A78     		ldrb	r2, [r3]
 3447 0022 8242     		cmp	r2, r0
 3448 0024 F8D0     		beq	.L469
 3449 0026 1870     		strb	r0, [r3]
 3450 0028 FFF7FEFF 		bl	modem_store_context
 3451 002c F4E7     		b	.L469
 3452              	.L472:
 3453 002e C046     		.align	2
 3454              	.L471:
 3455 0030 00000000 		.word	.LC202
 3456 0034 1D000000 		.word	.LC41
 3457 0038 00000000 		.word	.LANCHOR2
 3459              		.section	.text.modem_context_compute_and_get_next_dm_upload_sctr,"ax",%progbits
 3460              		.align	1
 3461              		.global	modem_context_compute_and_get_next_dm_upload_sctr
 3462              		.syntax unified
 3463              		.code	16
 3464              		.thumb_func
 3465              		.fpu softvfp
 3467              	modem_context_compute_and_get_next_dm_upload_sctr:
 3468              		@ args = 0, pretend = 0, frame = 0
 3469              		@ frame_needed = 0, uses_anonymous_args = 0
 3470              		@ link register save eliminated.
 3471 0000 0F22     		movs	r2, #15
ARM GAS  /tmp/cc54pXIa.s 			page 61


 3472              		@ sp needed
 3473 0002 034B     		ldr	r3, .L474
 3474 0004 1878     		ldrb	r0, [r3]
 3475 0006 0130     		adds	r0, r0, #1
 3476 0008 1040     		ands	r0, r2
 3477 000a 1870     		strb	r0, [r3]
 3478 000c 7047     		bx	lr
 3479              	.L475:
 3480 000e C046     		.align	2
 3481              	.L474:
 3482 0010 00000000 		.word	.LANCHOR6
 3484              		.section	.text.modem_get_upload_state,"ax",%progbits
 3485              		.align	1
 3486              		.global	modem_get_upload_state
 3487              		.syntax unified
 3488              		.code	16
 3489              		.thumb_func
 3490              		.fpu softvfp
 3492              	modem_get_upload_state:
 3493              		@ args = 0, pretend = 0, frame = 0
 3494              		@ frame_needed = 0, uses_anonymous_args = 0
 3495              		@ link register save eliminated.
 3496 0000 014B     		ldr	r3, .L477
 3497              		@ sp needed
 3498 0002 1878     		ldrb	r0, [r3]
 3499 0004 7047     		bx	lr
 3500              	.L478:
 3501 0006 C046     		.align	2
 3502              	.L477:
 3503 0008 00000000 		.word	.LANCHOR7
 3505              		.section	.text.modem_set_upload_state,"ax",%progbits
 3506              		.align	1
 3507              		.global	modem_set_upload_state
 3508              		.syntax unified
 3509              		.code	16
 3510              		.thumb_func
 3511              		.fpu softvfp
 3513              	modem_set_upload_state:
 3514              		@ args = 0, pretend = 0, frame = 0
 3515              		@ frame_needed = 0, uses_anonymous_args = 0
 3516              		@ link register save eliminated.
 3517 0000 014B     		ldr	r3, .L480
 3518              		@ sp needed
 3519 0002 1870     		strb	r0, [r3]
 3520 0004 7047     		bx	lr
 3521              	.L481:
 3522 0006 C046     		.align	2
 3523              	.L480:
 3524 0008 00000000 		.word	.LANCHOR7
 3526              		.section	.text.modem_get_stream_state,"ax",%progbits
 3527              		.align	1
 3528              		.global	modem_get_stream_state
 3529              		.syntax unified
 3530              		.code	16
 3531              		.thumb_func
 3532              		.fpu softvfp
 3534              	modem_get_stream_state:
ARM GAS  /tmp/cc54pXIa.s 			page 62


 3535              		@ args = 0, pretend = 0, frame = 0
 3536              		@ frame_needed = 0, uses_anonymous_args = 0
 3537              		@ link register save eliminated.
 3538 0000 014B     		ldr	r3, .L483
 3539              		@ sp needed
 3540 0002 5878     		ldrb	r0, [r3, #1]
 3541 0004 7047     		bx	lr
 3542              	.L484:
 3543 0006 C046     		.align	2
 3544              	.L483:
 3545 0008 00000000 		.word	.LANCHOR8
 3547              		.section	.text.modem_get_stream_port,"ax",%progbits
 3548              		.align	1
 3549              		.global	modem_get_stream_port
 3550              		.syntax unified
 3551              		.code	16
 3552              		.thumb_func
 3553              		.fpu softvfp
 3555              	modem_get_stream_port:
 3556              		@ args = 0, pretend = 0, frame = 0
 3557              		@ frame_needed = 0, uses_anonymous_args = 0
 3558              		@ link register save eliminated.
 3559 0000 014B     		ldr	r3, .L486
 3560              		@ sp needed
 3561 0002 1878     		ldrb	r0, [r3]
 3562 0004 7047     		bx	lr
 3563              	.L487:
 3564 0006 C046     		.align	2
 3565              	.L486:
 3566 0008 00000000 		.word	.LANCHOR8
 3568              		.section	.text.modem_get_stream_encryption,"ax",%progbits
 3569              		.align	1
 3570              		.global	modem_get_stream_encryption
 3571              		.syntax unified
 3572              		.code	16
 3573              		.thumb_func
 3574              		.fpu softvfp
 3576              	modem_get_stream_encryption:
 3577              		@ args = 0, pretend = 0, frame = 0
 3578              		@ frame_needed = 0, uses_anonymous_args = 0
 3579              		@ link register save eliminated.
 3580 0000 014B     		ldr	r3, .L489
 3581              		@ sp needed
 3582 0002 9878     		ldrb	r0, [r3, #2]
 3583 0004 7047     		bx	lr
 3584              	.L490:
 3585 0006 C046     		.align	2
 3586              	.L489:
 3587 0008 00000000 		.word	.LANCHOR8
 3589              		.section	.text.modem_set_stream_state,"ax",%progbits
 3590              		.align	1
 3591              		.global	modem_set_stream_state
 3592              		.syntax unified
 3593              		.code	16
 3594              		.thumb_func
 3595              		.fpu softvfp
 3597              	modem_set_stream_state:
ARM GAS  /tmp/cc54pXIa.s 			page 63


 3598              		@ args = 0, pretend = 0, frame = 0
 3599              		@ frame_needed = 0, uses_anonymous_args = 0
 3600              		@ link register save eliminated.
 3601 0000 014B     		ldr	r3, .L492
 3602              		@ sp needed
 3603 0002 5870     		strb	r0, [r3, #1]
 3604 0004 7047     		bx	lr
 3605              	.L493:
 3606 0006 C046     		.align	2
 3607              	.L492:
 3608 0008 00000000 		.word	.LANCHOR8
 3610              		.section	.text.modem_set_stream_port,"ax",%progbits
 3611              		.align	1
 3612              		.global	modem_set_stream_port
 3613              		.syntax unified
 3614              		.code	16
 3615              		.thumb_func
 3616              		.fpu softvfp
 3618              	modem_set_stream_port:
 3619              		@ args = 0, pretend = 0, frame = 0
 3620              		@ frame_needed = 0, uses_anonymous_args = 0
 3621              		@ link register save eliminated.
 3622 0000 014B     		ldr	r3, .L495
 3623              		@ sp needed
 3624 0002 1870     		strb	r0, [r3]
 3625 0004 7047     		bx	lr
 3626              	.L496:
 3627 0006 C046     		.align	2
 3628              	.L495:
 3629 0008 00000000 		.word	.LANCHOR8
 3631              		.section	.text.modem_set_stream_encryption,"ax",%progbits
 3632              		.align	1
 3633              		.global	modem_set_stream_encryption
 3634              		.syntax unified
 3635              		.code	16
 3636              		.thumb_func
 3637              		.fpu softvfp
 3639              	modem_set_stream_encryption:
 3640              		@ args = 0, pretend = 0, frame = 0
 3641              		@ frame_needed = 0, uses_anonymous_args = 0
 3642              		@ link register save eliminated.
 3643 0000 014B     		ldr	r3, .L498
 3644              		@ sp needed
 3645 0002 9870     		strb	r0, [r3, #2]
 3646 0004 7047     		bx	lr
 3647              	.L499:
 3648 0006 C046     		.align	2
 3649              	.L498:
 3650 0008 00000000 		.word	.LANCHOR8
 3652              		.section	.text.modem_set_dm_info_bitfield_periodic,"ax",%progbits
 3653              		.align	1
 3654              		.global	modem_set_dm_info_bitfield_periodic
 3655              		.syntax unified
 3656              		.code	16
 3657              		.thumb_func
 3658              		.fpu softvfp
 3660              	modem_set_dm_info_bitfield_periodic:
ARM GAS  /tmp/cc54pXIa.s 			page 64


 3661              		@ args = 0, pretend = 0, frame = 0
 3662              		@ frame_needed = 0, uses_anonymous_args = 0
 3663              		@ link register save eliminated.
 3664 0000 024B     		ldr	r3, .L502
 3665 0002 1A68     		ldr	r2, [r3]
 3666 0004 8242     		cmp	r2, r0
 3667 0006 00D0     		beq	.L500
 3668 0008 1860     		str	r0, [r3]
 3669              	.L500:
 3670              		@ sp needed
 3671 000a 7047     		bx	lr
 3672              	.L503:
 3673              		.align	2
 3674              	.L502:
 3675 000c 00000000 		.word	.LANCHOR9
 3677              		.section	.text.modem_context_reset_dm_tag_number,"ax",%progbits
 3678              		.align	1
 3679              		.global	modem_context_reset_dm_tag_number
 3680              		.syntax unified
 3681              		.code	16
 3682              		.thumb_func
 3683              		.fpu softvfp
 3685              	modem_context_reset_dm_tag_number:
 3686              		@ args = 0, pretend = 0, frame = 0
 3687              		@ frame_needed = 0, uses_anonymous_args = 0
 3688              		@ link register save eliminated.
 3689 0000 0022     		movs	r2, #0
 3690              		@ sp needed
 3691 0002 014B     		ldr	r3, .L505
 3692 0004 1A70     		strb	r2, [r3]
 3693 0006 7047     		bx	lr
 3694              	.L506:
 3695              		.align	2
 3696              	.L505:
 3697 0008 00000000 		.word	.LANCHOR11
 3699              		.section	.text.modem_get_dm_info_bitfield_periodic,"ax",%progbits
 3700              		.align	1
 3701              		.global	modem_get_dm_info_bitfield_periodic
 3702              		.syntax unified
 3703              		.code	16
 3704              		.thumb_func
 3705              		.fpu softvfp
 3707              	modem_get_dm_info_bitfield_periodic:
 3708              		@ args = 0, pretend = 0, frame = 0
 3709              		@ frame_needed = 0, uses_anonymous_args = 0
 3710              		@ link register save eliminated.
 3711 0000 014B     		ldr	r3, .L508
 3712              		@ sp needed
 3713 0002 1868     		ldr	r0, [r3]
 3714 0004 7047     		bx	lr
 3715              	.L509:
 3716 0006 C046     		.align	2
 3717              	.L508:
 3718 0008 00000000 		.word	.LANCHOR9
 3720              		.section	.text.modem_get_user_alarm,"ax",%progbits
 3721              		.align	1
 3722              		.global	modem_get_user_alarm
ARM GAS  /tmp/cc54pXIa.s 			page 65


 3723              		.syntax unified
 3724              		.code	16
 3725              		.thumb_func
 3726              		.fpu softvfp
 3728              	modem_get_user_alarm:
 3729              		@ args = 0, pretend = 0, frame = 0
 3730              		@ frame_needed = 0, uses_anonymous_args = 0
 3731              		@ link register save eliminated.
 3732 0000 014B     		ldr	r3, .L511
 3733              		@ sp needed
 3734 0002 1868     		ldr	r0, [r3]
 3735 0004 7047     		bx	lr
 3736              	.L512:
 3737 0006 C046     		.align	2
 3738              	.L511:
 3739 0008 00000000 		.word	.LANCHOR15
 3741              		.section	.text.modem_set_user_alarm,"ax",%progbits
 3742              		.align	1
 3743              		.global	modem_set_user_alarm
 3744              		.syntax unified
 3745              		.code	16
 3746              		.thumb_func
 3747              		.fpu softvfp
 3749              	modem_set_user_alarm:
 3750              		@ args = 0, pretend = 0, frame = 0
 3751              		@ frame_needed = 0, uses_anonymous_args = 0
 3752              		@ link register save eliminated.
 3753 0000 014B     		ldr	r3, .L514
 3754              		@ sp needed
 3755 0002 1860     		str	r0, [r3]
 3756 0004 7047     		bx	lr
 3757              	.L515:
 3758 0006 C046     		.align	2
 3759              	.L514:
 3760 0008 00000000 		.word	.LANCHOR15
 3762              		.section	.text.get_modem_reset_requested,"ax",%progbits
 3763              		.align	1
 3764              		.global	get_modem_reset_requested
 3765              		.syntax unified
 3766              		.code	16
 3767              		.thumb_func
 3768              		.fpu softvfp
 3770              	get_modem_reset_requested:
 3771              		@ args = 0, pretend = 0, frame = 0
 3772              		@ frame_needed = 0, uses_anonymous_args = 0
 3773              		@ link register save eliminated.
 3774 0000 014B     		ldr	r3, .L517
 3775              		@ sp needed
 3776 0002 1878     		ldrb	r0, [r3]
 3777 0004 7047     		bx	lr
 3778              	.L518:
 3779 0006 C046     		.align	2
 3780              	.L517:
 3781 0008 00000000 		.word	.LANCHOR17
 3783              		.section	.text.set_modem_reset_requested,"ax",%progbits
 3784              		.align	1
 3785              		.global	set_modem_reset_requested
ARM GAS  /tmp/cc54pXIa.s 			page 66


 3786              		.syntax unified
 3787              		.code	16
 3788              		.thumb_func
 3789              		.fpu softvfp
 3791              	set_modem_reset_requested:
 3792              		@ args = 0, pretend = 0, frame = 0
 3793              		@ frame_needed = 0, uses_anonymous_args = 0
 3794              		@ link register save eliminated.
 3795 0000 014B     		ldr	r3, .L520
 3796              		@ sp needed
 3797 0002 1870     		strb	r0, [r3]
 3798 0004 7047     		bx	lr
 3799              	.L521:
 3800 0006 C046     		.align	2
 3801              	.L520:
 3802 0008 00000000 		.word	.LANCHOR17
 3804              		.section	.text.modem_get_rfo_pa,"ax",%progbits
 3805              		.align	1
 3806              		.global	modem_get_rfo_pa
 3807              		.syntax unified
 3808              		.code	16
 3809              		.thumb_func
 3810              		.fpu softvfp
 3812              	modem_get_rfo_pa:
 3813              		@ args = 0, pretend = 0, frame = 0
 3814              		@ frame_needed = 0, uses_anonymous_args = 0
 3815              		@ link register save eliminated.
 3816 0000 014B     		ldr	r3, .L523
 3817              		@ sp needed
 3818 0002 1878     		ldrb	r0, [r3]
 3819 0004 7047     		bx	lr
 3820              	.L524:
 3821 0006 C046     		.align	2
 3822              	.L523:
 3823 0008 00000000 		.word	.LANCHOR22
 3825              		.section	.text.modem_set_rfo_pa,"ax",%progbits
 3826              		.align	1
 3827              		.global	modem_set_rfo_pa
 3828              		.syntax unified
 3829              		.code	16
 3830              		.thumb_func
 3831              		.fpu softvfp
 3833              	modem_set_rfo_pa:
 3834              		@ args = 0, pretend = 0, frame = 0
 3835              		@ frame_needed = 0, uses_anonymous_args = 0
 3836              		@ link register save eliminated.
 3837 0000 0300     		movs	r3, r0
 3838 0002 0020     		movs	r0, #0
 3839 0004 022B     		cmp	r3, #2
 3840 0006 02D8     		bhi	.L526
 3841 0008 014A     		ldr	r2, .L528
 3842 000a 0130     		adds	r0, r0, #1
 3843 000c 1370     		strb	r3, [r2]
 3844              	.L526:
 3845              		@ sp needed
 3846 000e 7047     		bx	lr
 3847              	.L529:
ARM GAS  /tmp/cc54pXIa.s 			page 67


 3848              		.align	2
 3849              	.L528:
 3850 0010 00000000 		.word	.LANCHOR22
 3852              		.section	.text.modem_set_duty_cycle_disabled_by_host,"ax",%progbits
 3853              		.align	1
 3854              		.global	modem_set_duty_cycle_disabled_by_host
 3855              		.syntax unified
 3856              		.code	16
 3857              		.thumb_func
 3858              		.fpu softvfp
 3860              	modem_set_duty_cycle_disabled_by_host:
 3861              		@ args = 0, pretend = 0, frame = 0
 3862              		@ frame_needed = 0, uses_anonymous_args = 0
 3863              		@ link register save eliminated.
 3864 0000 014B     		ldr	r3, .L531
 3865              		@ sp needed
 3866 0002 1870     		strb	r0, [r3]
 3867 0004 7047     		bx	lr
 3868              	.L532:
 3869 0006 C046     		.align	2
 3870              	.L531:
 3871 0008 00000000 		.word	.LANCHOR23
 3873              		.section	.text.modem_get_duty_cycle_disabled_by_host,"ax",%progbits
 3874              		.align	1
 3875              		.global	modem_get_duty_cycle_disabled_by_host
 3876              		.syntax unified
 3877              		.code	16
 3878              		.thumb_func
 3879              		.fpu softvfp
 3881              	modem_get_duty_cycle_disabled_by_host:
 3882              		@ args = 0, pretend = 0, frame = 0
 3883              		@ frame_needed = 0, uses_anonymous_args = 0
 3884              		@ link register save eliminated.
 3885 0000 014B     		ldr	r3, .L534
 3886              		@ sp needed
 3887 0002 1878     		ldrb	r0, [r3]
 3888 0004 7047     		bx	lr
 3889              	.L535:
 3890 0006 C046     		.align	2
 3891              	.L534:
 3892 0008 00000000 		.word	.LANCHOR23
 3894              		.section	.text.modem_set_adr_mobile_timeout_config,"ax",%progbits
 3895              		.align	1
 3896              		.global	modem_set_adr_mobile_timeout_config
 3897              		.syntax unified
 3898              		.code	16
 3899              		.thumb_func
 3900              		.fpu softvfp
 3902              	modem_set_adr_mobile_timeout_config:
 3903              		@ args = 0, pretend = 0, frame = 0
 3904              		@ frame_needed = 0, uses_anonymous_args = 0
 3905              		@ link register save eliminated.
 3906 0000 014B     		ldr	r3, .L537
 3907              		@ sp needed
 3908 0002 1880     		strh	r0, [r3]
 3909 0004 7047     		bx	lr
 3910              	.L538:
ARM GAS  /tmp/cc54pXIa.s 			page 68


 3911 0006 C046     		.align	2
 3912              	.L537:
 3913 0008 00000000 		.word	.LANCHOR25
 3915              		.section	.text.modem_get_adr_mobile_timeout_config,"ax",%progbits
 3916              		.align	1
 3917              		.global	modem_get_adr_mobile_timeout_config
 3918              		.syntax unified
 3919              		.code	16
 3920              		.thumb_func
 3921              		.fpu softvfp
 3923              	modem_get_adr_mobile_timeout_config:
 3924              		@ args = 0, pretend = 0, frame = 0
 3925              		@ frame_needed = 0, uses_anonymous_args = 0
 3926              		@ link register save eliminated.
 3927 0000 014B     		ldr	r3, .L540
 3928              		@ sp needed
 3929 0002 1888     		ldrh	r0, [r3]
 3930 0004 7047     		bx	lr
 3931              	.L541:
 3932 0006 C046     		.align	2
 3933              	.L540:
 3934 0008 00000000 		.word	.LANCHOR25
 3936              		.section	.text.modem_available_new_link_adr_request,"ax",%progbits
 3937              		.align	1
 3938              		.global	modem_available_new_link_adr_request
 3939              		.syntax unified
 3940              		.code	16
 3941              		.thumb_func
 3942              		.fpu softvfp
 3944              	modem_available_new_link_adr_request:
 3945              		@ args = 0, pretend = 0, frame = 0
 3946              		@ frame_needed = 0, uses_anonymous_args = 0
 3947 0000 10B5     		push	{r4, lr}
 3948 0002 FFF7FEFF 		bl	lorawan_api_available_link_adr_get
 3949              		@ sp needed
 3950 0006 10BD     		pop	{r4, pc}
 3952              		.section	.text.modem_set_test_mode_status,"ax",%progbits
 3953              		.align	1
 3954              		.global	modem_set_test_mode_status
 3955              		.syntax unified
 3956              		.code	16
 3957              		.thumb_func
 3958              		.fpu softvfp
 3960              	modem_set_test_mode_status:
 3961              		@ args = 0, pretend = 0, frame = 0
 3962              		@ frame_needed = 0, uses_anonymous_args = 0
 3963              		@ link register save eliminated.
 3964 0000 014B     		ldr	r3, .L544
 3965              		@ sp needed
 3966 0002 1870     		strb	r0, [r3]
 3967 0004 7047     		bx	lr
 3968              	.L545:
 3969 0006 C046     		.align	2
 3970              	.L544:
 3971 0008 00000000 		.word	.LANCHOR26
 3973              		.section	.text.modem_get_test_mode_status,"ax",%progbits
 3974              		.align	1
ARM GAS  /tmp/cc54pXIa.s 			page 69


 3975              		.global	modem_get_test_mode_status
 3976              		.syntax unified
 3977              		.code	16
 3978              		.thumb_func
 3979              		.fpu softvfp
 3981              	modem_get_test_mode_status:
 3982              		@ args = 0, pretend = 0, frame = 0
 3983              		@ frame_needed = 0, uses_anonymous_args = 0
 3984              		@ link register save eliminated.
 3985 0000 014B     		ldr	r3, .L547
 3986              		@ sp needed
 3987 0002 1878     		ldrb	r0, [r3]
 3988 0004 7047     		bx	lr
 3989              	.L548:
 3990 0006 C046     		.align	2
 3991              	.L547:
 3992 0008 00000000 		.word	.LANCHOR26
 3994              		.section	.text.modem_context_set_rx_pathloss_db,"ax",%progbits
 3995              		.align	1
 3996              		.global	modem_context_set_rx_pathloss_db
 3997              		.syntax unified
 3998              		.code	16
 3999              		.thumb_func
 4000              		.fpu softvfp
 4002              	modem_context_set_rx_pathloss_db:
 4003              		@ args = 0, pretend = 0, frame = 0
 4004              		@ frame_needed = 0, uses_anonymous_args = 0
 4005              		@ link register save eliminated.
 4006 0000 014B     		ldr	r3, .L550
 4007              		@ sp needed
 4008 0002 1870     		strb	r0, [r3]
 4009 0004 7047     		bx	lr
 4010              	.L551:
 4011 0006 C046     		.align	2
 4012              	.L550:
 4013 0008 00000000 		.word	.LANCHOR27
 4015              		.section	.text.modem_context_get_rx_pathloss_db,"ax",%progbits
 4016              		.align	1
 4017              		.global	modem_context_get_rx_pathloss_db
 4018              		.syntax unified
 4019              		.code	16
 4020              		.thumb_func
 4021              		.fpu softvfp
 4023              	modem_context_get_rx_pathloss_db:
 4024              		@ args = 0, pretend = 0, frame = 0
 4025              		@ frame_needed = 0, uses_anonymous_args = 0
 4026              		@ link register save eliminated.
 4027 0000 0020     		movs	r0, #0
 4028              		@ sp needed
 4029 0002 014B     		ldr	r3, .L553
 4030 0004 1856     		ldrsb	r0, [r3, r0]
 4031 0006 7047     		bx	lr
 4032              	.L554:
 4033              		.align	2
 4034              	.L553:
 4035 0008 00000000 		.word	.LANCHOR27
 4037              		.section	.text.modem_context_set_tx_power_offset_db,"ax",%progbits
ARM GAS  /tmp/cc54pXIa.s 			page 70


 4038              		.align	1
 4039              		.global	modem_context_set_tx_power_offset_db
 4040              		.syntax unified
 4041              		.code	16
 4042              		.thumb_func
 4043              		.fpu softvfp
 4045              	modem_context_set_tx_power_offset_db:
 4046              		@ args = 0, pretend = 0, frame = 0
 4047              		@ frame_needed = 0, uses_anonymous_args = 0
 4048              		@ link register save eliminated.
 4049 0000 014B     		ldr	r3, .L556
 4050              		@ sp needed
 4051 0002 1870     		strb	r0, [r3]
 4052 0004 7047     		bx	lr
 4053              	.L557:
 4054 0006 C046     		.align	2
 4055              	.L556:
 4056 0008 00000000 		.word	.LANCHOR28
 4058              		.section	.text.modem_context_get_tx_power_offset_db,"ax",%progbits
 4059              		.align	1
 4060              		.global	modem_context_get_tx_power_offset_db
 4061              		.syntax unified
 4062              		.code	16
 4063              		.thumb_func
 4064              		.fpu softvfp
 4066              	modem_context_get_tx_power_offset_db:
 4067              		@ args = 0, pretend = 0, frame = 0
 4068              		@ frame_needed = 0, uses_anonymous_args = 0
 4069              		@ link register save eliminated.
 4070 0000 0020     		movs	r0, #0
 4071              		@ sp needed
 4072 0002 014B     		ldr	r3, .L559
 4073 0004 1856     		ldrsb	r0, [r3, r0]
 4074 0006 7047     		bx	lr
 4075              	.L560:
 4076              		.align	2
 4077              	.L559:
 4078 0008 00000000 		.word	.LANCHOR28
 4080              		.section	.text.modem_context_get_modem_rp,"ax",%progbits
 4081              		.align	1
 4082              		.global	modem_context_get_modem_rp
 4083              		.syntax unified
 4084              		.code	16
 4085              		.thumb_func
 4086              		.fpu softvfp
 4088              	modem_context_get_modem_rp:
 4089              		@ args = 0, pretend = 0, frame = 0
 4090              		@ frame_needed = 0, uses_anonymous_args = 0
 4091              		@ link register save eliminated.
 4092 0000 014B     		ldr	r3, .L562
 4093              		@ sp needed
 4094 0002 1868     		ldr	r0, [r3]
 4095 0004 7047     		bx	lr
 4096              	.L563:
 4097 0006 C046     		.align	2
 4098              	.L562:
 4099 0008 00000000 		.word	.LANCHOR29
ARM GAS  /tmp/cc54pXIa.s 			page 71


 4101              		.section	.text.modem_context_set_modem_rp,"ax",%progbits
 4102              		.align	1
 4103              		.global	modem_context_set_modem_rp
 4104              		.syntax unified
 4105              		.code	16
 4106              		.thumb_func
 4107              		.fpu softvfp
 4109              	modem_context_set_modem_rp:
 4110              		@ args = 0, pretend = 0, frame = 0
 4111              		@ frame_needed = 0, uses_anonymous_args = 0
 4112              		@ link register save eliminated.
 4113 0000 014B     		ldr	r3, .L565
 4114              		@ sp needed
 4115 0002 1860     		str	r0, [r3]
 4116 0004 7047     		bx	lr
 4117              	.L566:
 4118 0006 C046     		.align	2
 4119              	.L565:
 4120 0008 00000000 		.word	.LANCHOR29
 4122              		.section	.text.modem_context_suspend_user_radio_access,"ax",%progbits
 4123              		.align	1
 4124              		.global	modem_context_suspend_user_radio_access
 4125              		.syntax unified
 4126              		.code	16
 4127              		.thumb_func
 4128              		.fpu softvfp
 4130              	modem_context_suspend_user_radio_access:
 4131              		@ args = 0, pretend = 0, frame = 160
 4132              		@ frame_needed = 0, uses_anonymous_args = 0
 4133 0000 70B5     		push	{r4, r5, r6, lr}
 4134 0002 0600     		movs	r6, r0
 4135 0004 AAB0     		sub	sp, sp, #168
 4136 0006 09AD     		add	r5, sp, #36
 4137 0008 02AC     		add	r4, sp, #8
 4138 000a 8422     		movs	r2, #132
 4139 000c 0021     		movs	r1, #0
 4140 000e 2800     		movs	r0, r5
 4141 0010 FFF7FEFF 		bl	memset
 4142 0014 1C22     		movs	r2, #28
 4143 0016 0021     		movs	r1, #0
 4144 0018 2000     		movs	r0, r4
 4145 001a FFF7FEFF 		bl	memset
 4146 001e 0B4B     		ldr	r3, .L568
 4147 0020 6670     		strb	r6, [r4, #1]
 4148 0022 0393     		str	r3, [sp, #12]
 4149 0024 FFF7FEFF 		bl	smtc_modem_hal_get_time_in_ms
 4150 0028 094B     		ldr	r3, .L568+4
 4151 002a 0430     		adds	r0, r0, #4
 4152 002c 0893     		str	r3, [sp, #32]
 4153 002e 0023     		movs	r3, #0
 4154 0030 0590     		str	r0, [sp, #20]
 4155 0032 0848     		ldr	r0, .L568+8
 4156 0034 0095     		str	r5, [sp]
 4157 0036 1A00     		movs	r2, r3
 4158 0038 2100     		movs	r1, r4
 4159 003a 0068     		ldr	r0, [r0]
 4160 003c FFF7FEFF 		bl	rp_task_enqueue
ARM GAS  /tmp/cc54pXIa.s 			page 72


 4161 0040 4342     		rsbs	r3, r0, #0
 4162 0042 5841     		adcs	r0, r0, r3
 4163 0044 C0B2     		uxtb	r0, r0
 4164 0046 2AB0     		add	sp, sp, #168
 4165              		@ sp needed
 4166 0048 70BD     		pop	{r4, r5, r6, pc}
 4167              	.L569:
 4168 004a C046     		.align	2
 4169              	.L568:
 4170 004c 00000000 		.word	modem_context_empty_callback
 4171 0050 204E0000 		.word	20000
 4172 0054 00000000 		.word	.LANCHOR29
 4174              		.section	.rodata.modem_context_resume_user_radio_access.str1.1,"aMS",%progbits,1
 4175              	.LC239:
 4176 0000 1B5B303B 		.ascii	"\033[0;31mERROR: Fail to abort hook\012\000"
 4176      33316D45 
 4176      52524F52 
 4176      3A204661 
 4176      696C2074 
 4177              		.section	.text.modem_context_resume_user_radio_access,"ax",%progbits
 4178              		.align	1
 4179              		.global	modem_context_resume_user_radio_access
 4180              		.syntax unified
 4181              		.code	16
 4182              		.thumb_func
 4183              		.fpu softvfp
 4185              	modem_context_resume_user_radio_access:
 4186              		@ args = 0, pretend = 0, frame = 0
 4187              		@ frame_needed = 0, uses_anonymous_args = 0
 4188 0000 084B     		ldr	r3, .L574
 4189 0002 0021     		movs	r1, #0
 4190 0004 1868     		ldr	r0, [r3]
 4191 0006 10B5     		push	{r4, lr}
 4192 0008 FFF7FEFF 		bl	rp_task_abort
 4193 000c 0123     		movs	r3, #1
 4194 000e 0028     		cmp	r0, #0
 4195 0010 06D0     		beq	.L571
 4196 0012 0548     		ldr	r0, .L574+4
 4197 0014 FFF7FEFF 		bl	smtc_modem_hal_print_trace
 4198 0018 0448     		ldr	r0, .L574+8
 4199 001a FFF7FEFF 		bl	smtc_modem_hal_print_trace
 4200 001e 0023     		movs	r3, #0
 4201              	.L571:
 4202              		@ sp needed
 4203 0020 1800     		movs	r0, r3
 4204 0022 10BD     		pop	{r4, pc}
 4205              	.L575:
 4206              		.align	2
 4207              	.L574:
 4208 0024 00000000 		.word	.LANCHOR29
 4209 0028 00000000 		.word	.LC239
 4210 002c 1D000000 		.word	.LC41
 4212              		.section	.text.modem_context_suspend_radio_access,"ax",%progbits
 4213              		.align	1
 4214              		.global	modem_context_suspend_radio_access
 4215              		.syntax unified
 4216              		.code	16
ARM GAS  /tmp/cc54pXIa.s 			page 73


 4217              		.thumb_func
 4218              		.fpu softvfp
 4220              	modem_context_suspend_radio_access:
 4221              		@ args = 0, pretend = 0, frame = 160
 4222              		@ frame_needed = 0, uses_anonymous_args = 0
 4223 0000 30B5     		push	{r4, r5, lr}
 4224 0002 ABB0     		sub	sp, sp, #172
 4225 0004 09AD     		add	r5, sp, #36
 4226 0006 0400     		movs	r4, r0
 4227 0008 8422     		movs	r2, #132
 4228 000a 0021     		movs	r1, #0
 4229 000c 2800     		movs	r0, r5
 4230 000e FFF7FEFF 		bl	memset
 4231 0012 0021     		movs	r1, #0
 4232 0014 1C22     		movs	r2, #28
 4233 0016 02A8     		add	r0, sp, #8
 4234 0018 FFF7FEFF 		bl	memset
 4235 001c 6A46     		mov	r2, sp
 4236 001e 0223     		movs	r3, #2
 4237 0020 1372     		strb	r3, [r2, #8]
 4238 0022 0C4B     		ldr	r3, .L577
 4239 0024 5472     		strb	r4, [r2, #9]
 4240 0026 0393     		str	r3, [sp, #12]
 4241 0028 FFF7FEFF 		bl	smtc_modem_hal_get_time_in_ms
 4242 002c 0A4B     		ldr	r3, .L577+4
 4243 002e 0430     		adds	r0, r0, #4
 4244 0030 0590     		str	r0, [sp, #20]
 4245 0032 0893     		str	r3, [sp, #32]
 4246 0034 FFF7FEFF 		bl	smtc_modem_hal_disable_modem_irq
 4247 0038 0023     		movs	r3, #0
 4248 003a 0848     		ldr	r0, .L577+8
 4249 003c 0095     		str	r5, [sp]
 4250 003e 1A00     		movs	r2, r3
 4251 0040 02A9     		add	r1, sp, #8
 4252 0042 0068     		ldr	r0, [r0]
 4253 0044 FFF7FEFF 		bl	rp_task_enqueue
 4254 0048 4342     		rsbs	r3, r0, #0
 4255 004a 5841     		adcs	r0, r0, r3
 4256 004c C0B2     		uxtb	r0, r0
 4257 004e 2BB0     		add	sp, sp, #172
 4258              		@ sp needed
 4259 0050 30BD     		pop	{r4, r5, pc}
 4260              	.L578:
 4261 0052 C046     		.align	2
 4262              	.L577:
 4263 0054 00000000 		.word	modem_context_empty_callback
 4264 0058 204E0000 		.word	20000
 4265 005c 00000000 		.word	.LANCHOR29
 4267              		.section	.text.modem_context_resume_radio_access,"ax",%progbits
 4268              		.align	1
 4269              		.global	modem_context_resume_radio_access
 4270              		.syntax unified
 4271              		.code	16
 4272              		.thumb_func
 4273              		.fpu softvfp
 4275              	modem_context_resume_radio_access:
 4276              		@ args = 0, pretend = 0, frame = 0
ARM GAS  /tmp/cc54pXIa.s 			page 74


 4277              		@ frame_needed = 0, uses_anonymous_args = 0
 4278 0000 094B     		ldr	r3, .L583
 4279 0002 10B5     		push	{r4, lr}
 4280 0004 0221     		movs	r1, #2
 4281 0006 1868     		ldr	r0, [r3]
 4282 0008 FFF7FEFF 		bl	rp_task_abort
 4283 000c 0124     		movs	r4, #1
 4284 000e 0028     		cmp	r0, #0
 4285 0010 06D0     		beq	.L580
 4286 0012 0648     		ldr	r0, .L583+4
 4287 0014 FFF7FEFF 		bl	smtc_modem_hal_print_trace
 4288 0018 0548     		ldr	r0, .L583+8
 4289 001a FFF7FEFF 		bl	smtc_modem_hal_print_trace
 4290 001e 0024     		movs	r4, #0
 4291              	.L580:
 4292              		@ sp needed
 4293 0020 FFF7FEFF 		bl	smtc_modem_hal_enable_modem_irq
 4294 0024 2000     		movs	r0, r4
 4295 0026 10BD     		pop	{r4, pc}
 4296              	.L584:
 4297              		.align	2
 4298              	.L583:
 4299 0028 00000000 		.word	.LANCHOR29
 4300 002c 00000000 		.word	.LC239
 4301 0030 1D000000 		.word	.LC41
 4303              		.section	.text.modem_context_set_power_config_lut,"ax",%progbits
 4304              		.align	1
 4305              		.global	modem_context_set_power_config_lut
 4306              		.syntax unified
 4307              		.code	16
 4308              		.thumb_func
 4309              		.fpu softvfp
 4311              	modem_context_set_power_config_lut:
 4312              		@ args = 0, pretend = 0, frame = 0
 4313              		@ frame_needed = 0, uses_anonymous_args = 0
 4314              		@ link register save eliminated.
 4315 0000 0200     		movs	r2, r0
 4316 0002 084B     		ldr	r3, .L588
 4317 0004 1E32     		adds	r2, r2, #30
 4318              	.L586:
 4319 0006 0178     		ldrb	r1, [r0]
 4320 0008 1970     		strb	r1, [r3]
 4321 000a 4178     		ldrb	r1, [r0, #1]
 4322 000c 5970     		strb	r1, [r3, #1]
 4323 000e 8178     		ldrb	r1, [r0, #2]
 4324 0010 9970     		strb	r1, [r3, #2]
 4325 0012 C178     		ldrb	r1, [r0, #3]
 4326 0014 D970     		strb	r1, [r3, #3]
 4327 0016 0179     		ldrb	r1, [r0, #4]
 4328 0018 0530     		adds	r0, r0, #5
 4329 001a 1971     		strb	r1, [r3, #4]
 4330 001c 0533     		adds	r3, r3, #5
 4331 001e 9042     		cmp	r0, r2
 4332 0020 F1D1     		bne	.L586
 4333              		@ sp needed
 4334 0022 7047     		bx	lr
 4335              	.L589:
ARM GAS  /tmp/cc54pXIa.s 			page 75


 4336              		.align	2
 4337              	.L588:
 4338 0024 00000000 		.word	.LANCHOR36
 4340              		.section	.text.modem_context_get_power_config_lut,"ax",%progbits
 4341              		.align	1
 4342              		.global	modem_context_get_power_config_lut
 4343              		.syntax unified
 4344              		.code	16
 4345              		.thumb_func
 4346              		.fpu softvfp
 4348              	modem_context_get_power_config_lut:
 4349              		@ args = 0, pretend = 0, frame = 0
 4350              		@ frame_needed = 0, uses_anonymous_args = 0
 4351              		@ link register save eliminated.
 4352 0000 0048     		ldr	r0, .L591
 4353              		@ sp needed
 4354 0002 7047     		bx	lr
 4355              	.L592:
 4356              		.align	2
 4357              	.L591:
 4358 0004 00000000 		.word	.LANCHOR36
 4360              		.section	.text.modem_context_set_appkey,"ax",%progbits
 4361              		.align	1
 4362              		.global	modem_context_set_appkey
 4363              		.syntax unified
 4364              		.code	16
 4365              		.thumb_func
 4366              		.fpu softvfp
 4368              	modem_context_set_appkey:
 4369              		@ args = 0, pretend = 0, frame = 0
 4370              		@ frame_needed = 0, uses_anonymous_args = 0
 4371 0000 10B5     		push	{r4, lr}
 4372 0002 FFF7FEFF 		bl	lorawan_api_set_appkey
 4373              		@ sp needed
 4374 0006 431E     		subs	r3, r0, #1
 4375 0008 9841     		sbcs	r0, r0, r3
 4376 000a C0B2     		uxtb	r0, r0
 4377 000c 10BD     		pop	{r4, pc}
 4379              		.section	.text.modem_context_appkey_is_derived,"ax",%progbits
 4380              		.align	1
 4381              		.global	modem_context_appkey_is_derived
 4382              		.syntax unified
 4383              		.code	16
 4384              		.thumb_func
 4385              		.fpu softvfp
 4387              	modem_context_appkey_is_derived:
 4388              		@ args = 0, pretend = 0, frame = 0
 4389              		@ frame_needed = 0, uses_anonymous_args = 0
 4390 0000 0122     		movs	r2, #1
 4391 0002 10B5     		push	{r4, lr}
 4392 0004 024B     		ldr	r3, .L595
 4393              		@ sp needed
 4394 0006 1A80     		strh	r2, [r3]
 4395 0008 FFF7FEFF 		bl	modem_store_context
 4396 000c 10BD     		pop	{r4, pc}
 4397              	.L596:
 4398 000e C046     		.align	2
ARM GAS  /tmp/cc54pXIa.s 			page 76


 4399              	.L595:
 4400 0010 00000000 		.word	.LANCHOR30
 4402              		.section	.text.modem_context_get_network_type,"ax",%progbits
 4403              		.align	1
 4404              		.global	modem_context_get_network_type
 4405              		.syntax unified
 4406              		.code	16
 4407              		.thumb_func
 4408              		.fpu softvfp
 4410              	modem_context_get_network_type:
 4411              		@ args = 0, pretend = 0, frame = 0
 4412              		@ frame_needed = 0, uses_anonymous_args = 0
 4413 0000 10B5     		push	{r4, lr}
 4414 0002 FFF7FEFF 		bl	lorawan_api_get_network_type
 4415              		@ sp needed
 4416 0006 10BD     		pop	{r4, pc}
 4418              		.section	.text.modem_context_set_network_type,"ax",%progbits
 4419              		.align	1
 4420              		.global	modem_context_set_network_type
 4421              		.syntax unified
 4422              		.code	16
 4423              		.thumb_func
 4424              		.fpu softvfp
 4426              	modem_context_set_network_type:
 4427              		@ args = 0, pretend = 0, frame = 0
 4428              		@ frame_needed = 0, uses_anonymous_args = 0
 4429 0000 10B5     		push	{r4, lr}
 4430 0002 FFF7FEFF 		bl	lorawan_api_set_network_type
 4431              		@ sp needed
 4432 0006 10BD     		pop	{r4, pc}
 4434              		.section	.text.modem_context_get_modem_radio_ctx,"ax",%progbits
 4435              		.align	1
 4436              		.global	modem_context_get_modem_radio_ctx
 4437              		.syntax unified
 4438              		.code	16
 4439              		.thumb_func
 4440              		.fpu softvfp
 4442              	modem_context_get_modem_radio_ctx:
 4443              		@ args = 0, pretend = 0, frame = 0
 4444              		@ frame_needed = 0, uses_anonymous_args = 0
 4445              		@ link register save eliminated.
 4446 0000 014B     		ldr	r3, .L600
 4447              		@ sp needed
 4448 0002 1868     		ldr	r0, [r3]
 4449 0004 7047     		bx	lr
 4450              	.L601:
 4451 0006 C046     		.align	2
 4452              	.L600:
 4453 0008 00000000 		.word	.LANCHOR40
 4455              		.section	.text.modem_context_set_modem_radio_ctx,"ax",%progbits
 4456              		.align	1
 4457              		.global	modem_context_set_modem_radio_ctx
 4458              		.syntax unified
 4459              		.code	16
 4460              		.thumb_func
 4461              		.fpu softvfp
 4463              	modem_context_set_modem_radio_ctx:
ARM GAS  /tmp/cc54pXIa.s 			page 77


 4464              		@ args = 0, pretend = 0, frame = 0
 4465              		@ frame_needed = 0, uses_anonymous_args = 0
 4466              		@ link register save eliminated.
 4467 0000 014B     		ldr	r3, .L603
 4468              		@ sp needed
 4469 0002 1860     		str	r0, [r3]
 4470 0004 7047     		bx	lr
 4471              	.L604:
 4472 0006 C046     		.align	2
 4473              	.L603:
 4474 0008 00000000 		.word	.LANCHOR40
 4476              		.section	.text.modem_set_extended_callback,"ax",%progbits
 4477              		.align	1
 4478              		.global	modem_set_extended_callback
 4479              		.syntax unified
 4480              		.code	16
 4481              		.thumb_func
 4482              		.fpu softvfp
 4484              	modem_set_extended_callback:
 4485              		@ args = 0, pretend = 0, frame = 0
 4486              		@ frame_needed = 0, uses_anonymous_args = 0
 4487              		@ link register save eliminated.
 4488 0000 034B     		ldr	r3, .L609
 4489 0002 0129     		cmp	r1, #1
 4490 0004 02D0     		beq	.L608
 4491 0006 0229     		cmp	r1, #2
 4492 0008 01D1     		bne	.L605
 4493 000a 024B     		ldr	r3, .L609+4
 4494              	.L608:
 4495 000c 1860     		str	r0, [r3]
 4496              	.L605:
 4497              		@ sp needed
 4498 000e 7047     		bx	lr
 4499              	.L610:
 4500              		.align	2
 4501              	.L609:
 4502 0010 00000000 		.word	.LANCHOR41
 4503 0014 00000000 		.word	.LANCHOR42
 4505              		.section	.text.modem_get_extended_callback,"ax",%progbits
 4506              		.align	1
 4507              		.global	modem_get_extended_callback
 4508              		.syntax unified
 4509              		.code	16
 4510              		.thumb_func
 4511              		.fpu softvfp
 4513              	modem_get_extended_callback:
 4514              		@ args = 0, pretend = 0, frame = 0
 4515              		@ frame_needed = 0, uses_anonymous_args = 0
 4516              		@ link register save eliminated.
 4517 0000 0300     		movs	r3, r0
 4518 0002 0128     		cmp	r0, #1
 4519 0004 02D1     		bne	.L612
 4520 0006 044B     		ldr	r3, .L616
 4521              	.L615:
 4522 0008 1868     		ldr	r0, [r3]
 4523              	.L611:
 4524              		@ sp needed
ARM GAS  /tmp/cc54pXIa.s 			page 78


 4525 000a 7047     		bx	lr
 4526              	.L612:
 4527 000c 0020     		movs	r0, #0
 4528 000e 022B     		cmp	r3, #2
 4529 0010 FBD1     		bne	.L611
 4530 0012 024B     		ldr	r3, .L616+4
 4531 0014 F8E7     		b	.L615
 4532              	.L617:
 4533 0016 C046     		.align	2
 4534              	.L616:
 4535 0018 00000000 		.word	.LANCHOR41
 4536 001c 00000000 		.word	.LANCHOR42
 4538              		.section	.text.modem_leave,"ax",%progbits
 4539              		.align	1
 4540              		.global	modem_leave
 4541              		.syntax unified
 4542              		.code	16
 4543              		.thumb_func
 4544              		.fpu softvfp
 4546              	modem_leave:
 4547              		@ args = 0, pretend = 0, frame = 0
 4548              		@ frame_needed = 0, uses_anonymous_args = 0
 4549 0000 10B5     		push	{r4, lr}
 4550 0002 0024     		movs	r4, #0
 4551              		@ sp needed
 4552 0004 0020     		movs	r0, #0
 4553 0006 FFF7FEFF 		bl	set_modem_status_modem_joined
 4554 000a FFF7FEFF 		bl	lorawan_api_join_status_clear
 4555 000e 0020     		movs	r0, #0
 4556 0010 FFF7FEFF 		bl	set_modem_status_joining
 4557 0014 0020     		movs	r0, #0
 4558 0016 FFF7FEFF 		bl	lorawan_api_class_b_enabled
 4559 001a 0020     		movs	r0, #0
 4560 001c FFF7FEFF 		bl	lorawan_api_class_c_enabled
 4561 0020 0020     		movs	r0, #0
 4562 0022 FFF7FEFF 		bl	set_modem_status_file_upload
 4563 0026 054B     		ldr	r3, .L619
 4564 0028 2000     		movs	r0, r4
 4565 002a 1C70     		strb	r4, [r3]
 4566 002c FFF7FEFF 		bl	set_modem_status_streaming
 4567 0030 034B     		ldr	r3, .L619+4
 4568 0032 5C70     		strb	r4, [r3, #1]
 4569 0034 FFF7FEFF 		bl	modem_supervisor_init_task
 4570 0038 10BD     		pop	{r4, pc}
 4571              	.L620:
 4572 003a C046     		.align	2
 4573              	.L619:
 4574 003c 00000000 		.word	.LANCHOR7
 4575 0040 00000000 		.word	.LANCHOR8
 4577              		.section	.bss.asynch_msg,"aw",%nobits
 4578              		.align	2
 4579              		.set	.LANCHOR35,. + 0
 4582              	asynch_msg:
 4583 0000 00000000 		.space	25
 4583      00000000 
 4583      00000000 
 4583      00000000 
ARM GAS  /tmp/cc54pXIa.s 			page 79


 4583      00000000 
 4584              		.section	.bss.asynchronous_msgnumber,"aw",%nobits
 4585              		.set	.LANCHOR16,. + 0
 4588              	asynchronous_msgnumber:
 4589 0000 00       		.space	1
 4590              		.section	.bss.charge_counter_to_send,"aw",%nobits
 4591              		.set	.LANCHOR21,. + 0
 4594              	charge_counter_to_send:
 4595 0000 00       		.space	1
 4596              		.section	.bss.dm_info_bitfield_now,"aw",%nobits
 4597              		.align	2
 4598              		.set	.LANCHOR10,. + 0
 4601              	dm_info_bitfield_now:
 4602 0000 00000000 		.space	4
 4603              		.section	.bss.dm_pending_dl,"aw",%nobits
 4604              		.align	1
 4605              		.set	.LANCHOR14,. + 0
 4608              	dm_pending_dl:
 4609 0000 0000     		.space	2
 4610              		.section	.bss.duty_cycle_disabled_by_host,"aw",%nobits
 4611              		.set	.LANCHOR23,. + 0
 4614              	duty_cycle_disabled_by_host:
 4615 0000 00       		.space	1
 4616              		.section	.bss.is_modem_in_test_mode,"aw",%nobits
 4617              		.set	.LANCHOR26,. + 0
 4620              	is_modem_in_test_mode:
 4621 0000 00       		.space	1
 4622              		.section	.bss.is_modem_reset_requested,"aw",%nobits
 4623              		.set	.LANCHOR17,. + 0
 4626              	is_modem_reset_requested:
 4627 0000 00       		.space	1
 4628              		.section	.bss.is_modem_suspend,"aw",%nobits
 4629              		.set	.LANCHOR4,. + 0
 4632              	is_modem_suspend:
 4633 0000 00       		.space	1
 4634              		.section	.bss.modem_adr_profile,"aw",%nobits
 4635              		.set	.LANCHOR24,. + 0
 4638              	modem_adr_profile:
 4639 0000 00       		.space	1
 4640              		.section	.bss.modem_appkey_crc,"aw",%nobits
 4641              		.align	2
 4642              		.set	.LANCHOR31,. + 0
 4645              	modem_appkey_crc:
 4646 0000 00000000 		.space	4
 4647              		.section	.bss.modem_appstatus,"aw",%nobits
 4648              		.align	2
 4649              		.set	.LANCHOR32,. + 0
 4652              	modem_appstatus:
 4653 0000 00000000 		.space	8
 4653      00000000 
 4654              		.section	.bss.modem_charge_offset,"aw",%nobits
 4655              		.align	2
 4656              		.set	.LANCHOR18,. + 0
 4659              	modem_charge_offset:
 4660 0000 00000000 		.space	4
 4661              		.section	.bss.modem_dm_class,"aw",%nobits
 4662              		.set	.LANCHOR3,. + 0
ARM GAS  /tmp/cc54pXIa.s 			page 80


 4665              	modem_dm_class:
 4666 0000 00       		.space	1
 4667              		.section	.bss.modem_dm_upload_sctr,"aw",%nobits
 4668              		.set	.LANCHOR6,. + 0
 4671              	modem_dm_upload_sctr:
 4672 0000 00       		.space	1
 4673              		.section	.bss.modem_dwn_pkt,"aw",%nobits
 4674              		.align	2
 4677              	modem_dwn_pkt:
 4678 0000 00000000 		.space	264
 4678      00000000 
 4678      00000000 
 4678      00000000 
 4678      00000000 
 4679              		.section	.bss.modem_event_count,"aw",%nobits
 4680              		.align	2
 4681              		.set	.LANCHOR33,. + 0
 4684              	modem_event_count:
 4685 0000 00000000 		.space	25
 4685      00000000 
 4685      00000000 
 4685      00000000 
 4685      00000000 
 4686              		.section	.bss.modem_event_status,"aw",%nobits
 4687              		.align	2
 4688              		.set	.LANCHOR34,. + 0
 4691              	modem_event_status:
 4692 0000 00000000 		.space	25
 4692      00000000 
 4692      00000000 
 4692      00000000 
 4692      00000000 
 4693              		.section	.bss.modem_lbm_notification_extended_1_callback,"aw",%nobits
 4694              		.align	2
 4695              		.set	.LANCHOR41,. + 0
 4698              	modem_lbm_notification_extended_1_callback:
 4699 0000 00000000 		.space	4
 4700              		.section	.bss.modem_lbm_notification_extended_2_callback,"aw",%nobits
 4701              		.align	2
 4702              		.set	.LANCHOR42,. + 0
 4705              	modem_lbm_notification_extended_2_callback:
 4706 0000 00000000 		.space	4
 4707              		.section	.bss.modem_radio_ctx,"aw",%nobits
 4708              		.align	2
 4709              		.set	.LANCHOR40,. + 0
 4712              	modem_radio_ctx:
 4713 0000 00000000 		.space	4
 4714              		.section	.bss.modem_rf_output,"aw",%nobits
 4715              		.set	.LANCHOR22,. + 0
 4718              	modem_rf_output:
 4719 0000 00       		.space	1
 4720              		.section	.bss.modem_rp,"aw",%nobits
 4721              		.align	2
 4722              		.set	.LANCHOR29,. + 0
 4725              	modem_rp:
 4726 0000 00000000 		.space	4
 4727              		.section	.bss.modem_start_time,"aw",%nobits
ARM GAS  /tmp/cc54pXIa.s 			page 81


 4728              		.align	2
 4729              		.set	.LANCHOR5,. + 0
 4732              	modem_start_time:
 4733 0000 00000000 		.space	4
 4734              		.section	.bss.modem_status,"aw",%nobits
 4735              		.set	.LANCHOR0,. + 0
 4738              	modem_status:
 4739 0000 00       		.space	1
 4740              		.section	.bss.modem_upload_state,"aw",%nobits
 4741              		.set	.LANCHOR7,. + 0
 4744              	modem_upload_state:
 4745 0000 00       		.space	1
 4746              		.section	.bss.nb_adr_mobile_timeout,"aw",%nobits
 4747              		.align	1
 4748              		.set	.LANCHOR25,. + 0
 4751              	nb_adr_mobile_timeout:
 4752 0000 0000     		.space	2
 4753              		.section	.bss.number_of_muted_day,"aw",%nobits
 4754              		.set	.LANCHOR13,. + 0
 4757              	number_of_muted_day:
 4758 0000 00       		.space	1
 4759              		.section	.bss.power_config_lut,"aw",%nobits
 4760              		.set	.LANCHOR36,. + 0
 4763              	power_config_lut:
 4764 0000 00000000 		.space	30
 4764      00000000 
 4764      00000000 
 4764      00000000 
 4764      00000000 
 4765              		.section	.bss.rx_pathloss_db,"aw",%nobits
 4766              		.set	.LANCHOR27,. + 0
 4769              	rx_pathloss_db:
 4770 0000 00       		.space	1
 4771              		.section	.bss.start_time_was_set,"aw",%nobits
 4772              		.set	.LANCHOR19,. + 0
 4775              	start_time_was_set:
 4776 0000 00       		.space	1
 4777              		.section	.bss.tag_number,"aw",%nobits
 4778              		.set	.LANCHOR11,. + 0
 4781              	tag_number:
 4782 0000 00       		.space	1
 4783              		.section	.bss.tag_number_now,"aw",%nobits
 4784              		.set	.LANCHOR12,. + 0
 4787              	tag_number_now:
 4788 0000 00       		.space	1
 4789              		.section	.bss.tx_power_offset_db,"aw",%nobits
 4790              		.set	.LANCHOR28,. + 0
 4793              	tx_power_offset_db:
 4794 0000 00       		.space	1
 4795              		.section	.bss.user_define_charge_counter,"aw",%nobits
 4796              		.align	1
 4797              		.set	.LANCHOR20,. + 0
 4800              	user_define_charge_counter:
 4801 0000 0000     		.space	2
 4802              		.section	.data.dm_info_bitfield_periodic,"aw"
 4803              		.align	2
 4804              		.set	.LANCHOR9,. + 0
ARM GAS  /tmp/cc54pXIa.s 			page 82


 4807              	dm_info_bitfield_periodic:
 4808 0000 7B000000 		.word	123
 4809              		.section	.data.modem_appkey_status,"aw"
 4810              		.align	1
 4811              		.set	.LANCHOR30,. + 0
 4814              	modem_appkey_status:
 4815 0000 0100     		.short	1
 4816              		.section	.data.modem_dm_interval,"aw"
 4817              		.set	.LANCHOR1,. + 0
 4820              	modem_dm_interval:
 4821 0000 81       		.byte	-127
 4822              		.section	.data.modem_dm_port,"aw"
 4823              		.set	.LANCHOR2,. + 0
 4826              	modem_dm_port:
 4827 0000 C7       		.byte	-57
 4828              		.section	.data.modem_stream_state,"aw"
 4829              		.align	1
 4830              		.set	.LANCHOR8,. + 0
 4833              	modem_stream_state:
 4834 0000 C7       		.byte	-57
 4835 0001 00       		.byte	0
 4836 0002 00       		.byte	0
 4837              		.section	.data.user_alarm,"aw"
 4838              		.align	2
 4839              		.set	.LANCHOR15,. + 0
 4842              	user_alarm:
 4843 0000 FFFFFF7F 		.word	2147483647
 4844              		.section	.rodata.__func__.1,"a"
 4845              		.set	.LANCHOR38,. + 0
 4848              	__func__.1:
 4849 0000 6765745F 		.ascii	"get_modem_event_status\000"
 4849      6D6F6465 
 4849      6D5F6576 
 4849      656E745F 
 4849      73746174 
 4850              		.section	.rodata.__func__.2,"a"
 4851              		.set	.LANCHOR37,. + 0
 4854              	__func__.2:
 4855 0000 6765745F 		.ascii	"get_modem_event_count\000"
 4855      6D6F6465 
 4855      6D5F6576 
 4855      656E745F 
 4855      636F756E 
 4856              		.section	.rodata.dm_info_field_sz,"a"
 4857              		.align	2
 4858              		.set	.LANCHOR39,. + 0
 4861              	dm_info_field_sz:
 4862 0000 01020101 		.ascii	"\001\002\001\001\002\002\002\010\001\010\001\001\004"
 4862      02020208 
 4862      01080101 
 4862      04
 4863 000d 00000208 		.ascii	"\000\000\002\010\002\002\010\000\002\010\000\007\000"
 4863      02020800 
 4863      02080007 
 4863      00
 4864 001a 0000     		.space	2
 4865              		.ident	"GCC: (15:10.3-2021.07-4) 10.3.1 20210621 (release)"
ARM GAS  /tmp/cc54pXIa.s 			page 83


ARM GAS  /tmp/cc54pXIa.s 			page 84

