ARM GAS  /tmp/cce3oyOQ.s 			page 1


   1              		.cpu cortex-m0
   2              		.eabi_attribute 23, 1
   3              		.eabi_attribute 24, 1
   4              		.eabi_attribute 25, 1
   5              		.eabi_attribute 26, 1
   6              		.eabi_attribute 30, 4
   7              		.eabi_attribute 34, 0
   8              		.eabi_attribute 18, 4
   9              		.file	"region_eu_868.c"
  10              		.text
  11              		.section	.text.region_eu_868_config,"ax",%progbits
  12              		.align	1
  13              		.global	region_eu_868_config
  14              		.arch armv6s-m
  15              		.syntax unified
  16              		.code	16
  17              		.thumb_func
  18              		.fpu softvfp
  20              	region_eu_868_config:
  21              		@ args = 0, pretend = 0, frame = 0
  22              		@ frame_needed = 0, uses_anonymous_args = 0
  23 0000 836B     		ldr	r3, [r0, #56]
  24 0002 F7B5     		push	{r0, r1, r2, r4, r5, r6, r7, lr}
  25 0004 414A     		ldr	r2, .L4
  26 0006 0500     		movs	r5, r0
  27 0008 5A60     		str	r2, [r3, #4]
  28 000a 414A     		ldr	r2, .L4+4
  29 000c 6420     		movs	r0, #100
  30 000e 9A60     		str	r2, [r3, #8]
  31 0010 8122     		movs	r2, #129
  32 0012 9201     		lsls	r2, r2, #6
  33 0014 9A81     		strh	r2, [r3, #12]
  34 0016 3F4A     		ldr	r2, .L4+8
  35 0018 591D     		adds	r1, r3, #5
  36 001a 1A61     		str	r2, [r3, #16]
  37 001c 0222     		movs	r2, #2
  38 001e 1A75     		strb	r2, [r3, #20]
  39 0020 3D4A     		ldr	r2, .L4+12
  40 0022 0024     		movs	r4, #0
  41 0024 9A61     		str	r2, [r3, #24]
  42 0026 3D4A     		ldr	r2, .L4+16
  43 0028 3D4E     		ldr	r6, .L4+20
  44 002a DA61     		str	r2, [r3, #28]
  45 002c 3D4A     		ldr	r2, .L4+24
  46 002e 1A62     		str	r2, [r3, #32]
  47 0030 C877     		strb	r0, [r1, #31]
  48 0032 9021     		movs	r1, #144
  49 0034 4901     		lsls	r1, r1, #5
  50 0036 9985     		strh	r1, [r3, #44]
  51 0038 1900     		movs	r1, r3
  52 003a 3038     		subs	r0, r0, #48
  53 003c 2E31     		adds	r1, r1, #46
  54 003e 0870     		strb	r0, [r1]
  55 0040 3949     		ldr	r1, .L4+28
  56 0042 0220     		movs	r0, #2
  57 0044 1963     		str	r1, [r3, #48]
  58 0046 3949     		ldr	r1, .L4+32
ARM GAS  /tmp/cce3oyOQ.s 			page 2


  59 0048 FF30     		adds	r0, r0, #255
  60 004a 5963     		str	r1, [r3, #52]
  61 004c B021     		movs	r1, #176
  62 004e 0905     		lsls	r1, r1, #20
  63 0050 9963     		str	r1, [r3, #56]
  64 0052 3749     		ldr	r1, .L4+36
  65 0054 DE65     		str	r6, [r3, #92]
  66 0056 D963     		str	r1, [r3, #60]
  67 0058 3649     		ldr	r1, .L4+40
  68 005a 1964     		str	r1, [r3, #64]
  69 005c 991D     		adds	r1, r3, #6
  70 005e C887     		strh	r0, [r1, #62]
  71 0060 4031     		adds	r1, r1, #64
  72 0062 0C70     		strb	r4, [r1]
  73 0064 0521     		movs	r1, #5
  74 0066 9964     		str	r1, [r3, #72]
  75 0068 1900     		movs	r1, r3
  76 006a 5238     		subs	r0, r0, #82
  77 006c 4C31     		adds	r1, r1, #76
  78 006e FF38     		subs	r0, r0, #255
  79 0070 0880     		strh	r0, [r1]
  80 0072 3149     		ldr	r1, .L4+44
  81 0074 3148     		ldr	r0, .L4+48
  82 0076 1965     		str	r1, [r3, #80]
  83 0078 3149     		ldr	r1, .L4+52
  84 007a 5965     		str	r1, [r3, #84]
  85 007c 1900     		movs	r1, r3
  86 007e 5831     		adds	r1, r1, #88
  87 0080 0880     		strh	r0, [r1]
  88 0082 3049     		ldr	r1, .L4+56
  89 0084 C020     		movs	r0, #192
  90 0086 1966     		str	r1, [r3, #96]
  91 0088 2F49     		ldr	r1, .L4+60
  92 008a 8000     		lsls	r0, r0, #2
  93 008c 5966     		str	r1, [r3, #100]
  94 008e 2F49     		ldr	r1, .L4+64
  95 0090 9966     		str	r1, [r3, #104]
  96 0092 2F49     		ldr	r1, .L4+68
  97 0094 D966     		str	r1, [r3, #108]
  98 0096 1900     		movs	r1, r3
  99 0098 7031     		adds	r1, r1, #112
 100 009a 0880     		strh	r0, [r1]
 101 009c 5A67     		str	r2, [r3, #116]
 102 009e 9A67     		str	r2, [r3, #120]
 103 00a0 1A00     		movs	r2, r3
 104 00a2 1800     		movs	r0, r3
 105 00a4 A432     		adds	r2, r2, #164
 106 00a6 DA67     		str	r2, [r3, #124]
 107 00a8 7431     		adds	r1, r1, #116
 108 00aa 1A1D     		adds	r2, r3, #4
 109 00ac D167     		str	r1, [r2, #124]
 110 00ae 0432     		adds	r2, r2, #4
 111 00b0 7831     		adds	r1, r1, #120
 112 00b2 D167     		str	r1, [r2, #124]
 113 00b4 4530     		adds	r0, r0, #69
 114 00b6 8032     		adds	r2, r2, #128
 115 00b8 0231     		adds	r1, r1, #2
ARM GAS  /tmp/cce3oyOQ.s 			page 3


 116 00ba 5133     		adds	r3, r3, #81
 117 00bc 1160     		str	r1, [r2]
 118 00be FF30     		adds	r0, r0, #255
 119 00c0 FF33     		adds	r3, r3, #255
 120 00c2 3A39     		subs	r1, r1, #58
 121 00c4 D160     		str	r1, [r2, #12]
 122 00c6 1061     		str	r0, [r2, #16]
 123 00c8 5361     		str	r3, [r2, #20]
 124 00ca 0121     		movs	r1, #1
 125 00cc 0C22     		movs	r2, #12
 126 00ce FFF7FEFF 		bl	memset1
 127 00d2 A86B     		ldr	r0, [r5, #56]
 128 00d4 2100     		movs	r1, r4
 129 00d6 0300     		movs	r3, r0
 130 00d8 5130     		adds	r0, r0, #81
 131 00da 4233     		adds	r3, r3, #66
 132 00dc 1A78     		ldrb	r2, [r3]
 133 00de FF30     		adds	r0, r0, #255
 134 00e0 FFF7FEFF 		bl	memset1
 135 00e4 1B4F     		ldr	r7, .L4+72
 136              	.L2:
 137 00e6 AB6B     		ldr	r3, [r5, #56]
 138 00e8 5933     		adds	r3, r3, #89
 139 00ea 1978     		ldrb	r1, [r3]
 140 00ec A142     		cmp	r1, r4
 141 00ee 00DC     		bgt	.L3
 142              		@ sp needed
 143 00f0 F7BD     		pop	{r0, r1, r2, r4, r5, r6, r7, pc}
 144              	.L3:
 145 00f2 7868     		ldr	r0, [r7, #4]
 146 00f4 6300     		lsls	r3, r4, #1
 147 00f6 0190     		str	r0, [sp, #4]
 148 00f8 3868     		ldr	r0, [r7]
 149 00fa E2B2     		uxtb	r2, r4
 150 00fc 0090     		str	r0, [sp]
 151 00fe F35A     		ldrh	r3, [r6, r3]
 152 0100 E86B     		ldr	r0, [r5, #60]
 153 0102 FFF7FEFF 		bl	smtc_duty_cycle_config
 154 0106 0134     		adds	r4, r4, #1
 155 0108 0837     		adds	r7, r7, #8
 156 010a ECE7     		b	.L2
 157              	.L5:
 158              		.align	2
 159              	.L4:
 160 010c 10100302 		.word	33755152
 161 0110 05010E07 		.word	118358277
 162 0114 00000000 		.word	.LANCHOR0
 163 0118 C0557033 		.word	863000000
 164 011c 8025DB33 		.word	870000000
 165 0120 00000000 		.word	.LANCHOR3
 166 0124 08E6D333 		.word	869525000
 167 0128 00000000 		.word	.LANCHOR1
 168 012c 00000000 		.word	.LANCHOR2
 169 0130 0706FF00 		.word	16713223
 170 0134 3F000C00 		.word	786495
 171 0138 400D0300 		.word	200000
 172 013c 01060000 		.word	1537
ARM GAS  /tmp/cce3oyOQ.s 			page 4


 173 0140 00000000 		.word	.LANCHOR4
 174 0144 00000000 		.word	.LANCHOR5
 175 0148 00000000 		.word	.LANCHOR6
 176 014c 00000000 		.word	.LANCHOR7
 177 0150 00000000 		.word	.LANCHOR8
 178 0154 00000000 		.word	.LANCHOR9
 180              		.section	.text.region_eu_868_init,"ax",%progbits
 181              		.align	1
 182              		.global	region_eu_868_init
 183              		.syntax unified
 184              		.code	16
 185              		.thumb_func
 186              		.fpu softvfp
 188              	region_eu_868_init:
 189              		@ args = 0, pretend = 0, frame = 0
 190              		@ frame_needed = 0, uses_anonymous_args = 0
 191 0000 70B5     		push	{r4, r5, r6, lr}
 192 0002 0500     		movs	r5, r0
 193 0004 0026     		movs	r6, #0
 194              	.L7:
 195 0006 A86B     		ldr	r0, [r5, #56]
 196 0008 0022     		movs	r2, #0
 197 000a 0379     		ldrb	r3, [r0, #4]
 198 000c B342     		cmp	r3, r6
 199 000e 0BDC     		bgt	.L8
 200 0010 1400     		movs	r4, r2
 201              	.L9:
 202 0012 A86B     		ldr	r0, [r5, #56]
 203 0014 8379     		ldrb	r3, [r0, #6]
 204 0016 A342     		cmp	r3, r4
 205 0018 1CD8     		bhi	.L10
 206              		@ sp needed
 207 001a 5F30     		adds	r0, r0, #95
 208 001c 0222     		movs	r2, #2
 209 001e FF21     		movs	r1, #255
 210 0020 FF30     		adds	r0, r0, #255
 211 0022 FFF7FEFF 		bl	memset1
 212 0026 70BD     		pop	{r4, r5, r6, pc}
 213              	.L8:
 214 0028 B300     		lsls	r3, r6, #2
 215 002a C318     		adds	r3, r0, r3
 216 002c 1900     		movs	r1, r3
 217 002e 5D30     		adds	r0, r0, #93
 218 0030 E433     		adds	r3, r3, #228
 219 0032 A431     		adds	r1, r1, #164
 220 0034 0A60     		str	r2, [r1]
 221 0036 FF30     		adds	r0, r0, #255
 222 0038 1A60     		str	r2, [r3]
 223 003a F1B2     		uxtb	r1, r6
 224 003c FFF7FEFF 		bl	SMTC_PUT_BIT8
 225 0040 3300     		movs	r3, r6
 226 0042 AA6B     		ldr	r2, [r5, #56]
 227 0044 9033     		adds	r3, r3, #144
 228 0046 5B00     		lsls	r3, r3, #1
 229 0048 D318     		adds	r3, r2, r3
 230 004a 0232     		adds	r2, r2, #2
 231 004c D28F     		ldrh	r2, [r2, #62]
ARM GAS  /tmp/cce3oyOQ.s 			page 5


 232 004e 0136     		adds	r6, r6, #1
 233 0050 9A80     		strh	r2, [r3, #4]
 234 0052 D8E7     		b	.L7
 235              	.L10:
 236 0054 084A     		ldr	r2, .L11
 237 0056 A300     		lsls	r3, r4, #2
 238 0058 9A58     		ldr	r2, [r3, r2]
 239 005a C318     		adds	r3, r0, r3
 240 005c 1900     		movs	r1, r3
 241 005e 5D30     		adds	r0, r0, #93
 242 0060 A431     		adds	r1, r1, #164
 243 0062 E433     		adds	r3, r3, #228
 244 0064 0A60     		str	r2, [r1]
 245 0066 FF30     		adds	r0, r0, #255
 246 0068 2100     		movs	r1, r4
 247 006a 1A60     		str	r2, [r3]
 248 006c 0134     		adds	r4, r4, #1
 249 006e 0122     		movs	r2, #1
 250 0070 FFF7FEFF 		bl	SMTC_PUT_BIT8
 251 0074 E4B2     		uxtb	r4, r4
 252 0076 CCE7     		b	.L9
 253              	.L12:
 254              		.align	2
 255              	.L11:
 256 0078 00000000 		.word	.LANCHOR10
 258              		.section	.rodata.region_eu_868_get_next_channel.str1.1,"aMS",%progbits,1
 259              	.LC11:
 260 0000 1B5B303B 		.ascii	"\033[0;33mWARN: NO CHANNELS AVAILABLE \012\000"
 260      33336D57 
 260      41524E3A 
 260      204E4F20 
 260      4348414E 
 261              	.LC13:
 262 0025 1B5B306D 		.ascii	"\033[0m\000"
 262      00
 263              		.global	__aeabi_uidivmod
 264              	.LC15:
 265 002a 494E5641 		.ascii	"INVALID CHANNEL  active channel = %d and random cha"
 265      4C494420 
 265      4348414E 
 265      4E454C20 
 265      20616374 
 266 005d 6E6E656C 		.ascii	"nnel = %d \012\000"
 266      203D2025 
 266      64200A00 
 267              		.section	.text.region_eu_868_get_next_channel,"ax",%progbits
 268              		.align	1
 269              		.global	region_eu_868_get_next_channel
 270              		.syntax unified
 271              		.code	16
 272              		.thumb_func
 273              		.fpu softvfp
 275              	region_eu_868_get_next_channel:
 276              		@ args = 0, pretend = 0, frame = 16
 277              		@ frame_needed = 0, uses_anonymous_args = 0
 278 0000 7FB5     		push	{r0, r1, r2, r3, r4, r5, r6, lr}
 279 0002 0025     		movs	r5, #0
ARM GAS  /tmp/cce3oyOQ.s 			page 6


 280 0004 0400     		movs	r4, r0
 281 0006 2E00     		movs	r6, r5
 282              	.L14:
 283 0008 A06B     		ldr	r0, [r4, #56]
 284 000a 0379     		ldrb	r3, [r0, #4]
 285 000c AB42     		cmp	r3, r5
 286 000e 0BD8     		bhi	.L16
 287 0010 002E     		cmp	r6, #0
 288 0012 2ED1     		bne	.L17
 289 0014 2648     		ldr	r0, .L24
 290 0016 FFF7FEFF 		bl	smtc_modem_hal_print_trace
 291 001a 2648     		ldr	r0, .L24+4
 292 001c FFF7FEFF 		bl	smtc_modem_hal_print_trace
 293              	.L23:
 294 0020 0120     		movs	r0, #1
 295 0022 4042     		rsbs	r0, r0, #0
 296              	.L18:
 297 0024 04B0     		add	sp, sp, #16
 298              		@ sp needed
 299 0026 70BD     		pop	{r4, r5, r6, pc}
 300              	.L16:
 301 0028 5D30     		adds	r0, r0, #93
 302 002a 2900     		movs	r1, r5
 303 002c FF30     		adds	r0, r0, #255
 304 002e FFF7FEFF 		bl	SMTC_GET_BIT8
 305 0032 0128     		cmp	r0, #1
 306 0034 1AD1     		bne	.L15
 307 0036 2B00     		movs	r3, r5
 308 0038 A26B     		ldr	r2, [r4, #56]
 309 003a 2833     		adds	r3, r3, #40
 310 003c 9B00     		lsls	r3, r3, #2
 311 003e D318     		adds	r3, r2, r3
 312 0040 5968     		ldr	r1, [r3, #4]
 313 0042 E06B     		ldr	r0, [r4, #60]
 314 0044 FFF7FEFF 		bl	smtc_duty_cycle_is_channel_free
 315 0048 0028     		cmp	r0, #0
 316 004a 0FD0     		beq	.L15
 317 004c 2300     		movs	r3, r4
 318 004e 2800     		movs	r0, r5
 319 0050 4E33     		adds	r3, r3, #78
 320 0052 1978     		ldrb	r1, [r3]
 321 0054 9230     		adds	r0, r0, #146
 322 0056 A36B     		ldr	r3, [r4, #56]
 323 0058 4000     		lsls	r0, r0, #1
 324 005a 1818     		adds	r0, r3, r0
 325 005c FFF7FEFF 		bl	SMTC_GET_BIT16
 326 0060 0128     		cmp	r0, #1
 327 0062 03D1     		bne	.L15
 328 0064 6B46     		mov	r3, sp
 329 0066 9D55     		strb	r5, [r3, r6]
 330 0068 0136     		adds	r6, r6, #1
 331 006a F6B2     		uxtb	r6, r6
 332              	.L15:
 333 006c 0135     		adds	r5, r5, #1
 334 006e EDB2     		uxtb	r5, r5
 335 0070 CAE7     		b	.L14
 336              	.L17:
ARM GAS  /tmp/cce3oyOQ.s 			page 7


 337 0072 711E     		subs	r1, r6, #1
 338 0074 0020     		movs	r0, #0
 339 0076 FFF7FEFF 		bl	smtc_modem_hal_get_random_nb_in_range
 340 007a 3100     		movs	r1, r6
 341 007c FFF7FEFF 		bl	__aeabi_uidivmod
 342 0080 6B46     		mov	r3, sp
 343 0082 A06B     		ldr	r0, [r4, #56]
 344 0084 0A00     		movs	r2, r1
 345 0086 5B5C     		ldrb	r3, [r3, r1]
 346 0088 0179     		ldrb	r1, [r0, #4]
 347 008a 9942     		cmp	r1, r3
 348 008c 04D8     		bhi	.L19
 349 008e 3100     		movs	r1, r6
 350 0090 0948     		ldr	r0, .L24+8
 351 0092 FFF7FEFF 		bl	smtc_modem_hal_print_trace
 352 0096 C3E7     		b	.L23
 353              	.L19:
 354 0098 2833     		adds	r3, r3, #40
 355 009a 9B00     		lsls	r3, r3, #2
 356 009c C318     		adds	r3, r0, r3
 357 009e 5968     		ldr	r1, [r3, #4]
 358 00a0 5A6C     		ldr	r2, [r3, #68]
 359 00a2 9623     		movs	r3, #150
 360 00a4 DB00     		lsls	r3, r3, #3
 361 00a6 E150     		str	r1, [r4, r3]
 362 00a8 044B     		ldr	r3, .L24+12
 363 00aa 0020     		movs	r0, #0
 364 00ac E250     		str	r2, [r4, r3]
 365 00ae B9E7     		b	.L18
 366              	.L25:
 367              		.align	2
 368              	.L24:
 369 00b0 00000000 		.word	.LC11
 370 00b4 25000000 		.word	.LC13
 371 00b8 2A000000 		.word	.LC15
 372 00bc B4040000 		.word	1204
 374              		.section	.text.region_eu_868_get_join_next_channel,"ax",%progbits
 375              		.align	1
 376              		.global	region_eu_868_get_join_next_channel
 377              		.syntax unified
 378              		.code	16
 379              		.thumb_func
 380              		.fpu softvfp
 382              	region_eu_868_get_join_next_channel:
 383              		@ args = 0, pretend = 0, frame = 0
 384              		@ frame_needed = 0, uses_anonymous_args = 0
 385 0000 10B5     		push	{r4, lr}
 386 0002 FFF7FEFF 		bl	region_eu_868_get_next_channel
 387              		@ sp needed
 388 0006 10BD     		pop	{r4, pc}
 390              		.section	.rodata.region_eu_868_set_rx_config.str1.1,"aMS",%progbits,1
 391              	.LC18:
 392 0000 1B5B303B 		.ascii	"\033[0;33mWARN: INVALID RX TYPE \012\000"
 392      33336D57 
 392      41524E3A 
 392      20494E56 
 392      414C4944 
ARM GAS  /tmp/cce3oyOQ.s 			page 8


 393              		.section	.text.region_eu_868_set_rx_config,"ax",%progbits
 394              		.align	1
 395              		.global	region_eu_868_set_rx_config
 396              		.syntax unified
 397              		.code	16
 398              		.thumb_func
 399              		.fpu softvfp
 401              	region_eu_868_set_rx_config:
 402              		@ args = 0, pretend = 0, frame = 0
 403              		@ frame_needed = 0, uses_anonymous_args = 0
 404 0000 10B5     		push	{r4, lr}
 405 0002 0029     		cmp	r1, #0
 406 0004 0CD1     		bne	.L28
 407 0006 0300     		movs	r3, r0
 408 0008 4E33     		adds	r3, r3, #78
 409 000a 1A78     		ldrb	r2, [r3]
 410 000c 997A     		ldrb	r1, [r3, #10]
 411 000e 0623     		movs	r3, #6
 412 0010 5A43     		muls	r2, r3
 413 0012 0A4B     		ldr	r3, .L32
 414 0014 9B18     		adds	r3, r3, r2
 415 0016 5A5C     		ldrb	r2, [r3, r1]
 416              	.L31:
 417 0018 9723     		movs	r3, #151
 418 001a DB00     		lsls	r3, r3, #3
 419 001c C254     		strb	r2, [r0, r3]
 420              	.L27:
 421              		@ sp needed
 422 001e 10BD     		pop	{r4, pc}
 423              	.L28:
 424 0020 0129     		cmp	r1, #1
 425 0022 03D1     		bne	.L30
 426 0024 0300     		movs	r3, r0
 427 0026 5333     		adds	r3, r3, #83
 428 0028 1A78     		ldrb	r2, [r3]
 429 002a F5E7     		b	.L31
 430              	.L30:
 431 002c 0448     		ldr	r0, .L32+4
 432 002e FFF7FEFF 		bl	smtc_modem_hal_print_trace
 433 0032 0448     		ldr	r0, .L32+8
 434 0034 FFF7FEFF 		bl	smtc_modem_hal_print_trace
 435 0038 F1E7     		b	.L27
 436              	.L33:
 437 003a C046     		.align	2
 438              	.L32:
 439 003c 00000000 		.word	.LANCHOR11
 440 0040 00000000 		.word	.LC18
 441 0044 25000000 		.word	.LC13
 443              		.section	.rodata.region_eu_868_set_channel_mask.str1.1,"aMS",%progbits,1
 444              	.LC21:
 445 0000 20256420 		.ascii	" %d \000"
 445      00
 446              	.LC23:
 447 0005 200A00   		.ascii	" \012\000"
 448              	.LC26:
 449 0008 25732573 		.ascii	"%s%s\000"
 449      00
ARM GAS  /tmp/cce3oyOQ.s 			page 9


 450              		.section	.text.region_eu_868_set_channel_mask,"ax",%progbits
 451              		.align	1
 452              		.global	region_eu_868_set_channel_mask
 453              		.syntax unified
 454              		.code	16
 455              		.thumb_func
 456              		.fpu softvfp
 458              	region_eu_868_set_channel_mask:
 459              		@ args = 0, pretend = 0, frame = 0
 460              		@ frame_needed = 0, uses_anonymous_args = 0
 461 0000 70B5     		push	{r4, r5, r6, lr}
 462 0002 0500     		movs	r5, r0
 463 0004 806B     		ldr	r0, [r0, #56]
 464 0006 0222     		movs	r2, #2
 465 0008 0100     		movs	r1, r0
 466 000a 5D30     		adds	r0, r0, #93
 467 000c 5F31     		adds	r1, r1, #95
 468 000e FF31     		adds	r1, r1, #255
 469 0010 FF30     		adds	r0, r0, #255
 470 0012 FFF7FEFF 		bl	memcpy1
 471 0016 0024     		movs	r4, #0
 472              	.L35:
 473 0018 A86B     		ldr	r0, [r5, #56]
 474 001a 0279     		ldrb	r2, [r0, #4]
 475 001c A242     		cmp	r2, r4
 476 001e 05D8     		bhi	.L36
 477              		@ sp needed
 478 0020 084A     		ldr	r2, .L37
 479 0022 0949     		ldr	r1, .L37+4
 480 0024 0948     		ldr	r0, .L37+8
 481 0026 FFF7FEFF 		bl	smtc_modem_hal_print_trace
 482 002a 70BD     		pop	{r4, r5, r6, pc}
 483              	.L36:
 484 002c 5D30     		adds	r0, r0, #93
 485 002e 2100     		movs	r1, r4
 486 0030 FF30     		adds	r0, r0, #255
 487 0032 FFF7FEFF 		bl	SMTC_GET_BIT8
 488 0036 0134     		adds	r4, r4, #1
 489 0038 0100     		movs	r1, r0
 490 003a 0548     		ldr	r0, .L37+12
 491 003c FFF7FEFF 		bl	smtc_modem_hal_print_trace
 492 0040 E4B2     		uxtb	r4, r4
 493 0042 E9E7     		b	.L35
 494              	.L38:
 495              		.align	2
 496              	.L37:
 497 0044 05000000 		.word	.LC23
 498 0048 25000000 		.word	.LC13
 499 004c 08000000 		.word	.LC26
 500 0050 00000000 		.word	.LC21
 502              		.section	.rodata.region_eu_868_build_channel_mask.str1.1,"aMS",%progbits,1
 503              	.LC28:
 504 0000 556E7772 		.ascii	"UnwrappedChannelMask = 0x\000"
 504      61707065 
 504      64436861 
 504      6E6E656C 
 504      4D61736B 
ARM GAS  /tmp/cce3oyOQ.s 			page 10


 505              	.LC30:
 506 001a 25782000 		.ascii	"%x \000"
 507              	.LC32:
 508 001e 2C204368 		.ascii	", ChMask = 0x%x\012\000"
 508      4D61736B 
 508      203D2030 
 508      7825780A 
 508      00
 509              		.section	.text.region_eu_868_build_channel_mask,"ax",%progbits
 510              		.align	1
 511              		.global	region_eu_868_build_channel_mask
 512              		.syntax unified
 513              		.code	16
 514              		.thumb_func
 515              		.fpu softvfp
 517              	region_eu_868_build_channel_mask:
 518              		@ args = 0, pretend = 0, frame = 8
 519              		@ frame_needed = 0, uses_anonymous_args = 0
 520 0000 73B5     		push	{r0, r1, r4, r5, r6, lr}
 521 0002 6B46     		mov	r3, sp
 522 0004 0500     		movs	r5, r0
 523 0006 806B     		ldr	r0, [r0, #56]
 524 0008 0C00     		movs	r4, r1
 525 000a 5F30     		adds	r0, r0, #95
 526 000c DA80     		strh	r2, [r3, #6]
 527 000e FF30     		adds	r0, r0, #255
 528 0010 0029     		cmp	r1, #0
 529 0012 0FD0     		beq	.L40
 530 0014 0629     		cmp	r1, #6
 531 0016 44D0     		beq	.L41
 532 0018 0224     		movs	r4, #2
 533 001a 6442     		rsbs	r4, r4, #0
 534              	.L42:
 535 001c A86B     		ldr	r0, [r5, #56]
 536 001e 0221     		movs	r1, #2
 537 0020 5F30     		adds	r0, r0, #95
 538 0022 FF30     		adds	r0, r0, #255
 539 0024 FFF7FEFF 		bl	SMTC_ARE_CLR_BYTE8
 540 0028 0128     		cmp	r0, #1
 541 002a 01D1     		bne	.L50
 542 002c 0124     		movs	r4, #1
 543 002e 6442     		rsbs	r4, r4, #0
 544              	.L50:
 545 0030 2000     		movs	r0, r4
 546              		@ sp needed
 547 0032 76BD     		pop	{r1, r2, r4, r5, r6, pc}
 548              	.L40:
 549 0034 6B46     		mov	r3, sp
 550 0036 0222     		movs	r2, #2
 551 0038 991D     		adds	r1, r3, #6
 552 003a FFF7FEFF 		bl	memcpy1
 553              	.L43:
 554 003e A86B     		ldr	r0, [r5, #56]
 555 0040 0379     		ldrb	r3, [r0, #4]
 556 0042 A342     		cmp	r3, r4
 557 0044 18D8     		bhi	.L46
 558 0046 0024     		movs	r4, #0
ARM GAS  /tmp/cce3oyOQ.s 			page 11


 559              	.L45:
 560 0048 2348     		ldr	r0, .L55
 561 004a FFF7FEFF 		bl	smtc_modem_hal_print_trace
 562 004e AF23     		movs	r3, #175
 563 0050 AA6B     		ldr	r2, [r5, #56]
 564 0052 224E     		ldr	r6, .L55+4
 565 0054 5B00     		lsls	r3, r3, #1
 566 0056 D15C     		ldrb	r1, [r2, r3]
 567 0058 3000     		movs	r0, r6
 568 005a FFF7FEFF 		bl	smtc_modem_hal_print_trace
 569 005e 6023     		movs	r3, #96
 570 0060 AA6B     		ldr	r2, [r5, #56]
 571 0062 FF33     		adds	r3, r3, #255
 572 0064 D15C     		ldrb	r1, [r2, r3]
 573 0066 3000     		movs	r0, r6
 574 0068 FFF7FEFF 		bl	smtc_modem_hal_print_trace
 575 006c 6B46     		mov	r3, sp
 576 006e 1C48     		ldr	r0, .L55+8
 577 0070 D988     		ldrh	r1, [r3, #6]
 578 0072 FFF7FEFF 		bl	smtc_modem_hal_print_trace
 579 0076 D1E7     		b	.L42
 580              	.L46:
 581 0078 5F30     		adds	r0, r0, #95
 582 007a 2100     		movs	r1, r4
 583 007c FF30     		adds	r0, r0, #255
 584 007e FFF7FEFF 		bl	SMTC_GET_BIT8
 585 0082 0128     		cmp	r0, #1
 586 0084 07D1     		bne	.L44
 587 0086 2300     		movs	r3, r4
 588 0088 AA6B     		ldr	r2, [r5, #56]
 589 008a 2833     		adds	r3, r3, #40
 590 008c 9B00     		lsls	r3, r3, #2
 591 008e D318     		adds	r3, r2, r3
 592 0090 5B68     		ldr	r3, [r3, #4]
 593 0092 002B     		cmp	r3, #0
 594 0094 02D0     		beq	.L51
 595              	.L44:
 596 0096 0134     		adds	r4, r4, #1
 597 0098 E4B2     		uxtb	r4, r4
 598 009a D0E7     		b	.L43
 599              	.L51:
 600 009c 0124     		movs	r4, #1
 601 009e 6442     		rsbs	r4, r4, #0
 602 00a0 D2E7     		b	.L45
 603              	.L41:
 604 00a2 0222     		movs	r2, #2
 605 00a4 0021     		movs	r1, #0
 606 00a6 FFF7FEFF 		bl	memset1
 607 00aa 0024     		movs	r4, #0
 608              	.L47:
 609 00ac A86B     		ldr	r0, [r5, #56]
 610 00ae 0379     		ldrb	r3, [r0, #4]
 611 00b0 A342     		cmp	r3, r4
 612 00b2 01D8     		bhi	.L49
 613 00b4 0024     		movs	r4, #0
 614 00b6 B1E7     		b	.L42
 615              	.L49:
ARM GAS  /tmp/cce3oyOQ.s 			page 12


 616 00b8 2300     		movs	r3, r4
 617 00ba 2833     		adds	r3, r3, #40
 618 00bc 9B00     		lsls	r3, r3, #2
 619 00be C318     		adds	r3, r0, r3
 620 00c0 5B68     		ldr	r3, [r3, #4]
 621 00c2 002B     		cmp	r3, #0
 622 00c4 05D0     		beq	.L48
 623 00c6 5F30     		adds	r0, r0, #95
 624 00c8 0122     		movs	r2, #1
 625 00ca 2100     		movs	r1, r4
 626 00cc FF30     		adds	r0, r0, #255
 627 00ce FFF7FEFF 		bl	SMTC_PUT_BIT8
 628              	.L48:
 629 00d2 0134     		adds	r4, r4, #1
 630 00d4 E4B2     		uxtb	r4, r4
 631 00d6 E9E7     		b	.L47
 632              	.L56:
 633              		.align	2
 634              	.L55:
 635 00d8 00000000 		.word	.LC28
 636 00dc 1A000000 		.word	.LC30
 637 00e0 1E000000 		.word	.LC32
 639              		.section	.rodata.region_eu_868_get_modulation_type_from_datarate.str1.1,"aMS",%progbits,1
 640              	.LC35:
 641 0000 1B5B303B 		.ascii	"\033[0;31mERROR: crash log :%s\012\000"
 641      33316D45 
 641      52524F52 
 641      3A206372 
 641      61736820 
 642              	.LC38:
 643 001d 1B5B303B 		.ascii	"\033[0;31mERROR: -> \000"
 643      33316D45 
 643      52524F52 
 643      3A202D3E 
 643      2000
 644              		.section	.text.region_eu_868_get_modulation_type_from_datarate,"ax",%progbits
 645              		.align	1
 646              		.global	region_eu_868_get_modulation_type_from_datarate
 647              		.syntax unified
 648              		.code	16
 649              		.thumb_func
 650              		.fpu softvfp
 652              	region_eu_868_get_modulation_type_from_datarate:
 653              		@ args = 0, pretend = 0, frame = 0
 654              		@ frame_needed = 0, uses_anonymous_args = 0
 655 0000 0300     		movs	r3, r0
 656 0002 10B5     		push	{r4, lr}
 657 0004 0020     		movs	r0, #0
 658 0006 062B     		cmp	r3, #6
 659 0008 1ED9     		bls	.L58
 660 000a 0130     		adds	r0, r0, #1
 661 000c 072B     		cmp	r3, #7
 662 000e 1BD0     		beq	.L58
 663 0010 083B     		subs	r3, r3, #8
 664 0012 0130     		adds	r0, r0, #1
 665 0014 032B     		cmp	r3, #3
 666 0016 17D9     		bls	.L58
ARM GAS  /tmp/cce3oyOQ.s 			page 13


 667 0018 0C4C     		ldr	r4, .L62
 668 001a 2000     		movs	r0, r4
 669 001c FFF7FEFF 		bl	smtc_modem_hal_store_crashlog
 670 0020 0120     		movs	r0, #1
 671 0022 FFF7FEFF 		bl	smtc_modem_hal_set_crashlog_status
 672 0026 2100     		movs	r1, r4
 673 0028 0948     		ldr	r0, .L62+4
 674 002a FFF7FEFF 		bl	smtc_modem_hal_print_trace
 675 002e 094C     		ldr	r4, .L62+8
 676 0030 2000     		movs	r0, r4
 677 0032 FFF7FEFF 		bl	smtc_modem_hal_print_trace
 678 0036 0848     		ldr	r0, .L62+12
 679 0038 FFF7FEFF 		bl	smtc_modem_hal_print_trace
 680 003c 2000     		movs	r0, r4
 681 003e FFF7FEFF 		bl	smtc_modem_hal_print_trace
 682 0042 FFF7FEFF 		bl	smtc_modem_hal_reset_mcu
 683 0046 0020     		movs	r0, #0
 684              	.L58:
 685              		@ sp needed
 686 0048 10BD     		pop	{r4, pc}
 687              	.L63:
 688 004a C046     		.align	2
 689              	.L62:
 690 004c 00000000 		.word	.LANCHOR12
 691 0050 00000000 		.word	.LC35
 692 0054 25000000 		.word	.LC13
 693 0058 1D000000 		.word	.LC38
 695              		.section	.text.region_eu_868_lora_dr_to_sf_bw,"ax",%progbits
 696              		.align	1
 697              		.global	region_eu_868_lora_dr_to_sf_bw
 698              		.syntax unified
 699              		.code	16
 700              		.thumb_func
 701              		.fpu softvfp
 703              	region_eu_868_lora_dr_to_sf_bw:
 704              		@ args = 0, pretend = 0, frame = 0
 705              		@ frame_needed = 0, uses_anonymous_args = 0
 706 0000 10B5     		push	{r4, lr}
 707 0002 0628     		cmp	r0, #6
 708 0004 07D8     		bhi	.L65
 709 0006 104B     		ldr	r3, .L67
 710 0008 1B5C     		ldrb	r3, [r3, r0]
 711 000a 8000     		lsls	r0, r0, #2
 712 000c 0B70     		strb	r3, [r1]
 713 000e 0F4B     		ldr	r3, .L67+4
 714 0010 C358     		ldr	r3, [r0, r3]
 715 0012 1370     		strb	r3, [r2]
 716              	.L64:
 717              		@ sp needed
 718 0014 10BD     		pop	{r4, pc}
 719              	.L65:
 720 0016 0E4C     		ldr	r4, .L67+8
 721 0018 2000     		movs	r0, r4
 722 001a FFF7FEFF 		bl	smtc_modem_hal_store_crashlog
 723 001e 0120     		movs	r0, #1
 724 0020 FFF7FEFF 		bl	smtc_modem_hal_set_crashlog_status
 725 0024 2100     		movs	r1, r4
ARM GAS  /tmp/cce3oyOQ.s 			page 14


 726 0026 0B48     		ldr	r0, .L67+12
 727 0028 FFF7FEFF 		bl	smtc_modem_hal_print_trace
 728 002c 0A4C     		ldr	r4, .L67+16
 729 002e 2000     		movs	r0, r4
 730 0030 FFF7FEFF 		bl	smtc_modem_hal_print_trace
 731 0034 0948     		ldr	r0, .L67+20
 732 0036 FFF7FEFF 		bl	smtc_modem_hal_print_trace
 733 003a 2000     		movs	r0, r4
 734 003c FFF7FEFF 		bl	smtc_modem_hal_print_trace
 735 0040 FFF7FEFF 		bl	smtc_modem_hal_reset_mcu
 736 0044 E6E7     		b	.L64
 737              	.L68:
 738 0046 C046     		.align	2
 739              	.L67:
 740 0048 00000000 		.word	.LANCHOR13
 741 004c 00000000 		.word	.LANCHOR14
 742 0050 00000000 		.word	.LANCHOR15
 743 0054 00000000 		.word	.LC35
 744 0058 25000000 		.word	.LC13
 745 005c 1D000000 		.word	.LC38
 747              		.section	.text.region_eu_868_fsk_dr_to_bitrate,"ax",%progbits
 748              		.align	1
 749              		.global	region_eu_868_fsk_dr_to_bitrate
 750              		.syntax unified
 751              		.code	16
 752              		.thumb_func
 753              		.fpu softvfp
 755              	region_eu_868_fsk_dr_to_bitrate:
 756              		@ args = 0, pretend = 0, frame = 0
 757              		@ frame_needed = 0, uses_anonymous_args = 0
 758 0000 10B5     		push	{r4, lr}
 759 0002 0728     		cmp	r0, #7
 760 0004 02D1     		bne	.L70
 761 0006 3223     		movs	r3, #50
 762 0008 0B70     		strb	r3, [r1]
 763              	.L69:
 764              		@ sp needed
 765 000a 10BD     		pop	{r4, pc}
 766              	.L70:
 767 000c 0B4C     		ldr	r4, .L72
 768 000e 2000     		movs	r0, r4
 769 0010 FFF7FEFF 		bl	smtc_modem_hal_store_crashlog
 770 0014 0120     		movs	r0, #1
 771 0016 FFF7FEFF 		bl	smtc_modem_hal_set_crashlog_status
 772 001a 2100     		movs	r1, r4
 773 001c 0848     		ldr	r0, .L72+4
 774 001e FFF7FEFF 		bl	smtc_modem_hal_print_trace
 775 0022 084C     		ldr	r4, .L72+8
 776 0024 2000     		movs	r0, r4
 777 0026 FFF7FEFF 		bl	smtc_modem_hal_print_trace
 778 002a 0748     		ldr	r0, .L72+12
 779 002c FFF7FEFF 		bl	smtc_modem_hal_print_trace
 780 0030 2000     		movs	r0, r4
 781 0032 FFF7FEFF 		bl	smtc_modem_hal_print_trace
 782 0036 FFF7FEFF 		bl	smtc_modem_hal_reset_mcu
 783 003a E6E7     		b	.L69
 784              	.L73:
ARM GAS  /tmp/cce3oyOQ.s 			page 15


 785              		.align	2
 786              	.L72:
 787 003c 00000000 		.word	.LANCHOR16
 788 0040 00000000 		.word	.LC35
 789 0044 25000000 		.word	.LC13
 790 0048 1D000000 		.word	.LC38
 792              		.section	.text.region_eu_868_lr_fhss_dr_to_cr_bw,"ax",%progbits
 793              		.align	1
 794              		.global	region_eu_868_lr_fhss_dr_to_cr_bw
 795              		.syntax unified
 796              		.code	16
 797              		.thumb_func
 798              		.fpu softvfp
 800              	region_eu_868_lr_fhss_dr_to_cr_bw:
 801              		@ args = 0, pretend = 0, frame = 0
 802              		@ frame_needed = 0, uses_anonymous_args = 0
 803 0000 0300     		movs	r3, r0
 804 0002 083B     		subs	r3, r3, #8
 805 0004 10B5     		push	{r4, lr}
 806 0006 032B     		cmp	r3, #3
 807 0008 07D8     		bhi	.L75
 808 000a 104B     		ldr	r3, .L77
 809 000c 8000     		lsls	r0, r0, #2
 810 000e C358     		ldr	r3, [r0, r3]
 811 0010 0B70     		strb	r3, [r1]
 812 0012 0F4B     		ldr	r3, .L77+4
 813 0014 C358     		ldr	r3, [r0, r3]
 814 0016 1370     		strb	r3, [r2]
 815              	.L74:
 816              		@ sp needed
 817 0018 10BD     		pop	{r4, pc}
 818              	.L75:
 819 001a 0E4C     		ldr	r4, .L77+8
 820 001c 2000     		movs	r0, r4
 821 001e FFF7FEFF 		bl	smtc_modem_hal_store_crashlog
 822 0022 0120     		movs	r0, #1
 823 0024 FFF7FEFF 		bl	smtc_modem_hal_set_crashlog_status
 824 0028 2100     		movs	r1, r4
 825 002a 0B48     		ldr	r0, .L77+12
 826 002c FFF7FEFF 		bl	smtc_modem_hal_print_trace
 827 0030 0A4C     		ldr	r4, .L77+16
 828 0032 2000     		movs	r0, r4
 829 0034 FFF7FEFF 		bl	smtc_modem_hal_print_trace
 830 0038 0948     		ldr	r0, .L77+20
 831 003a FFF7FEFF 		bl	smtc_modem_hal_print_trace
 832 003e 2000     		movs	r0, r4
 833 0040 FFF7FEFF 		bl	smtc_modem_hal_print_trace
 834 0044 FFF7FEFF 		bl	smtc_modem_hal_reset_mcu
 835 0048 E6E7     		b	.L74
 836              	.L78:
 837 004a C046     		.align	2
 838              	.L77:
 839 004c 00000000 		.word	.LANCHOR17
 840 0050 00000000 		.word	.LANCHOR18
 841 0054 00000000 		.word	.LANCHOR19
 842 0058 00000000 		.word	.LC35
 843 005c 25000000 		.word	.LC13
ARM GAS  /tmp/cce3oyOQ.s 			page 16


 844 0060 1D000000 		.word	.LC38
 846              		.section	.rodata.DEFAULT_DR_DISTRIBUTION_EU_868,"a"
 847              		.align	2
 848              		.set	.LANCHOR8,. + 0
 851              	DEFAULT_DR_DISTRIBUTION_EU_868:
 852 0000 01000000 		.ascii	"\001\000\000\000\000\000\000\000\000\000\000\000"
 852      00000000 
 852      00000000 
 853              		.section	.rodata.JOIN_DR_DISTRIBUTION_EU_868,"a"
 854              		.align	2
 855              		.set	.LANCHOR7,. + 0
 858              	JOIN_DR_DISTRIBUTION_EU_868:
 859 0000 01020304 		.ascii	"\001\002\003\004\004\006\000\000\000\000\000\000"
 859      04060000 
 859      00000000 
 860              		.section	.rodata.MOBILE_LONGRANGE_DR_DISTRIBUTION_EU_868,"a"
 861              		.align	2
 862              		.set	.LANCHOR5,. + 0
 865              	MOBILE_LONGRANGE_DR_DISTRIBUTION_EU_868:
 866 0000 02020303 		.ascii	"\002\002\003\003\000\000\000\000\000\000\000\000"
 866      00000000 
 866      00000000 
 867              		.section	.rodata.MOBILE_LOWPER_DR_DISTRIBUTION_EU_868,"a"
 868              		.align	2
 869              		.set	.LANCHOR6,. + 0
 872              	MOBILE_LOWPER_DR_DISTRIBUTION_EU_868:
 873 0000 00000103 		.ascii	"\000\000\001\003\003\003\000\000\000\000\000\000"
 873      03030000 
 873      00000000 
 874              		.section	.rodata.M_eu_868,"a"
 875              		.align	2
 876              		.set	.LANCHOR4,. + 0
 879              	M_eu_868:
 880 0000 3B3B3B7B 		.ascii	";;;{\372\372\372\372:{:{"
 880      FAFAFAFA 
 880      3A7B3A7B 
 881              		.section	.rodata.SYNC_WORD_GFSK_EU_868,"a"
 882              		.set	.LANCHOR1,. + 0
 885              	SYNC_WORD_GFSK_EU_868:
 886 0000 C194C1   		.ascii	"\301\224\301"
 887              		.section	.rodata.SYNC_WORD_LR_FHSS_EU_868,"a"
 888              		.align	2
 889              		.set	.LANCHOR2,. + 0
 892              	SYNC_WORD_LR_FHSS_EU_868:
 893 0000 2C0F7995 		.ascii	",\017y\225"
 894              		.section	.rodata.__func__.0,"a"
 895              		.set	.LANCHOR19,. + 0
 898              	__func__.0:
 899 0000 72656769 		.ascii	"region_eu_868_lr_fhss_dr_to_cr_bw\000"
 899      6F6E5F65 
 899      755F3836 
 899      385F6C72 
 899      5F666873 
 900              		.section	.rodata.__func__.1,"a"
 901              		.set	.LANCHOR16,. + 0
 904              	__func__.1:
 905 0000 72656769 		.ascii	"region_eu_868_fsk_dr_to_bitrate\000"
ARM GAS  /tmp/cce3oyOQ.s 			page 17


 905      6F6E5F65 
 905      755F3836 
 905      385F6673 
 905      6B5F6472 
 906              		.section	.rodata.__func__.2,"a"
 907              		.set	.LANCHOR15,. + 0
 910              	__func__.2:
 911 0000 72656769 		.ascii	"region_eu_868_lora_dr_to_sf_bw\000"
 911      6F6E5F65 
 911      755F3836 
 911      385F6C6F 
 911      72615F64 
 912              		.section	.rodata.__func__.3,"a"
 913              		.set	.LANCHOR12,. + 0
 916              	__func__.3:
 917 0000 72656769 		.ascii	"region_eu_868_get_modulation_type_from_datarate\000"
 917      6F6E5F65 
 917      755F3836 
 917      385F6765 
 917      745F6D6F 
 918              		.section	.rodata.datarate_backoff_eu_868,"a"
 919              		.align	2
 920              		.set	.LANCHOR0,. + 0
 923              	datarate_backoff_eu_868:
 924 0000 00000102 		.ascii	"\000\000\001\002\003\004\005\006\000\010\000\012"
 924      03040506 
 924      0008000A 
 925              		.section	.rodata.datarate_offsets_eu_868,"a"
 926              		.align	2
 927              		.set	.LANCHOR11,. + 0
 930              	datarate_offsets_eu_868:
 931 0000 00000000 		.ascii	"\000\000\000\000\000\000"
 931      0000
 932 0006 01000000 		.ascii	"\001\000\000\000\000\000"
 932      0000
 933 000c 02010000 		.ascii	"\002\001\000\000\000\000"
 933      0000
 934 0012 03020100 		.ascii	"\003\002\001\000\000\000"
 934      0000
 935 0018 04030201 		.ascii	"\004\003\002\001\000\000"
 935      0000
 936 001e 05040302 		.ascii	"\005\004\003\002\001\000"
 936      0100
 937 0024 06050403 		.ascii	"\006\005\004\003\002\001"
 937      0201
 938 002a 07060504 		.ascii	"\007\006\005\004\003\002"
 938      0302
 939 0030 01000000 		.ascii	"\001\000\000\000\000\000"
 939      0000
 940 0036 02010000 		.ascii	"\002\001\000\000\000\000"
 940      0000
 941 003c 01000000 		.ascii	"\001\000\000\000\000\000"
 941      0000
 942 0042 02010000 		.ascii	"\002\001\000\000\000\000"
 942      0000
 943              		.section	.rodata.datarates_to_bandwidths_eu_868,"a"
 944              		.align	2
ARM GAS  /tmp/cce3oyOQ.s 			page 18


 945              		.set	.LANCHOR14,. + 0
 948              	datarates_to_bandwidths_eu_868:
 949 0000 07000000 		.word	7
 950 0004 07000000 		.word	7
 951 0008 07000000 		.word	7
 952 000c 07000000 		.word	7
 953 0010 07000000 		.word	7
 954 0014 07000000 		.word	7
 955 0018 09000000 		.word	9
 956              		.section	.rodata.datarates_to_lr_fhss_bw_eu_868,"a"
 957              		.align	2
 958              		.set	.LANCHOR18,. + 0
 961              	datarates_to_lr_fhss_bw_eu_868:
 962 0000 FFFFFFFF 		.word	-1
 963 0004 FFFFFFFF 		.word	-1
 964 0008 FFFFFFFF 		.word	-1
 965 000c FFFFFFFF 		.word	-1
 966 0010 FFFFFFFF 		.word	-1
 967 0014 FFFFFFFF 		.word	-1
 968 0018 FFFFFFFF 		.word	-1
 969 001c FFFFFFFF 		.word	-1
 970 0020 02000000 		.word	2
 971 0024 02000000 		.word	2
 972 0028 04000000 		.word	4
 973 002c 04000000 		.word	4
 974              		.section	.rodata.datarates_to_lr_fhss_cr_eu_868,"a"
 975              		.align	2
 976              		.set	.LANCHOR17,. + 0
 979              	datarates_to_lr_fhss_cr_eu_868:
 980 0000 FFFFFFFF 		.word	-1
 981 0004 FFFFFFFF 		.word	-1
 982 0008 FFFFFFFF 		.word	-1
 983 000c FFFFFFFF 		.word	-1
 984 0010 FFFFFFFF 		.word	-1
 985 0014 FFFFFFFF 		.word	-1
 986 0018 FFFFFFFF 		.word	-1
 987 001c FFFFFFFF 		.word	-1
 988 0020 03000000 		.word	3
 989 0024 01000000 		.word	1
 990 0028 03000000 		.word	3
 991 002c 01000000 		.word	1
 992              		.section	.rodata.datarates_to_sf_eu_868,"a"
 993              		.align	2
 994              		.set	.LANCHOR13,. + 0
 997              	datarates_to_sf_eu_868:
 998 0000 0C0B0A09 		.ascii	"\014\013\012\011\010\007\007"
 998      080707
 999              		.section	.rodata.default_freq_eu_868,"a"
 1000              		.align	2
 1001              		.set	.LANCHOR10,. + 0
 1004              	default_freq_eu_868:
 1005 0000 A027BE33 		.word	868100000
 1006 0004 E034C133 		.word	868300000
 1007 0008 2042C433 		.word	868500000
 1008              		.section	.rodata.duty_cycle_by_band_eu_868,"a"
 1009              		.align	2
 1010              		.set	.LANCHOR3,. + 0
ARM GAS  /tmp/cce3oyOQ.s 			page 19


 1013              	duty_cycle_by_band_eu_868:
 1014 0000 E803     		.short	1000
 1015 0002 6400     		.short	100
 1016 0004 6400     		.short	100
 1017 0006 E803     		.short	1000
 1018 0008 0A00     		.short	10
 1019 000a 6400     		.short	100
 1020              		.section	.rodata.frequency_range_by_band_eu_868,"a"
 1021              		.align	2
 1022              		.set	.LANCHOR9,. + 0
 1025              	frequency_range_by_band_eu_868:
 1026 0000 C0557033 		.word	863000000
 1027 0004 40DA8E33 		.word	865000000
 1028 0008 40DA8E33 		.word	865000000
 1029 000c 01A1BC33 		.word	868000001
 1030 0010 01A1BC33 		.word	868000001
 1031 0014 C1C8C533 		.word	868600001
 1032 0018 604FC733 		.word	868700000
 1033 001c 81F0CE33 		.word	869200001
 1034 0020 C0FDD133 		.word	869400000
 1035 0024 51CED533 		.word	869650001
 1036 0028 A091D633 		.word	869700000
 1037 002c 8125DB33 		.word	870000001
 1038              		.ident	"GCC: (15:10.3-2021.07-4) 10.3.1 20210621 (release)"
ARM GAS  /tmp/cce3oyOQ.s 			page 20

