ARM GAS  /tmp/cczsZjbu.s 			page 1


   1              		.cpu cortex-m0
   2              		.eabi_attribute 23, 1
   3              		.eabi_attribute 24, 1
   4              		.eabi_attribute 25, 1
   5              		.eabi_attribute 26, 1
   6              		.eabi_attribute 30, 4
   7              		.eabi_attribute 34, 0
   8              		.eabi_attribute 18, 4
   9              		.file	"smtc_ping_slot.c"
  10              		.text
  11              		.section	.text.ral_compute_lora_ldro,"ax",%progbits
  12              		.align	1
  13              		.arch armv6s-m
  14              		.syntax unified
  15              		.code	16
  16              		.thumb_func
  17              		.fpu softvfp
  19              	ral_compute_lora_ldro:
  20              		@ args = 0, pretend = 0, frame = 0
  21              		@ frame_needed = 0, uses_anonymous_args = 0
  22 0000 0300     		movs	r3, r0
  23 0002 00B5     		push	{lr}
  24 0004 0800     		movs	r0, r1
  25 0006 0C29     		cmp	r1, #12
  26 0008 21D8     		bhi	.L9
  27 000a FFF7FEFF 		bl	__gnu_thumb1_case_uqi
  28              	.L4:
  29 000e 07       		.byte	(.L8-.L4)/2
  30 000f 07       		.byte	(.L8-.L4)/2
  31 0010 07       		.byte	(.L8-.L4)/2
  32 0011 07       		.byte	(.L8-.L4)/2
  33 0012 07       		.byte	(.L8-.L4)/2
  34 0013 1B       		.byte	(.L7-.L4)/2
  35 0014 16       		.byte	(.L6-.L4)/2
  36 0015 0E       		.byte	(.L3-.L4)/2
  37 0016 0E       		.byte	(.L3-.L4)/2
  38 0017 09       		.byte	(.L5-.L4)/2
  39 0018 0E       		.byte	(.L3-.L4)/2
  40 0019 20       		.byte	(.L9-.L4)/2
  41 001a 0E       		.byte	(.L3-.L4)/2
  42 001b 00       		.p2align 1
  43              	.L8:
  44 001c 0120     		movs	r0, #1
  45              	.L2:
  46              		@ sp needed
  47 001e 00BD     		pop	{pc}
  48              	.L5:
  49 0020 0C3B     		subs	r3, r3, #12
  50 0022 5A42     		rsbs	r2, r3, #0
  51 0024 5341     		adcs	r3, r3, r2
  52 0026 D8B2     		uxtb	r0, r3
  53 0028 F9E7     		b	.L2
  54              	.L3:
  55 002a 0020     		movs	r0, #0
  56 002c 0122     		movs	r2, #1
  57 002e 0B3B     		subs	r3, r3, #11
  58 0030 DBB2     		uxtb	r3, r3
ARM GAS  /tmp/cczsZjbu.s 			page 2


  59              	.L10:
  60 0032 9A42     		cmp	r2, r3
  61 0034 4041     		adcs	r0, r0, r0
  62 0036 C0B2     		uxtb	r0, r0
  63 0038 F1E7     		b	.L2
  64              	.L6:
  65 003a 0A3B     		subs	r3, r3, #10
  66 003c 0020     		movs	r0, #0
  67 003e 0222     		movs	r2, #2
  68 0040 DBB2     		uxtb	r3, r3
  69 0042 F6E7     		b	.L10
  70              	.L7:
  71 0044 093B     		subs	r3, r3, #9
  72 0046 0020     		movs	r0, #0
  73 0048 0322     		movs	r2, #3
  74 004a DBB2     		uxtb	r3, r3
  75 004c F1E7     		b	.L10
  76              	.L9:
  77 004e 0020     		movs	r0, #0
  78 0050 E5E7     		b	.L2
  80              		.section	.text.smtc_ping_slot_compute_next_ping_offset_time,"ax",%progbits
  81              		.align	1
  82              		.syntax unified
  83              		.code	16
  84              		.thumb_func
  85              		.fpu softvfp
  87              	smtc_ping_slot_compute_next_ping_offset_time:
  88              		@ args = 0, pretend = 0, frame = 0
  89              		@ frame_needed = 0, uses_anonymous_args = 0
  90 0000 0200     		movs	r2, r0
  91 0002 F0B5     		push	{r4, r5, r6, r7, lr}
  92 0004 1E26     		movs	r6, #30
  93 0006 7132     		adds	r2, r2, #113
  94 0008 8530     		adds	r0, r0, #133
  95 000a FF32     		adds	r2, r2, #255
  96 000c FF30     		adds	r0, r0, #255
  97              	.L13:
  98 000e 1368     		ldr	r3, [r2]
  99 0010 1C78     		ldrb	r4, [r3]
 100 0012 002C     		cmp	r4, #0
 101 0014 11D1     		bne	.L12
 102              	.L15:
 103 0016 0432     		adds	r2, r2, #4
 104 0018 9042     		cmp	r0, r2
 105 001a F8D1     		bne	.L13
 106              		@ sp needed
 107 001c F0BD     		pop	{r4, r5, r6, r7, pc}
 108              	.L16:
 109 001e 3700     		movs	r7, r6
 110 0020 013C     		subs	r4, r4, #1
 111 0022 9C77     		strb	r4, [r3, #30]
 112 0024 9C8B     		ldrh	r4, [r3, #28]
 113 0026 6743     		muls	r7, r4
 114 0028 BC46     		mov	ip, r7
 115 002a 6544     		add	r5, r5, ip
 116 002c 1D62     		str	r5, [r3, #32]
 117 002e 9625     		movs	r5, #150
ARM GAS  /tmp/cczsZjbu.s 			page 3


 118 0030 6D00     		lsls	r5, r5, #1
 119 0032 6C43     		muls	r4, r5
 120 0034 5D6A     		ldr	r5, [r3, #36]
 121 0036 2C19     		adds	r4, r5, r4
 122 0038 5C62     		str	r4, [r3, #36]
 123              	.L12:
 124 003a 1D6A     		ldr	r5, [r3, #32]
 125 003c 6C1A     		subs	r4, r5, r1
 126 003e 002C     		cmp	r4, #0
 127 0040 E9DC     		bgt	.L15
 128 0042 9C7F     		ldrb	r4, [r3, #30]
 129 0044 002C     		cmp	r4, #0
 130 0046 EAD1     		bne	.L16
 131 0048 E5E7     		b	.L15
 133              		.section	.text.ping_slot_mac_rx_lora_launch_callback_for_rp,"ax",%progbits
 134              		.align	1
 135              		.syntax unified
 136              		.code	16
 137              		.thumb_func
 138              		.fpu softvfp
 140              	ping_slot_mac_rx_lora_launch_callback_for_rp:
 141              		@ args = 0, pretend = 0, frame = 0
 142              		@ frame_needed = 0, uses_anonymous_args = 0
 143 0000 F8B5     		push	{r3, r4, r5, r6, r7, lr}
 144 0002 224B     		ldr	r3, .L35
 145 0004 0400     		movs	r4, r0
 146 0006 C65C     		ldrb	r6, [r0, r3]
 147 0008 FFF7FEFF 		bl	smtc_modem_hal_start_radio_tcxo
 148 000c 8421     		movs	r1, #132
 149 000e 9C25     		movs	r5, #156
 150 0010 7143     		muls	r1, r6
 151 0012 2D01     		lsls	r5, r5, #4
 152 0014 6359     		ldr	r3, [r4, r5]
 153 0016 4C31     		adds	r1, r1, #76
 154 0018 F433     		adds	r3, r3, #244
 155 001a 1B68     		ldr	r3, [r3]
 156 001c 6059     		ldr	r0, [r4, r5]
 157 001e 6118     		adds	r1, r4, r1
 158 0020 9847     		blx	r3
 159 0022 0028     		cmp	r0, #0
 160 0024 03D0     		beq	.L21
 161 0026 1A49     		ldr	r1, .L35+4
 162 0028 1A48     		ldr	r0, .L35+8
 163 002a FFF7FEFF 		bl	smtc_modem_hal_assert_fail
 164              	.L21:
 165 002e 6359     		ldr	r3, [r4, r5]
 166 0030 CC21     		movs	r1, #204
 167 0032 1A6E     		ldr	r2, [r3, #96]
 168 0034 1868     		ldr	r0, [r3]
 169 0036 9047     		blx	r2
 170 0038 0028     		cmp	r0, #0
 171 003a 03D0     		beq	.L22
 172 003c 1649     		ldr	r1, .L35+12
 173 003e 1548     		ldr	r0, .L35+8
 174 0040 FFF7FEFF 		bl	smtc_modem_hal_assert_fail
 175              	.L22:
 176 0044 1C25     		movs	r5, #28
ARM GAS  /tmp/cczsZjbu.s 			page 4


 177 0046 BB23     		movs	r3, #187
 178 0048 7543     		muls	r5, r6
 179 004a DB00     		lsls	r3, r3, #3
 180 004c 6519     		adds	r5, r4, r5
 181 004e ED18     		adds	r5, r5, r3
 182              	.L23:
 183 0050 2F68     		ldr	r7, [r5]
 184 0052 FFF7FEFF 		bl	smtc_modem_hal_get_time_in_100us
 185 0056 3F1A     		subs	r7, r7, r0
 186 0058 002F     		cmp	r7, #0
 187 005a F9DC     		bgt	.L23
 188 005c 9C23     		movs	r3, #156
 189 005e 1B01     		lsls	r3, r3, #4
 190 0060 E258     		ldr	r2, [r4, r3]
 191 0062 8423     		movs	r3, #132
 192 0064 5E43     		muls	r6, r3
 193 0066 A619     		adds	r6, r4, r6
 194 0068 536A     		ldr	r3, [r2, #36]
 195 006a B16F     		ldr	r1, [r6, #120]
 196 006c 1068     		ldr	r0, [r2]
 197 006e 9847     		blx	r3
 198 0070 0028     		cmp	r0, #0
 199 0072 03D0     		beq	.L24
 200 0074 0949     		ldr	r1, .L35+16
 201 0076 0748     		ldr	r0, .L35+8
 202 0078 FFF7FEFF 		bl	smtc_modem_hal_assert_fail
 203              	.L24:
 204              		@ sp needed
 205 007c FFF7FEFF 		bl	smtc_modem_hal_get_time_in_ms
 206 0080 8F23     		movs	r3, #143
 207 0082 1B01     		lsls	r3, r3, #4
 208 0084 E418     		adds	r4, r4, r3
 209 0086 6065     		str	r0, [r4, #84]
 210 0088 F8BD     		pop	{r3, r4, r5, r6, r7, pc}
 211              	.L36:
 212 008a C046     		.align	2
 213              	.L35:
 214 008c 84090000 		.word	2436
 215 0090 79040000 		.word	1145
 216 0094 00000000 		.word	.LANCHOR0
 217 0098 7A040000 		.word	1146
 218 009c 81040000 		.word	1153
 220              		.global	__aeabi_uidiv
 221              		.section	.text.smtc_ping_slot_get_duration_timeout_ms.isra.0,"ax",%progbits
 222              		.align	1
 223              		.syntax unified
 224              		.code	16
 225              		.thumb_func
 226              		.fpu softvfp
 228              	smtc_ping_slot_get_duration_timeout_ms.isra.0:
 229              		@ args = 0, pretend = 0, frame = 0
 230              		@ frame_needed = 0, uses_anonymous_args = 0
 231 0000 10B5     		push	{r4, lr}
 232 0002 0C00     		movs	r4, r1
 233 0004 1100     		movs	r1, r2
 234 0006 FFF7FEFF 		bl	smtc_real_get_symbol_duration_us
 235 000a FA21     		movs	r1, #250
ARM GAS  /tmp/cczsZjbu.s 			page 5


 236 000c 4443     		muls	r4, r0
 237 000e 8900     		lsls	r1, r1, #2
 238 0010 0120     		movs	r0, #1
 239 0012 8C42     		cmp	r4, r1
 240 0014 02D3     		bcc	.L37
 241 0016 2000     		movs	r0, r4
 242 0018 FFF7FEFF 		bl	__aeabi_uidiv
 243              	.L37:
 244              		@ sp needed
 245 001c 10BD     		pop	{r4, pc}
 247              		.section	.text.smtc_ping_slot_init,"ax",%progbits
 248              		.align	1
 249              		.global	smtc_ping_slot_init
 250              		.syntax unified
 251              		.code	16
 252              		.thumb_func
 253              		.fpu softvfp
 255              	smtc_ping_slot_init:
 256              		@ args = 20, pretend = 0, frame = 8
 257              		@ frame_needed = 0, uses_anonymous_args = 0
 258 0000 F7B5     		push	{r0, r1, r2, r4, r5, r6, r7, lr}
 259 0002 1500     		movs	r5, r2
 260 0004 DC22     		movs	r2, #220
 261 0006 0400     		movs	r4, r0
 262 0008 1E00     		movs	r6, r3
 263 000a 5200     		lsls	r2, r2, #1
 264 000c 08AB     		add	r3, sp, #32
 265 000e 0191     		str	r1, [sp, #4]
 266 0010 0021     		movs	r1, #0
 267 0012 1F78     		ldrb	r7, [r3]
 268 0014 FFF7FEFF 		bl	memset
 269 0018 019B     		ldr	r3, [sp, #4]
 270 001a 3900     		movs	r1, r7
 271 001c 2360     		str	r3, [r4]
 272 001e 099B     		ldr	r3, [sp, #36]
 273 0020 3000     		movs	r0, r6
 274 0022 2361     		str	r3, [r4, #16]
 275 0024 0A9B     		ldr	r3, [sp, #40]
 276 0026 A660     		str	r6, [r4, #8]
 277 0028 6361     		str	r3, [r4, #20]
 278 002a 0B9B     		ldr	r3, [sp, #44]
 279 002c 2771     		strb	r7, [r4, #4]
 280 002e A361     		str	r3, [r4, #24]
 281 0030 0C9B     		ldr	r3, [sp, #48]
 282 0032 E361     		str	r3, [r4, #28]
 283 0034 0023     		movs	r3, #0
 284 0036 A362     		str	r3, [r4, #40]
 285 0038 FFF7FEFF 		bl	rp_release_hook
 286 003c 2300     		movs	r3, r4
 287 003e 144A     		ldr	r2, .L45
 288 0040 3900     		movs	r1, r7
 289 0042 A068     		ldr	r0, [r4, #8]
 290 0044 FFF7FEFF 		bl	rp_hook_init
 291 0048 A223     		movs	r3, #162
 292 004a 0122     		movs	r2, #1
 293 004c 5B00     		lsls	r3, r3, #1
 294 004e E254     		strb	r2, [r4, r3]
ARM GAS  /tmp/cczsZjbu.s 			page 6


 295 0050 2833     		adds	r3, r3, #40
 296 0052 9218     		adds	r2, r2, r2
 297 0054 E254     		strb	r2, [r4, r3]
 298 0056 123B     		subs	r3, r3, #18
 299 0058 0432     		adds	r2, r2, #4
 300 005a E252     		strh	r2, [r4, r3]
 301 005c 0D4A     		ldr	r2, .L45+4
 302 005e 0A3B     		subs	r3, r3, #10
 303 0060 E252     		strh	r2, [r4, r3]
 304 0062 2200     		movs	r2, r4
 305 0064 2300     		movs	r3, r4
 306 0066 4532     		adds	r2, r2, #69
 307 0068 FF32     		adds	r2, r2, #255
 308 006a FC33     		adds	r3, r3, #252
 309 006c 5A67     		str	r2, [r3, #116]
 310 006e 0022     		movs	r2, #0
 311 0070 2262     		str	r2, [r4, #32]
 312 0072 9542     		cmp	r5, r2
 313 0074 0AD0     		beq	.L40
 314 0076 2A00     		movs	r2, r5
 315 0078 2C32     		adds	r2, r2, #44
 316 007a 9D67     		str	r5, [r3, #120]
 317 007c DA67     		str	r2, [r3, #124]
 318 007e BE23     		movs	r3, #190
 319 0080 2C32     		adds	r2, r2, #44
 320 0082 5B00     		lsls	r3, r3, #1
 321 0084 E250     		str	r2, [r4, r3]
 322 0086 8435     		adds	r5, r5, #132
 323 0088 0433     		adds	r3, r3, #4
 324 008a E550     		str	r5, [r4, r3]
 325              	.L40:
 326              		@ sp needed
 327 008c F7BD     		pop	{r0, r1, r2, r4, r5, r6, r7, pc}
 328              	.L46:
 329 008e C046     		.align	2
 330              	.L45:
 331 0090 00000000 		.word	smtc_ping_slot_rp_callback
 332 0094 06070000 		.word	1798
 334              		.section	.rodata.smtc_ping_slot_mac_rp_callback.str1.1,"aMS",%progbits,1
 335              	.LC2:
 336 0000 7061796C 		.ascii	"payload size receive = %u, snr = %d , rssi = %d\012"
 336      6F616420 
 336      73697A65 
 336      20726563 
 336      65697665 
 337 0030 00       		.ascii	"\000"
 338              	.LC4:
 339 0031 52784220 		.ascii	"RxB Payload\000"
 339      5061796C 
 339      6F616400 
 340              	.LC6:
 341 003d 2573202D 		.ascii	"%s - (%lu bytes):\012\000"
 341      2028256C 
 341      75206279 
 341      74657329 
 341      3A0A00
 342              	.LC8:
ARM GAS  /tmp/cczsZjbu.s 			page 7


 343 0050 0A00     		.ascii	"\012\000"
 344              	.LC10:
 345 0052 20253032 		.ascii	" %02X\000"
 345      5800
 346              	.LC12:
 347 0058 1B5B303B 		.ascii	"\033[0;32mINFO:  BAD DevAddr = %x for RX Frame and "
 347      33326D49 
 347      4E464F3A 
 347      20204241 
 347      44204465 
 348 0088 25780A0A 		.ascii	"%x\012\012\000"
 348      00
 349              	.LC14:
 350 008d 1B5B306D 		.ascii	"\033[0m\000"
 350      00
 351              	.LC16:
 352 0092 1B5B303B 		.ascii	"\033[0;33mWARN:  fcnt_tmp = %d\012 \000"
 352      33336D57 
 352      41524E3A 
 352      20206663 
 352      6E745F74 
 353              	.LC18:
 354 00b0 1B5B303B 		.ascii	"\033[0;33mWARN:  Receive an not valid packet RxB on"
 354      33336D57 
 354      41524E3A 
 354      20205265 
 354      63656976 
 355 00e0 20706F72 		.ascii	" port zero\012\000"
 355      74207A65 
 355      726F0A00 
 356              	.LC21:
 357 00ec 1B5B303B 		.ascii	"\033[0;31mERROR: crash log :%s\012\000"
 357      33316D45 
 357      52524F52 
 357      3A206372 
 357      61736820 
 358              	.LC23:
 359 0109 1B5B303B 		.ascii	"\033[0;31mERROR: -> Crypto error during payload dec"
 359      33316D45 
 359      52524F52 
 359      3A202D3E 
 359      20437279 
 360 0139 72797074 		.ascii	"ryption\012\000"
 360      696F6E0A 
 360      00
 361              	.LC25:
 362 0142 1B5B303B 		.ascii	"\033[0;33mWARN:  Receive an not valid packet RxB FO"
 362      33336D57 
 362      41524E3A 
 362      20205265 
 362      63656976 
 363 0172 7074730A 		.ascii	"pts\012\000"
 363      00
 364              	.LC27:
 365 0177 20527842 		.ascii	" RxB rx_packet_type = %d \012\000"
 365      2072785F 
 365      7061636B 
ARM GAS  /tmp/cczsZjbu.s 			page 8


 365      65745F74 
 365      79706520 
 366              	.LC29:
 367 0192 52784220 		.ascii	"RxB app Payload\000"
 367      61707020 
 367      5061796C 
 367      6F616400 
 368              	.LC32:
 369 01a2 1B5B303B 		.ascii	"\033[0;31mERROR: -> TX MODULATION NOT SUPPORTED\012"
 369      33316D45 
 369      52524F52 
 369      3A202D3E 
 369      20545820 
 370 01cf 00       		.ascii	"\000"
 371              	.LC34:
 372 01d0 6C72316D 		.ascii	"lr1mac RxB CRC ERROR\012\000"
 372      61632052 
 372      78422043 
 372      52432045 
 372      52524F52 
 373              	.LC36:
 374 01e6 6C72316D 		.ascii	"lr1mac RxB aborted by the radioplanner \012\000"
 374      61632052 
 374      78422061 
 374      626F7274 
 374      65642062 
 375              	.LC38:
 376 020f 6C72316D 		.ascii	"lr1mac RxB receive It RADIO error %u\012\000"
 376      61632052 
 376      78422072 
 376      65636569 
 376      76652049 
 377              		.section	.text.smtc_ping_slot_mac_rp_callback,"ax",%progbits
 378              		.align	1
 379              		.global	smtc_ping_slot_mac_rp_callback
 380              		.syntax unified
 381              		.code	16
 382              		.thumb_func
 383              		.fpu softvfp
 385              	smtc_ping_slot_mac_rp_callback:
 386              		@ args = 0, pretend = 0, frame = 72
 387              		@ frame_needed = 0, uses_anonymous_args = 0
 388 0000 1F23     		movs	r3, #31
 389 0002 F0B5     		push	{r4, r5, r6, r7, lr}
 390 0004 0400     		movs	r4, r0
 391 0006 99B0     		sub	sp, sp, #100
 392 0008 02AA     		add	r2, sp, #8
 393 000a 9B18     		adds	r3, r3, r2
 394 000c 1A00     		movs	r2, r3
 395 000e 0100     		movs	r1, r0
 396 0010 8068     		ldr	r0, [r0, #8]
 397 0012 FFF7FEFF 		bl	rp_hook_get_id
 398 0016 2300     		movs	r3, r4
 399 0018 02AA     		add	r2, sp, #8
 400 001a D17F     		ldrb	r1, [r2, #31]
 401 001c A068     		ldr	r0, [r4, #8]
 402 001e 0C33     		adds	r3, r3, #12
ARM GAS  /tmp/cczsZjbu.s 			page 9


 403 0020 0BAA     		add	r2, sp, #44
 404 0022 FFF7FEFF 		bl	rp_get_status
 405 0026 217B     		ldrb	r1, [r4, #12]
 406 0028 0A29     		cmp	r1, #10
 407 002a 00D9     		bls	.LCB370
 408 002c 95E2     		b	.L48	@long jump
 409              	.LCB370:
 410 002e 0800     		movs	r0, r1
 411 0030 FFF7FEFF 		bl	__gnu_thumb1_case_uhi
 412              	.L50:
 413 0034 8D02     		.2byte	(.L53-.L50)/2
 414 0036 9302     		.2byte	(.L48-.L50)/2
 415 0038 9302     		.2byte	(.L48-.L50)/2
 416 003a 6E00     		.2byte	(.L47-.L50)/2
 417 003c 0B00     		.2byte	(.L52-.L50)/2
 418 003e 6E00     		.2byte	(.L47-.L50)/2
 419 0040 9302     		.2byte	(.L48-.L50)/2
 420 0042 9302     		.2byte	(.L48-.L50)/2
 421 0044 9302     		.2byte	(.L48-.L50)/2
 422 0046 9302     		.2byte	(.L48-.L50)/2
 423 0048 9102     		.2byte	(.L49-.L50)/2
 424              		.p2align 1
 425              	.L52:
 426 004a DA23     		movs	r3, #218
 427 004c 0026     		movs	r6, #0
 428 004e 5B00     		lsls	r3, r3, #1
 429 0050 E650     		str	r6, [r4, r3]
 430 0052 0B9B     		ldr	r3, [sp, #44]
 431 0054 A068     		ldr	r0, [r4, #8]
 432 0056 E362     		str	r3, [r4, #44]
 433 0058 02AB     		add	r3, sp, #8
 434 005a D97F     		ldrb	r1, [r3, #31]
 435 005c 8423     		movs	r3, #132
 436 005e 4B43     		muls	r3, r1
 437 0060 C318     		adds	r3, r0, r3
 438 0062 1A00     		movs	r2, r3
 439 0064 7C33     		adds	r3, r3, #124
 440 0066 7E32     		adds	r2, r2, #126
 441 0068 0025     		movs	r5, #0
 442 006a 525F     		ldrsh	r2, [r2, r5]
 443 006c 0025     		movs	r5, #0
 444 006e 5B5F     		ldrsh	r3, [r3, r5]
 445 0070 E525     		movs	r5, #229
 446 0072 AD00     		lsls	r5, r5, #2
 447 0074 4919     		adds	r1, r1, r5
 448 0076 2500     		movs	r5, r4
 449 0078 4900     		lsls	r1, r1, #1
 450 007a 415C     		ldrb	r1, [r0, r1]
 451 007c 4035     		adds	r5, r5, #64
 452 007e 2286     		strh	r2, [r4, #48]
 453 0080 6386     		strh	r3, [r4, #50]
 454 0082 C548     		ldr	r0, .L119
 455 0084 2970     		strb	r1, [r5]
 456 0086 FFF7FEFF 		bl	smtc_modem_hal_print_trace
 457 008a 2A78     		ldrb	r2, [r5]
 458 008c C349     		ldr	r1, .L119+4
 459 008e C448     		ldr	r0, .L119+8
ARM GAS  /tmp/cczsZjbu.s 			page 10


 460 0090 FFF7FEFF 		bl	smtc_modem_hal_print_trace
 461 0094 0F27     		movs	r7, #15
 462              	.L54:
 463 0096 2200     		movs	r2, r4
 464 0098 2B78     		ldrb	r3, [r5]
 465 009a 4132     		adds	r2, r2, #65
 466 009c 0792     		str	r2, [sp, #28]
 467 009e B342     		cmp	r3, r6
 468 00a0 38D8     		bhi	.L56
 469 00a2 C048     		ldr	r0, .L119+12
 470 00a4 FFF7FEFF 		bl	smtc_modem_hal_print_trace
 471 00a8 D722     		movs	r2, #215
 472 00aa 079B     		ldr	r3, [sp, #28]
 473 00ac 2168     		ldr	r1, [r4]
 474 00ae 1B78     		ldrb	r3, [r3]
 475 00b0 5B09     		lsrs	r3, r3, #5
 476 00b2 DA40     		lsrs	r2, r2, r3
 477 00b4 0123     		movs	r3, #1
 478 00b6 9343     		bics	r3, r2
 479 00b8 BB4A     		ldr	r2, .L119+16
 480 00ba 8A5C     		ldrb	r2, [r1, r2]
 481 00bc 022A     		cmp	r2, #2
 482 00be 37D1     		bne	.L57
 483 00c0 002B     		cmp	r3, #0
 484 00c2 35D0     		beq	.L57
 485 00c4 2300     		movs	r3, r4
 486 00c6 4333     		adds	r3, r3, #67
 487 00c8 1A78     		ldrb	r2, [r3]
 488 00ca 013B     		subs	r3, r3, #1
 489 00cc 1B78     		ldrb	r3, [r3]
 490 00ce 1202     		lsls	r2, r2, #8
 491 00d0 D218     		adds	r2, r2, r3
 492 00d2 2300     		movs	r3, r4
 493 00d4 4433     		adds	r3, r3, #68
 494 00d6 1B78     		ldrb	r3, [r3]
 495 00d8 1B04     		lsls	r3, r3, #16
 496 00da D218     		adds	r2, r2, r3
 497 00dc 2300     		movs	r3, r4
 498 00de 4533     		adds	r3, r3, #69
 499 00e0 1B78     		ldrb	r3, [r3]
 500 00e2 1B06     		lsls	r3, r3, #24
 501 00e4 D218     		adds	r2, r2, r3
 502 00e6 A023     		movs	r3, #160
 503 00e8 5B00     		lsls	r3, r3, #1
 504 00ea E35C     		ldrb	r3, [r4, r3]
 505 00ec 5C33     		adds	r3, r3, #92
 506 00ee 9B00     		lsls	r3, r3, #2
 507 00f0 1B59     		ldr	r3, [r3, r4]
 508 00f2 5968     		ldr	r1, [r3, #4]
 509 00f4 8A42     		cmp	r2, r1
 510 00f6 21D0     		beq	.L58
 511 00f8 AC48     		ldr	r0, .L119+20
 512 00fa FFF7FEFF 		bl	smtc_modem_hal_print_trace
 513 00fe AC48     		ldr	r0, .L119+24
 514 0100 FFF7FEFF 		bl	smtc_modem_hal_print_trace
 515              	.L59:
 516 0104 0023     		movs	r3, #0
ARM GAS  /tmp/cczsZjbu.s 			page 11


 517 0106 2B70     		strb	r3, [r5]
 518              	.L60:
 519 0108 C823     		movs	r3, #200
 520 010a 0022     		movs	r2, #0
 521 010c 5B00     		lsls	r3, r3, #1
 522 010e E254     		strb	r2, [r4, r3]
 523              	.L47:
 524 0110 19B0     		add	sp, sp, #100
 525              		@ sp needed
 526 0112 F0BD     		pop	{r4, r5, r6, r7, pc}
 527              	.L56:
 528 0114 3E42     		tst	r6, r7
 529 0116 04D1     		bne	.L55
 530 0118 002E     		cmp	r6, #0
 531 011a 02D0     		beq	.L55
 532 011c A148     		ldr	r0, .L119+12
 533 011e FFF7FEFF 		bl	smtc_modem_hal_print_trace
 534              	.L55:
 535 0122 079B     		ldr	r3, [sp, #28]
 536 0124 A348     		ldr	r0, .L119+28
 537 0126 995D     		ldrb	r1, [r3, r6]
 538 0128 FFF7FEFF 		bl	smtc_modem_hal_print_trace
 539 012c 0136     		adds	r6, r6, #1
 540 012e B2E7     		b	.L54
 541              	.L57:
 542 0130 A022     		movs	r2, #160
 543 0132 0521     		movs	r1, #5
 544 0134 5200     		lsls	r2, r2, #1
 545 0136 A154     		strb	r1, [r4, r2]
 546 0138 002B     		cmp	r3, #0
 547 013a E3D0     		beq	.L59
 548              	.L58:
 549 013c A027     		movs	r7, #160
 550 013e 2878     		ldrb	r0, [r5]
 551 0140 FFF7FEFF 		bl	lr1mac_rx_payload_min_size_check
 552 0144 7F00     		lsls	r7, r7, #1
 553 0146 E35D     		ldrb	r3, [r4, r7]
 554 0148 0600     		movs	r6, r0
 555 014a 5C33     		adds	r3, r3, #92
 556 014c 9B00     		lsls	r3, r3, #2
 557 014e 1B59     		ldr	r3, [r3, r4]
 558 0150 2978     		ldrb	r1, [r5]
 559 0152 1A7D     		ldrb	r2, [r3, #20]
 560 0154 2068     		ldr	r0, [r4]
 561 0156 FFF7FEFF 		bl	lr1mac_rx_payload_max_size_check
 562 015a 3618     		adds	r6, r6, r0
 563 015c 002E     		cmp	r6, #0
 564 015e D3D1     		bne	.L60
 565 0160 2300     		movs	r3, r4
 566 0162 2122     		movs	r2, #33
 567 0164 02A9     		add	r1, sp, #8
 568 0166 0AAE     		add	r6, sp, #40
 569 0168 9233     		adds	r3, r3, #146
 570 016a 5218     		adds	r2, r2, r1
 571 016c 0798     		ldr	r0, [sp, #28]
 572 016e 3100     		movs	r1, r6
 573 0170 FF33     		adds	r3, r3, #255
ARM GAS  /tmp/cczsZjbu.s 			page 12


 574 0172 FFF7FEFF 		bl	lr1mac_rx_mhdr_extract
 575 0176 0028     		cmp	r0, #0
 576 0178 C6D1     		bne	.L60
 577 017a E35D     		ldrb	r3, [r4, r7]
 578 017c 002B     		cmp	r3, #0
 579 017e 07D0     		beq	.L62
 580 0180 9222     		movs	r2, #146
 581 0182 FF32     		adds	r2, r2, #255
 582 0184 A25C     		ldrb	r2, [r4, r2]
 583 0186 012A     		cmp	r2, #1
 584 0188 BED0     		beq	.L60
 585 018a 3278     		ldrb	r2, [r6]
 586 018c 042A     		cmp	r2, #4
 587 018e BBD0     		beq	.L60
 588              	.L62:
 589 0190 2600     		movs	r6, r4
 590 0192 2168     		ldr	r1, [r4]
 591 0194 FC36     		adds	r6, r6, #252
 592 0196 896E     		ldr	r1, [r1, #104]
 593 0198 726F     		ldr	r2, [r6, #116]
 594 019a 5C33     		adds	r3, r3, #92
 595 019c 9160     		str	r1, [r2, #8]
 596 019e 0022     		movs	r2, #0
 597 01a0 9B00     		lsls	r3, r3, #2
 598 01a2 1B59     		ldr	r3, [r3, r4]
 599 01a4 02A9     		add	r1, sp, #8
 600 01a6 4A84     		strh	r2, [r1, #34]
 601 01a8 9A68     		ldr	r2, [r3, #8]
 602 01aa 0798     		ldr	r0, [sp, #28]
 603 01ac 0D92     		str	r2, [sp, #52]
 604 01ae 2200     		movs	r2, r4
 605 01b0 9732     		adds	r2, r2, #151
 606 01b2 FF32     		adds	r2, r2, #255
 607 01b4 2978     		ldrb	r1, [r5]
 608 01b6 0492     		str	r2, [sp, #16]
 609 01b8 013A     		subs	r2, r2, #1
 610 01ba 0392     		str	r2, [sp, #12]
 611 01bc 1132     		adds	r2, r2, #17
 612 01be 0292     		str	r2, [sp, #8]
 613 01c0 733A     		subs	r2, r2, #115
 614 01c2 FF3A     		subs	r2, r2, #255
 615 01c4 0192     		str	r2, [sp, #4]
 616 01c6 5B68     		ldr	r3, [r3, #4]
 617 01c8 02AA     		add	r2, sp, #8
 618 01ca 0093     		str	r3, [sp]
 619 01cc 2223     		movs	r3, #34
 620 01ce 9B18     		adds	r3, r3, r2
 621 01d0 2200     		movs	r2, r4
 622 01d2 A632     		adds	r2, r2, #166
 623 01d4 FF32     		adds	r2, r2, #255
 624 01d6 FFF7FEFF 		bl	lr1mac_rx_fhdr_extract
 625 01da 0028     		cmp	r0, #0
 626 01dc 7AD0     		beq	.L63
 627              	.L116:
 628 01de 0026     		movs	r6, #0
 629              	.L64:
 630 01e0 3100     		movs	r1, r6
ARM GAS  /tmp/cczsZjbu.s 			page 13


 631 01e2 7548     		ldr	r0, .L119+32
 632 01e4 FFF7FEFF 		bl	smtc_modem_hal_print_trace
 633 01e8 C823     		movs	r3, #200
 634 01ea 5B00     		lsls	r3, r3, #1
 635 01ec E654     		strb	r6, [r4, r3]
 636 01ee 012E     		cmp	r6, #1
 637 01f0 00D0     		beq	.LCB616
 638 01f2 89E7     		b	.L60	@long jump
 639              	.LCB616:
 640 01f4 2A78     		ldrb	r2, [r5]
 641 01f6 7149     		ldr	r1, .L119+36
 642 01f8 6948     		ldr	r0, .L119+8
 643 01fa FFF7FEFF 		bl	smtc_modem_hal_print_trace
 644 01fe 0026     		movs	r6, #0
 645 0200 0F27     		movs	r7, #15
 646              	.L79:
 647 0202 2B78     		ldrb	r3, [r5]
 648 0204 B342     		cmp	r3, r6
 649 0206 00D9     		bls	.LCB627
 650 0208 53E1     		b	.L81	@long jump
 651              	.LCB627:
 652 020a 6648     		ldr	r0, .L119+12
 653 020c FFF7FEFF 		bl	smtc_modem_hal_print_trace
 654 0210 A023     		movs	r3, #160
 655 0212 E522     		movs	r2, #229
 656 0214 5B00     		lsls	r3, r3, #1
 657 0216 E35C     		ldrb	r3, [r4, r3]
 658 0218 9200     		lsls	r2, r2, #2
 659 021a 5C33     		adds	r3, r3, #92
 660 021c 9B00     		lsls	r3, r3, #2
 661 021e 1B59     		ldr	r3, [r3, r4]
 662 0220 2668     		ldr	r6, [r4]
 663 0222 1D7D     		ldrb	r5, [r3, #20]
 664 0224 2379     		ldrb	r3, [r4, #4]
 665 0226 2900     		movs	r1, r5
 666 0228 9B18     		adds	r3, r3, r2
 667 022a A268     		ldr	r2, [r4, #8]
 668 022c 5B00     		lsls	r3, r3, #1
 669 022e D35C     		ldrb	r3, [r2, r3]
 670 0230 3000     		movs	r0, r6
 671 0232 0793     		str	r3, [sp, #28]
 672 0234 FFF7FEFF 		bl	smtc_real_get_modulation_type_from_datarate
 673 0238 071E     		subs	r7, r0, #0
 674 023a 00D0     		beq	.LCB653
 675 023c 48E1     		b	.L82	@long jump
 676              	.LCB653:
 677 023e 2222     		movs	r2, #34
 678 0240 02A9     		add	r1, sp, #8
 679 0242 0CAB     		add	r3, sp, #48
 680 0244 5218     		adds	r2, r2, r1
 681 0246 3000     		movs	r0, r6
 682 0248 2900     		movs	r1, r5
 683 024a 0DAD     		add	r5, sp, #52
 684 024c FFF7FEFF 		bl	smtc_real_lora_dr_to_sf_bw
 685 0250 3900     		movs	r1, r7
 686 0252 1422     		movs	r2, #20
 687 0254 2800     		movs	r0, r5
ARM GAS  /tmp/cczsZjbu.s 			page 14


 688 0256 FFF7FEFF 		bl	memset
 689 025a 2222     		movs	r2, #34
 690 025c 02AB     		add	r3, sp, #8
 691 025e 9B18     		adds	r3, r3, r2
 692 0260 1B78     		ldrb	r3, [r3]
 693 0262 0632     		adds	r2, r2, #6
 694 0264 2B70     		strb	r3, [r5]
 695 0266 02AB     		add	r3, sp, #8
 696 0268 9B18     		adds	r3, r3, r2
 697 026a 1B78     		ldrb	r3, [r3]
 698 026c 3000     		movs	r0, r6
 699 026e 6B70     		strb	r3, [r5, #1]
 700 0270 FFF7FEFF 		bl	smtc_real_get_coding_rate
 701 0274 2978     		ldrb	r1, [r5]
 702 0276 A870     		strb	r0, [r5, #2]
 703 0278 3000     		movs	r0, r6
 704 027a FFF7FEFF 		bl	smtc_real_get_preamble_len
 705 027e 079B     		ldr	r3, [sp, #28]
 706 0280 6978     		ldrb	r1, [r5, #1]
 707 0282 A880     		strh	r0, [r5, #4]
 708 0284 EB71     		strb	r3, [r5, #7]
 709 0286 2878     		ldrb	r0, [r5]
 710 0288 AF71     		strb	r7, [r5, #6]
 711 028a 2F72     		strb	r7, [r5, #8]
 712 028c FFF7FEFF 		bl	ral_compute_lora_ldro
 713 0290 4B4B     		ldr	r3, .L119+40
 714 0292 E870     		strb	r0, [r5, #3]
 715 0294 F258     		ldr	r2, [r6, r3]
 716 0296 9C23     		movs	r3, #156
 717 0298 2900     		movs	r1, r5
 718 029a 1B01     		lsls	r3, r3, #4
 719 029c D358     		ldr	r3, [r2, r3]
 720 029e 0EA8     		add	r0, sp, #56
 721 02a0 A033     		adds	r3, r3, #160
 722 02a2 1B68     		ldr	r3, [r3]
 723              	.L117:
 724 02a4 9847     		blx	r3
 725              	.L83:
 726 02a6 DA23     		movs	r3, #218
 727 02a8 5B00     		lsls	r3, r3, #1
 728 02aa E050     		str	r0, [r4, r3]
 729 02ac 743B     		subs	r3, r3, #116
 730 02ae E35C     		ldrb	r3, [r4, r3]
 731 02b0 1A00     		movs	r2, r3
 732 02b2 5C32     		adds	r2, r2, #92
 733 02b4 9200     		lsls	r2, r2, #2
 734 02b6 1159     		ldr	r1, [r2, r4]
 735 02b8 2200     		movs	r2, r4
 736 02ba 087D     		ldrb	r0, [r1, #20]
 737 02bc 3C32     		adds	r2, r2, #60
 738 02be 1070     		strb	r0, [r2]
 739 02c0 0A69     		ldr	r2, [r1, #16]
 740 02c2 0833     		adds	r3, r3, #8
 741 02c4 A263     		str	r2, [r4, #56]
 742 02c6 2200     		movs	r2, r4
 743 02c8 3532     		adds	r2, r2, #53
 744 02ca 1370     		strb	r3, [r2]
ARM GAS  /tmp/cczsZjbu.s 			page 15


 745 02cc E069     		ldr	r0, [r4, #28]
 746 02ce A369     		ldr	r3, [r4, #24]
 747 02d0 9847     		blx	r3
 748 02d2 19E7     		b	.L60
 749              	.L63:
 750 02d4 02AB     		add	r3, sp, #8
 751 02d6 588C     		ldrh	r0, [r3, #34]
 752 02d8 0DA9     		add	r1, sp, #52
 753 02da FFF7FEFF 		bl	lr1mac_fcnt_dwn_accept
 754 02de 0028     		cmp	r0, #0
 755 02e0 00D0     		beq	.LCB745
 756 02e2 7CE7     		b	.L116	@long jump
 757              	.LCB745:
 758 02e4 2978     		ldrb	r1, [r5]
 759 02e6 0422     		movs	r2, #4
 760 02e8 0439     		subs	r1, r1, #4
 761 02ea C9B2     		uxtb	r1, r1
 762 02ec 2970     		strb	r1, [r5]
 763 02ee 4131     		adds	r1, r1, #65
 764 02f0 6118     		adds	r1, r4, r1
 765 02f2 0CA8     		add	r0, sp, #48
 766 02f4 FFF7FEFF 		bl	memcpy1
 767 02f8 A023     		movs	r3, #160
 768 02fa 5B00     		lsls	r3, r3, #1
 769 02fc E35C     		ldrb	r3, [r4, r3]
 770 02fe 0C98     		ldr	r0, [sp, #48]
 771 0300 5C33     		adds	r3, r3, #92
 772 0302 9B00     		lsls	r3, r3, #2
 773 0304 1B59     		ldr	r3, [r3, r4]
 774 0306 2978     		ldrb	r1, [r5]
 775 0308 1A7B     		ldrb	r2, [r3, #12]
 776 030a 0290     		str	r0, [sp, #8]
 777 030c 0D98     		ldr	r0, [sp, #52]
 778 030e 0190     		str	r0, [sp, #4]
 779 0310 0120     		movs	r0, #1
 780 0312 0090     		str	r0, [sp]
 781 0314 5B68     		ldr	r3, [r3, #4]
 782 0316 0798     		ldr	r0, [sp, #28]
 783 0318 FFF7FEFF 		bl	smtc_modem_crypto_verify_mic
 784 031c 0028     		cmp	r0, #0
 785 031e 29D1     		bne	.L66
 786              	.L69:
 787 0320 A023     		movs	r3, #160
 788 0322 5B00     		lsls	r3, r3, #1
 789 0324 E35C     		ldrb	r3, [r4, r3]
 790 0326 0D99     		ldr	r1, [sp, #52]
 791 0328 5C33     		adds	r3, r3, #92
 792 032a 9B00     		lsls	r3, r3, #2
 793 032c 1B59     		ldr	r3, [r3, r4]
 794 032e 2548     		ldr	r0, .L119+44
 795 0330 9960     		str	r1, [r3, #8]
 796 0332 FFF7FEFF 		bl	smtc_modem_hal_print_trace
 797 0336 1E4F     		ldr	r7, .L119+24
 798 0338 3800     		movs	r0, r7
 799 033a FFF7FEFF 		bl	smtc_modem_hal_print_trace
 800 033e 716F     		ldr	r1, [r6, #116]
 801 0340 2368     		ldr	r3, [r4]
ARM GAS  /tmp/cczsZjbu.s 			page 16


 802 0342 8A68     		ldr	r2, [r1, #8]
 803 0344 0120     		movs	r0, #1
 804 0346 9A66     		str	r2, [r3, #104]
 805 0348 9623     		movs	r3, #150
 806 034a 2600     		movs	r6, r4
 807 034c FF33     		adds	r3, r3, #255
 808 034e E25C     		ldrb	r2, [r4, r3]
 809 0350 A023     		movs	r3, #160
 810 0352 1209     		lsrs	r2, r2, #4
 811 0354 0240     		ands	r2, r0
 812 0356 3636     		adds	r6, r6, #54
 813 0358 3270     		strb	r2, [r6]
 814 035a 5B00     		lsls	r3, r3, #1
 815 035c E35C     		ldrb	r3, [r4, r3]
 816 035e 002B     		cmp	r3, #0
 817 0360 13D0     		beq	.L67
 818 0362 1900     		movs	r1, r3
 819 0364 5C31     		adds	r1, r1, #92
 820 0366 8900     		lsls	r1, r1, #2
 821 0368 0959     		ldr	r1, [r1, r4]
 822 036a 2831     		adds	r1, r1, #40
 823 036c 002A     		cmp	r2, #0
 824 036e 5ED0     		beq	.L72
 825 0370 0322     		movs	r2, #3
 826 0372 0EE0     		b	.L115
 827              	.L66:
 828 0374 A36A     		ldr	r3, [r4, #40]
 829 0376 002B     		cmp	r3, #0
 830 0378 00D1     		bne	.LCB830
 831 037a 30E7     		b	.L116	@long jump
 832              	.LCB830:
 833 037c 2000     		movs	r0, r4
 834 037e 0C9A     		ldr	r2, [sp, #48]
 835 0380 0DA9     		add	r1, sp, #52
 836 0382 9847     		blx	r3
 837 0384 0028     		cmp	r0, #0
 838 0386 CBD0     		beq	.L69
 839 0388 29E7     		b	.L116
 840              	.L67:
 841 038a 2831     		adds	r1, r1, #40
 842 038c 002A     		cmp	r2, #0
 843 038e 1BD0     		beq	.L70
 844 0390 0222     		movs	r2, #2
 845              	.L115:
 846 0392 0A70     		strb	r2, [r1]
 847 0394 19E0     		b	.L71
 848              	.L120:
 849 0396 C046     		.align	2
 850              	.L119:
 851 0398 00000000 		.word	.LC2
 852 039c 31000000 		.word	.LC4
 853 03a0 3D000000 		.word	.LC6
 854 03a4 50000000 		.word	.LC8
 855 03a8 CE040000 		.word	1230
 856 03ac 58000000 		.word	.LC12
 857 03b0 8D000000 		.word	.LC14
 858 03b4 52000000 		.word	.LC10
ARM GAS  /tmp/cczsZjbu.s 			page 17


 859 03b8 77010000 		.word	.LC27
 860 03bc 92010000 		.word	.LC29
 861 03c0 BC040000 		.word	1212
 862 03c4 92000000 		.word	.LC16
 863              	.L70:
 864 03c8 0B70     		strb	r3, [r1]
 865              	.L71:
 866 03ca D322     		movs	r2, #211
 867 03cc 5200     		lsls	r2, r2, #1
 868 03ce A25C     		ldrb	r2, [r4, r2]
 869 03d0 002A     		cmp	r2, #0
 870 03d2 67D1     		bne	.L73
 871 03d4 A622     		movs	r2, #166
 872 03d6 FF32     		adds	r2, r2, #255
 873 03d8 A05C     		ldrb	r0, [r4, r2]
 874 03da 2200     		movs	r2, r4
 875 03dc 2978     		ldrb	r1, [r5]
 876 03de 3432     		adds	r2, r2, #52
 877 03e0 0939     		subs	r1, r1, #9
 878 03e2 091A     		subs	r1, r1, r0
 879 03e4 C9B2     		uxtb	r1, r1
 880 03e6 2970     		strb	r1, [r5]
 881 03e8 1678     		ldrb	r6, [r2]
 882 03ea 002E     		cmp	r6, #0
 883 03ec 21D1     		bne	.L74
 884 03ee 5D48     		ldr	r0, .L121
 885 03f0 FFF7FEFF 		bl	smtc_modem_hal_print_trace
 886 03f4 3800     		movs	r0, r7
 887 03f6 FFF7FEFF 		bl	smtc_modem_hal_print_trace
 888              	.L75:
 889 03fa 0AAB     		add	r3, sp, #40
 890 03fc 1A78     		ldrb	r2, [r3]
 891 03fe 9423     		movs	r3, #148
 892 0400 FF33     		adds	r3, r3, #255
 893 0402 E254     		strb	r2, [r4, r3]
 894 0404 733B     		subs	r3, r3, #115
 895 0406 02AA     		add	r2, sp, #8
 896 0408 FF3B     		subs	r3, r3, #255
 897 040a 9B18     		adds	r3, r3, r2
 898 040c 1A78     		ldrb	r2, [r3]
 899 040e CA23     		movs	r3, #202
 900 0410 5B00     		lsls	r3, r3, #1
 901 0412 E254     		strb	r2, [r4, r3]
 902 0414 2068     		ldr	r0, [r4]
 903 0416 FFF7FEFF 		bl	lr1mac_core_next_free_duty_cycle_ms_get
 904 041a 0028     		cmp	r0, #0
 905 041c 00DD     		ble	.LCB915
 906 041e DFE6     		b	.L64	@long jump
 907              	.LCB915:
 908 0420 9222     		movs	r2, #146
 909 0422 2368     		ldr	r3, [r4]
 910 0424 FF32     		adds	r2, r2, #255
 911 0426 A25C     		ldrb	r2, [r4, r2]
 912 0428 7633     		adds	r3, r3, #118
 913 042a 1A70     		strb	r2, [r3]
 914 042c D8E6     		b	.L64
 915              	.L72:
ARM GAS  /tmp/cczsZjbu.s 			page 18


 916 042e 0870     		strb	r0, [r1]
 917 0430 CBE7     		b	.L71
 918              	.L74:
 919 0432 5C33     		adds	r3, r3, #92
 920 0434 9B00     		lsls	r3, r3, #2
 921 0436 1B59     		ldr	r3, [r3, r4]
 922 0438 079E     		ldr	r6, [sp, #28]
 923 043a 5A7B     		ldrb	r2, [r3, #13]
 924 043c 0296     		str	r6, [sp, #8]
 925 043e 9E68     		ldr	r6, [r3, #8]
 926 0440 4A30     		adds	r0, r0, #74
 927 0442 0196     		str	r6, [sp, #4]
 928 0444 0126     		movs	r6, #1
 929 0446 0096     		str	r6, [sp]
 930 0448 5B68     		ldr	r3, [r3, #4]
 931 044a 89B2     		uxth	r1, r1
 932 044c 2018     		adds	r0, r4, r0
 933 044e FFF7FEFF 		bl	smtc_modem_crypto_payload_decrypt
 934 0452 0028     		cmp	r0, #0
 935 0454 15D0     		beq	.L76
 936 0456 444E     		ldr	r6, .L121+4
 937 0458 3000     		movs	r0, r6
 938 045a FFF7FEFF 		bl	smtc_modem_hal_store_crashlog
 939 045e 0120     		movs	r0, #1
 940 0460 FFF7FEFF 		bl	smtc_modem_hal_set_crashlog_status
 941 0464 3100     		movs	r1, r6
 942 0466 4148     		ldr	r0, .L121+8
 943 0468 FFF7FEFF 		bl	smtc_modem_hal_print_trace
 944 046c 3800     		movs	r0, r7
 945 046e FFF7FEFF 		bl	smtc_modem_hal_print_trace
 946 0472 3F48     		ldr	r0, .L121+12
 947 0474 FFF7FEFF 		bl	smtc_modem_hal_print_trace
 948 0478 3800     		movs	r0, r7
 949 047a FFF7FEFF 		bl	smtc_modem_hal_print_trace
 950 047e FFF7FEFF 		bl	smtc_modem_hal_reset_mcu
 951              	.L76:
 952 0482 A623     		movs	r3, #166
 953 0484 FF33     		adds	r3, r3, #255
 954 0486 E35C     		ldrb	r3, [r4, r3]
 955 0488 002B     		cmp	r3, #0
 956 048a 06D0     		beq	.L77
 957              	.L78:
 958 048c 3948     		ldr	r0, .L121+16
 959 048e FFF7FEFF 		bl	smtc_modem_hal_print_trace
 960 0492 3800     		movs	r0, r7
 961 0494 FFF7FEFF 		bl	smtc_modem_hal_print_trace
 962 0498 A1E6     		b	.L116
 963              	.L77:
 964 049a D823     		movs	r3, #216
 965 049c 0126     		movs	r6, #1
 966 049e 5B00     		lsls	r3, r3, #1
 967 04a0 E654     		strb	r6, [r4, r3]
 968 04a2 AAE7     		b	.L75
 969              	.L73:
 970 04a4 A623     		movs	r3, #166
 971 04a6 FF33     		adds	r3, r3, #255
 972 04a8 E35C     		ldrb	r3, [r4, r3]
ARM GAS  /tmp/cczsZjbu.s 			page 19


 973 04aa 002B     		cmp	r3, #0
 974 04ac EED1     		bne	.L78
 975 04ae 0126     		movs	r6, #1
 976 04b0 A3E7     		b	.L75
 977              	.L81:
 978 04b2 3E42     		tst	r6, r7
 979 04b4 04D1     		bne	.L80
 980 04b6 002E     		cmp	r6, #0
 981 04b8 02D0     		beq	.L80
 982 04ba 2F48     		ldr	r0, .L121+20
 983 04bc FFF7FEFF 		bl	smtc_modem_hal_print_trace
 984              	.L80:
 985 04c0 2300     		movs	r3, r4
 986 04c2 4133     		adds	r3, r3, #65
 987 04c4 995D     		ldrb	r1, [r3, r6]
 988 04c6 2D48     		ldr	r0, .L121+24
 989 04c8 FFF7FEFF 		bl	smtc_modem_hal_print_trace
 990 04cc 0136     		adds	r6, r6, #1
 991 04ce 98E6     		b	.L79
 992              	.L82:
 993 04d0 0128     		cmp	r0, #1
 994 04d2 23D1     		bne	.L84
 995 04d4 2900     		movs	r1, r5
 996 04d6 3000     		movs	r0, r6
 997 04d8 0DAD     		add	r5, sp, #52
 998 04da 0CAA     		add	r2, sp, #48
 999 04dc FFF7FEFF 		bl	smtc_real_fsk_dr_to_bitrate
 1000 04e0 2C22     		movs	r2, #44
 1001 04e2 0021     		movs	r1, #0
 1002 04e4 2800     		movs	r0, r5
 1003 04e6 FFF7FEFF 		bl	memset
 1004 04ea 2822     		movs	r2, #40
 1005 04ec 02AB     		add	r3, sp, #8
 1006 04ee 9B18     		adds	r3, r3, r2
 1007 04f0 1A78     		ldrb	r2, [r3]
 1008 04f2 FA23     		movs	r3, #250
 1009 04f4 9B00     		lsls	r3, r3, #2
 1010 04f6 5343     		muls	r3, r2
 1011 04f8 0D93     		str	r3, [sp, #52]
 1012 04fa 2823     		movs	r3, #40
 1013 04fc 2B82     		strh	r3, [r5, #16]
 1014 04fe 079B     		ldr	r3, [sp, #28]
 1015 0500 6F75     		strb	r7, [r5, #21]
 1016 0502 AB75     		strb	r3, [r5, #22]
 1017 0504 0423     		movs	r3, #4
 1018 0506 EB75     		strb	r3, [r5, #23]
 1019 0508 1D4B     		ldr	r3, .L121+28
 1020 050a 2900     		movs	r1, r5
 1021 050c F258     		ldr	r2, [r6, r3]
 1022 050e 9C23     		movs	r3, #156
 1023 0510 1B01     		lsls	r3, r3, #4
 1024 0512 D358     		ldr	r3, [r2, r3]
 1025 0514 11A8     		add	r0, sp, #68
 1026 0516 A433     		adds	r3, r3, #164
 1027 0518 1B68     		ldr	r3, [r3]
 1028 051a C3E6     		b	.L117
 1029              	.L84:
ARM GAS  /tmp/cczsZjbu.s 			page 20


 1030 051c 194D     		ldr	r5, .L121+32
 1031 051e 2800     		movs	r0, r5
 1032 0520 FFF7FEFF 		bl	smtc_modem_hal_store_crashlog
 1033 0524 0120     		movs	r0, #1
 1034 0526 FFF7FEFF 		bl	smtc_modem_hal_set_crashlog_status
 1035 052a 2900     		movs	r1, r5
 1036 052c 0F48     		ldr	r0, .L121+8
 1037 052e FFF7FEFF 		bl	smtc_modem_hal_print_trace
 1038 0532 154D     		ldr	r5, .L121+36
 1039 0534 2800     		movs	r0, r5
 1040 0536 FFF7FEFF 		bl	smtc_modem_hal_print_trace
 1041 053a 1448     		ldr	r0, .L121+40
 1042 053c FFF7FEFF 		bl	smtc_modem_hal_print_trace
 1043 0540 2800     		movs	r0, r5
 1044 0542 FFF7FEFF 		bl	smtc_modem_hal_print_trace
 1045 0546 FFF7FEFF 		bl	smtc_modem_hal_reset_mcu
 1046 054a 0020     		movs	r0, #0
 1047 054c ABE6     		b	.L83
 1048              	.L53:
 1049 054e 1048     		ldr	r0, .L121+44
 1050              	.L118:
 1051 0550 FFF7FEFF 		bl	smtc_modem_hal_print_trace
 1052 0554 DCE5     		b	.L47
 1053              	.L49:
 1054 0556 0F48     		ldr	r0, .L121+48
 1055 0558 FAE7     		b	.L118
 1056              	.L48:
 1057 055a 0F48     		ldr	r0, .L121+52
 1058 055c FFF7FEFF 		bl	smtc_modem_hal_print_trace
 1059 0560 D6E5     		b	.L47
 1060              	.L122:
 1061 0562 C046     		.align	2
 1062              	.L121:
 1063 0564 B0000000 		.word	.LC18
 1064 0568 00000000 		.word	.LANCHOR1
 1065 056c EC000000 		.word	.LC21
 1066 0570 09010000 		.word	.LC23
 1067 0574 42010000 		.word	.LC25
 1068 0578 50000000 		.word	.LC8
 1069 057c 52000000 		.word	.LC10
 1070 0580 BC040000 		.word	1212
 1071 0584 00000000 		.word	.LANCHOR2
 1072 0588 8D000000 		.word	.LC14
 1073 058c A2010000 		.word	.LC32
 1074 0590 D0010000 		.word	.LC34
 1075 0594 E6010000 		.word	.LC36
 1076 0598 0F020000 		.word	.LC38
 1078              		.section	.rodata.smtc_ping_slot_compute_first_slot.str1.1,"aMS",%progbits,1
 1079              	.LC43:
 1080 0000 1B5B303B 		.ascii	"\033[0;31mERROR: -> Crypto error while getting clas"
 1080      33316D45 
 1080      52524F52 
 1080      3A202D3E 
 1080      20437279 
 1081 0030 73204220 		.ascii	"s B rand number for ping slot offset computation\000"
 1081      72616E64 
 1081      206E756D 
ARM GAS  /tmp/cczsZjbu.s 			page 21


 1081      62657220 
 1081      666F7220 
 1082              		.global	__aeabi_uidivmod
 1083              		.global	__aeabi_idivmod
 1084              		.section	.text.smtc_ping_slot_compute_first_slot,"ax",%progbits
 1085              		.align	1
 1086              		.global	smtc_ping_slot_compute_first_slot
 1087              		.syntax unified
 1088              		.code	16
 1089              		.thumb_func
 1090              		.fpu softvfp
 1092              	smtc_ping_slot_compute_first_slot:
 1093              		@ args = 4, pretend = 0, frame = 24
 1094              		@ frame_needed = 0, uses_anonymous_args = 0
 1095 0000 F0B5     		push	{r4, r5, r6, r7, lr}
 1096 0002 1500     		movs	r5, r2
 1097 0004 1E00     		movs	r6, r3
 1098 0006 0C00     		movs	r4, r1
 1099 0008 0021     		movs	r1, #0
 1100 000a 87B0     		sub	sp, sp, #28
 1101 000c 0C22     		movs	r2, #12
 1102 000e 0190     		str	r0, [sp, #4]
 1103 0010 0CAB     		add	r3, sp, #48
 1104 0012 03A8     		add	r0, sp, #12
 1105 0014 0291     		str	r1, [sp, #8]
 1106 0016 1F88     		ldrh	r7, [r3]
 1107 0018 FFF7FEFF 		bl	memset
 1108 001c 3100     		movs	r1, r6
 1109 001e 2800     		movs	r0, r5
 1110 0020 02AA     		add	r2, sp, #8
 1111 0022 FFF7FEFF 		bl	smtc_modem_crypto_get_class_b_rand
 1112 0026 0028     		cmp	r0, #0
 1113 0028 16D0     		beq	.L124
 1114 002a 144D     		ldr	r5, .L128
 1115 002c 2800     		movs	r0, r5
 1116 002e FFF7FEFF 		bl	smtc_modem_hal_store_crashlog
 1117 0032 0120     		movs	r0, #1
 1118 0034 FFF7FEFF 		bl	smtc_modem_hal_set_crashlog_status
 1119 0038 2900     		movs	r1, r5
 1120 003a 1148     		ldr	r0, .L128+4
 1121 003c FFF7FEFF 		bl	smtc_modem_hal_print_trace
 1122 0040 104D     		ldr	r5, .L128+8
 1123 0042 2800     		movs	r0, r5
 1124 0044 FFF7FEFF 		bl	smtc_modem_hal_print_trace
 1125 0048 0F48     		ldr	r0, .L128+12
 1126 004a FFF7FEFF 		bl	smtc_modem_hal_print_trace
 1127 004e 2800     		movs	r0, r5
 1128 0050 FFF7FEFF 		bl	smtc_modem_hal_print_trace
 1129 0054 FFF7FEFF 		bl	smtc_modem_hal_reset_mcu
 1130              	.L124:
 1131 0058 02AB     		add	r3, sp, #8
 1132 005a 5878     		ldrb	r0, [r3, #1]
 1133 005c 1B78     		ldrb	r3, [r3]
 1134 005e 0002     		lsls	r0, r0, #8
 1135 0060 3900     		movs	r1, r7
 1136 0062 C018     		adds	r0, r0, r3
 1137 0064 FFF7FEFF 		bl	__aeabi_idivmod
ARM GAS  /tmp/cczsZjbu.s 			page 22


 1138 0068 9620     		movs	r0, #150
 1139 006a 4000     		lsls	r0, r0, #1
 1140 006c 4843     		muls	r0, r1
 1141 006e 0A21     		movs	r1, #10
 1142 0070 4C43     		muls	r4, r1
 1143 0072 019B     		ldr	r3, [sp, #4]
 1144 0074 E418     		adds	r4, r4, r3
 1145 0076 0019     		adds	r0, r0, r4
 1146 0078 07B0     		add	sp, sp, #28
 1147              		@ sp needed
 1148 007a F0BD     		pop	{r4, r5, r6, r7, pc}
 1149              	.L129:
 1150              		.align	2
 1151              	.L128:
 1152 007c 00000000 		.word	.LANCHOR3
 1153 0080 EC000000 		.word	.LC21
 1154 0084 8D000000 		.word	.LC14
 1155 0088 00000000 		.word	.LC43
 1157              		.section	.text.smtc_ping_slot_init_after_beacon,"ax",%progbits
 1158              		.align	1
 1159              		.global	smtc_ping_slot_init_after_beacon
 1160              		.syntax unified
 1161              		.code	16
 1162              		.thumb_func
 1163              		.fpu softvfp
 1165              	smtc_ping_slot_init_after_beacon:
 1166              		@ args = 8, pretend = 0, frame = 8
 1167              		@ frame_needed = 0, uses_anonymous_args = 0
 1168 0000 F0B5     		push	{r4, r5, r6, r7, lr}
 1169 0002 1E00     		movs	r6, r3
 1170 0004 C223     		movs	r3, #194
 1171 0006 85B0     		sub	sp, sp, #20
 1172 0008 5B00     		lsls	r3, r3, #1
 1173 000a C250     		str	r2, [r0, r3]
 1174 000c 0A9A     		ldr	r2, [sp, #40]
 1175 000e 0433     		adds	r3, r3, #4
 1176 0010 C650     		str	r6, [r0, r3]
 1177 0012 0433     		adds	r3, r3, #4
 1178 0014 C250     		str	r2, [r0, r3]
 1179 0016 0300     		movs	r3, r0
 1180 0018 0500     		movs	r5, r0
 1181 001a 0127     		movs	r7, #1
 1182 001c 0268     		ldr	r2, [r0]
 1183 001e FC33     		adds	r3, r3, #252
 1184 0020 5B6F     		ldr	r3, [r3, #116]
 1185 0022 0391     		str	r1, [sp, #12]
 1186 0024 D16E     		ldr	r1, [r2, #108]
 1187 0026 8530     		adds	r0, r0, #133
 1188 0028 5960     		str	r1, [r3, #4]
 1189 002a 1949     		ldr	r1, .L139
 1190 002c 7135     		adds	r5, r5, #113
 1191 002e 525C     		ldrb	r2, [r2, r1]
 1192 0030 FF30     		adds	r0, r0, #255
 1193 0032 1A76     		strb	r2, [r3, #24]
 1194 0034 FF35     		adds	r5, r5, #255
 1195 0036 0290     		str	r0, [sp, #8]
 1196              	.L134:
ARM GAS  /tmp/cczsZjbu.s 			page 23


 1197 0038 2C68     		ldr	r4, [r5]
 1198 003a 2300     		movs	r3, r4
 1199 003c 2933     		adds	r3, r3, #41
 1200 003e 1A78     		ldrb	r2, [r3]
 1201 0040 002A     		cmp	r2, #0
 1202 0042 1CD0     		beq	.L131
 1203 0044 0022     		movs	r2, #0
 1204 0046 1A70     		strb	r2, [r3]
 1205 0048 2770     		strb	r7, [r4]
 1206              	.L132:
 1207 004a 0722     		movs	r2, #7
 1208 004c 3900     		movs	r1, r7
 1209 004e 237E     		ldrb	r3, [r4, #24]
 1210 0050 0398     		ldr	r0, [sp, #12]
 1211 0052 D21A     		subs	r2, r2, r3
 1212 0054 9140     		lsls	r1, r1, r2
 1213 0056 3A00     		movs	r2, r7
 1214 0058 0533     		adds	r3, r3, #5
 1215 005a 9A40     		lsls	r2, r2, r3
 1216 005c 93B2     		uxth	r3, r2
 1217 005e A177     		strb	r1, [r4, #30]
 1218 0060 A383     		strh	r3, [r4, #28]
 1219 0062 0093     		str	r3, [sp]
 1220 0064 6368     		ldr	r3, [r4, #4]
 1221 0066 3100     		movs	r1, r6
 1222 0068 0B9A     		ldr	r2, [sp, #44]
 1223 006a FFF7FEFF 		bl	smtc_ping_slot_compute_first_slot
 1224 006e 6062     		str	r0, [r4, #36]
 1225 0070 2C68     		ldr	r4, [r5]
 1226 0072 0A21     		movs	r1, #10
 1227 0074 606A     		ldr	r0, [r4, #36]
 1228 0076 FFF7FEFF 		bl	__aeabi_uidiv
 1229 007a 2062     		str	r0, [r4, #32]
 1230 007c 02E0     		b	.L133
 1231              	.L131:
 1232 007e 2378     		ldrb	r3, [r4]
 1233 0080 002B     		cmp	r3, #0
 1234 0082 E2D1     		bne	.L132
 1235              	.L133:
 1236 0084 029B     		ldr	r3, [sp, #8]
 1237 0086 0435     		adds	r5, r5, #4
 1238 0088 AB42     		cmp	r3, r5
 1239 008a D5D1     		bne	.L134
 1240 008c 05B0     		add	sp, sp, #20
 1241              		@ sp needed
 1242 008e F0BD     		pop	{r4, r5, r6, r7, pc}
 1243              	.L140:
 1244              		.align	2
 1245              	.L139:
 1246 0090 52050000 		.word	1362
 1248              		.section	.text.smtc_ping_slot_multicast_b_start_session,"ax",%progbits
 1249              		.align	1
 1250              		.global	smtc_ping_slot_multicast_b_start_session
 1251              		.syntax unified
 1252              		.code	16
 1253              		.thumb_func
 1254              		.fpu softvfp
ARM GAS  /tmp/cczsZjbu.s 			page 24


 1256              	smtc_ping_slot_multicast_b_start_session:
 1257              		@ args = 4, pretend = 0, frame = 8
 1258              		@ frame_needed = 0, uses_anonymous_args = 0
 1259 0000 F7B5     		push	{r0, r1, r2, r4, r5, r6, r7, lr}
 1260 0002 1E00     		movs	r6, r3
 1261 0004 08AB     		add	r3, sp, #32
 1262 0006 1B78     		ldrb	r3, [r3]
 1263 0008 0500     		movs	r5, r0
 1264 000a 0193     		str	r3, [sp, #4]
 1265 000c 437B     		ldrb	r3, [r0, #13]
 1266 000e 1700     		movs	r7, r2
 1267 0010 0620     		movs	r0, #6
 1268 0012 002B     		cmp	r3, #0
 1269 0014 17D0     		beq	.L142
 1270 0016 0538     		subs	r0, r0, #5
 1271 0018 0329     		cmp	r1, #3
 1272 001a 14D8     		bhi	.L142
 1273 001c 0918     		adds	r1, r1, r0
 1274 001e CCB2     		uxtb	r4, r1
 1275 0020 A400     		lsls	r4, r4, #2
 1276 0022 2C19     		adds	r4, r5, r4
 1277 0024 FC34     		adds	r4, r4, #252
 1278 0026 636F     		ldr	r3, [r4, #116]
 1279 0028 0130     		adds	r0, r0, #1
 1280 002a 1A78     		ldrb	r2, [r3]
 1281 002c 002A     		cmp	r2, #0
 1282 002e 0AD1     		bne	.L142
 1283 0030 2933     		adds	r3, r3, #41
 1284 0032 1B78     		ldrb	r3, [r3]
 1285 0034 002B     		cmp	r3, #0
 1286 0036 06D1     		bne	.L142
 1287 0038 3900     		movs	r1, r7
 1288 003a 2868     		ldr	r0, [r5]
 1289 003c FFF7FEFF 		bl	smtc_real_is_frequency_valid
 1290 0040 0028     		cmp	r0, #0
 1291 0042 01D0     		beq	.L143
 1292              	.L144:
 1293 0044 0420     		movs	r0, #4
 1294              	.L142:
 1295              		@ sp needed
 1296 0046 FEBD     		pop	{r1, r2, r3, r4, r5, r6, r7, pc}
 1297              	.L143:
 1298 0048 3100     		movs	r1, r6
 1299 004a 2868     		ldr	r0, [r5]
 1300 004c FFF7FEFF 		bl	smtc_real_is_rx_dr_valid
 1301 0050 0028     		cmp	r0, #0
 1302 0052 F7D1     		bne	.L144
 1303 0054 636F     		ldr	r3, [r4, #116]
 1304 0056 019A     		ldr	r2, [sp, #4]
 1305 0058 1F61     		str	r7, [r3, #16]
 1306 005a 1A76     		strb	r2, [r3, #24]
 1307 005c 0122     		movs	r2, #1
 1308 005e 5242     		rsbs	r2, r2, #0
 1309 0060 9A60     		str	r2, [r3, #8]
 1310 0062 1E75     		strb	r6, [r3, #20]
 1311 0064 0232     		adds	r2, r2, #2
 1312 0066 2933     		adds	r3, r3, #41
ARM GAS  /tmp/cczsZjbu.s 			page 25


 1313 0068 1A70     		strb	r2, [r3]
 1314 006a ECE7     		b	.L142
 1316              		.section	.text.smtc_ping_slot_multicast_b_stop_session,"ax",%progbits
 1317              		.align	1
 1318              		.global	smtc_ping_slot_multicast_b_stop_session
 1319              		.syntax unified
 1320              		.code	16
 1321              		.thumb_func
 1322              		.fpu softvfp
 1324              	smtc_ping_slot_multicast_b_stop_session:
 1325              		@ args = 0, pretend = 0, frame = 0
 1326              		@ frame_needed = 0, uses_anonymous_args = 0
 1327              		@ link register save eliminated.
 1328 0000 0300     		movs	r3, r0
 1329 0002 0120     		movs	r0, #1
 1330 0004 0329     		cmp	r1, #3
 1331 0006 0CD8     		bhi	.L150
 1332 0008 0918     		adds	r1, r1, r0
 1333 000a C9B2     		uxtb	r1, r1
 1334 000c 5C31     		adds	r1, r1, #92
 1335 000e 8900     		lsls	r1, r1, #2
 1336 0010 CB58     		ldr	r3, [r1, r3]
 1337 0012 0020     		movs	r0, #0
 1338 0014 1A00     		movs	r2, r3
 1339 0016 2932     		adds	r2, r2, #41
 1340 0018 1870     		strb	r0, [r3]
 1341 001a 1070     		strb	r0, [r2]
 1342 001c FF22     		movs	r2, #255
 1343 001e 1861     		str	r0, [r3, #16]
 1344 0020 1A75     		strb	r2, [r3, #20]
 1345              	.L150:
 1346              		@ sp needed
 1347 0022 7047     		bx	lr
 1349              		.section	.text.smtc_ping_slot_multicast_b_stop_all_sessions,"ax",%progbits
 1350              		.align	1
 1351              		.global	smtc_ping_slot_multicast_b_stop_all_sessions
 1352              		.syntax unified
 1353              		.code	16
 1354              		.thumb_func
 1355              		.fpu softvfp
 1357              	smtc_ping_slot_multicast_b_stop_all_sessions:
 1358              		@ args = 0, pretend = 0, frame = 0
 1359              		@ frame_needed = 0, uses_anonymous_args = 0
 1360 0000 0200     		movs	r2, r0
 1361 0002 30B5     		push	{r4, r5, lr}
 1362 0004 0021     		movs	r1, #0
 1363 0006 FF24     		movs	r4, #255
 1364 0008 7532     		adds	r2, r2, #117
 1365 000a 8530     		adds	r0, r0, #133
 1366 000c FF32     		adds	r2, r2, #255
 1367 000e FF30     		adds	r0, r0, #255
 1368              	.L153:
 1369 0010 08CA     		ldmia	r2!, {r3}
 1370 0012 1D00     		movs	r5, r3
 1371 0014 2935     		adds	r5, r5, #41
 1372 0016 1970     		strb	r1, [r3]
 1373 0018 2970     		strb	r1, [r5]
ARM GAS  /tmp/cczsZjbu.s 			page 26


 1374 001a 1961     		str	r1, [r3, #16]
 1375 001c 1C75     		strb	r4, [r3, #20]
 1376 001e 8242     		cmp	r2, r0
 1377 0020 F6D1     		bne	.L153
 1378              		@ sp needed
 1379 0022 0020     		movs	r0, #0
 1380 0024 30BD     		pop	{r4, r5, pc}
 1382              		.section	.text.smtc_ping_slot_stop,"ax",%progbits
 1383              		.align	1
 1384              		.global	smtc_ping_slot_stop
 1385              		.syntax unified
 1386              		.code	16
 1387              		.thumb_func
 1388              		.fpu softvfp
 1390              	smtc_ping_slot_stop:
 1391              		@ args = 0, pretend = 0, frame = 0
 1392              		@ frame_needed = 0, uses_anonymous_args = 0
 1393 0000 70B5     		push	{r4, r5, r6, lr}
 1394 0002 437B     		ldrb	r3, [r0, #13]
 1395 0004 0400     		movs	r4, r0
 1396 0006 002B     		cmp	r3, #0
 1397 0008 0AD0     		beq	.L155
 1398 000a 0025     		movs	r5, #0
 1399 000c 4573     		strb	r5, [r0, #13]
 1400 000e FFF7FEFF 		bl	smtc_ping_slot_multicast_b_stop_all_sessions
 1401 0012 2179     		ldrb	r1, [r4, #4]
 1402 0014 A068     		ldr	r0, [r4, #8]
 1403 0016 FFF7FEFF 		bl	rp_task_abort
 1404 001a 2368     		ldr	r3, [r4]
 1405 001c 7733     		adds	r3, r3, #119
 1406 001e 1D70     		strb	r5, [r3]
 1407              	.L155:
 1408              		@ sp needed
 1409 0020 70BD     		pop	{r4, r5, r6, pc}
 1411              		.section	.rodata.smtc_ping_slot_start.str1.1,"aMS",%progbits,1
 1412              	.LC50:
 1413 0000 1B5B303B 		.ascii	"\033[0;31mERROR: -> ping_slot_obj bad initializatio"
 1413      33316D45 
 1413      52524F52 
 1413      3A202D3E 
 1413      2070696E 
 1414 0030 6E200A00 		.ascii	"n \012\000"
 1415              	.LC52:
 1416 0034 1B5B303B 		.ascii	"\033[0;33mWARN: Ping Slot not started, time sync is"
 1416      33336D57 
 1416      41524E3A 
 1416      2050696E 
 1416      6720536C 
 1417 0064 206E6F74 		.ascii	" not valid\012\000"
 1417      2076616C 
 1417      69640A00 
 1418              	.LC54:
 1419 0070 1B5B303B 		.ascii	"\033[0;33mWARN: Ping Slot not started, PinSlotInfoR"
 1419      33336D57 
 1419      41524E3A 
 1419      2050696E 
 1419      6720536C 
ARM GAS  /tmp/cczsZjbu.s 			page 27


 1420 00a0 65712069 		.ascii	"eq is needed\012\000"
 1420      73206E65 
 1420      65646564 
 1420      0A00
 1421              	.LC56:
 1422 00ae 1B5B303B 		.ascii	"\033[0;33mWARN: Ping Slot unicast not started\012\000"
 1422      33336D57 
 1422      41524E3A 
 1422      2050696E 
 1422      6720536C 
 1423              	.LC58:
 1424 00da 50696E67 		.ascii	"Ping Slot no more session\012\000"
 1424      20536C6F 
 1424      74206E6F 
 1424      206D6F72 
 1424      65207365 
 1425              	.LC60:
 1426 00f5 1B5B303B 		.ascii	"\033[0;31mERROR: -> MODULATION NOT SUPPORTED\012\000"
 1426      33316D45 
 1426      52524F52 
 1426      3A202D3E 
 1426      204D4F44 
 1427              	.LC62:
 1428 0120 1B5B303B 		.ascii	"\033[0;31mERROR: ping_slot_obj START ERROR \012\000"
 1428      33316D45 
 1428      52524F52 
 1428      3A207069 
 1428      6E675F73 
 1429              	.LC64:
 1430 014a 70696E67 		.ascii	"ping_slot_obj devaddr:%x START at %d, freq:%u, dr:%"
 1430      5F736C6F 
 1430      745F6F62 
 1430      6A206465 
 1430      76616464 
 1431 017d 642C2050 		.ascii	"d, PingNb:%d\012\000"
 1431      696E674E 
 1431      623A2564 
 1431      0A00
 1432              		.section	.text.smtc_ping_slot_start,"ax",%progbits
 1433              		.align	1
 1434              		.global	smtc_ping_slot_start
 1435              		.syntax unified
 1436              		.code	16
 1437              		.thumb_func
 1438              		.fpu softvfp
 1440              	smtc_ping_slot_start:
 1441              		@ args = 0, pretend = 0, frame = 248
 1442              		@ frame_needed = 0, uses_anonymous_args = 0
 1443 0000 F0B5     		push	{r4, r5, r6, r7, lr}
 1444 0002 0369     		ldr	r3, [r0, #16]
 1445 0004 0400     		movs	r4, r0
 1446 0006 C3B0     		sub	sp, sp, #268
 1447 0008 002B     		cmp	r3, #0
 1448 000a 16D1     		bne	.L161
 1449 000c 834D     		ldr	r5, .L222
 1450 000e 2800     		movs	r0, r5
 1451 0010 FFF7FEFF 		bl	smtc_modem_hal_store_crashlog
ARM GAS  /tmp/cczsZjbu.s 			page 28


 1452 0014 0120     		movs	r0, #1
 1453 0016 FFF7FEFF 		bl	smtc_modem_hal_set_crashlog_status
 1454 001a 2900     		movs	r1, r5
 1455 001c 8048     		ldr	r0, .L222+4
 1456 001e FFF7FEFF 		bl	smtc_modem_hal_print_trace
 1457 0022 804D     		ldr	r5, .L222+8
 1458 0024 2800     		movs	r0, r5
 1459 0026 FFF7FEFF 		bl	smtc_modem_hal_print_trace
 1460 002a 7F48     		ldr	r0, .L222+12
 1461 002c FFF7FEFF 		bl	smtc_modem_hal_print_trace
 1462 0030 2800     		movs	r0, r5
 1463 0032 FFF7FEFF 		bl	smtc_modem_hal_print_trace
 1464 0036 FFF7FEFF 		bl	smtc_modem_hal_reset_mcu
 1465              	.L161:
 1466 003a 2068     		ldr	r0, [r4]
 1467 003c FFF7FEFF 		bl	lr1mac_core_is_time_valid
 1468 0040 0028     		cmp	r0, #0
 1469 0042 0AD1     		bne	.L162
 1470 0044 2000     		movs	r0, r4
 1471 0046 FFF7FEFF 		bl	smtc_ping_slot_stop
 1472 004a 7848     		ldr	r0, .L222+16
 1473              	.L218:
 1474 004c FFF7FEFF 		bl	smtc_modem_hal_print_trace
 1475 0050 7448     		ldr	r0, .L222+8
 1476              	.L215:
 1477 0052 FFF7FEFF 		bl	smtc_modem_hal_print_trace
 1478              	.L160:
 1479 0056 43B0     		add	sp, sp, #268
 1480              		@ sp needed
 1481 0058 F0BD     		pop	{r4, r5, r6, r7, pc}
 1482              	.L162:
 1483 005a 754B     		ldr	r3, .L222+20
 1484 005c 2268     		ldr	r2, [r4]
 1485 005e D35C     		ldrb	r3, [r2, r3]
 1486 0060 032B     		cmp	r3, #3
 1487 0062 04D0     		beq	.L164
 1488 0064 2000     		movs	r0, r4
 1489 0066 FFF7FEFF 		bl	smtc_ping_slot_stop
 1490 006a 7248     		ldr	r0, .L222+24
 1491 006c EEE7     		b	.L218
 1492              	.L164:
 1493 006e 8422     		movs	r2, #132
 1494 0070 0021     		movs	r1, #0
 1495 0072 21A8     		add	r0, sp, #132
 1496 0074 FFF7FEFF 		bl	memset
 1497 0078 1C22     		movs	r2, #28
 1498 007a 0021     		movs	r1, #0
 1499 007c 0FA8     		add	r0, sp, #60
 1500 007e FFF7FEFF 		bl	memset
 1501              	.L191:
 1502 0082 FFF7FEFF 		bl	smtc_modem_hal_get_time_in_ms
 1503 0086 2500     		movs	r5, r4
 1504 0088 0100     		movs	r1, r0
 1505 008a 0490     		str	r0, [sp, #16]
 1506 008c FC35     		adds	r5, r5, #252
 1507 008e 2000     		movs	r0, r4
 1508 0090 FFF7FEFF 		bl	smtc_ping_slot_compute_next_ping_offset_time
ARM GAS  /tmp/cczsZjbu.s 			page 29


 1509 0094 696F     		ldr	r1, [r5, #116]
 1510 0096 0B78     		ldrb	r3, [r1]
 1511 0098 002B     		cmp	r3, #0
 1512 009a 4AD0     		beq	.L165
 1513 009c 2068     		ldr	r0, [r4]
 1514 009e 0AAA     		add	r2, sp, #40
 1515 00a0 C36E     		ldr	r3, [r0, #108]
 1516 00a2 4B60     		str	r3, [r1, #4]
 1517 00a4 0BAB     		add	r3, sp, #44
 1518 00a6 096A     		ldr	r1, [r1, #32]
 1519 00a8 FFF7FEFF 		bl	lr1mac_core_convert_rtc_to_gps_epoch_time
 1520 00ac 2068     		ldr	r0, [r4]
 1521 00ae 624B     		ldr	r3, .L222+28
 1522 00b0 C358     		ldr	r3, [r0, r3]
 1523 00b2 002B     		cmp	r3, #0
 1524 00b4 05D1     		bne	.L166
 1525 00b6 6B6F     		ldr	r3, [r5, #116]
 1526 00b8 0A99     		ldr	r1, [sp, #40]
 1527 00ba 5A68     		ldr	r2, [r3, #4]
 1528 00bc FFF7FEFF 		bl	smtc_real_get_ping_slot_frequency
 1529 00c0 0300     		movs	r3, r0
 1530              	.L166:
 1531 00c2 AA21     		movs	r1, #170
 1532 00c4 6A6F     		ldr	r2, [r5, #116]
 1533 00c6 C900     		lsls	r1, r1, #3
 1534 00c8 1361     		str	r3, [r2, #16]
 1535 00ca 2368     		ldr	r3, [r4]
 1536 00cc 595C     		ldrb	r1, [r3, r1]
 1537 00ce 7733     		adds	r3, r3, #119
 1538 00d0 1175     		strb	r1, [r2, #20]
 1539 00d2 1A78     		ldrb	r2, [r3]
 1540 00d4 002A     		cmp	r2, #0
 1541 00d6 01D1     		bne	.L167
 1542 00d8 0132     		adds	r2, r2, #1
 1543 00da 1A70     		strb	r2, [r3]
 1544              	.L167:
 1545 00dc A023     		movs	r3, #160
 1546 00de 0522     		movs	r2, #5
 1547 00e0 2000     		movs	r0, r4
 1548 00e2 5B00     		lsls	r3, r3, #1
 1549 00e4 C625     		movs	r5, #198
 1550 00e6 C226     		movs	r6, #194
 1551 00e8 E254     		strb	r2, [r4, r3]
 1552 00ea 0023     		movs	r3, #0
 1553 00ec 7130     		adds	r0, r0, #113
 1554 00ee FF30     		adds	r0, r0, #255
 1555 00f0 6D00     		lsls	r5, r5, #1
 1556 00f2 7600     		lsls	r6, r6, #1
 1557              	.L170:
 1558 00f4 0268     		ldr	r2, [r0]
 1559 00f6 1178     		ldrb	r1, [r2]
 1560 00f8 0029     		cmp	r1, #0
 1561 00fa 1CD0     		beq	.L168
 1562 00fc 116A     		ldr	r1, [r2, #32]
 1563 00fe A759     		ldr	r7, [r4, r6]
 1564 0100 6259     		ldr	r2, [r4, r5]
 1565 0102 D21B     		subs	r2, r2, r7
ARM GAS  /tmp/cczsZjbu.s 			page 30


 1566 0104 5218     		adds	r2, r2, r1
 1567 0106 002A     		cmp	r2, #0
 1568 0108 15DC     		bgt	.L168
 1569 010a 049A     		ldr	r2, [sp, #16]
 1570 010c 891A     		subs	r1, r1, r2
 1571 010e 0029     		cmp	r1, #0
 1572 0110 11DD     		ble	.L168
 1573 0112 A022     		movs	r2, #160
 1574 0114 5200     		lsls	r2, r2, #1
 1575 0116 A354     		strb	r3, [r4, r2]
 1576              	.L169:
 1577 0118 A027     		movs	r7, #160
 1578 011a 7F00     		lsls	r7, r7, #1
 1579 011c E55D     		ldrb	r5, [r4, r7]
 1580 011e 052D     		cmp	r5, #5
 1581 0120 17D1     		bne	.L171
 1582              	.L185:
 1583 0122 A025     		movs	r5, #160
 1584 0124 6D00     		lsls	r5, r5, #1
 1585 0126 635D     		ldrb	r3, [r4, r5]
 1586 0128 052B     		cmp	r3, #5
 1587 012a 00D0     		beq	.LCB1641
 1588 012c 8AE0     		b	.L212	@long jump
 1589              	.LCB1641:
 1590 012e 4348     		ldr	r0, .L222+32
 1591 0130 8FE7     		b	.L215
 1592              	.L165:
 1593 0132 4348     		ldr	r0, .L222+36
 1594 0134 8AE7     		b	.L218
 1595              	.L168:
 1596 0136 0133     		adds	r3, r3, #1
 1597 0138 DBB2     		uxtb	r3, r3
 1598 013a 0430     		adds	r0, r0, #4
 1599 013c 052B     		cmp	r3, #5
 1600 013e D9D1     		bne	.L170
 1601 0140 EAE7     		b	.L169
 1602              	.L179:
 1603 0142 9042     		cmp	r0, r2
 1604 0144 03D1     		bne	.L175
 1605 0146 4A68     		ldr	r2, [r1, #4]
 1606 0148 5B68     		ldr	r3, [r3, #4]
 1607 014a 9A42     		cmp	r2, r3
 1608 014c 30D3     		bcc	.L213
 1609              	.L175:
 1610 014e 0135     		adds	r5, r5, #1
 1611 0150 EDB2     		uxtb	r5, r5
 1612              	.L171:
 1613 0152 E25D     		ldrb	r2, [r4, r7]
 1614 0154 042D     		cmp	r5, #4
 1615 0156 E4D8     		bhi	.L185
 1616 0158 9542     		cmp	r5, r2
 1617 015a F8D0     		beq	.L175
 1618 015c AB00     		lsls	r3, r5, #2
 1619 015e E318     		adds	r3, r4, r3
 1620 0160 0693     		str	r3, [sp, #24]
 1621 0162 FC33     		adds	r3, r3, #252
 1622 0164 0793     		str	r3, [sp, #28]
ARM GAS  /tmp/cczsZjbu.s 			page 31


 1623 0166 5B6F     		ldr	r3, [r3, #116]
 1624 0168 1978     		ldrb	r1, [r3]
 1625 016a 0029     		cmp	r1, #0
 1626 016c EFD0     		beq	.L175
 1627 016e 1E6A     		ldr	r6, [r3, #32]
 1628 0170 0499     		ldr	r1, [sp, #16]
 1629 0172 711A     		subs	r1, r6, r1
 1630 0174 02D5     		bpl	.L177
 1631 0176 997F     		ldrb	r1, [r3, #30]
 1632 0178 0029     		cmp	r1, #0
 1633 017a E8D0     		beq	.L175
 1634              	.L177:
 1635 017c C621     		movs	r1, #198
 1636 017e 4900     		lsls	r1, r1, #1
 1637 0180 6158     		ldr	r1, [r4, r1]
 1638 0182 0591     		str	r1, [sp, #20]
 1639 0184 C221     		movs	r1, #194
 1640 0186 4900     		lsls	r1, r1, #1
 1641 0188 6158     		ldr	r1, [r4, r1]
 1642 018a 0598     		ldr	r0, [sp, #20]
 1643 018c 411A     		subs	r1, r0, r1
 1644 018e F142     		cmn	r1, r6
 1645 0190 DDD5     		bpl	.L175
 1646 0192 5C32     		adds	r2, r2, #92
 1647 0194 9200     		lsls	r2, r2, #2
 1648 0196 1159     		ldr	r1, [r2, r4]
 1649 0198 0A6A     		ldr	r2, [r1, #32]
 1650 019a 0592     		str	r2, [sp, #20]
 1651 019c 9642     		cmp	r6, r2
 1652 019e 09D1     		bne	.L178
 1653 01a0 0A00     		movs	r2, r1
 1654 01a2 2832     		adds	r2, r2, #40
 1655 01a4 1078     		ldrb	r0, [r2]
 1656 01a6 1A00     		movs	r2, r3
 1657 01a8 2832     		adds	r2, r2, #40
 1658 01aa 1278     		ldrb	r2, [r2]
 1659 01ac 9042     		cmp	r0, r2
 1660 01ae C8D2     		bcs	.L179
 1661              	.L213:
 1662 01b0 E555     		strb	r5, [r4, r7]
 1663 01b2 CCE7     		b	.L175
 1664              	.L178:
 1665 01b4 059A     		ldr	r2, [sp, #20]
 1666 01b6 2068     		ldr	r0, [r4]
 1667 01b8 B21A     		subs	r2, r6, r2
 1668 01ba 1BD5     		bpl	.L180
 1669 01bc 1A7D     		ldrb	r2, [r3, #20]
 1670 01be D98A     		ldrh	r1, [r3, #22]
 1671 01c0 FFF7FEFF 		bl	smtc_ping_slot_get_duration_timeout_ms.isra.0
 1672 01c4 E35D     		ldrb	r3, [r4, r7]
 1673 01c6 5C33     		adds	r3, r3, #92
 1674 01c8 9B00     		lsls	r3, r3, #2
 1675 01ca 1B59     		ldr	r3, [r3, r4]
 1676 01cc 1A6A     		ldr	r2, [r3, #32]
 1677 01ce B61A     		subs	r6, r6, r2
 1678 01d0 C642     		cmn	r6, r0
 1679 01d2 EDD4     		bmi	.L213
ARM GAS  /tmp/cczsZjbu.s 			page 32


 1680 01d4 1A00     		movs	r2, r3
 1681 01d6 2832     		adds	r2, r2, #40
 1682 01d8 1078     		ldrb	r0, [r2]
 1683 01da 079A     		ldr	r2, [sp, #28]
 1684 01dc 526F     		ldr	r2, [r2, #116]
 1685              	.L221:
 1686 01de 1100     		movs	r1, r2
 1687 01e0 2831     		adds	r1, r1, #40
 1688 01e2 0978     		ldrb	r1, [r1]
 1689 01e4 8842     		cmp	r0, r1
 1690 01e6 E3D3     		bcc	.L213
 1691 01e8 B1D1     		bne	.L175
 1692 01ea 5968     		ldr	r1, [r3, #4]
 1693 01ec 5368     		ldr	r3, [r2, #4]
 1694 01ee 9942     		cmp	r1, r3
 1695 01f0 ADD2     		bcs	.L175
 1696 01f2 DDE7     		b	.L213
 1697              	.L180:
 1698 01f4 0A7D     		ldrb	r2, [r1, #20]
 1699 01f6 C98A     		ldrh	r1, [r1, #22]
 1700 01f8 FFF7FEFF 		bl	smtc_ping_slot_get_duration_timeout_ms.isra.0
 1701 01fc 069B     		ldr	r3, [sp, #24]
 1702 01fe FC33     		adds	r3, r3, #252
 1703 0200 5A6F     		ldr	r2, [r3, #116]
 1704 0202 059B     		ldr	r3, [sp, #20]
 1705 0204 116A     		ldr	r1, [r2, #32]
 1706 0206 5B1A     		subs	r3, r3, r1
 1707 0208 C342     		cmn	r3, r0
 1708 020a A0D4     		bmi	.L175
 1709 020c E35D     		ldrb	r3, [r4, r7]
 1710 020e 5C33     		adds	r3, r3, #92
 1711 0210 9B00     		lsls	r3, r3, #2
 1712 0212 1B59     		ldr	r3, [r3, r4]
 1713 0214 1900     		movs	r1, r3
 1714 0216 2831     		adds	r1, r1, #40
 1715 0218 0878     		ldrb	r0, [r1]
 1716 021a E0E7     		b	.L221
 1717              	.L223:
 1718              		.align	2
 1719              	.L222:
 1720 021c 00000000 		.word	.LANCHOR4
 1721 0220 EC000000 		.word	.LC21
 1722 0224 8D000000 		.word	.LC14
 1723 0228 00000000 		.word	.LC50
 1724 022c 34000000 		.word	.LC52
 1725 0230 46050000 		.word	1350
 1726 0234 70000000 		.word	.LC54
 1727 0238 4C050000 		.word	1356
 1728 023c DA000000 		.word	.LC58
 1729 0240 AE000000 		.word	.LC56
 1730              	.L212:
 1731 0244 0122     		movs	r2, #1
 1732 0246 5C33     		adds	r3, r3, #92
 1733 0248 9B00     		lsls	r3, r3, #2
 1734 024a 1959     		ldr	r1, [r3, r4]
 1735 024c 6273     		strb	r2, [r4, #13]
 1736 024e 0BAB     		add	r3, sp, #44
ARM GAS  /tmp/cczsZjbu.s 			page 33


 1737 0250 0AAA     		add	r2, sp, #40
 1738 0252 096A     		ldr	r1, [r1, #32]
 1739 0254 2068     		ldr	r0, [r4]
 1740 0256 FFF7FEFF 		bl	lr1mac_core_convert_rtc_to_gps_epoch_time
 1741 025a 635D     		ldrb	r3, [r4, r5]
 1742 025c 5C33     		adds	r3, r3, #92
 1743 025e 9B00     		lsls	r3, r3, #2
 1744 0260 1B59     		ldr	r3, [r3, r4]
 1745 0262 1A69     		ldr	r2, [r3, #16]
 1746 0264 0492     		str	r2, [sp, #16]
 1747 0266 002A     		cmp	r2, #0
 1748 0268 05D1     		bne	.L186
 1749 026a 5A68     		ldr	r2, [r3, #4]
 1750 026c 0A99     		ldr	r1, [sp, #40]
 1751 026e 2068     		ldr	r0, [r4]
 1752 0270 FFF7FEFF 		bl	smtc_real_get_ping_slot_frequency
 1753 0274 0490     		str	r0, [sp, #16]
 1754              	.L186:
 1755 0276 A025     		movs	r5, #160
 1756 0278 6D00     		lsls	r5, r5, #1
 1757 027a 635D     		ldrb	r3, [r4, r5]
 1758 027c 2068     		ldr	r0, [r4]
 1759 027e 5C33     		adds	r3, r3, #92
 1760 0280 9B00     		lsls	r3, r3, #2
 1761 0282 1B59     		ldr	r3, [r3, r4]
 1762 0284 0027     		movs	r7, #0
 1763 0286 1B7D     		ldrb	r3, [r3, #20]
 1764 0288 1900     		movs	r1, r3
 1765 028a 0593     		str	r3, [sp, #20]
 1766 028c FFF7FEFF 		bl	smtc_real_get_modulation_type_from_datarate
 1767 0290 635D     		ldrb	r3, [r4, r5]
 1768 0292 D422     		movs	r2, #212
 1769 0294 5C33     		adds	r3, r3, #92
 1770 0296 9B00     		lsls	r3, r3, #2
 1771 0298 1959     		ldr	r1, [r3, r4]
 1772 029a 5200     		lsls	r2, r2, #1
 1773 029c 0B00     		movs	r3, r1
 1774 029e A258     		ldr	r2, [r4, r2]
 1775 02a0 0600     		movs	r6, r0
 1776 02a2 086A     		ldr	r0, [r1, #32]
 1777 02a4 097D     		ldrb	r1, [r1, #20]
 1778 02a6 821A     		subs	r2, r0, r2
 1779 02a8 0DA8     		add	r0, sp, #52
 1780 02aa 0190     		str	r0, [sp, #4]
 1781 02ac 0CA8     		add	r0, sp, #48
 1782 02ae 0297     		str	r7, [sp, #8]
 1783 02b0 0090     		str	r0, [sp]
 1784 02b2 2068     		ldr	r0, [r4]
 1785 02b4 1633     		adds	r3, r3, #22
 1786 02b6 FFF7FEFF 		bl	smtc_real_get_rx_window_parameters
 1787 02ba BE42     		cmp	r6, r7
 1788 02bc 00D0     		beq	.LCB1870
 1789 02be 88E0     		b	.L187	@long jump
 1790              	.LCB1870:
 1791 02c0 04AB     		add	r3, sp, #16
 1792 02c2 1637     		adds	r7, r7, #22
 1793 02c4 FF18     		adds	r7, r7, r3
ARM GAS  /tmp/cczsZjbu.s 			page 34


 1794 02c6 1723     		movs	r3, #23
 1795 02c8 04AA     		add	r2, sp, #16
 1796 02ca 16AD     		add	r5, sp, #88
 1797 02cc 9B18     		adds	r3, r3, r2
 1798 02ce 0599     		ldr	r1, [sp, #20]
 1799 02d0 3A00     		movs	r2, r7
 1800 02d2 2068     		ldr	r0, [r4]
 1801 02d4 FFF7FEFF 		bl	smtc_real_lora_dr_to_sf_bw
 1802 02d8 1422     		movs	r2, #20
 1803 02da 3100     		movs	r1, r6
 1804 02dc 2800     		movs	r0, r5
 1805 02de FFF7FEFF 		bl	memset
 1806 02e2 2068     		ldr	r0, [r4]
 1807 02e4 FFF7FEFF 		bl	smtc_real_get_sync_word
 1808 02e8 A023     		movs	r3, #160
 1809 02ea 6874     		strb	r0, [r5, #17]
 1810 02ec 5B00     		lsls	r3, r3, #1
 1811 02ee E35C     		ldrb	r3, [r4, r3]
 1812 02f0 2068     		ldr	r0, [r4]
 1813 02f2 5C33     		adds	r3, r3, #92
 1814 02f4 9B00     		lsls	r3, r3, #2
 1815 02f6 1B59     		ldr	r3, [r3, r4]
 1816 02f8 DB8A     		ldrh	r3, [r3, #22]
 1817 02fa AB74     		strb	r3, [r5, #18]
 1818 02fc 049B     		ldr	r3, [sp, #16]
 1819 02fe 1993     		str	r3, [sp, #100]
 1820 0300 6A4B     		ldr	r3, .L224
 1821 0302 1793     		str	r3, [sp, #92]
 1822 0304 8023     		movs	r3, #128
 1823 0306 5B00     		lsls	r3, r3, #1
 1824 0308 2B81     		strh	r3, [r5, #8]
 1825 030a FFF7FEFF 		bl	smtc_real_get_coding_rate
 1826 030e 04AB     		add	r3, sp, #16
 1827 0310 D97D     		ldrb	r1, [r3, #23]
 1828 0312 A870     		strb	r0, [r5, #2]
 1829 0314 3878     		ldrb	r0, [r7]
 1830 0316 6970     		strb	r1, [r5, #1]
 1831 0318 2870     		strb	r0, [r5]
 1832 031a FFF7FEFF 		bl	ral_compute_lora_ldro
 1833 031e 0123     		movs	r3, #1
 1834 0320 21AA     		add	r2, sp, #132
 1835 0322 1370     		strb	r3, [r2]
 1836 0324 E870     		strb	r0, [r5, #3]
 1837 0326 2DAB     		add	r3, sp, #180
 1838 0328 43CD     		ldmia	r5!, {r0, r1, r6}
 1839 032a 43C3     		stmia	r3!, {r0, r1, r6}
 1840 032c 03CD     		ldmia	r5!, {r0, r1}
 1841 032e 03C3     		stmia	r3!, {r0, r1}
 1842 0330 0D9B     		ldr	r3, [sp, #52]
 1843              	.L214:
 1844 0332 3893     		str	r3, [sp, #224]
 1845              	.L188:
 1846 0334 2379     		ldrb	r3, [r4, #4]
 1847 0336 0FAD     		add	r5, sp, #60
 1848 0338 2B70     		strb	r3, [r5]
 1849 033a 0023     		movs	r3, #0
 1850 033c AB72     		strb	r3, [r5, #10]
ARM GAS  /tmp/cczsZjbu.s 			page 35


 1851 033e 0133     		adds	r3, r3, #1
 1852 0340 6B72     		strb	r3, [r5, #9]
 1853 0342 FFF7FEFF 		bl	smtc_modem_hal_get_radio_tcxo_startup_delay_ms
 1854 0346 A027     		movs	r7, #160
 1855 0348 0600     		movs	r6, r0
 1856 034a FFF7FEFF 		bl	smtc_modem_hal_get_board_delay_ms
 1857 034e 7F00     		lsls	r7, r7, #1
 1858 0350 E35D     		ldrb	r3, [r4, r7]
 1859 0352 3618     		adds	r6, r6, r0
 1860 0354 5C33     		adds	r3, r3, #92
 1861 0356 9B00     		lsls	r3, r3, #2
 1862 0358 1959     		ldr	r1, [r3, r4]
 1863 035a 0EA8     		add	r0, sp, #56
 1864 035c CB8A     		ldrh	r3, [r1, #22]
 1865 035e 097D     		ldrb	r1, [r1, #20]
 1866 0360 0090     		str	r0, [sp]
 1867 0362 2068     		ldr	r0, [r4]
 1868 0364 72B2     		sxtb	r2, r6
 1869 0366 FFF7FEFF 		bl	smtc_real_get_rx_start_time_offset_ms
 1870 036a E35D     		ldrb	r3, [r4, r7]
 1871 036c 0E98     		ldr	r0, [sp, #56]
 1872 036e 5C33     		adds	r3, r3, #92
 1873 0370 9B00     		lsls	r3, r3, #2
 1874 0372 1959     		ldr	r1, [r3, r4]
 1875 0374 0B6A     		ldr	r3, [r1, #32]
 1876 0376 1A18     		adds	r2, r3, r0
 1877 0378 0A23     		movs	r3, #10
 1878 037a 4343     		muls	r3, r0
 1879 037c EA60     		str	r2, [r5, #12]
 1880 037e 4A6A     		ldr	r2, [r1, #36]
 1881 0380 2068     		ldr	r0, [r4]
 1882 0382 D318     		adds	r3, r2, r3
 1883 0384 2B61     		str	r3, [r5, #16]
 1884 0386 0A7D     		ldrb	r2, [r1, #20]
 1885 0388 C98A     		ldrh	r1, [r1, #22]
 1886 038a FFF7FEFF 		bl	smtc_ping_slot_get_duration_timeout_ms.isra.0
 1887 038e 21AA     		add	r2, sp, #132
 1888 0390 A861     		str	r0, [r5, #24]
 1889 0392 1078     		ldrb	r0, [r2]
 1890 0394 0023     		movs	r3, #0
 1891 0396 4649     		ldr	r1, .L224+4
 1892 0398 0128     		cmp	r0, #1
 1893 039a 01D0     		beq	.L190
 1894 039c 4549     		ldr	r1, .L224+8
 1895 039e 0133     		adds	r3, r3, #1
 1896              	.L190:
 1897 03a0 6960     		str	r1, [r5, #4]
 1898 03a2 6B70     		strb	r3, [r5, #1]
 1899 03a4 0092     		str	r2, [sp]
 1900 03a6 2200     		movs	r2, r4
 1901 03a8 FF23     		movs	r3, #255
 1902 03aa 2900     		movs	r1, r5
 1903 03ac A068     		ldr	r0, [r4, #8]
 1904 03ae 4132     		adds	r2, r2, #65
 1905 03b0 FFF7FEFF 		bl	rp_task_enqueue
 1906 03b4 0328     		cmp	r0, #3
 1907 03b6 00D1     		bne	.LCB1998
ARM GAS  /tmp/cczsZjbu.s 			page 36


 1908 03b8 63E6     		b	.L191	@long jump
 1909              	.LCB1998:
 1910 03ba 0028     		cmp	r0, #0
 1911 03bc 5FD0     		beq	.L192
 1912 03be 3E48     		ldr	r0, .L224+12
 1913 03c0 FFF7FEFF 		bl	smtc_modem_hal_print_trace
 1914 03c4 3D48     		ldr	r0, .L224+16
 1915 03c6 FFF7FEFF 		bl	smtc_modem_hal_print_trace
 1916              	.L193:
 1917 03ca 0023     		movs	r3, #0
 1918 03cc 3534     		adds	r4, r4, #53
 1919 03ce 2370     		strb	r3, [r4]
 1920 03d0 41E6     		b	.L160
 1921              	.L187:
 1922 03d2 012E     		cmp	r6, #1
 1923 03d4 3BD1     		bne	.L189
 1924 03d6 1723     		movs	r3, #23
 1925 03d8 04AA     		add	r2, sp, #16
 1926 03da 9B18     		adds	r3, r3, r2
 1927 03dc 16AD     		add	r5, sp, #88
 1928 03de 1A00     		movs	r2, r3
 1929 03e0 0599     		ldr	r1, [sp, #20]
 1930 03e2 2068     		ldr	r0, [r4]
 1931 03e4 FFF7FEFF 		bl	smtc_real_fsk_dr_to_bitrate
 1932 03e8 3900     		movs	r1, r7
 1933 03ea 2C22     		movs	r2, #44
 1934 03ec 2800     		movs	r0, r5
 1935 03ee FFF7FEFF 		bl	memset
 1936 03f2 2068     		ldr	r0, [r4]
 1937 03f4 FFF7FEFF 		bl	smtc_real_get_gfsk_sync_word
 1938 03f8 7223     		movs	r3, #114
 1939 03fa 04AA     		add	r2, sp, #16
 1940 03fc 9B18     		adds	r3, r3, r2
 1941 03fe 1D90     		str	r0, [sp, #116]
 1942 0400 1E70     		strb	r6, [r3]
 1943 0402 2F4B     		ldr	r3, .L224+20
 1944 0404 D27D     		ldrb	r2, [r2, #23]
 1945 0406 2B85     		strh	r3, [r5, #40]
 1946 0408 2E4B     		ldr	r3, .L224+24
 1947 040a 1F93     		str	r3, [sp, #124]
 1948 040c 049B     		ldr	r3, [sp, #16]
 1949 040e 1E93     		str	r3, [sp, #120]
 1950 0410 2823     		movs	r3, #40
 1951 0412 2B82     		strh	r3, [r5, #16]
 1952 0414 103B     		subs	r3, r3, #16
 1953 0416 EB74     		strb	r3, [r5, #19]
 1954 0418 2B4B     		ldr	r3, .L224+28
 1955 041a 6E75     		strb	r6, [r5, #21]
 1956 041c EB82     		strh	r3, [r5, #22]
 1957 041e 2B4B     		ldr	r3, .L224+32
 1958 0420 2E76     		strb	r6, [r5, #24]
 1959 0422 1793     		str	r3, [sp, #92]
 1960 0424 2A4B     		ldr	r3, .L224+36
 1961 0426 1893     		str	r3, [sp, #96]
 1962 0428 0423     		movs	r3, #4
 1963 042a 2B73     		strb	r3, [r5, #12]
 1964 042c FA23     		movs	r3, #250
ARM GAS  /tmp/cczsZjbu.s 			page 37


 1965 042e 9B00     		lsls	r3, r3, #2
 1966 0430 5343     		muls	r3, r2
 1967 0432 21AA     		add	r2, sp, #132
 1968 0434 1693     		str	r3, [sp, #88]
 1969 0436 1770     		strb	r7, [r2]
 1970 0438 2DAB     		add	r3, sp, #180
 1971 043a 43CD     		ldmia	r5!, {r0, r1, r6}
 1972 043c 43C3     		stmia	r3!, {r0, r1, r6}
 1973 043e 43CD     		ldmia	r5!, {r0, r1, r6}
 1974 0440 43C3     		stmia	r3!, {r0, r1, r6}
 1975 0442 43CD     		ldmia	r5!, {r0, r1, r6}
 1976 0444 43C3     		stmia	r3!, {r0, r1, r6}
 1977 0446 03CD     		ldmia	r5!, {r0, r1}
 1978 0448 03C3     		stmia	r3!, {r0, r1}
 1979 044a 0C9B     		ldr	r3, [sp, #48]
 1980 044c 71E7     		b	.L214
 1981              	.L189:
 1982 044e 214D     		ldr	r5, .L224+40
 1983 0450 2800     		movs	r0, r5
 1984 0452 FFF7FEFF 		bl	smtc_modem_hal_store_crashlog
 1985 0456 0120     		movs	r0, #1
 1986 0458 FFF7FEFF 		bl	smtc_modem_hal_set_crashlog_status
 1987 045c 2900     		movs	r1, r5
 1988 045e 1E48     		ldr	r0, .L224+44
 1989 0460 FFF7FEFF 		bl	smtc_modem_hal_print_trace
 1990 0464 154D     		ldr	r5, .L224+16
 1991 0466 2800     		movs	r0, r5
 1992 0468 FFF7FEFF 		bl	smtc_modem_hal_print_trace
 1993 046c 1B48     		ldr	r0, .L224+48
 1994 046e FFF7FEFF 		bl	smtc_modem_hal_print_trace
 1995 0472 2800     		movs	r0, r5
 1996 0474 FFF7FEFF 		bl	smtc_modem_hal_print_trace
 1997 0478 FFF7FEFF 		bl	smtc_modem_hal_reset_mcu
 1998 047c 5AE7     		b	.L188
 1999              	.L192:
 2000 047e A023     		movs	r3, #160
 2001 0480 5B00     		lsls	r3, r3, #1
 2002 0482 E35C     		ldrb	r3, [r4, r3]
 2003 0484 1648     		ldr	r0, .L224+52
 2004 0486 5C33     		adds	r3, r3, #92
 2005 0488 9B00     		lsls	r3, r3, #2
 2006 048a 1959     		ldr	r1, [r3, r4]
 2007 048c 8B7F     		ldrb	r3, [r1, #30]
 2008 048e 0193     		str	r3, [sp, #4]
 2009 0490 059B     		ldr	r3, [sp, #20]
 2010 0492 0093     		str	r3, [sp]
 2011 0494 0A6A     		ldr	r2, [r1, #32]
 2012 0496 049B     		ldr	r3, [sp, #16]
 2013 0498 4968     		ldr	r1, [r1, #4]
 2014 049a FFF7FEFF 		bl	smtc_modem_hal_print_trace
 2015 049e 236A     		ldr	r3, [r4, #32]
 2016 04a0 002B     		cmp	r3, #0
 2017 04a2 92D0     		beq	.L193
 2018 04a4 606A     		ldr	r0, [r4, #36]
 2019 04a6 9847     		blx	r3
 2020 04a8 8FE7     		b	.L193
 2021              	.L225:
ARM GAS  /tmp/cczsZjbu.s 			page 38


 2022 04aa C046     		.align	2
 2023              	.L224:
 2024 04ac FF0000FF 		.word	-16776961
 2025 04b0 00000000 		.word	ping_slot_mac_rx_lora_launch_callback_for_rp
 2026 04b4 00000000 		.word	lr1_stack_mac_rx_gfsk_launch_callback_for_rp
 2027 04b8 20010000 		.word	.LC62
 2028 04bc 8D000000 		.word	.LC14
 2029 04c0 FF010000 		.word	511
 2030 04c4 0F1D2110 		.word	270605583
 2031 04c8 FF040000 		.word	1279
 2032 04cc A8610000 		.word	25000
 2033 04d0 A0860100 		.word	100000
 2034 04d4 00000000 		.word	.LANCHOR4
 2035 04d8 EC000000 		.word	.LC21
 2036 04dc F5000000 		.word	.LC60
 2037 04e0 4A010000 		.word	.LC64
 2039              		.section	.text.smtc_ping_slot_rp_callback,"ax",%progbits
 2040              		.align	1
 2041              		.global	smtc_ping_slot_rp_callback
 2042              		.syntax unified
 2043              		.code	16
 2044              		.thumb_func
 2045              		.fpu softvfp
 2047              	smtc_ping_slot_rp_callback:
 2048              		@ args = 0, pretend = 0, frame = 0
 2049              		@ frame_needed = 0, uses_anonymous_args = 0
 2050 0000 70B5     		push	{r4, r5, r6, lr}
 2051 0002 8268     		ldr	r2, [r0, #8]
 2052 0004 0379     		ldrb	r3, [r0, #4]
 2053 0006 0400     		movs	r4, r0
 2054 0008 D318     		adds	r3, r2, r3
 2055 000a EF22     		movs	r2, #239
 2056 000c D200     		lsls	r2, r2, #3
 2057 000e 9B18     		adds	r3, r3, r2
 2058 0010 1B78     		ldrb	r3, [r3]
 2059 0012 042B     		cmp	r3, #4
 2060 0014 09D1     		bne	.L227
 2061 0016 4069     		ldr	r0, [r0, #20]
 2062 0018 2369     		ldr	r3, [r4, #16]
 2063 001a 9847     		blx	r3
 2064              	.L228:
 2065 001c 637B     		ldrb	r3, [r4, #13]
 2066 001e 002B     		cmp	r3, #0
 2067 0020 02D0     		beq	.L226
 2068 0022 2000     		movs	r0, r4
 2069 0024 FFF7FEFF 		bl	smtc_ping_slot_start
 2070              	.L226:
 2071              		@ sp needed
 2072 0028 70BD     		pop	{r4, r5, r6, pc}
 2073              	.L227:
 2074 002a 0A2B     		cmp	r3, #10
 2075 002c F6D1     		bne	.L228
 2076 002e 3733     		adds	r3, r3, #55
 2077 0030 FF33     		adds	r3, r3, #255
 2078 0032 C35C     		ldrb	r3, [r0, r3]
 2079 0034 5C33     		adds	r3, r3, #92
 2080 0036 9B00     		lsls	r3, r3, #2
ARM GAS  /tmp/cczsZjbu.s 			page 39


 2081 0038 1B58     		ldr	r3, [r3, r0]
 2082 003a 0068     		ldr	r0, [r0]
 2083 003c D98A     		ldrh	r1, [r3, #22]
 2084 003e 1A7D     		ldrb	r2, [r3, #20]
 2085 0040 1D6A     		ldr	r5, [r3, #32]
 2086 0042 FFF7FEFF 		bl	smtc_ping_slot_get_duration_timeout_ms.isra.0
 2087 0046 2918     		adds	r1, r5, r0
 2088 0048 2000     		movs	r0, r4
 2089 004a FFF7FEFF 		bl	smtc_ping_slot_compute_next_ping_offset_time
 2090 004e E5E7     		b	.L228
 2092              		.section	.text.smtc_ping_slot_multicast_b_get_session_status,"ax",%progbits
 2093              		.align	1
 2094              		.global	smtc_ping_slot_multicast_b_get_session_status
 2095              		.syntax unified
 2096              		.code	16
 2097              		.thumb_func
 2098              		.fpu softvfp
 2100              	smtc_ping_slot_multicast_b_get_session_status:
 2101              		@ args = 12, pretend = 0, frame = 0
 2102              		@ frame_needed = 0, uses_anonymous_args = 0
 2103 0000 10B5     		push	{r4, lr}
 2104 0002 0400     		movs	r4, r0
 2105 0004 0120     		movs	r0, #1
 2106 0006 0329     		cmp	r1, #3
 2107 0008 16D8     		bhi	.L234
 2108 000a 0918     		adds	r1, r1, r0
 2109 000c C9B2     		uxtb	r1, r1
 2110 000e 8900     		lsls	r1, r1, #2
 2111 0010 6118     		adds	r1, r4, r1
 2112 0012 FC31     		adds	r1, r1, #252
 2113 0014 486F     		ldr	r0, [r1, #116]
 2114 0016 0478     		ldrb	r4, [r0]
 2115 0018 1470     		strb	r4, [r2]
 2116 001a 0200     		movs	r2, r0
 2117 001c 2932     		adds	r2, r2, #41
 2118 001e 1278     		ldrb	r2, [r2]
 2119 0020 1A70     		strb	r2, [r3]
 2120 0022 0269     		ldr	r2, [r0, #16]
 2121 0024 029B     		ldr	r3, [sp, #8]
 2122 0026 1A60     		str	r2, [r3]
 2123 0028 037D     		ldrb	r3, [r0, #20]
 2124 002a 0020     		movs	r0, #0
 2125 002c 039A     		ldr	r2, [sp, #12]
 2126 002e 1370     		strb	r3, [r2]
 2127 0030 4B6F     		ldr	r3, [r1, #116]
 2128 0032 049A     		ldr	r2, [sp, #16]
 2129 0034 1B7E     		ldrb	r3, [r3, #24]
 2130 0036 1370     		strb	r3, [r2]
 2131              	.L234:
 2132              		@ sp needed
 2133 0038 10BD     		pop	{r4, pc}
 2135              		.section	.rodata.__func__.0,"a"
 2136              		.set	.LANCHOR3,. + 0
 2139              	__func__.0:
 2140 0000 736D7463 		.ascii	"smtc_ping_slot_compute_first_slot\000"
 2140      5F70696E 
 2140      675F736C 
ARM GAS  /tmp/cczsZjbu.s 			page 40


 2140      6F745F63 
 2140      6F6D7075 
 2141              		.section	.rodata.__func__.1,"a"
 2142              		.set	.LANCHOR2,. + 0
 2145              	__func__.1:
 2146 0000 736D7463 		.ascii	"smtc_ping_slot_compute_downlink_toa\000"
 2146      5F70696E 
 2146      675F736C 
 2146      6F745F63 
 2146      6F6D7075 
 2147              		.section	.rodata.__func__.2,"a"
 2148              		.set	.LANCHOR1,. + 0
 2151              	__func__.2:
 2152 0000 736D7463 		.ascii	"smtc_ping_slot_mac_rx_frame_decode\000"
 2152      5F70696E 
 2152      675F736C 
 2152      6F745F6D 
 2152      61635F72 
 2153              		.section	.rodata.__func__.3,"a"
 2154              		.set	.LANCHOR0,. + 0
 2157              	__func__.3:
 2158 0000 70696E67 		.ascii	"ping_slot_mac_rx_lora_launch_callback_for_rp\000"
 2158      5F736C6F 
 2158      745F6D61 
 2158      635F7278 
 2158      5F6C6F72 
 2159              		.section	.rodata.__func__.4,"a"
 2160              		.set	.LANCHOR4,. + 0
 2163              	__func__.4:
 2164 0000 736D7463 		.ascii	"smtc_ping_slot_start\000"
 2164      5F70696E 
 2164      675F736C 
 2164      6F745F73 
 2164      74617274 
 2165              		.ident	"GCC: (15:10.3-2021.07-4) 10.3.1 20210621 (release)"
ARM GAS  /tmp/cczsZjbu.s 			page 41

