ARM GAS  /tmp/ccwNs5iI.s 			page 1


   1              		.cpu cortex-m0
   2              		.eabi_attribute 23, 1
   3              		.eabi_attribute 24, 1
   4              		.eabi_attribute 25, 1
   5              		.eabi_attribute 26, 1
   6              		.eabi_attribute 30, 4
   7              		.eabi_attribute 34, 0
   8              		.eabi_attribute 18, 4
   9              		.file	"smtc_modem_test.c"
  10              		.text
  11              		.section	.text.ral_compute_lora_ldro,"ax",%progbits
  12              		.align	1
  13              		.arch armv6s-m
  14              		.syntax unified
  15              		.code	16
  16              		.thumb_func
  17              		.fpu softvfp
  19              	ral_compute_lora_ldro:
  20              		@ args = 0, pretend = 0, frame = 0
  21              		@ frame_needed = 0, uses_anonymous_args = 0
  22 0000 0300     		movs	r3, r0
  23 0002 00B5     		push	{lr}
  24 0004 0800     		movs	r0, r1
  25 0006 0C29     		cmp	r1, #12
  26 0008 21D8     		bhi	.L9
  27 000a FFF7FEFF 		bl	__gnu_thumb1_case_uqi
  28              	.L4:
  29 000e 07       		.byte	(.L8-.L4)/2
  30 000f 07       		.byte	(.L8-.L4)/2
  31 0010 07       		.byte	(.L8-.L4)/2
  32 0011 07       		.byte	(.L8-.L4)/2
  33 0012 07       		.byte	(.L8-.L4)/2
  34 0013 1B       		.byte	(.L7-.L4)/2
  35 0014 16       		.byte	(.L6-.L4)/2
  36 0015 0E       		.byte	(.L3-.L4)/2
  37 0016 0E       		.byte	(.L3-.L4)/2
  38 0017 09       		.byte	(.L5-.L4)/2
  39 0018 0E       		.byte	(.L3-.L4)/2
  40 0019 20       		.byte	(.L9-.L4)/2
  41 001a 0E       		.byte	(.L3-.L4)/2
  42 001b 00       		.p2align 1
  43              	.L8:
  44 001c 0120     		movs	r0, #1
  45              	.L2:
  46              		@ sp needed
  47 001e 00BD     		pop	{pc}
  48              	.L5:
  49 0020 0C3B     		subs	r3, r3, #12
  50 0022 5A42     		rsbs	r2, r3, #0
  51 0024 5341     		adcs	r3, r3, r2
  52 0026 D8B2     		uxtb	r0, r3
  53 0028 F9E7     		b	.L2
  54              	.L3:
  55 002a 0020     		movs	r0, #0
  56 002c 0122     		movs	r2, #1
  57 002e 0B3B     		subs	r3, r3, #11
  58 0030 DBB2     		uxtb	r3, r3
ARM GAS  /tmp/ccwNs5iI.s 			page 2


  59              	.L10:
  60 0032 9A42     		cmp	r2, r3
  61 0034 4041     		adcs	r0, r0, r0
  62 0036 C0B2     		uxtb	r0, r0
  63 0038 F1E7     		b	.L2
  64              	.L6:
  65 003a 0A3B     		subs	r3, r3, #10
  66 003c 0020     		movs	r0, #0
  67 003e 0222     		movs	r2, #2
  68 0040 DBB2     		uxtb	r3, r3
  69 0042 F6E7     		b	.L10
  70              	.L7:
  71 0044 093B     		subs	r3, r3, #9
  72 0046 0020     		movs	r0, #0
  73 0048 0322     		movs	r2, #3
  74 004a DBB2     		uxtb	r3, r3
  75 004c F1E7     		b	.L10
  76              	.L9:
  77 004e 0020     		movs	r0, #0
  78 0050 E5E7     		b	.L2
  80              		.section	.rodata.modem_test_empty_callback.str1.1,"aMS",%progbits,1
  81              	.LC0:
  82 0000 54455354 		.ascii	"TEST mode Empty callback\012\000"
  82      206D6F64 
  82      6520456D 
  82      70747920 
  82      63616C6C 
  83              		.section	.text.modem_test_empty_callback,"ax",%progbits
  84              		.align	1
  85              		.global	modem_test_empty_callback
  86              		.syntax unified
  87              		.code	16
  88              		.thumb_func
  89              		.fpu softvfp
  91              	modem_test_empty_callback:
  92              		@ args = 0, pretend = 0, frame = 0
  93              		@ frame_needed = 0, uses_anonymous_args = 0
  94 0000 10B5     		push	{r4, lr}
  95 0002 0248     		ldr	r0, .L12
  96 0004 FFF7FEFF 		bl	smtc_modem_hal_print_trace
  97              		@ sp needed
  98 0008 10BD     		pop	{r4, pc}
  99              	.L13:
 100 000a C046     		.align	2
 101              	.L12:
 102 000c 00000000 		.word	.LC0
 104              		.global	__aeabi_i2f
 105              		.global	__aeabi_ui2f
 106              		.global	__aeabi_fdiv
 107              		.global	__aeabi_f2iz
 108              		.section	.rodata.modem_test_compute_rssi_callback.str1.1,"aMS",%progbits,1
 109              	.LC3:
 110 0000 72737369 		.ascii	"rssi_accu: %d, cnt:%d --> rssi: %d dBm\012\000"
 110      5F616363 
 110      753A2025 
 110      642C2063 
 110      6E743A25 
ARM GAS  /tmp/ccwNs5iI.s 			page 3


 111              		.section	.text.modem_test_compute_rssi_callback,"ax",%progbits
 112              		.align	1
 113              		.global	modem_test_compute_rssi_callback
 114              		.syntax unified
 115              		.code	16
 116              		.thumb_func
 117              		.fpu softvfp
 119              	modem_test_compute_rssi_callback:
 120              		@ args = 0, pretend = 0, frame = 0
 121              		@ frame_needed = 0, uses_anonymous_args = 0
 122 0000 F8B5     		push	{r3, r4, r5, r6, r7, lr}
 123 0002 4368     		ldr	r3, [r0, #4]
 124 0004 0400     		movs	r4, r0
 125              		@ sp needed
 126 0006 1E6C     		ldr	r6, [r3, #64]
 127 0008 756B     		ldr	r5, [r6, #52]
 128 000a 2800     		movs	r0, r5
 129 000c FFF7FEFF 		bl	__aeabi_i2f
 130 0010 0E4B     		ldr	r3, .L15
 131 0012 071C     		adds	r7, r0, #0
 132 0014 5B68     		ldr	r3, [r3, #4]
 133 0016 1B6C     		ldr	r3, [r3, #64]
 134 0018 986B     		ldr	r0, [r3, #56]
 135 001a FFF7FEFF 		bl	__aeabi_ui2f
 136 001e 011C     		adds	r1, r0, #0
 137 0020 381C     		adds	r0, r7, #0
 138 0022 FFF7FEFF 		bl	__aeabi_fdiv
 139 0026 FFF7FEFF 		bl	__aeabi_f2iz
 140 002a 2200     		movs	r2, r4
 141 002c 2100     		movs	r1, r4
 142 002e 03B2     		sxth	r3, r0
 143 0030 FE32     		adds	r2, r2, #254
 144 0032 5381     		strh	r3, [r2, #10]
 145 0034 B26B     		ldr	r2, [r6, #56]
 146 0036 FC31     		adds	r1, r1, #252
 147 0038 0A61     		str	r2, [r1, #16]
 148 003a 0121     		movs	r1, #1
 149 003c FF34     		adds	r4, r4, #255
 150 003e E172     		strb	r1, [r4, #11]
 151 0040 0348     		ldr	r0, .L15+4
 152 0042 2900     		movs	r1, r5
 153 0044 FFF7FEFF 		bl	smtc_modem_hal_print_trace
 154 0048 F8BD     		pop	{r3, r4, r5, r6, r7, pc}
 155              	.L16:
 156 004a C046     		.align	2
 157              	.L15:
 158 004c 00000000 		.word	modem_test_context
 159 0050 00000000 		.word	.LC3
 161              		.section	.rodata.modem_test_rx_callback.str1.1,"aMS",%progbits,1
 162              	.LC5:
 163 0000 743A2025 		.ascii	"t: %d, rp_status %u, snr: %d, rssi: %d\012\000"
 163      642C2072 
 163      705F7374 
 163      61747573 
 163      2025752C 
 164              	.LC7:
 165 0028 72785F70 		.ascii	"rx_payload\000"
ARM GAS  /tmp/ccwNs5iI.s 			page 4


 165      61796C6F 
 165      616400
 166              	.LC9:
 167 0033 2573202D 		.ascii	"%s - (%lu bytes):\012\000"
 167      2028256C 
 167      75206279 
 167      74657329 
 167      3A0A00
 168              	.LC11:
 169 0046 0A00     		.ascii	"\012\000"
 170              	.LC13:
 171 0048 20253032 		.ascii	" %02X\000"
 171      5800
 172              	.LC15:
 173 004e 206D6F64 		.ascii	" modem_test_rx_callback ABORTED\012\000"
 173      656D5F74 
 173      6573745F 
 173      72785F63 
 173      616C6C62 
 174              		.section	.text.modem_test_rx_callback,"ax",%progbits
 175              		.align	1
 176              		.global	modem_test_rx_callback
 177              		.syntax unified
 178              		.code	16
 179              		.thumb_func
 180              		.fpu softvfp
 182              	modem_test_rx_callback:
 183              		@ args = 0, pretend = 0, frame = 160
 184              		@ frame_needed = 0, uses_anonymous_args = 0
 185 0000 F0B5     		push	{r4, r5, r6, r7, lr}
 186 0002 0400     		movs	r4, r0
 187 0004 ABB0     		sub	sp, sp, #172
 188 0006 FFF7FEFF 		bl	smtc_modem_hal_reload_wdog
 189 000a EF22     		movs	r2, #239
 190 000c 2568     		ldr	r5, [r4]
 191 000e 207A     		ldrb	r0, [r4, #8]
 192 0010 D200     		lsls	r2, r2, #3
 193 0012 2B18     		adds	r3, r5, r0
 194 0014 9B18     		adds	r3, r3, r2
 195 0016 1A78     		ldrb	r2, [r3]
 196 0018 042A     		cmp	r2, #4
 197 001a 6CD1     		bne	.L18
 198 001c 2100     		movs	r1, r4
 199 001e FC31     		adds	r1, r1, #252
 200 0020 0B69     		ldr	r3, [r1, #16]
 201 0022 0133     		adds	r3, r3, #1
 202 0024 0B61     		str	r3, [r1, #16]
 203 0026 8421     		movs	r1, #132
 204 0028 4143     		muls	r1, r0
 205 002a 6918     		adds	r1, r5, r1
 206 002c 0B00     		movs	r3, r1
 207 002e E730     		adds	r0, r0, #231
 208 0030 FF30     		adds	r0, r0, #255
 209 0032 8000     		lsls	r0, r0, #2
 210 0034 7C31     		adds	r1, r1, #124
 211 0036 2818     		adds	r0, r5, r0
 212 0038 0025     		movs	r5, #0
ARM GAS  /tmp/ccwNs5iI.s 			page 5


 213 003a 495F     		ldrsh	r1, [r1, r5]
 214 003c 7E33     		adds	r3, r3, #126
 215 003e 0026     		movs	r6, #0
 216 0040 9B5F     		ldrsh	r3, [r3, r6]
 217 0042 0091     		str	r1, [sp]
 218 0044 4168     		ldr	r1, [r0, #4]
 219 0046 3248     		ldr	r0, .L30
 220 0048 FFF7FEFF 		bl	smtc_modem_hal_print_trace
 221 004c E522     		movs	r2, #229
 222 004e 237A     		ldrb	r3, [r4, #8]
 223 0050 9200     		lsls	r2, r2, #2
 224 0052 9B18     		adds	r3, r3, r2
 225 0054 2268     		ldr	r2, [r4]
 226 0056 5B00     		lsls	r3, r3, #1
 227 0058 9A5A     		ldrh	r2, [r3, r2]
 228 005a 2E49     		ldr	r1, .L30+4
 229 005c 2E48     		ldr	r0, .L30+8
 230 005e FFF7FEFF 		bl	smtc_modem_hal_print_trace
 231 0062 0025     		movs	r5, #0
 232 0064 0F26     		movs	r6, #15
 233              	.L19:
 234 0066 E522     		movs	r2, #229
 235 0068 237A     		ldrb	r3, [r4, #8]
 236 006a 9200     		lsls	r2, r2, #2
 237 006c 9B18     		adds	r3, r3, r2
 238 006e 2268     		ldr	r2, [r4]
 239 0070 5B00     		lsls	r3, r3, #1
 240 0072 9B5A     		ldrh	r3, [r3, r2]
 241 0074 AB42     		cmp	r3, r5
 242 0076 2FD8     		bhi	.L21
 243 0078 2848     		ldr	r0, .L30+12
 244 007a FFF7FEFF 		bl	smtc_modem_hal_print_trace
 245              	.L22:
 246 007e 02AD     		add	r5, sp, #8
 247 0080 1C22     		movs	r2, #28
 248 0082 0021     		movs	r1, #0
 249 0084 2800     		movs	r0, r5
 250 0086 FFF7FEFF 		bl	memset
 251 008a 237A     		ldrb	r3, [r4, #8]
 252 008c 09AE     		add	r6, sp, #36
 253 008e 2B70     		strb	r3, [r5]
 254 0090 0123     		movs	r3, #1
 255 0092 AB72     		strb	r3, [r5, #10]
 256 0094 FFF7FEFF 		bl	smtc_modem_hal_get_time_in_ms
 257 0098 FA23     		movs	r3, #250
 258 009a 8422     		movs	r2, #132
 259 009c DB00     		lsls	r3, r3, #3
 260 009e 1430     		adds	r0, r0, #20
 261 00a0 E860     		str	r0, [r5, #12]
 262 00a2 AB61     		str	r3, [r5, #24]
 263 00a4 217A     		ldrb	r1, [r4, #8]
 264 00a6 2768     		ldr	r7, [r4]
 265 00a8 5143     		muls	r1, r2
 266 00aa 7918     		adds	r1, r7, r1
 267 00ac 3000     		movs	r0, r6
 268 00ae 1C31     		adds	r1, r1, #28
 269 00b0 FFF7FEFF 		bl	memcpy
ARM GAS  /tmp/ccwNs5iI.s 			page 6


 270 00b4 2200     		movs	r2, r4
 271 00b6 3378     		ldrb	r3, [r6]
 272 00b8 0932     		adds	r2, r2, #9
 273 00ba 012B     		cmp	r3, #1
 274 00bc 22D1     		bne	.L24
 275 00be 0023     		movs	r3, #0
 276 00c0 6B70     		strb	r3, [r5, #1]
 277 00c2 174B     		ldr	r3, .L30+16
 278 00c4 6B60     		str	r3, [r5, #4]
 279 00c6 5B23     		movs	r3, #91
 280              	.L29:
 281 00c8 6B44     		add	r3, r3, sp
 282 00ca 1B78     		ldrb	r3, [r3]
 283 00cc 2900     		movs	r1, r5
 284 00ce 3800     		movs	r0, r7
 285 00d0 0096     		str	r6, [sp]
 286 00d2 FFF7FEFF 		bl	rp_task_enqueue
 287 00d6 13E0     		b	.L17
 288              	.L21:
 289 00d8 3542     		tst	r5, r6
 290 00da 04D1     		bne	.L20
 291 00dc 002D     		cmp	r5, #0
 292 00de 02D0     		beq	.L20
 293 00e0 0E48     		ldr	r0, .L30+12
 294 00e2 FFF7FEFF 		bl	smtc_modem_hal_print_trace
 295              	.L20:
 296 00e6 2300     		movs	r3, r4
 297 00e8 0933     		adds	r3, r3, #9
 298 00ea 595D     		ldrb	r1, [r3, r5]
 299 00ec 0D48     		ldr	r0, .L30+20
 300 00ee FFF7FEFF 		bl	smtc_modem_hal_print_trace
 301 00f2 0135     		adds	r5, r5, #1
 302 00f4 B7E7     		b	.L19
 303              	.L18:
 304 00f6 0A2A     		cmp	r2, #10
 305 00f8 C1D1     		bne	.L22
 306 00fa 0B48     		ldr	r0, .L30+24
 307 00fc FFF7FEFF 		bl	smtc_modem_hal_print_trace
 308              	.L17:
 309 0100 2BB0     		add	sp, sp, #172
 310              		@ sp needed
 311 0102 F0BD     		pop	{r4, r5, r6, r7, pc}
 312              	.L24:
 313 0104 0123     		movs	r3, #1
 314 0106 6B70     		strb	r3, [r5, #1]
 315 0108 084B     		ldr	r3, .L30+28
 316 010a 6B60     		str	r3, [r5, #4]
 317 010c 6A23     		movs	r3, #106
 318 010e DBE7     		b	.L29
 319              	.L31:
 320              		.align	2
 321              	.L30:
 322 0110 00000000 		.word	.LC5
 323 0114 28000000 		.word	.LC7
 324 0118 33000000 		.word	.LC9
 325 011c 46000000 		.word	.LC11
 326 0120 00000000 		.word	lr1_stack_mac_rx_lora_launch_callback_for_rp
ARM GAS  /tmp/ccwNs5iI.s 			page 7


 327 0124 48000000 		.word	.LC13
 328 0128 4E000000 		.word	.LC15
 329 012c 00000000 		.word	lr1_stack_mac_rx_gfsk_launch_callback_for_rp
 331              		.section	.text.test_mode_cw_callback_for_rp,"ax",%progbits
 332              		.align	1
 333              		.global	test_mode_cw_callback_for_rp
 334              		.syntax unified
 335              		.code	16
 336              		.thumb_func
 337              		.fpu softvfp
 339              	test_mode_cw_callback_for_rp:
 340              		@ args = 0, pretend = 0, frame = 0
 341              		@ frame_needed = 0, uses_anonymous_args = 0
 342 0000 70B5     		push	{r4, r5, r6, lr}
 343 0002 9C26     		movs	r6, #156
 344 0004 144B     		ldr	r3, .L45
 345 0006 3601     		lsls	r6, r6, #4
 346 0008 C55C     		ldrb	r5, [r0, r3]
 347 000a 8359     		ldr	r3, [r0, r6]
 348 000c 0400     		movs	r4, r0
 349 000e DA68     		ldr	r2, [r3, #12]
 350 0010 1868     		ldr	r0, [r3]
 351 0012 9047     		blx	r2
 352 0014 0028     		cmp	r0, #0
 353 0016 03D0     		beq	.L33
 354 0018 1049     		ldr	r1, .L45+4
 355 001a 1148     		ldr	r0, .L45+8
 356 001c FFF7FEFF 		bl	smtc_modem_hal_assert_fail
 357              	.L33:
 358 0020 8421     		movs	r1, #132
 359 0022 A059     		ldr	r0, [r4, r6]
 360 0024 6943     		muls	r1, r5
 361 0026 0300     		movs	r3, r0
 362 0028 2031     		adds	r1, r1, #32
 363 002a F433     		adds	r3, r3, #244
 364 002c 1B68     		ldr	r3, [r3]
 365 002e 6118     		adds	r1, r4, r1
 366 0030 9847     		blx	r3
 367 0032 0028     		cmp	r0, #0
 368 0034 03D0     		beq	.L34
 369 0036 0B49     		ldr	r1, .L45+12
 370 0038 0948     		ldr	r0, .L45+8
 371 003a FFF7FEFF 		bl	smtc_modem_hal_assert_fail
 372              	.L34:
 373 003e 9C23     		movs	r3, #156
 374 0040 1B01     		lsls	r3, r3, #4
 375 0042 E358     		ldr	r3, [r4, r3]
 376 0044 DA6B     		ldr	r2, [r3, #60]
 377 0046 1868     		ldr	r0, [r3]
 378 0048 9047     		blx	r2
 379 004a 0028     		cmp	r0, #0
 380 004c 03D0     		beq	.L32
 381 004e 0649     		ldr	r1, .L45+16
 382 0050 0348     		ldr	r0, .L45+8
 383 0052 FFF7FEFF 		bl	smtc_modem_hal_assert_fail
 384              	.L32:
 385              		@ sp needed
ARM GAS  /tmp/ccwNs5iI.s 			page 8


 386 0056 70BD     		pop	{r4, r5, r6, pc}
 387              	.L46:
 388              		.align	2
 389              	.L45:
 390 0058 84090000 		.word	2436
 391 005c 81030000 		.word	897
 392 0060 00000000 		.word	.LANCHOR0
 393 0064 82030000 		.word	898
 394 0068 83030000 		.word	899
 396              		.section	.rodata.modem_test_tx_callback.str1.1,"aMS",%progbits,1
 397              	.LC20:
 398 0000 206D6F64 		.ascii	" modem_test_tx_callback ABORTED\012\000"
 398      656D5F74 
 398      6573745F 
 398      74785F63 
 398      616C6C62 
 399              		.section	.text.modem_test_tx_callback,"ax",%progbits
 400              		.align	1
 401              		.global	modem_test_tx_callback
 402              		.syntax unified
 403              		.code	16
 404              		.thumb_func
 405              		.fpu softvfp
 407              	modem_test_tx_callback:
 408              		@ args = 0, pretend = 0, frame = 160
 409              		@ frame_needed = 0, uses_anonymous_args = 0
 410 0000 F0B5     		push	{r4, r5, r6, r7, lr}
 411 0002 0400     		movs	r4, r0
 412 0004 ABB0     		sub	sp, sp, #172
 413 0006 FFF7FEFF 		bl	smtc_modem_hal_reload_wdog
 414 000a EF22     		movs	r2, #239
 415 000c 267A     		ldrb	r6, [r4, #8]
 416 000e 2368     		ldr	r3, [r4]
 417 0010 D200     		lsls	r2, r2, #3
 418 0012 9B19     		adds	r3, r3, r6
 419 0014 9B18     		adds	r3, r3, r2
 420 0016 1B78     		ldrb	r3, [r3]
 421 0018 0A2B     		cmp	r3, #10
 422 001a 04D1     		bne	.L48
 423 001c 3248     		ldr	r0, .L61
 424 001e FFF7FEFF 		bl	smtc_modem_hal_print_trace
 425              	.L47:
 426 0022 2BB0     		add	sp, sp, #172
 427              		@ sp needed
 428 0024 F0BD     		pop	{r4, r5, r6, r7, pc}
 429              	.L48:
 430 0026 02AD     		add	r5, sp, #8
 431 0028 1C22     		movs	r2, #28
 432 002a 0021     		movs	r1, #0
 433 002c 2800     		movs	r0, r5
 434 002e FFF7FEFF 		bl	memset
 435 0032 0123     		movs	r3, #1
 436 0034 2E70     		strb	r6, [r5]
 437 0036 AB72     		strb	r3, [r5, #10]
 438 0038 FFF7FEFF 		bl	smtc_modem_hal_get_time_in_ms
 439 003c 8422     		movs	r2, #132
 440 003e 217A     		ldrb	r1, [r4, #8]
ARM GAS  /tmp/ccwNs5iI.s 			page 9


 441 0040 2368     		ldr	r3, [r4]
 442 0042 5143     		muls	r1, r2
 443 0044 1430     		adds	r0, r0, #20
 444 0046 5918     		adds	r1, r3, r1
 445 0048 09AE     		add	r6, sp, #36
 446 004a E860     		str	r0, [r5, #12]
 447 004c 1C31     		adds	r1, r1, #28
 448 004e 3000     		movs	r0, r6
 449 0050 FFF7FEFF 		bl	memcpy
 450 0054 2300     		movs	r3, r4
 451 0056 3278     		ldrb	r2, [r6]
 452 0058 FF33     		adds	r3, r3, #255
 453 005a 012A     		cmp	r2, #1
 454 005c 25D1     		bne	.L50
 455 005e 0132     		adds	r2, r2, #1
 456 0060 6A70     		strb	r2, [r5, #1]
 457 0062 224A     		ldr	r2, .L61+4
 458 0064 6A60     		str	r2, [r5, #4]
 459 0066 5B7C     		ldrb	r3, [r3, #17]
 460 0068 002B     		cmp	r3, #0
 461 006a 1CD1     		bne	.L58
 462              	.L54:
 463 006c 9C23     		movs	r3, #156
 464 006e 2268     		ldr	r2, [r4]
 465 0070 1B01     		lsls	r3, r3, #4
 466 0072 D358     		ldr	r3, [r2, r3]
 467 0074 0AA9     		add	r1, sp, #40
 468 0076 A033     		adds	r3, r3, #160
 469 0078 1B68     		ldr	r3, [r3]
 470 007a 0BA8     		add	r0, sp, #44
 471 007c 9847     		blx	r3
 472 007e A861     		str	r0, [r5, #24]
 473 0080 F37A     		ldrb	r3, [r6, #11]
 474              	.L60:
 475 0082 2200     		movs	r2, r4
 476 0084 2900     		movs	r1, r5
 477 0086 2068     		ldr	r0, [r4]
 478 0088 0932     		adds	r2, r2, #9
 479 008a 0096     		str	r6, [sp]
 480 008c FFF7FEFF 		bl	rp_task_enqueue
 481 0090 C7E7     		b	.L47
 482              	.L53:
 483 0092 FFF7FEFF 		bl	smtc_modem_hal_get_random_nb
 484 0096 E319     		adds	r3, r4, r7
 485 0098 0137     		adds	r7, r7, #1
 486 009a 5872     		strb	r0, [r3, #9]
 487 009c FFB2     		uxtb	r7, r7
 488              	.L51:
 489 009e F37A     		ldrb	r3, [r6, #11]
 490 00a0 BB42     		cmp	r3, r7
 491 00a2 F6D8     		bhi	.L53
 492 00a4 E2E7     		b	.L54
 493              	.L58:
 494 00a6 0027     		movs	r7, #0
 495 00a8 F9E7     		b	.L51
 496              	.L50:
 497 00aa 0322     		movs	r2, #3
ARM GAS  /tmp/ccwNs5iI.s 			page 10


 498 00ac 6A70     		strb	r2, [r5, #1]
 499 00ae 104A     		ldr	r2, .L61+8
 500 00b0 6A60     		str	r2, [r5, #4]
 501 00b2 5B7C     		ldrb	r3, [r3, #17]
 502 00b4 002B     		cmp	r3, #0
 503 00b6 15D1     		bne	.L59
 504              	.L57:
 505 00b8 9C23     		movs	r3, #156
 506 00ba 2268     		ldr	r2, [r4]
 507 00bc 1B01     		lsls	r3, r3, #4
 508 00be D358     		ldr	r3, [r2, r3]
 509 00c0 0AA9     		add	r1, sp, #40
 510 00c2 A433     		adds	r3, r3, #164
 511 00c4 1B68     		ldr	r3, [r3]
 512 00c6 0EA8     		add	r0, sp, #56
 513 00c8 9847     		blx	r3
 514 00ca A861     		str	r0, [r5, #24]
 515 00cc B37E     		ldrb	r3, [r6, #26]
 516 00ce D8E7     		b	.L60
 517              	.L56:
 518 00d0 FFF7FEFF 		bl	smtc_modem_hal_get_random_nb
 519 00d4 E319     		adds	r3, r4, r7
 520 00d6 0137     		adds	r7, r7, #1
 521 00d8 5872     		strb	r0, [r3, #9]
 522 00da FFB2     		uxtb	r7, r7
 523              	.L55:
 524 00dc B37E     		ldrb	r3, [r6, #26]
 525 00de BB42     		cmp	r3, r7
 526 00e0 F6D8     		bhi	.L56
 527 00e2 E9E7     		b	.L57
 528              	.L59:
 529 00e4 0027     		movs	r7, #0
 530 00e6 F9E7     		b	.L55
 531              	.L62:
 532              		.align	2
 533              	.L61:
 534 00e8 00000000 		.word	.LC20
 535 00ec 00000000 		.word	lr1_stack_mac_tx_lora_launch_callback_for_rp
 536 00f0 00000000 		.word	lr1_stack_mac_tx_gfsk_launch_callback_for_rp
 538              		.section	.rodata.smtc_modem_test_start.str1.1,"aMS",%progbits,1
 539              	.LC24:
 540 0000 1B5B303B 		.ascii	"\033[0;33mWARN: TST MODE: ALREADY STARTED\012\000"
 540      33336D57 
 540      41524E3A 
 540      20545354 
 540      204D4F44 
 541              	.LC26:
 542 0028 1B5B306D 		.ascii	"\033[0m\000"
 542      00
 543              	.LC28:
 544 002d 1B5B303B 		.ascii	"\033[0;31mERROR: TST MODE: not available if joined\012"
 544      33316D45 
 544      52524F52 
 544      3A205453 
 544      54204D4F 
 545 005d 00       		.ascii	"\000"
 546              	.LC30:
ARM GAS  /tmp/ccwNs5iI.s 			page 11


 547 005e 1B5B303B 		.ascii	"\033[0;32mINFO: TST MODE: START\012\000"
 547      33326D49 
 547      4E464F3A 
 547      20545354 
 547      204D4F44 
 548              		.section	.text.smtc_modem_test_start,"ax",%progbits
 549              		.align	1
 550              		.global	smtc_modem_test_start
 551              		.syntax unified
 552              		.code	16
 553              		.thumb_func
 554              		.fpu softvfp
 556              	smtc_modem_test_start:
 557              		@ args = 0, pretend = 0, frame = 0
 558              		@ frame_needed = 0, uses_anonymous_args = 0
 559 0000 70B5     		push	{r4, r5, r6, lr}
 560 0002 FFF7FEFF 		bl	modem_get_test_mode_status
 561 0006 1C4D     		ldr	r5, .L67
 562 0008 0028     		cmp	r0, #0
 563 000a 08D0     		beq	.L64
 564 000c 1B48     		ldr	r0, .L67+4
 565 000e FFF7FEFF 		bl	smtc_modem_hal_print_trace
 566 0012 2800     		movs	r0, r5
 567 0014 FFF7FEFF 		bl	smtc_modem_hal_print_trace
 568 0018 0524     		movs	r4, #5
 569              	.L65:
 570              		@ sp needed
 571 001a 2000     		movs	r0, r4
 572 001c 70BD     		pop	{r4, r5, r6, pc}
 573              	.L64:
 574 001e FFF7FEFF 		bl	get_join_state
 575 0022 041E     		subs	r4, r0, #0
 576 0024 07D0     		beq	.L66
 577 0026 1648     		ldr	r0, .L67+8
 578 0028 FFF7FEFF 		bl	smtc_modem_hal_print_trace
 579 002c 2800     		movs	r0, r5
 580 002e FFF7FEFF 		bl	smtc_modem_hal_print_trace
 581 0032 0624     		movs	r4, #6
 582 0034 F1E7     		b	.L65
 583              	.L66:
 584 0036 0120     		movs	r0, #1
 585 0038 FFF7FEFF 		bl	modem_set_test_mode_status
 586 003c 1148     		ldr	r0, .L67+12
 587 003e FFF7FEFF 		bl	smtc_modem_hal_print_trace
 588 0042 2800     		movs	r0, r5
 589 0044 FFF7FEFF 		bl	smtc_modem_hal_print_trace
 590 0048 8A22     		movs	r2, #138
 591 004a 0F4D     		ldr	r5, .L67+16
 592 004c 2100     		movs	r1, r4
 593 004e 5200     		lsls	r2, r2, #1
 594 0050 2800     		movs	r0, r5
 595 0052 FFF7FEFF 		bl	memset
 596 0056 FFF7FEFF 		bl	modem_context_get_modem_rp
 597 005a 2860     		str	r0, [r5]
 598 005c FFF7FEFF 		bl	lorawan_api_stack_mac_get
 599 0060 6860     		str	r0, [r5, #4]
 600 0062 FFF7FEFF 		bl	lorawan_api_rp_hook_id_get
ARM GAS  /tmp/ccwNs5iI.s 			page 12


 601 0066 0100     		movs	r1, r0
 602 0068 2872     		strb	r0, [r5, #8]
 603 006a 2868     		ldr	r0, [r5]
 604 006c FFF7FEFF 		bl	rp_release_hook
 605 0070 2868     		ldr	r0, [r5]
 606 0072 FFF7FEFF 		bl	lorawan_api_init
 607 0076 D0E7     		b	.L65
 608              	.L68:
 609              		.align	2
 610              	.L67:
 611 0078 28000000 		.word	.LC26
 612 007c 00000000 		.word	.LC24
 613 0080 2D000000 		.word	.LC28
 614 0084 5E000000 		.word	.LC30
 615 0088 00000000 		.word	modem_test_context
 617              		.section	.rodata.smtc_modem_test_tx_hop.str1.1,"aMS",%progbits,1
 618              	.LC33:
 619 0000 1B5B303B 		.ascii	"\033[0;33mWARN: TEST FUNCTION CANNOT BE CALLED: NOT"
 619      33336D57 
 619      41524E3A 
 619      20544553 
 619      54204655 
 620 0030 20494E20 		.ascii	" IN TEST MODE\012\000"
 620      54455354 
 620      204D4F44 
 620      450A00
 621              		.section	.text.smtc_modem_test_tx_hop,"ax",%progbits
 622              		.align	1
 623              		.global	smtc_modem_test_tx_hop
 624              		.syntax unified
 625              		.code	16
 626              		.thumb_func
 627              		.fpu softvfp
 629              	smtc_modem_test_tx_hop:
 630              		@ args = 0, pretend = 0, frame = 0
 631              		@ frame_needed = 0, uses_anonymous_args = 0
 632 0000 10B5     		push	{r4, lr}
 633 0002 FFF7FEFF 		bl	modem_get_test_mode_status
 634 0006 0623     		movs	r3, #6
 635 0008 0028     		cmp	r0, #0
 636 000a 06D1     		bne	.L70
 637 000c 0448     		ldr	r0, .L72
 638 000e FFF7FEFF 		bl	smtc_modem_hal_print_trace
 639 0012 0448     		ldr	r0, .L72+4
 640 0014 FFF7FEFF 		bl	smtc_modem_hal_print_trace
 641 0018 0423     		movs	r3, #4
 642              	.L70:
 643              		@ sp needed
 644 001a 1800     		movs	r0, r3
 645 001c 10BD     		pop	{r4, pc}
 646              	.L73:
 647 001e C046     		.align	2
 648              	.L72:
 649 0020 00000000 		.word	.LC33
 650 0024 28000000 		.word	.LC26
 652              		.section	.rodata.smtc_modem_test_tx_cw.str1.1,"aMS",%progbits,1
 653              	.LC39:
ARM GAS  /tmp/ccwNs5iI.s 			page 13


 654 0000 1B5B303B 		.ascii	"\033[0;31mERROR: Invalid Frequency %d\012\000"
 654      33316D45 
 654      52524F52 
 654      3A20496E 
 654      76616C69 
 655              	.LC42:
 656 0024 52616469 		.ascii	"Radio planner hook %d is busy \012\000"
 656      6F20706C 
 656      616E6E65 
 656      7220686F 
 656      6F6B2025 
 657              	.LC44:
 658 0044 54782043 		.ascii	"Tx CW - Freq:%u, Power:%d\012\000"
 658      57202D20 
 658      46726571 
 658      3A25752C 
 658      20506F77 
 659              		.section	.text.smtc_modem_test_tx_cw,"ax",%progbits
 660              		.align	1
 661              		.global	smtc_modem_test_tx_cw
 662              		.syntax unified
 663              		.code	16
 664              		.thumb_func
 665              		.fpu softvfp
 667              	smtc_modem_test_tx_cw:
 668              		@ args = 0, pretend = 0, frame = 192
 669              		@ frame_needed = 0, uses_anonymous_args = 0
 670 0000 F0B5     		push	{r4, r5, r6, r7, lr}
 671 0002 B3B0     		sub	sp, sp, #204
 672 0004 0D00     		movs	r5, r1
 673 0006 0390     		str	r0, [sp, #12]
 674 0008 FFF7FEFF 		bl	modem_get_test_mode_status
 675 000c 0028     		cmp	r0, #0
 676 000e 08D1     		bne	.L75
 677 0010 3048     		ldr	r0, .L83
 678 0012 FFF7FEFF 		bl	smtc_modem_hal_print_trace
 679              	.L82:
 680 0016 3048     		ldr	r0, .L83+4
 681 0018 FFF7FEFF 		bl	smtc_modem_hal_print_trace
 682 001c 0420     		movs	r0, #4
 683              	.L76:
 684 001e 33B0     		add	sp, sp, #204
 685              		@ sp needed
 686 0020 F0BD     		pop	{r4, r5, r6, r7, pc}
 687              	.L75:
 688 0022 2E4F     		ldr	r7, .L83+8
 689 0024 0399     		ldr	r1, [sp, #12]
 690 0026 7868     		ldr	r0, [r7, #4]
 691 0028 FFF7FEFF 		bl	smtc_real_is_frequency_valid
 692 002c 061E     		subs	r6, r0, #0
 693 002e 04D0     		beq	.L77
 694 0030 0399     		ldr	r1, [sp, #12]
 695 0032 2B48     		ldr	r0, .L83+12
 696 0034 FFF7FEFF 		bl	smtc_modem_hal_print_trace
 697 0038 EDE7     		b	.L82
 698              	.L77:
 699 003a 05AC     		add	r4, sp, #20
ARM GAS  /tmp/ccwNs5iI.s 			page 14


 700 003c 0100     		movs	r1, r0
 701 003e 1422     		movs	r2, #20
 702 0040 2000     		movs	r0, r4
 703 0042 FFF7FEFF 		bl	memset
 704 0046 039B     		ldr	r3, [sp, #12]
 705 0048 7868     		ldr	r0, [r7, #4]
 706 004a E360     		str	r3, [r4, #12]
 707 004c 254B     		ldr	r3, .L83+16
 708 004e 2574     		strb	r5, [r4, #16]
 709 0050 2380     		strh	r3, [r4]
 710 0052 FFF7FEFF 		bl	smtc_real_get_coding_rate
 711 0056 A070     		strb	r0, [r4, #2]
 712 0058 7868     		ldr	r0, [r7, #4]
 713 005a FFF7FEFF 		bl	smtc_real_get_sync_word
 714 005e 3100     		movs	r1, r6
 715 0060 8422     		movs	r2, #132
 716 0062 6074     		strb	r0, [r4, #17]
 717 0064 11A8     		add	r0, sp, #68
 718 0066 FFF7FEFF 		bl	memset
 719 006a 3C22     		movs	r2, #60
 720 006c 02AB     		add	r3, sp, #8
 721 006e 9A18     		adds	r2, r3, r2
 722 0070 0123     		movs	r3, #1
 723 0072 1370     		strb	r3, [r2]
 724 0074 2200     		movs	r2, r4
 725 0076 12AB     		add	r3, sp, #72
 726 0078 23CA     		ldmia	r2!, {r0, r1, r5}
 727 007a 23C3     		stmia	r3!, {r0, r1, r5}
 728 007c 03CA     		ldmia	r2!, {r0, r1}
 729 007e 03C3     		stmia	r3!, {r0, r1}
 730 0080 1500     		movs	r5, r2
 731 0082 3100     		movs	r1, r6
 732 0084 1C22     		movs	r2, #28
 733 0086 2800     		movs	r0, r5
 734 0088 FFF7FEFF 		bl	memset
 735 008c 3B7A     		ldrb	r3, [r7, #8]
 736 008e 2B70     		strb	r3, [r5]
 737 0090 0123     		movs	r3, #1
 738 0092 AB72     		strb	r3, [r5, #10]
 739 0094 FFF7FEFF 		bl	smtc_modem_hal_get_time_in_ms
 740 0098 FA23     		movs	r3, #250
 741 009a DB00     		lsls	r3, r3, #3
 742 009c AB61     		str	r3, [r5, #24]
 743 009e 124B     		ldr	r3, .L83+20
 744 00a0 0230     		adds	r0, r0, #2
 745 00a2 6B60     		str	r3, [r5, #4]
 746 00a4 11AB     		add	r3, sp, #68
 747 00a6 E860     		str	r0, [r5, #12]
 748 00a8 6E70     		strb	r6, [r5, #1]
 749 00aa 0093     		str	r3, [sp]
 750 00ac 3200     		movs	r2, r6
 751 00ae 3300     		movs	r3, r6
 752 00b0 2900     		movs	r1, r5
 753 00b2 3868     		ldr	r0, [r7]
 754 00b4 FFF7FEFF 		bl	rp_task_enqueue
 755 00b8 0028     		cmp	r0, #0
 756 00ba 03D0     		beq	.L78
ARM GAS  /tmp/ccwNs5iI.s 			page 15


 757 00bc 2978     		ldrb	r1, [r5]
 758 00be 0B48     		ldr	r0, .L83+24
 759 00c0 FFF7FEFF 		bl	smtc_modem_hal_print_trace
 760              	.L78:
 761 00c4 1022     		movs	r2, #16
 762 00c6 0A48     		ldr	r0, .L83+28
 763 00c8 A256     		ldrsb	r2, [r4, r2]
 764 00ca 0399     		ldr	r1, [sp, #12]
 765 00cc FFF7FEFF 		bl	smtc_modem_hal_print_trace
 766 00d0 0020     		movs	r0, #0
 767 00d2 A4E7     		b	.L76
 768              	.L84:
 769              		.align	2
 770              	.L83:
 771 00d4 00000000 		.word	.LC33
 772 00d8 28000000 		.word	.LC26
 773 00dc 00000000 		.word	modem_test_context
 774 00e0 00000000 		.word	.LC39
 775 00e4 0C070000 		.word	1804
 776 00e8 00000000 		.word	test_mode_cw_callback_for_rp
 777 00ec 24000000 		.word	.LC42
 778 00f0 44000000 		.word	.LC44
 780              		.section	.text.smtc_modem_test_get_nb_rx_packets,"ax",%progbits
 781              		.align	1
 782              		.global	smtc_modem_test_get_nb_rx_packets
 783              		.syntax unified
 784              		.code	16
 785              		.thumb_func
 786              		.fpu softvfp
 788              	smtc_modem_test_get_nb_rx_packets:
 789              		@ args = 0, pretend = 0, frame = 0
 790              		@ frame_needed = 0, uses_anonymous_args = 0
 791 0000 10B5     		push	{r4, lr}
 792 0002 0400     		movs	r4, r0
 793 0004 FFF7FEFF 		bl	modem_get_test_mode_status
 794 0008 0028     		cmp	r0, #0
 795 000a 07D1     		bne	.L86
 796 000c 0648     		ldr	r0, .L88
 797 000e FFF7FEFF 		bl	smtc_modem_hal_print_trace
 798 0012 0648     		ldr	r0, .L88+4
 799 0014 FFF7FEFF 		bl	smtc_modem_hal_print_trace
 800 0018 0420     		movs	r0, #4
 801              	.L87:
 802              		@ sp needed
 803 001a 10BD     		pop	{r4, pc}
 804              	.L86:
 805 001c 044B     		ldr	r3, .L88+8
 806 001e 0020     		movs	r0, #0
 807 0020 FC33     		adds	r3, r3, #252
 808 0022 1B69     		ldr	r3, [r3, #16]
 809 0024 2360     		str	r3, [r4]
 810 0026 F8E7     		b	.L87
 811              	.L89:
 812              		.align	2
 813              	.L88:
 814 0028 00000000 		.word	.LC33
 815 002c 28000000 		.word	.LC26
ARM GAS  /tmp/ccwNs5iI.s 			page 16


 816 0030 00000000 		.word	modem_test_context
 818              		.section	.rodata.smtc_modem_test_rssi.str1.1,"aMS",%progbits,1
 819              	.LC53:
 820 0000 1B5B303B 		.ascii	"\033[0;31mERROR:  Invalid Frequency %d\012\000"
 820      33316D45 
 820      52524F52 
 820      3A202049 
 820      6E76616C 
 821              	.LC55:
 822 0025 1B5B303B 		.ascii	"\033[0;31mERROR: Invalid bw %d\012\000"
 822      33316D45 
 822      52524F52 
 822      3A20496E 
 822      76616C69 
 823              		.section	.text.smtc_modem_test_rssi,"ax",%progbits
 824              		.align	1
 825              		.global	smtc_modem_test_rssi
 826              		.syntax unified
 827              		.code	16
 828              		.thumb_func
 829              		.fpu softvfp
 831              	smtc_modem_test_rssi:
 832              		@ args = 0, pretend = 0, frame = 8
 833              		@ frame_needed = 0, uses_anonymous_args = 0
 834 0000 F0B5     		push	{r4, r5, r6, r7, lr}
 835 0002 89B0     		sub	sp, sp, #36
 836 0004 0600     		movs	r6, r0
 837 0006 0C00     		movs	r4, r1
 838 0008 0792     		str	r2, [sp, #28]
 839 000a FFF7FEFF 		bl	modem_get_test_mode_status
 840 000e 0028     		cmp	r0, #0
 841 0010 08D1     		bne	.L91
 842 0012 2548     		ldr	r0, .L98
 843 0014 FFF7FEFF 		bl	smtc_modem_hal_print_trace
 844              	.L96:
 845 0018 2448     		ldr	r0, .L98+4
 846 001a FFF7FEFF 		bl	smtc_modem_hal_print_trace
 847 001e 0420     		movs	r0, #4
 848              	.L92:
 849 0020 09B0     		add	sp, sp, #36
 850              		@ sp needed
 851 0022 F0BD     		pop	{r4, r5, r6, r7, pc}
 852              	.L91:
 853 0024 224D     		ldr	r5, .L98+8
 854 0026 3100     		movs	r1, r6
 855 0028 6868     		ldr	r0, [r5, #4]
 856 002a FFF7FEFF 		bl	smtc_real_is_frequency_valid
 857 002e 0028     		cmp	r0, #0
 858 0030 04D0     		beq	.L93
 859 0032 3100     		movs	r1, r6
 860 0034 1F48     		ldr	r0, .L98+12
 861              	.L97:
 862 0036 FFF7FEFF 		bl	smtc_modem_hal_print_trace
 863 003a EDE7     		b	.L96
 864              	.L93:
 865 003c 062C     		cmp	r4, #6
 866 003e 02D9     		bls	.L94
ARM GAS  /tmp/ccwNs5iI.s 			page 17


 867 0040 2100     		movs	r1, r4
 868 0042 1D48     		ldr	r0, .L98+16
 869 0044 F7E7     		b	.L97
 870              	.L94:
 871 0046 1D4B     		ldr	r3, .L98+20
 872 0048 A400     		lsls	r4, r4, #2
 873 004a E758     		ldr	r7, [r4, r3]
 874 004c 1C4B     		ldr	r3, .L98+24
 875 004e 9F42     		cmp	r7, r3
 876 0050 00D9     		bls	.L95
 877 0052 1F00     		movs	r7, r3
 878              	.L95:
 879 0054 2B00     		movs	r3, r5
 880 0056 0024     		movs	r4, #0
 881 0058 FF33     		adds	r3, r3, #255
 882 005a DC72     		strb	r4, [r3, #11]
 883 005c 194B     		ldr	r3, .L98+28
 884 005e 6868     		ldr	r0, [r5, #4]
 885 0060 1949     		ldr	r1, .L98+32
 886 0062 0495     		str	r5, [sp, #16]
 887 0064 0393     		str	r3, [sp, #12]
 888 0066 0295     		str	r5, [sp, #8]
 889 0068 0193     		str	r3, [sp, #4]
 890 006a 0095     		str	r5, [sp]
 891 006c 4158     		ldr	r1, [r0, r1]
 892 006e 0422     		movs	r2, #4
 893 0070 006C     		ldr	r0, [r0, #64]
 894 0072 FFF7FEFF 		bl	smtc_lbt_init
 895 0076 6868     		ldr	r0, [r5, #4]
 896 0078 3222     		movs	r2, #50
 897 007a 3B00     		movs	r3, r7
 898 007c 0799     		ldr	r1, [sp, #28]
 899 007e 006C     		ldr	r0, [r0, #64]
 900 0080 FFF7FEFF 		bl	smtc_lbt_set_parameters
 901 0084 6B68     		ldr	r3, [r5, #4]
 902 0086 0121     		movs	r1, #1
 903 0088 186C     		ldr	r0, [r3, #64]
 904 008a FFF7FEFF 		bl	smtc_lbt_set_state
 905 008e 6B68     		ldr	r3, [r5, #4]
 906 0090 1D6C     		ldr	r5, [r3, #64]
 907 0092 FFF7FEFF 		bl	smtc_modem_hal_get_time_in_ms
 908 0096 2200     		movs	r2, r4
 909 0098 0300     		movs	r3, r0
 910 009a 3100     		movs	r1, r6
 911 009c 2800     		movs	r0, r5
 912 009e 0094     		str	r4, [sp]
 913 00a0 FFF7FEFF 		bl	smtc_lbt_listen_channel
 914 00a4 2000     		movs	r0, r4
 915 00a6 BBE7     		b	.L92
 916              	.L99:
 917              		.align	2
 918              	.L98:
 919 00a8 00000000 		.word	.LC33
 920 00ac 28000000 		.word	.LC26
 921 00b0 00000000 		.word	modem_test_context
 922 00b4 00000000 		.word	.LC53
 923 00b8 25000000 		.word	.LC55
ARM GAS  /tmp/ccwNs5iI.s 			page 18


 924 00bc 00000000 		.word	.LANCHOR1
 925 00c0 38200700 		.word	467000
 926 00c4 00000000 		.word	modem_test_compute_rssi_callback
 927 00c8 BC040000 		.word	1212
 929              		.section	.rodata.smtc_modem_test_get_rssi.str1.1,"aMS",%progbits,1
 930              	.LC63:
 931 0000 1B5B303B 		.ascii	"\033[0;33mWARN: RSSI TEST RESULT NOT READY\012\000"
 931      33336D57 
 931      41524E3A 
 931      20525353 
 931      49205445 
 932              		.section	.text.smtc_modem_test_get_rssi,"ax",%progbits
 933              		.align	1
 934              		.global	smtc_modem_test_get_rssi
 935              		.syntax unified
 936              		.code	16
 937              		.thumb_func
 938              		.fpu softvfp
 940              	smtc_modem_test_get_rssi:
 941              		@ args = 0, pretend = 0, frame = 0
 942              		@ frame_needed = 0, uses_anonymous_args = 0
 943 0000 10B5     		push	{r4, lr}
 944 0002 0400     		movs	r4, r0
 945 0004 FFF7FEFF 		bl	modem_get_test_mode_status
 946 0008 0028     		cmp	r0, #0
 947 000a 07D1     		bne	.L101
 948 000c 0D48     		ldr	r0, .L104
 949 000e FFF7FEFF 		bl	smtc_modem_hal_print_trace
 950 0012 0D48     		ldr	r0, .L104+4
 951 0014 FFF7FEFF 		bl	smtc_modem_hal_print_trace
 952 0018 0420     		movs	r0, #4
 953              	.L102:
 954              		@ sp needed
 955 001a 10BD     		pop	{r4, pc}
 956              	.L101:
 957 001c 0B4B     		ldr	r3, .L104+8
 958 001e 1A00     		movs	r2, r3
 959 0020 FF32     		adds	r2, r2, #255
 960 0022 D27A     		ldrb	r2, [r2, #11]
 961 0024 002A     		cmp	r2, #0
 962 0026 07D1     		bne	.L103
 963 0028 0948     		ldr	r0, .L104+12
 964 002a FFF7FEFF 		bl	smtc_modem_hal_print_trace
 965 002e 0648     		ldr	r0, .L104+4
 966 0030 FFF7FEFF 		bl	smtc_modem_hal_print_trace
 967 0034 0520     		movs	r0, #5
 968 0036 F0E7     		b	.L102
 969              	.L103:
 970 0038 FE33     		adds	r3, r3, #254
 971 003a 5B89     		ldrh	r3, [r3, #10]
 972 003c 0020     		movs	r0, #0
 973 003e 4033     		adds	r3, r3, #64
 974 0040 2370     		strb	r3, [r4]
 975 0042 EAE7     		b	.L102
 976              	.L105:
 977              		.align	2
 978              	.L104:
ARM GAS  /tmp/ccwNs5iI.s 			page 19


 979 0044 00000000 		.word	.LC33
 980 0048 28000000 		.word	.LC26
 981 004c 00000000 		.word	modem_test_context
 982 0050 00000000 		.word	.LC63
 984              		.section	.text.modem_test_set_rssi,"ax",%progbits
 985              		.align	1
 986              		.global	modem_test_set_rssi
 987              		.syntax unified
 988              		.code	16
 989              		.thumb_func
 990              		.fpu softvfp
 992              	modem_test_set_rssi:
 993              		@ args = 0, pretend = 0, frame = 0
 994              		@ frame_needed = 0, uses_anonymous_args = 0
 995              		@ link register save eliminated.
 996 0000 014B     		ldr	r3, .L107
 997              		@ sp needed
 998 0002 FE33     		adds	r3, r3, #254
 999 0004 5881     		strh	r0, [r3, #10]
 1000 0006 7047     		bx	lr
 1001              	.L108:
 1002              		.align	2
 1003              	.L107:
 1004 0008 00000000 		.word	modem_test_context
 1006              		.section	.text.smtc_modem_test_radio_reset,"ax",%progbits
 1007              		.align	1
 1008              		.global	smtc_modem_test_radio_reset
 1009              		.syntax unified
 1010              		.code	16
 1011              		.thumb_func
 1012              		.fpu softvfp
 1014              	smtc_modem_test_radio_reset:
 1015              		@ args = 0, pretend = 0, frame = 0
 1016              		@ frame_needed = 0, uses_anonymous_args = 0
 1017 0000 70B5     		push	{r4, r5, r6, lr}
 1018 0002 FFF7FEFF 		bl	modem_get_test_mode_status
 1019 0006 0028     		cmp	r0, #0
 1020 0008 08D1     		bne	.L110
 1021 000a 1348     		ldr	r0, .L114
 1022 000c FFF7FEFF 		bl	smtc_modem_hal_print_trace
 1023 0010 1248     		ldr	r0, .L114+4
 1024 0012 FFF7FEFF 		bl	smtc_modem_hal_print_trace
 1025 0016 0424     		movs	r4, #4
 1026              	.L111:
 1027              		@ sp needed
 1028 0018 2000     		movs	r0, r4
 1029 001a 70BD     		pop	{r4, r5, r6, pc}
 1030              	.L110:
 1031 001c 9C24     		movs	r4, #156
 1032 001e 104D     		ldr	r5, .L114+8
 1033 0020 2401     		lsls	r4, r4, #4
 1034 0022 2B68     		ldr	r3, [r5]
 1035 0024 1B59     		ldr	r3, [r3, r4]
 1036 0026 9A68     		ldr	r2, [r3, #8]
 1037 0028 1868     		ldr	r0, [r3]
 1038 002a 9047     		blx	r2
 1039 002c 0028     		cmp	r0, #0
ARM GAS  /tmp/ccwNs5iI.s 			page 20


 1040 002e 01D0     		beq	.L112
 1041              	.L113:
 1042 0030 0624     		movs	r4, #6
 1043 0032 F1E7     		b	.L111
 1044              	.L112:
 1045 0034 2B68     		ldr	r3, [r5]
 1046 0036 1B59     		ldr	r3, [r3, r4]
 1047 0038 DA68     		ldr	r2, [r3, #12]
 1048 003a 1868     		ldr	r0, [r3]
 1049 003c 9047     		blx	r2
 1050 003e 0028     		cmp	r0, #0
 1051 0040 F6D1     		bne	.L113
 1052 0042 2B68     		ldr	r3, [r5]
 1053 0044 0121     		movs	r1, #1
 1054 0046 1B59     		ldr	r3, [r3, r4]
 1055 0048 5A69     		ldr	r2, [r3, #20]
 1056 004a 1868     		ldr	r0, [r3]
 1057 004c 9047     		blx	r2
 1058 004e 041E     		subs	r4, r0, #0
 1059 0050 EED1     		bne	.L113
 1060 0052 FFF7FEFF 		bl	smtc_modem_hal_stop_radio_tcxo
 1061 0056 DFE7     		b	.L111
 1062              	.L115:
 1063              		.align	2
 1064              	.L114:
 1065 0058 00000000 		.word	.LC33
 1066 005c 28000000 		.word	.LC26
 1067 0060 00000000 		.word	modem_test_context
 1069              		.section	.text.smtc_modem_test_nop,"ax",%progbits
 1070              		.align	1
 1071              		.global	smtc_modem_test_nop
 1072              		.syntax unified
 1073              		.code	16
 1074              		.thumb_func
 1075              		.fpu softvfp
 1077              	smtc_modem_test_nop:
 1078              		@ args = 0, pretend = 0, frame = 0
 1079              		@ frame_needed = 0, uses_anonymous_args = 0
 1080 0000 10B5     		push	{r4, lr}
 1081 0002 FFF7FEFF 		bl	modem_get_test_mode_status
 1082 0006 0028     		cmp	r0, #0
 1083 0008 07D1     		bne	.L117
 1084 000a 0848     		ldr	r0, .L119
 1085 000c FFF7FEFF 		bl	smtc_modem_hal_print_trace
 1086 0010 0748     		ldr	r0, .L119+4
 1087 0012 FFF7FEFF 		bl	smtc_modem_hal_print_trace
 1088 0016 0420     		movs	r0, #4
 1089              	.L118:
 1090              		@ sp needed
 1091 0018 10BD     		pop	{r4, pc}
 1092              	.L117:
 1093 001a 064B     		ldr	r3, .L119+8
 1094 001c 197A     		ldrb	r1, [r3, #8]
 1095 001e 1868     		ldr	r0, [r3]
 1096 0020 FFF7FEFF 		bl	rp_task_abort
 1097 0024 FFF7FEFF 		bl	smtc_modem_test_radio_reset
 1098 0028 0020     		movs	r0, #0
ARM GAS  /tmp/ccwNs5iI.s 			page 21


 1099 002a F5E7     		b	.L118
 1100              	.L120:
 1101              		.align	2
 1102              	.L119:
 1103 002c 00000000 		.word	.LC33
 1104 0030 28000000 		.word	.LC26
 1105 0034 00000000 		.word	modem_test_context
 1107              		.section	.text.smtc_modem_test_stop,"ax",%progbits
 1108              		.align	1
 1109              		.global	smtc_modem_test_stop
 1110              		.syntax unified
 1111              		.code	16
 1112              		.thumb_func
 1113              		.fpu softvfp
 1115              	smtc_modem_test_stop:
 1116              		@ args = 0, pretend = 0, frame = 0
 1117              		@ frame_needed = 0, uses_anonymous_args = 0
 1118 0000 70B5     		push	{r4, r5, r6, lr}
 1119 0002 FFF7FEFF 		bl	modem_get_test_mode_status
 1120 0006 0028     		cmp	r0, #0
 1121 0008 08D1     		bne	.L122
 1122 000a 0D48     		ldr	r0, .L125
 1123 000c FFF7FEFF 		bl	smtc_modem_hal_print_trace
 1124 0010 0C48     		ldr	r0, .L125+4
 1125 0012 FFF7FEFF 		bl	smtc_modem_hal_print_trace
 1126 0016 0424     		movs	r4, #4
 1127              	.L123:
 1128              		@ sp needed
 1129 0018 2000     		movs	r0, r4
 1130 001a 70BD     		pop	{r4, r5, r6, pc}
 1131              	.L122:
 1132 001c FFF7FEFF 		bl	smtc_modem_test_nop
 1133 0020 041E     		subs	r4, r0, #0
 1134 0022 0BD1     		bne	.L124
 1135 0024 084D     		ldr	r5, .L125+8
 1136 0026 297A     		ldrb	r1, [r5, #8]
 1137 0028 2868     		ldr	r0, [r5]
 1138 002a FFF7FEFF 		bl	rp_release_hook
 1139 002e 2868     		ldr	r0, [r5]
 1140 0030 FFF7FEFF 		bl	lorawan_api_init
 1141 0034 2000     		movs	r0, r4
 1142 0036 FFF7FEFF 		bl	modem_set_test_mode_status
 1143 003a EDE7     		b	.L123
 1144              	.L124:
 1145 003c 0624     		movs	r4, #6
 1146 003e EBE7     		b	.L123
 1147              	.L126:
 1148              		.align	2
 1149              	.L125:
 1150 0040 00000000 		.word	.LC33
 1151 0044 28000000 		.word	.LC26
 1152 0048 00000000 		.word	modem_test_context
 1154              		.section	.rodata.smtc_modem_test_tx.str1.1,"aMS",%progbits,1
 1155              	.LC82:
 1156 0000 1B5B303B 		.ascii	"\033[0;31mERROR: Invalid sf %d\012\000"
 1156      33316D45 
 1156      52524F52 
ARM GAS  /tmp/ccwNs5iI.s 			page 22


 1156      3A20496E 
 1156      76616C69 
 1157              	.LC85:
 1158 001d 1B5B303B 		.ascii	"\033[0;31mERROR: Invalid cr %d\012\000"
 1158      33316D45 
 1158      52524F52 
 1158      3A20496E 
 1158      76616C69 
 1159              	.LC87:
 1160 003a 4746534B 		.ascii	"GFSK Tx - Freq:%d, Power:%d, length:%u\012\000"
 1160      20547820 
 1160      2D204672 
 1160      65713A25 
 1160      642C2050 
 1161              	.LC93:
 1162 0062 4C6F5261 		.ascii	"LoRa Tx - Freq:%u, Power:%d, sf:%u, bw:%u, cr:%u, l"
 1162      20547820 
 1162      2D204672 
 1162      65713A25 
 1162      752C2050 
 1163 0095 656E6774 		.ascii	"ength:%u\012\000"
 1163      683A2575 
 1163      0A00
 1164              		.section	.text.smtc_modem_test_tx,"ax",%progbits
 1165              		.align	1
 1166              		.global	smtc_modem_test_tx
 1167              		.syntax unified
 1168              		.code	16
 1169              		.thumb_func
 1170              		.fpu softvfp
 1172              	smtc_modem_test_tx:
 1173              		@ args = 20, pretend = 0, frame = 240
 1174              		@ frame_needed = 0, uses_anonymous_args = 0
 1175 0000 F0B5     		push	{r4, r5, r6, r7, lr}
 1176 0002 C1B0     		sub	sp, sp, #260
 1177 0004 0793     		str	r3, [sp, #28]
 1178 0006 46AB     		add	r3, sp, #280
 1179 0008 1F78     		ldrb	r7, [r3]
 1180 000a 47AB     		add	r3, sp, #284
 1181 000c 1B78     		ldrb	r3, [r3]
 1182 000e 0890     		str	r0, [sp, #32]
 1183 0010 0993     		str	r3, [sp, #36]
 1184 0012 48AB     		add	r3, sp, #288
 1185 0014 1B78     		ldrb	r3, [r3]
 1186 0016 0591     		str	r1, [sp, #20]
 1187 0018 0A93     		str	r3, [sp, #40]
 1188 001a 4AAB     		add	r3, sp, #296
 1189 001c 1B78     		ldrb	r3, [r3]
 1190 001e 0692     		str	r2, [sp, #24]
 1191 0020 0B93     		str	r3, [sp, #44]
 1192 0022 FFF7FEFF 		bl	modem_get_test_mode_status
 1193 0026 0028     		cmp	r0, #0
 1194 0028 09D1     		bne	.L128
 1195 002a 8C48     		ldr	r0, .L147
 1196 002c FFF7FEFF 		bl	smtc_modem_hal_print_trace
 1197              	.L145:
 1198 0030 8B48     		ldr	r0, .L147+4
ARM GAS  /tmp/ccwNs5iI.s 			page 23


 1199 0032 FFF7FEFF 		bl	smtc_modem_hal_print_trace
 1200 0036 0425     		movs	r5, #4
 1201              	.L129:
 1202 0038 2800     		movs	r0, r5
 1203 003a 41B0     		add	sp, sp, #260
 1204              		@ sp needed
 1205 003c F0BD     		pop	{r4, r5, r6, r7, pc}
 1206              	.L128:
 1207 003e 894B     		ldr	r3, .L147+8
 1208 0040 0699     		ldr	r1, [sp, #24]
 1209 0042 5868     		ldr	r0, [r3, #4]
 1210 0044 FFF7FEFF 		bl	smtc_real_is_frequency_valid
 1211 0048 061E     		subs	r6, r0, #0
 1212 004a 04D0     		beq	.L130
 1213 004c 0699     		ldr	r1, [sp, #24]
 1214 004e 8648     		ldr	r0, .L147+12
 1215              	.L146:
 1216 0050 FFF7FEFF 		bl	smtc_modem_hal_print_trace
 1217 0054 ECE7     		b	.L145
 1218              	.L130:
 1219 0056 082F     		cmp	r7, #8
 1220 0058 02D9     		bls	.L131
 1221 005a 3900     		movs	r1, r7
 1222 005c 8348     		ldr	r0, .L147+16
 1223 005e F7E7     		b	.L146
 1224              	.L131:
 1225 0060 099B     		ldr	r3, [sp, #36]
 1226 0062 062B     		cmp	r3, #6
 1227 0064 02D9     		bls	.L132
 1228 0066 1900     		movs	r1, r3
 1229 0068 8148     		ldr	r0, .L147+20
 1230 006a F1E7     		b	.L146
 1231              	.L132:
 1232 006c 0A9B     		ldr	r3, [sp, #40]
 1233 006e 062B     		cmp	r3, #6
 1234 0070 02D9     		bls	.L133
 1235 0072 1900     		movs	r1, r3
 1236 0074 7F48     		ldr	r0, .L147+24
 1237 0076 EBE7     		b	.L146
 1238              	.L133:
 1239 0078 0DAD     		add	r5, sp, #52
 1240 007a 0100     		movs	r1, r0
 1241 007c 1C22     		movs	r2, #28
 1242 007e 2800     		movs	r0, r5
 1243 0080 FFF7FEFF 		bl	memset
 1244 0084 8422     		movs	r2, #132
 1245 0086 3100     		movs	r1, r6
 1246 0088 1FA8     		add	r0, sp, #124
 1247 008a FFF7FEFF 		bl	memset
 1248 008e 0122     		movs	r2, #1
 1249 0090 744B     		ldr	r3, .L147+8
 1250 0092 14AC     		add	r4, sp, #80
 1251 0094 1B7A     		ldrb	r3, [r3, #8]
 1252 0096 AA72     		strb	r2, [r5, #10]
 1253 0098 2B70     		strb	r3, [r5]
 1254 009a 002F     		cmp	r7, #0
 1255 009c 79D1     		bne	.L134
ARM GAS  /tmp/ccwNs5iI.s 			page 24


 1256 009e 3900     		movs	r1, r7
 1257 00a0 2000     		movs	r0, r4
 1258 00a2 2B32     		adds	r2, r2, #43
 1259 00a4 FFF7FEFF 		bl	memset
 1260 00a8 069B     		ldr	r3, [sp, #24]
 1261 00aa 0799     		ldr	r1, [sp, #28]
 1262 00ac 2362     		str	r3, [r4, #32]
 1263 00ae 5B23     		movs	r3, #91
 1264 00b0 08AA     		add	r2, sp, #32
 1265 00b2 9B18     		adds	r3, r3, r2
 1266 00b4 1970     		strb	r1, [r3]
 1267 00b6 6B4B     		ldr	r3, .L147+8
 1268 00b8 5868     		ldr	r0, [r3, #4]
 1269 00ba FFF7FEFF 		bl	smtc_real_get_gfsk_sync_word
 1270 00be 5A23     		movs	r3, #90
 1271 00c0 08AA     		add	r2, sp, #32
 1272 00c2 9B18     		adds	r3, r3, r2
 1273 00c4 0122     		movs	r2, #1
 1274 00c6 E061     		str	r0, [r4, #28]
 1275 00c8 1A70     		strb	r2, [r3]
 1276 00ca 6B4B     		ldr	r3, .L147+28
 1277 00cc 6B49     		ldr	r1, .L147+32
 1278 00ce 2385     		strh	r3, [r4, #40]
 1279 00d0 6B4B     		ldr	r3, .L147+36
 1280 00d2 6C48     		ldr	r0, .L147+40
 1281 00d4 1D93     		str	r3, [sp, #116]
 1282 00d6 059B     		ldr	r3, [sp, #20]
 1283 00d8 6275     		strb	r2, [r4, #21]
 1284 00da A375     		strb	r3, [r4, #22]
 1285 00dc 2823     		movs	r3, #40
 1286 00de 2382     		strh	r3, [r4, #16]
 1287 00e0 103B     		subs	r3, r3, #16
 1288 00e2 E374     		strb	r3, [r4, #19]
 1289 00e4 0423     		movs	r3, #4
 1290 00e6 2276     		strb	r2, [r4, #24]
 1291 00e8 674A     		ldr	r2, .L147+44
 1292 00ea E375     		strb	r3, [r4, #23]
 1293 00ec 1490     		str	r0, [sp, #80]
 1294 00ee 1591     		str	r1, [sp, #84]
 1295 00f0 A260     		str	r2, [r4, #8]
 1296 00f2 5C22     		movs	r2, #92
 1297 00f4 2373     		strb	r3, [r4, #12]
 1298 00f6 08AB     		add	r3, sp, #32
 1299 00f8 9B18     		adds	r3, r3, r2
 1300 00fa 1F70     		strb	r7, [r3]
 1301 00fc 20AB     		add	r3, sp, #128
 1302 00fe 07CC     		ldmia	r4!, {r0, r1, r2}
 1303 0100 07C3     		stmia	r3!, {r0, r1, r2}
 1304 0102 07CC     		ldmia	r4!, {r0, r1, r2}
 1305 0104 07C3     		stmia	r3!, {r0, r1, r2}
 1306 0106 07CC     		ldmia	r4!, {r0, r1, r2}
 1307 0108 07C3     		stmia	r3!, {r0, r1, r2}
 1308 010a 06CC     		ldmia	r4!, {r1, r2}
 1309 010c 06C3     		stmia	r3!, {r1, r2}
 1310 010e 5F48     		ldr	r0, .L147+48
 1311 0110 059B     		ldr	r3, [sp, #20]
 1312 0112 079A     		ldr	r2, [sp, #28]
ARM GAS  /tmp/ccwNs5iI.s 			page 25


 1313 0114 0699     		ldr	r1, [sp, #24]
 1314 0116 FFF7FEFF 		bl	smtc_modem_hal_print_trace
 1315 011a 0323     		movs	r3, #3
 1316 011c 6B70     		strb	r3, [r5, #1]
 1317 011e 5C4B     		ldr	r3, .L147+52
 1318 0120 20A9     		add	r1, sp, #128
 1319 0122 6B60     		str	r3, [r5, #4]
 1320 0124 4F4B     		ldr	r3, .L147+8
 1321 0126 24A8     		add	r0, sp, #144
 1322 0128 1A68     		ldr	r2, [r3]
 1323 012a 9C23     		movs	r3, #156
 1324 012c 1B01     		lsls	r3, r3, #4
 1325 012e D358     		ldr	r3, [r2, r3]
 1326 0130 A433     		adds	r3, r3, #164
 1327 0132 1B68     		ldr	r3, [r3]
 1328              	.L143:
 1329 0134 9847     		blx	r3
 1330 0136 A861     		str	r0, [r5, #24]
 1331 0138 FFF7FEFF 		bl	smtc_modem_test_nop
 1332 013c 051E     		subs	r5, r0, #0
 1333 013e 00D0     		beq	.LCB1397
 1334 0140 89E0     		b	.L142	@long jump
 1335              	.LCB1397:
 1336 0142 484C     		ldr	r4, .L147+8
 1337 0144 0B9B     		ldr	r3, [sp, #44]
 1338 0146 2068     		ldr	r0, [r4]
 1339 0148 217A     		ldrb	r1, [r4, #8]
 1340 014a 002B     		cmp	r3, #0
 1341 014c 6ED1     		bne	.L136
 1342 014e FFF7FEFF 		bl	rp_release_hook
 1343 0152 2300     		movs	r3, r4
 1344 0154 217A     		ldrb	r1, [r4, #8]
 1345 0156 4F4A     		ldr	r2, .L147+56
 1346              	.L144:
 1347 0158 2068     		ldr	r0, [r4]
 1348 015a FFF7FEFF 		bl	rp_hook_init
 1349 015e 089B     		ldr	r3, [sp, #32]
 1350 0160 4D4F     		ldr	r7, .L147+60
 1351 0162 002B     		cmp	r3, #0
 1352 0164 6DD1     		bne	.L138
 1353 0166 2300     		movs	r3, r4
 1354 0168 0122     		movs	r2, #1
 1355 016a FF33     		adds	r3, r3, #255
 1356 016c 089E     		ldr	r6, [sp, #32]
 1357 016e 5A74     		strb	r2, [r3, #17]
 1358              	.L139:
 1359 0170 059B     		ldr	r3, [sp, #20]
 1360 0172 9E42     		cmp	r6, r3
 1361 0174 60D1     		bne	.L140
 1362              	.L141:
 1363 0176 FFF7FEFF 		bl	smtc_modem_hal_get_time_in_ms
 1364 017a 6B46     		mov	r3, sp
 1365 017c 1FAA     		add	r2, sp, #124
 1366 017e 9B8A     		ldrh	r3, [r3, #20]
 1367 0180 1430     		adds	r0, r0, #20
 1368 0182 0092     		str	r2, [sp]
 1369 0184 1090     		str	r0, [sp, #64]
ARM GAS  /tmp/ccwNs5iI.s 			page 26


 1370 0186 3A00     		movs	r2, r7
 1371 0188 2068     		ldr	r0, [r4]
 1372 018a 0DA9     		add	r1, sp, #52
 1373 018c FFF7FEFF 		bl	rp_task_enqueue
 1374 0190 52E7     		b	.L129
 1375              	.L134:
 1376 0192 3100     		movs	r1, r6
 1377 0194 1422     		movs	r2, #20
 1378 0196 2000     		movs	r0, r4
 1379 0198 FFF7FEFF 		bl	memset
 1380 019c 069B     		ldr	r3, [sp, #24]
 1381 019e E360     		str	r3, [r4, #12]
 1382 01a0 079B     		ldr	r3, [sp, #28]
 1383 01a2 2374     		strb	r3, [r4, #16]
 1384 01a4 2F4B     		ldr	r3, .L147+8
 1385 01a6 5868     		ldr	r0, [r3, #4]
 1386 01a8 FFF7FEFF 		bl	smtc_real_get_sync_word
 1387 01ac 499B     		ldr	r3, [sp, #292]
 1388 01ae 099A     		ldr	r2, [sp, #36]
 1389 01b0 A380     		strh	r3, [r4, #4]
 1390 01b2 059B     		ldr	r3, [sp, #20]
 1391 01b4 A671     		strb	r6, [r4, #6]
 1392 01b6 E371     		strb	r3, [r4, #7]
 1393 01b8 0123     		movs	r3, #1
 1394 01ba 2381     		strh	r3, [r4, #8]
 1395 01bc 374B     		ldr	r3, .L147+64
 1396 01be 6074     		strb	r0, [r4, #17]
 1397 01c0 DE5D     		ldrb	r6, [r3, r7]
 1398 01c2 374B     		ldr	r3, .L147+68
 1399 01c4 3000     		movs	r0, r6
 1400 01c6 9F5C     		ldrb	r7, [r3, r2]
 1401 01c8 364B     		ldr	r3, .L147+72
 1402 01ca 0A9A     		ldr	r2, [sp, #40]
 1403 01cc 3900     		movs	r1, r7
 1404 01ce 9A5C     		ldrb	r2, [r3, r2]
 1405 01d0 0992     		str	r2, [sp, #36]
 1406 01d2 FFF7FEFF 		bl	ral_compute_lora_ldro
 1407 01d6 099A     		ldr	r2, [sp, #36]
 1408 01d8 3B02     		lsls	r3, r7, #8
 1409 01da 1204     		lsls	r2, r2, #16
 1410 01dc 3343     		orrs	r3, r6
 1411 01de 0006     		lsls	r0, r0, #24
 1412 01e0 1343     		orrs	r3, r2
 1413 01e2 5C21     		movs	r1, #92
 1414 01e4 0343     		orrs	r3, r0
 1415 01e6 1493     		str	r3, [sp, #80]
 1416 01e8 0123     		movs	r3, #1
 1417 01ea 08AA     		add	r2, sp, #32
 1418 01ec 5218     		adds	r2, r2, r1
 1419 01ee 1370     		strb	r3, [r2]
 1420 01f0 20AB     		add	r3, sp, #128
 1421 01f2 07CC     		ldmia	r4!, {r0, r1, r2}
 1422 01f4 07C3     		stmia	r3!, {r0, r1, r2}
 1423 01f6 06CC     		ldmia	r4!, {r1, r2}
 1424 01f8 06C3     		stmia	r3!, {r1, r2}
 1425 01fa 059B     		ldr	r3, [sp, #20]
 1426 01fc 079A     		ldr	r2, [sp, #28]
ARM GAS  /tmp/ccwNs5iI.s 			page 27


 1427 01fe 0293     		str	r3, [sp, #8]
 1428 0200 099B     		ldr	r3, [sp, #36]
 1429 0202 0699     		ldr	r1, [sp, #24]
 1430 0204 2848     		ldr	r0, .L147+76
 1431 0206 0193     		str	r3, [sp, #4]
 1432 0208 3300     		movs	r3, r6
 1433 020a 0097     		str	r7, [sp]
 1434 020c FFF7FEFF 		bl	smtc_modem_hal_print_trace
 1435 0210 0223     		movs	r3, #2
 1436 0212 6B70     		strb	r3, [r5, #1]
 1437 0214 254B     		ldr	r3, .L147+80
 1438 0216 20A9     		add	r1, sp, #128
 1439 0218 6B60     		str	r3, [r5, #4]
 1440 021a 124B     		ldr	r3, .L147+8
 1441 021c 21A8     		add	r0, sp, #132
 1442 021e 1A68     		ldr	r2, [r3]
 1443 0220 9C23     		movs	r3, #156
 1444 0222 1B01     		lsls	r3, r3, #4
 1445 0224 D358     		ldr	r3, [r2, r3]
 1446 0226 A033     		adds	r3, r3, #160
 1447 0228 1B68     		ldr	r3, [r3]
 1448 022a 83E7     		b	.L143
 1449              	.L136:
 1450 022c FFF7FEFF 		bl	rp_release_hook
 1451 0230 2300     		movs	r3, r4
 1452 0232 217A     		ldrb	r1, [r4, #8]
 1453 0234 1E4A     		ldr	r2, .L147+84
 1454 0236 8FE7     		b	.L144
 1455              	.L140:
 1456 0238 FFF7FEFF 		bl	smtc_modem_hal_get_random_nb
 1457 023c B855     		strb	r0, [r7, r6]
 1458 023e 0136     		adds	r6, r6, #1
 1459 0240 96E7     		b	.L139
 1460              	.L138:
 1461 0242 2300     		movs	r3, r4
 1462 0244 0022     		movs	r2, #0
 1463 0246 FF33     		adds	r3, r3, #255
 1464 0248 5A74     		strb	r2, [r3, #17]
 1465 024a 3800     		movs	r0, r7
 1466 024c 059A     		ldr	r2, [sp, #20]
 1467 024e 0899     		ldr	r1, [sp, #32]
 1468 0250 FFF7FEFF 		bl	memcpy
 1469 0254 8FE7     		b	.L141
 1470              	.L142:
 1471 0256 0625     		movs	r5, #6
 1472 0258 EEE6     		b	.L129
 1473              	.L148:
 1474 025a C046     		.align	2
 1475              	.L147:
 1476 025c 00000000 		.word	.LC33
 1477 0260 28000000 		.word	.LC26
 1478 0264 00000000 		.word	modem_test_context
 1479 0268 00000000 		.word	.LC39
 1480 026c 00000000 		.word	.LC82
 1481 0270 25000000 		.word	.LC55
 1482 0274 1D000000 		.word	.LC85
 1483 0278 FF010000 		.word	511
ARM GAS  /tmp/ccwNs5iI.s 			page 28


 1484 027c A8610000 		.word	25000
 1485 0280 0F1D2110 		.word	270605583
 1486 0284 50C30000 		.word	50000
 1487 0288 A0860100 		.word	100000
 1488 028c 3A000000 		.word	.LC87
 1489 0290 00000000 		.word	lr1_stack_mac_tx_gfsk_launch_callback_for_rp
 1490 0294 00000000 		.word	modem_test_empty_callback
 1491 0298 09000000 		.word	modem_test_context+9
 1492 029c 00000000 		.word	.LANCHOR2
 1493 02a0 00000000 		.word	.LANCHOR3
 1494 02a4 00000000 		.word	.LANCHOR4
 1495 02a8 62000000 		.word	.LC93
 1496 02ac 00000000 		.word	lr1_stack_mac_tx_lora_launch_callback_for_rp
 1497 02b0 00000000 		.word	modem_test_tx_callback
 1499              		.section	.rodata.smtc_modem_test_rx_continuous.str1.1,"aMS",%progbits,1
 1500              	.LC103:
 1501 0000 1B5B303B 		.ascii	"\033[0;31mERROR: Invalid Frequency %u\012\000"
 1501      33316D45 
 1501      52524F52 
 1501      3A20496E 
 1501      76616C69 
 1502              	.LC108:
 1503 0024 4746534B 		.ascii	"GFSK Rx - Freq:%d\012\000"
 1503      20527820 
 1503      2D204672 
 1503      65713A25 
 1503      640A00
 1504              	.LC114:
 1505 0037 4C6F5261 		.ascii	"LoRa Rx - Freq:%u, sf:%u, bw:%u, cr:%u\012\000"
 1505      20527820 
 1505      2D204672 
 1505      65713A25 
 1505      752C2073 
 1506              		.section	.text.smtc_modem_test_rx_continuous,"ax",%progbits
 1507              		.align	1
 1508              		.global	smtc_modem_test_rx_continuous
 1509              		.syntax unified
 1510              		.code	16
 1511              		.thumb_func
 1512              		.fpu softvfp
 1514              	smtc_modem_test_rx_continuous:
 1515              		@ args = 0, pretend = 0, frame = 224
 1516              		@ frame_needed = 0, uses_anonymous_args = 0
 1517 0000 F0B5     		push	{r4, r5, r6, r7, lr}
 1518 0002 BBB0     		sub	sp, sp, #236
 1519 0004 0E00     		movs	r6, r1
 1520 0006 0390     		str	r0, [sp, #12]
 1521 0008 0492     		str	r2, [sp, #16]
 1522 000a 0593     		str	r3, [sp, #20]
 1523 000c FFF7FEFF 		bl	modem_get_test_mode_status
 1524 0010 0028     		cmp	r0, #0
 1525 0012 09D1     		bne	.L150
 1526 0014 6A48     		ldr	r0, .L162
 1527 0016 FFF7FEFF 		bl	smtc_modem_hal_print_trace
 1528              	.L160:
 1529 001a 6A48     		ldr	r0, .L162+4
 1530 001c FFF7FEFF 		bl	smtc_modem_hal_print_trace
ARM GAS  /tmp/ccwNs5iI.s 			page 29


 1531 0020 0424     		movs	r4, #4
 1532              	.L151:
 1533 0022 2000     		movs	r0, r4
 1534 0024 3BB0     		add	sp, sp, #236
 1535              		@ sp needed
 1536 0026 F0BD     		pop	{r4, r5, r6, r7, pc}
 1537              	.L150:
 1538 0028 674F     		ldr	r7, .L162+8
 1539 002a 0399     		ldr	r1, [sp, #12]
 1540 002c 7868     		ldr	r0, [r7, #4]
 1541 002e FFF7FEFF 		bl	smtc_real_is_frequency_valid
 1542 0032 0290     		str	r0, [sp, #8]
 1543 0034 0028     		cmp	r0, #0
 1544 0036 04D0     		beq	.L152
 1545 0038 0399     		ldr	r1, [sp, #12]
 1546 003a 6448     		ldr	r0, .L162+12
 1547              	.L161:
 1548 003c FFF7FEFF 		bl	smtc_modem_hal_print_trace
 1549 0040 EBE7     		b	.L160
 1550              	.L152:
 1551 0042 082E     		cmp	r6, #8
 1552 0044 02D9     		bls	.L153
 1553 0046 3100     		movs	r1, r6
 1554 0048 6148     		ldr	r0, .L162+16
 1555 004a F7E7     		b	.L161
 1556              	.L153:
 1557 004c 049B     		ldr	r3, [sp, #16]
 1558 004e 062B     		cmp	r3, #6
 1559 0050 02D9     		bls	.L154
 1560 0052 1900     		movs	r1, r3
 1561 0054 5F48     		ldr	r0, .L162+20
 1562 0056 F1E7     		b	.L161
 1563              	.L154:
 1564 0058 059B     		ldr	r3, [sp, #20]
 1565 005a 062B     		cmp	r3, #6
 1566 005c 02D9     		bls	.L155
 1567 005e 1900     		movs	r1, r3
 1568 0060 5D48     		ldr	r0, .L162+24
 1569 0062 EBE7     		b	.L161
 1570              	.L155:
 1571 0064 3B00     		movs	r3, r7
 1572 0066 029A     		ldr	r2, [sp, #8]
 1573 0068 FC33     		adds	r3, r3, #252
 1574 006a 1A61     		str	r2, [r3, #16]
 1575 006c 0299     		ldr	r1, [sp, #8]
 1576 006e 8422     		movs	r2, #132
 1577 0070 19A8     		add	r0, sp, #100
 1578 0072 FFF7FEFF 		bl	memset
 1579 0076 0123     		movs	r3, #1
 1580 0078 07AD     		add	r5, sp, #28
 1581 007a 5B42     		rsbs	r3, r3, #0
 1582 007c 1C22     		movs	r2, #28
 1583 007e 2800     		movs	r0, r5
 1584 0080 0299     		ldr	r1, [sp, #8]
 1585 0082 3093     		str	r3, [sp, #192]
 1586 0084 FFF7FEFF 		bl	memset
 1587 0088 3B7A     		ldrb	r3, [r7, #8]
ARM GAS  /tmp/ccwNs5iI.s 			page 30


 1588 008a 0EAC     		add	r4, sp, #56
 1589 008c 2B70     		strb	r3, [r5]
 1590 008e 0123     		movs	r3, #1
 1591 0090 AB72     		strb	r3, [r5, #10]
 1592 0092 002E     		cmp	r6, #0
 1593 0094 56D1     		bne	.L156
 1594 0096 3100     		movs	r1, r6
 1595 0098 2C22     		movs	r2, #44
 1596 009a 2000     		movs	r0, r4
 1597 009c FFF7FEFF 		bl	memset
 1598 00a0 039A     		ldr	r2, [sp, #12]
 1599 00a2 7868     		ldr	r0, [r7, #4]
 1600 00a4 2262     		str	r2, [r4, #32]
 1601 00a6 FFF7FEFF 		bl	smtc_real_get_gfsk_sync_word
 1602 00aa 5223     		movs	r3, #82
 1603 00ac 0127     		movs	r7, #1
 1604 00ae 04AA     		add	r2, sp, #16
 1605 00b0 9B18     		adds	r3, r3, r2
 1606 00b2 E061     		str	r0, [r4, #28]
 1607 00b4 1F70     		strb	r7, [r3]
 1608 00b6 494B     		ldr	r3, .L162+28
 1609 00b8 494A     		ldr	r2, .L162+32
 1610 00ba 2385     		strh	r3, [r4, #40]
 1611 00bc 494B     		ldr	r3, .L162+36
 1612 00be 1793     		str	r3, [sp, #92]
 1613 00c0 2823     		movs	r3, #40
 1614 00c2 2382     		strh	r3, [r4, #16]
 1615 00c4 103B     		subs	r3, r3, #16
 1616 00c6 E374     		strb	r3, [r4, #19]
 1617 00c8 474B     		ldr	r3, .L162+40
 1618 00ca 6775     		strb	r7, [r4, #21]
 1619 00cc E382     		strh	r3, [r4, #22]
 1620 00ce 474B     		ldr	r3, .L162+44
 1621 00d0 2776     		strb	r7, [r4, #24]
 1622 00d2 0E92     		str	r2, [sp, #56]
 1623 00d4 0F93     		str	r3, [sp, #60]
 1624 00d6 464B     		ldr	r3, .L162+48
 1625 00d8 5422     		movs	r2, #84
 1626 00da A360     		str	r3, [r4, #8]
 1627 00dc 0423     		movs	r3, #4
 1628 00de 2373     		strb	r3, [r4, #12]
 1629 00e0 04AB     		add	r3, sp, #16
 1630 00e2 9B18     		adds	r3, r3, r2
 1631 00e4 1E70     		strb	r6, [r3]
 1632 00e6 25AB     		add	r3, sp, #148
 1633 00e8 07CC     		ldmia	r4!, {r0, r1, r2}
 1634 00ea 07C3     		stmia	r3!, {r0, r1, r2}
 1635 00ec 07CC     		ldmia	r4!, {r0, r1, r2}
 1636 00ee 07C3     		stmia	r3!, {r0, r1, r2}
 1637 00f0 07CC     		ldmia	r4!, {r0, r1, r2}
 1638 00f2 07C3     		stmia	r3!, {r0, r1, r2}
 1639 00f4 06CC     		ldmia	r4!, {r1, r2}
 1640 00f6 06C3     		stmia	r3!, {r1, r2}
 1641 00f8 3E48     		ldr	r0, .L162+52
 1642 00fa 0399     		ldr	r1, [sp, #12]
 1643 00fc FFF7FEFF 		bl	smtc_modem_hal_print_trace
 1644 0100 3D4B     		ldr	r3, .L162+56
ARM GAS  /tmp/ccwNs5iI.s 			page 31


 1645 0102 6F70     		strb	r7, [r5, #1]
 1646              	.L159:
 1647 0104 6B60     		str	r3, [r5, #4]
 1648 0106 FFF7FEFF 		bl	smtc_modem_test_nop
 1649 010a 041E     		subs	r4, r0, #0
 1650 010c 56D1     		bne	.L158
 1651 010e 2E4D     		ldr	r5, .L162+8
 1652 0110 297A     		ldrb	r1, [r5, #8]
 1653 0112 2868     		ldr	r0, [r5]
 1654 0114 FFF7FEFF 		bl	rp_release_hook
 1655 0118 2B00     		movs	r3, r5
 1656 011a 297A     		ldrb	r1, [r5, #8]
 1657 011c 374A     		ldr	r2, .L162+60
 1658 011e 2868     		ldr	r0, [r5]
 1659 0120 FFF7FEFF 		bl	rp_hook_init
 1660 0124 FFF7FEFF 		bl	smtc_modem_hal_get_time_in_ms
 1661 0128 FA23     		movs	r3, #250
 1662 012a DB00     		lsls	r3, r3, #3
 1663 012c 0D93     		str	r3, [sp, #52]
 1664 012e 19AB     		add	r3, sp, #100
 1665 0130 0093     		str	r3, [sp]
 1666 0132 1430     		adds	r0, r0, #20
 1667 0134 0A90     		str	r0, [sp, #40]
 1668 0136 FF23     		movs	r3, #255
 1669 0138 314A     		ldr	r2, .L162+64
 1670 013a 2868     		ldr	r0, [r5]
 1671 013c 07A9     		add	r1, sp, #28
 1672 013e FFF7FEFF 		bl	rp_task_enqueue
 1673 0142 6EE7     		b	.L151
 1674              	.L156:
 1675 0144 1422     		movs	r2, #20
 1676 0146 0299     		ldr	r1, [sp, #8]
 1677 0148 2000     		movs	r0, r4
 1678 014a FFF7FEFF 		bl	memset
 1679 014e 039B     		ldr	r3, [sp, #12]
 1680 0150 7868     		ldr	r0, [r7, #4]
 1681 0152 E360     		str	r3, [r4, #12]
 1682 0154 FFF7FEFF 		bl	smtc_real_get_sync_word
 1683 0158 029B     		ldr	r3, [sp, #8]
 1684 015a 6074     		strb	r0, [r4, #17]
 1685 015c A374     		strb	r3, [r4, #18]
 1686 015e 294B     		ldr	r3, .L162+68
 1687 0160 7868     		ldr	r0, [r7, #4]
 1688 0162 9E5D     		ldrb	r6, [r3, r6]
 1689 0164 3100     		movs	r1, r6
 1690 0166 FFF7FEFF 		bl	smtc_real_get_preamble_len
 1691 016a 274B     		ldr	r3, .L162+72
 1692 016c 049A     		ldr	r2, [sp, #16]
 1693 016e E380     		strh	r3, [r4, #6]
 1694 0170 8023     		movs	r3, #128
 1695 0172 5B00     		lsls	r3, r3, #1
 1696 0174 2381     		strh	r3, [r4, #8]
 1697 0176 254B     		ldr	r3, .L162+76
 1698 0178 A080     		strh	r0, [r4, #4]
 1699 017a 995C     		ldrb	r1, [r3, r2]
 1700 017c 059A     		ldr	r2, [sp, #20]
 1701 017e 244B     		ldr	r3, .L162+80
ARM GAS  /tmp/ccwNs5iI.s 			page 32


 1702 0180 6170     		strb	r1, [r4, #1]
 1703 0182 9B5C     		ldrb	r3, [r3, r2]
 1704 0184 2670     		strb	r6, [r4]
 1705 0186 A370     		strb	r3, [r4, #2]
 1706 0188 3000     		movs	r0, r6
 1707 018a FFF7FEFF 		bl	ral_compute_lora_ldro
 1708 018e 5422     		movs	r2, #84
 1709 0190 04AB     		add	r3, sp, #16
 1710 0192 9B18     		adds	r3, r3, r2
 1711 0194 533A     		subs	r2, r2, #83
 1712 0196 1A70     		strb	r2, [r3]
 1713 0198 E070     		strb	r0, [r4, #3]
 1714 019a 25AB     		add	r3, sp, #148
 1715 019c 07CC     		ldmia	r4!, {r0, r1, r2}
 1716 019e 07C3     		stmia	r3!, {r0, r1, r2}
 1717 01a0 06CC     		ldmia	r4!, {r1, r2}
 1718 01a2 06C3     		stmia	r3!, {r1, r2}
 1719 01a4 059B     		ldr	r3, [sp, #20]
 1720 01a6 3200     		movs	r2, r6
 1721 01a8 0093     		str	r3, [sp]
 1722 01aa 0399     		ldr	r1, [sp, #12]
 1723 01ac 049B     		ldr	r3, [sp, #16]
 1724 01ae 1948     		ldr	r0, .L162+84
 1725 01b0 FFF7FEFF 		bl	smtc_modem_hal_print_trace
 1726 01b4 029B     		ldr	r3, [sp, #8]
 1727 01b6 6B70     		strb	r3, [r5, #1]
 1728 01b8 174B     		ldr	r3, .L162+88
 1729 01ba A3E7     		b	.L159
 1730              	.L158:
 1731 01bc 0624     		movs	r4, #6
 1732 01be 30E7     		b	.L151
 1733              	.L163:
 1734              		.align	2
 1735              	.L162:
 1736 01c0 00000000 		.word	.LC33
 1737 01c4 28000000 		.word	.LC26
 1738 01c8 00000000 		.word	modem_test_context
 1739 01cc 00000000 		.word	.LC103
 1740 01d0 00000000 		.word	.LC82
 1741 01d4 25000000 		.word	.LC55
 1742 01d8 1D000000 		.word	.LC85
 1743 01dc FF010000 		.word	511
 1744 01e0 50C30000 		.word	50000
 1745 01e4 0F1D2110 		.word	270605583
 1746 01e8 FF040000 		.word	1279
 1747 01ec A8610000 		.word	25000
 1748 01f0 A0860100 		.word	100000
 1749 01f4 24000000 		.word	.LC108
 1750 01f8 00000000 		.word	lr1_stack_mac_rx_gfsk_launch_callback_for_rp
 1751 01fc 00000000 		.word	modem_test_rx_callback
 1752 0200 09000000 		.word	modem_test_context+9
 1753 0204 00000000 		.word	.LANCHOR2
 1754 0208 00FFFFFF 		.word	-256
 1755 020c 00000000 		.word	.LANCHOR3
 1756 0210 00000000 		.word	.LANCHOR4
 1757 0214 37000000 		.word	.LC114
 1758 0218 00000000 		.word	lr1_stack_mac_rx_lora_launch_callback_for_rp
ARM GAS  /tmp/ccwNs5iI.s 			page 33


 1760              		.section	.text.smtc_modem_test_duty_cycle_app_activate,"ax",%progbits
 1761              		.align	1
 1762              		.global	smtc_modem_test_duty_cycle_app_activate
 1763              		.syntax unified
 1764              		.code	16
 1765              		.thumb_func
 1766              		.fpu softvfp
 1768              	smtc_modem_test_duty_cycle_app_activate:
 1769              		@ args = 0, pretend = 0, frame = 0
 1770              		@ frame_needed = 0, uses_anonymous_args = 0
 1771 0000 70B5     		push	{r4, r5, r6, lr}
 1772 0002 0500     		movs	r5, r0
 1773 0004 FFF7FEFF 		bl	modem_get_test_mode_status
 1774 0008 0523     		movs	r3, #5
 1775 000a 0028     		cmp	r0, #0
 1776 000c 0CD1     		bne	.L165
 1777 000e 6842     		rsbs	r0, r5, #0
 1778 0010 6841     		adcs	r0, r0, r5
 1779 0012 0130     		adds	r0, r0, #1
 1780 0014 FFF7FEFF 		bl	lorawan_api_duty_cycle_enable_set
 1781 0018 0423     		movs	r3, #4
 1782 001a 041E     		subs	r4, r0, #0
 1783 001c 04D1     		bne	.L165
 1784 001e 0120     		movs	r0, #1
 1785 0020 6840     		eors	r0, r5
 1786 0022 FFF7FEFF 		bl	modem_set_duty_cycle_disabled_by_host
 1787 0026 2300     		movs	r3, r4
 1788              	.L165:
 1789              		@ sp needed
 1790 0028 1800     		movs	r0, r3
 1791 002a 70BD     		pop	{r4, r5, r6, pc}
 1793              		.section	.text.smtc_modem_test_direct_radio_write,"ax",%progbits
 1794              		.align	1
 1795              		.global	smtc_modem_test_direct_radio_write
 1796              		.syntax unified
 1797              		.code	16
 1798              		.thumb_func
 1799              		.fpu softvfp
 1801              	smtc_modem_test_direct_radio_write:
 1802              		@ args = 0, pretend = 0, frame = 0
 1803              		@ frame_needed = 0, uses_anonymous_args = 0
 1804 0000 F7B5     		push	{r0, r1, r2, r4, r5, r6, r7, lr}
 1805 0002 0400     		movs	r4, r0
 1806 0004 0D00     		movs	r5, r1
 1807 0006 1600     		movs	r6, r2
 1808 0008 1F00     		movs	r7, r3
 1809 000a FFF7FEFF 		bl	modem_get_test_mode_status
 1810 000e 0028     		cmp	r0, #0
 1811 0010 07D1     		bne	.L171
 1812 0012 0C48     		ldr	r0, .L176
 1813 0014 FFF7FEFF 		bl	smtc_modem_hal_print_trace
 1814 0018 0B48     		ldr	r0, .L176+4
 1815 001a FFF7FEFF 		bl	smtc_modem_hal_print_trace
 1816 001e 0420     		movs	r0, #4
 1817              	.L172:
 1818              		@ sp needed
 1819 0020 FEBD     		pop	{r1, r2, r3, r4, r5, r6, r7, pc}
ARM GAS  /tmp/ccwNs5iI.s 			page 34


 1820              	.L171:
 1821 0022 0A4B     		ldr	r3, .L176+8
 1822 0024 2100     		movs	r1, r4
 1823 0026 1A68     		ldr	r2, [r3]
 1824 0028 9C23     		movs	r3, #156
 1825 002a 1B01     		lsls	r3, r3, #4
 1826 002c D058     		ldr	r0, [r2, r3]
 1827 002e 0097     		str	r7, [sp]
 1828 0030 3300     		movs	r3, r6
 1829 0032 2A00     		movs	r2, r5
 1830 0034 0068     		ldr	r0, [r0]
 1831 0036 FFF7FEFF 		bl	sx126x_hal_write
 1832 003a 0028     		cmp	r0, #0
 1833 003c F0D0     		beq	.L172
 1834 003e 0620     		movs	r0, #6
 1835 0040 EEE7     		b	.L172
 1836              	.L177:
 1837 0042 C046     		.align	2
 1838              	.L176:
 1839 0044 00000000 		.word	.LC33
 1840 0048 28000000 		.word	.LC26
 1841 004c 00000000 		.word	modem_test_context
 1843              		.section	.text.smtc_modem_test_direct_radio_read,"ax",%progbits
 1844              		.align	1
 1845              		.global	smtc_modem_test_direct_radio_read
 1846              		.syntax unified
 1847              		.code	16
 1848              		.thumb_func
 1849              		.fpu softvfp
 1851              	smtc_modem_test_direct_radio_read:
 1852              		@ args = 0, pretend = 0, frame = 0
 1853              		@ frame_needed = 0, uses_anonymous_args = 0
 1854 0000 F7B5     		push	{r0, r1, r2, r4, r5, r6, r7, lr}
 1855 0002 0400     		movs	r4, r0
 1856 0004 0D00     		movs	r5, r1
 1857 0006 1600     		movs	r6, r2
 1858 0008 1F00     		movs	r7, r3
 1859 000a FFF7FEFF 		bl	modem_get_test_mode_status
 1860 000e 0028     		cmp	r0, #0
 1861 0010 07D1     		bne	.L179
 1862 0012 0C48     		ldr	r0, .L184
 1863 0014 FFF7FEFF 		bl	smtc_modem_hal_print_trace
 1864 0018 0B48     		ldr	r0, .L184+4
 1865 001a FFF7FEFF 		bl	smtc_modem_hal_print_trace
 1866 001e 0420     		movs	r0, #4
 1867              	.L180:
 1868              		@ sp needed
 1869 0020 FEBD     		pop	{r1, r2, r3, r4, r5, r6, r7, pc}
 1870              	.L179:
 1871 0022 0A4B     		ldr	r3, .L184+8
 1872 0024 2100     		movs	r1, r4
 1873 0026 1A68     		ldr	r2, [r3]
 1874 0028 9C23     		movs	r3, #156
 1875 002a 1B01     		lsls	r3, r3, #4
 1876 002c D058     		ldr	r0, [r2, r3]
 1877 002e 0097     		str	r7, [sp]
 1878 0030 3300     		movs	r3, r6
ARM GAS  /tmp/ccwNs5iI.s 			page 35


 1879 0032 2A00     		movs	r2, r5
 1880 0034 0068     		ldr	r0, [r0]
 1881 0036 FFF7FEFF 		bl	sx126x_hal_read
 1882 003a 0028     		cmp	r0, #0
 1883 003c F0D0     		beq	.L180
 1884 003e 0620     		movs	r0, #6
 1885 0040 EEE7     		b	.L180
 1886              	.L185:
 1887 0042 C046     		.align	2
 1888              	.L184:
 1889 0044 00000000 		.word	.LC33
 1890 0048 28000000 		.word	.LC26
 1891 004c 00000000 		.word	modem_test_context
 1893              		.section	.bss.modem_test_context,"aw",%nobits
 1894              		.align	2
 1897              	modem_test_context:
 1898 0000 00000000 		.space	276
 1898      00000000 
 1898      00000000 
 1898      00000000 
 1898      00000000 
 1899              		.section	.rodata.__func__.0,"a"
 1900              		.set	.LANCHOR0,. + 0
 1903              	__func__.0:
 1904 0000 74657374 		.ascii	"test_mode_cw_callback_for_rp\000"
 1904      5F6D6F64 
 1904      655F6377 
 1904      5F63616C 
 1904      6C626163 
 1905              		.section	.rodata.modem_test_bw_convert,"a"
 1906              		.align	2
 1907              		.set	.LANCHOR3,. + 0
 1910              	modem_test_bw_convert:
 1911 0000 07090B08 		.ascii	"\007\011\013\010\012\014\015"
 1911      0A0C0D
 1912              		.section	.rodata.modem_test_bw_helper,"a"
 1913              		.align	2
 1914              		.set	.LANCHOR1,. + 0
 1917              	modem_test_bw_helper:
 1918 0000 48E80100 		.word	125000
 1919 0004 90D00300 		.word	250000
 1920 0008 A0860100 		.word	100000
 1921 000c 400D0300 		.word	200000
 1922 0010 801A0600 		.word	400000
 1923 0014 00350C00 		.word	800000
 1924 0018 006A1800 		.word	1600000
 1925              		.section	.rodata.modem_test_cr_convert,"a"
 1926              		.align	2
 1927              		.set	.LANCHOR4,. + 0
 1930              	modem_test_cr_convert:
 1931 0000 01020304 		.ascii	"\001\002\003\004\005\006\007"
 1931      050607
 1932              		.section	.rodata.modem_test_sf_convert,"a"
 1933              		.align	2
 1934              		.set	.LANCHOR2,. + 0
 1937              	modem_test_sf_convert:
 1938 0000 00050607 		.ascii	"\000\005\006\007\010\011\012\013\014"
ARM GAS  /tmp/ccwNs5iI.s 			page 36


 1938      08090A0B 
 1938      0C
 1939              		.ident	"GCC: (15:10.3-2021.07-4) 10.3.1 20210621 (release)"
ARM GAS  /tmp/ccwNs5iI.s 			page 37

