ARM GAS  /tmp/cckBgKSI.s 			page 1


   1              		.cpu cortex-m0
   2              		.eabi_attribute 23, 1
   3              		.eabi_attribute 24, 1
   4              		.eabi_attribute 25, 1
   5              		.eabi_attribute 26, 1
   6              		.eabi_attribute 30, 4
   7              		.eabi_attribute 34, 0
   8              		.eabi_attribute 18, 4
   9              		.file	"sx126x_lr_fhss.c"
  10              		.text
  11              		.section	.text.sx126x_lr_fhss_init,"ax",%progbits
  12              		.align	1
  13              		.global	sx126x_lr_fhss_init
  14              		.arch armv6s-m
  15              		.syntax unified
  16              		.code	16
  17              		.thumb_func
  18              		.fpu softvfp
  20              	sx126x_lr_fhss_init:
  21              		@ args = 0, pretend = 0, frame = 24
  22              		@ frame_needed = 0, uses_anonymous_args = 0
  23 0000 30B5     		push	{r4, r5, lr}
  24 0002 164D     		ldr	r5, .L3
  25 0004 89B0     		sub	sp, sp, #36
  26 0006 0400     		movs	r4, r0
  27 0008 0A22     		movs	r2, #10
  28 000a 2900     		movs	r1, r5
  29 000c 05A8     		add	r0, sp, #20
  30 000e FFF7FEFF 		bl	memcpy
  31 0012 2900     		movs	r1, r5
  32 0014 0922     		movs	r2, #9
  33 0016 0A31     		adds	r1, r1, #10
  34 0018 02A8     		add	r0, sp, #8
  35 001a FFF7FEFF 		bl	memcpy
  36 001e 0321     		movs	r1, #3
  37 0020 2000     		movs	r0, r4
  38 0022 FFF7FEFF 		bl	sx126x_set_pkt_type
  39 0026 031E     		subs	r3, r0, #0
  40 0028 15D1     		bne	.L2
  41 002a 0090     		str	r0, [sp]
  42 002c 0A22     		movs	r2, #10
  43 002e 2000     		movs	r0, r4
  44 0030 05A9     		add	r1, sp, #20
  45 0032 FFF7FEFF 		bl	sx126x_hal_write
  46 0036 031E     		subs	r3, r0, #0
  47 0038 0DD1     		bne	.L2
  48 003a 0090     		str	r0, [sp]
  49 003c 0922     		movs	r2, #9
  50 003e 2000     		movs	r0, r4
  51 0040 02A9     		add	r1, sp, #8
  52 0042 FFF7FEFF 		bl	sx126x_hal_write
  53 0046 031E     		subs	r3, r0, #0
  54 0048 05D1     		bne	.L2
  55 004a 0200     		movs	r2, r0
  56 004c 0100     		movs	r1, r0
  57 004e 2000     		movs	r0, r4
  58 0050 FFF7FEFF 		bl	sx126x_set_buffer_base_address
ARM GAS  /tmp/cckBgKSI.s 			page 2


  59 0054 0300     		movs	r3, r0
  60              	.L2:
  61 0056 1800     		movs	r0, r3
  62 0058 09B0     		add	sp, sp, #36
  63              		@ sp needed
  64 005a 30BD     		pop	{r4, r5, pc}
  65              	.L4:
  66              		.align	2
  67              	.L3:
  68 005c 00000000 		.word	.LANCHOR0
  70              		.section	.text.sx126x_lr_fhss_write_payload,"ax",%progbits
  71              		.align	1
  72              		.global	sx126x_lr_fhss_write_payload
  73              		.syntax unified
  74              		.code	16
  75              		.thumb_func
  76              		.fpu softvfp
  78              	sx126x_lr_fhss_write_payload:
  79              		@ args = 0, pretend = 0, frame = 0
  80              		@ frame_needed = 0, uses_anonymous_args = 0
  81 0000 10B5     		push	{r4, lr}
  82 0002 0B7A     		ldrb	r3, [r1, #8]
  83 0004 0021     		movs	r1, #0
  84              		@ sp needed
  85 0006 FFF7FEFF 		bl	sx126x_write_buffer
  86 000a 10BD     		pop	{r4, pc}
  88              		.section	.text.sx126x_lr_fhss_handle_tx_done,"ax",%progbits
  89              		.align	1
  90              		.global	sx126x_lr_fhss_handle_tx_done
  91              		.syntax unified
  92              		.code	16
  93              		.thumb_func
  94              		.fpu softvfp
  96              	sx126x_lr_fhss_handle_tx_done:
  97              		@ args = 0, pretend = 0, frame = 8
  98              		@ frame_needed = 0, uses_anonymous_args = 0
  99 0000 07B5     		push	{r0, r1, r2, lr}
 100 0002 6B46     		mov	r3, sp
 101              		@ sp needed
 102 0004 DA1D     		adds	r2, r3, #7
 103 0006 0023     		movs	r3, #0
 104 0008 0249     		ldr	r1, .L7
 105 000a 1370     		strb	r3, [r2]
 106 000c 0133     		adds	r3, r3, #1
 107 000e FFF7FEFF 		bl	sx126x_write_register
 108 0012 0EBD     		pop	{r1, r2, r3, pc}
 109              	.L8:
 110              		.align	2
 111              	.L7:
 112 0014 85030000 		.word	901
 114              		.section	.text.sx126x_lr_fhss_write_hop_config,"ax",%progbits
 115              		.align	1
 116              		.global	sx126x_lr_fhss_write_hop_config
 117              		.syntax unified
 118              		.code	16
 119              		.thumb_func
 120              		.fpu softvfp
ARM GAS  /tmp/cckBgKSI.s 			page 3


 122              	sx126x_lr_fhss_write_hop_config:
 123              		@ args = 0, pretend = 0, frame = 8
 124              		@ frame_needed = 0, uses_anonymous_args = 0
 125 0000 0123     		movs	r3, #1
 126 0002 13B5     		push	{r0, r1, r4, lr}
 127 0004 01AC     		add	r4, sp, #4
 128 0006 2370     		strb	r3, [r4]
 129 0008 6170     		strb	r1, [r4, #1]
 130 000a A270     		strb	r2, [r4, #2]
 131 000c 0249     		ldr	r1, .L10
 132 000e 2200     		movs	r2, r4
 133              		@ sp needed
 134 0010 0233     		adds	r3, r3, #2
 135 0012 FFF7FEFF 		bl	sx126x_write_register
 136 0016 16BD     		pop	{r1, r2, r4, pc}
 137              	.L11:
 138              		.align	2
 139              	.L10:
 140 0018 85030000 		.word	901
 142              		.section	.text.sx126x_lr_fhss_write_hop,"ax",%progbits
 143              		.align	1
 144              		.global	sx126x_lr_fhss_write_hop
 145              		.syntax unified
 146              		.code	16
 147              		.thumb_func
 148              		.fpu softvfp
 150              	sx126x_lr_fhss_write_hop:
 151              		@ args = 0, pretend = 0, frame = 8
 152              		@ frame_needed = 0, uses_anonymous_args = 0
 153 0000 37B5     		push	{r0, r1, r2, r4, r5, lr}
 154 0002 0324     		movs	r4, #3
 155 0004 0F29     		cmp	r1, #15
 156 0006 13D8     		bhi	.L13
 157 0008 6D46     		mov	r5, sp
 158 000a 140A     		lsrs	r4, r2, #8
 159 000c 6A70     		strb	r2, [r5, #1]
 160 000e 1A0E     		lsrs	r2, r3, #24
 161 0010 AA70     		strb	r2, [r5, #2]
 162 0012 1A0C     		lsrs	r2, r3, #16
 163 0014 EA70     		strb	r2, [r5, #3]
 164 0016 6B71     		strb	r3, [r5, #5]
 165 0018 1A0A     		lsrs	r2, r3, #8
 166 001a 0623     		movs	r3, #6
 167 001c 2A71     		strb	r2, [r5, #4]
 168 001e E222     		movs	r2, #226
 169 0020 5943     		muls	r1, r3
 170 0022 9200     		lsls	r2, r2, #2
 171 0024 8918     		adds	r1, r1, r2
 172 0026 6A46     		mov	r2, sp
 173 0028 2C70     		strb	r4, [r5]
 174 002a FFF7FEFF 		bl	sx126x_write_register
 175 002e 0400     		movs	r4, r0
 176              	.L13:
 177              		@ sp needed
 178 0030 2000     		movs	r0, r4
 179 0032 3EBD     		pop	{r1, r2, r3, r4, r5, pc}
 181              		.section	.text.sx126x_lr_fhss_get_next_freq_in_pll_steps,"ax",%progbits
ARM GAS  /tmp/cckBgKSI.s 			page 4


 182              		.align	1
 183              		.global	sx126x_lr_fhss_get_next_freq_in_pll_steps
 184              		.syntax unified
 185              		.code	16
 186              		.thumb_func
 187              		.fpu softvfp
 189              	sx126x_lr_fhss_get_next_freq_in_pll_steps:
 190              		@ args = 0, pretend = 0, frame = 0
 191              		@ frame_needed = 0, uses_anonymous_args = 0
 192 0000 F8B5     		push	{r3, r4, r5, r6, r7, lr}
 193 0002 0500     		movs	r5, r0
 194 0004 0800     		movs	r0, r1
 195 0006 2A00     		movs	r2, r5
 196 0008 1430     		adds	r0, r0, #20
 197 000a 0E00     		movs	r6, r1
 198 000c FFF7FEFF 		bl	lr_fhss_get_next_freq_in_grid
 199 0010 AC79     		ldrb	r4, [r5, #6]
 200 0012 0827     		movs	r7, #8
 201 0014 002C     		cmp	r4, #0
 202 0016 00D1     		bne	.L16
 203 0018 2C37     		adds	r7, r7, #44
 204              	.L16:
 205 001a 0121     		movs	r1, #1
 206 001c 3288     		ldrh	r2, [r6]
 207 001e 013C     		subs	r4, r4, #1
 208 0020 0A40     		ands	r2, r1
 209 0022 5318     		adds	r3, r2, r1
 210 0024 7A08     		lsrs	r2, r7, #1
 211 0026 5A43     		muls	r2, r3
 212 0028 6342     		rsbs	r3, r4, #0
 213 002a 5C41     		adcs	r4, r4, r3
 214 002c 6342     		rsbs	r3, r4, #0
 215 002e 0D4C     		ldr	r4, .L24
 216 0030 2340     		ands	r3, r4
 217 0032 D024     		movs	r4, #208
 218 0034 E401     		lsls	r4, r4, #7
 219 0036 1B19     		adds	r3, r3, r4
 220 0038 1024     		movs	r4, #16
 221 003a 2C57     		ldrsb	r4, [r5, r4]
 222 003c 5843     		muls	r0, r3
 223 003e A218     		adds	r2, r4, r2
 224 0040 EC68     		ldr	r4, [r5, #12]
 225 0042 5202     		lsls	r2, r2, #9
 226 0044 2B7A     		ldrb	r3, [r5, #8]
 227 0046 A21A     		subs	r2, r4, r2
 228 0048 101A     		subs	r0, r2, r0
 229 004a 002B     		cmp	r3, #0
 230 004c 08D0     		beq	.L15
 231 004e B27D     		ldrb	r2, [r6, #22]
 232 0050 6B7A     		ldrb	r3, [r5, #9]
 233 0052 9A42     		cmp	r2, r3
 234 0054 04D2     		bcs	.L15
 235 0056 9B1A     		subs	r3, r3, r2
 236 0058 0B42     		tst	r3, r1
 237 005a 01D1     		bne	.L15
 238 005c 0130     		adds	r0, r0, #1
 239 005e FF30     		adds	r0, r0, #255
ARM GAS  /tmp/cckBgKSI.s 			page 5


 240              	.L15:
 241              		@ sp needed
 242 0060 F8BD     		pop	{r3, r4, r5, r6, r7, pc}
 243              	.L25:
 244 0062 C046     		.align	2
 245              	.L24:
 246 0064 00A8FFFF 		.word	-22528
 248              		.section	.text.sx126x_lr_fhss_process_parameters,"ax",%progbits
 249              		.align	1
 250              		.global	sx126x_lr_fhss_process_parameters
 251              		.syntax unified
 252              		.code	16
 253              		.thumb_func
 254              		.fpu softvfp
 256              	sx126x_lr_fhss_process_parameters:
 257              		@ args = 0, pretend = 0, frame = 8
 258              		@ frame_needed = 0, uses_anonymous_args = 0
 259 0000 F7B5     		push	{r0, r1, r2, r4, r5, r6, r7, lr}
 260 0002 0191     		str	r1, [sp, #4]
 261 0004 1100     		movs	r1, r2
 262 0006 1A00     		movs	r2, r3
 263 0008 1D00     		movs	r5, r3
 264 000a 0832     		adds	r2, r2, #8
 265 000c 0400     		movs	r4, r0
 266 000e FFF7FEFF 		bl	lr_fhss_process_parameters
 267 0012 2B89     		ldrh	r3, [r5, #8]
 268 0014 0226     		movs	r6, #2
 269 0016 FF2B     		cmp	r3, #255
 270 0018 0AD8     		bhi	.L27
 271 001a A379     		ldrb	r3, [r4, #6]
 272 001c 002B     		cmp	r3, #0
 273 001e 09D1     		bne	.L28
 274 0020 237C     		ldrb	r3, [r4, #16]
 275 0022 1A33     		adds	r3, r3, #26
 276 0024 DBB2     		uxtb	r3, r3
 277 0026 332B     		cmp	r3, #51
 278 0028 02D8     		bhi	.L27
 279 002a E379     		ldrb	r3, [r4, #7]
 280 002c 052B     		cmp	r3, #5
 281 002e 09D8     		bhi	.L29
 282              	.L27:
 283              		@ sp needed
 284 0030 3000     		movs	r0, r6
 285 0032 FEBD     		pop	{r1, r2, r3, r4, r5, r6, r7, pc}
 286              	.L28:
 287 0034 012B     		cmp	r3, #1
 288 0036 05D1     		bne	.L29
 289 0038 237C     		ldrb	r3, [r4, #16]
 290 003a 0226     		movs	r6, #2
 291 003c 0433     		adds	r3, r3, #4
 292 003e DBB2     		uxtb	r3, r3
 293 0040 072B     		cmp	r3, #7
 294 0042 F5D8     		bhi	.L27
 295              	.L29:
 296 0044 2F00     		movs	r7, r5
 297 0046 0023     		movs	r3, #0
 298 0048 1437     		adds	r7, r7, #20
ARM GAS  /tmp/cckBgKSI.s 			page 6


 299 004a AB75     		strb	r3, [r5, #22]
 300 004c 3A00     		movs	r2, r7
 301 004e 2900     		movs	r1, r5
 302 0050 2000     		movs	r0, r4
 303 0052 019B     		ldr	r3, [sp, #4]
 304 0054 FFF7FEFF 		bl	lr_fhss_get_hop_params
 305 0058 061E     		subs	r6, r0, #0
 306 005a E9D1     		bne	.L27
 307 005c 237A     		ldrb	r3, [r4, #8]
 308 005e 002B     		cmp	r3, #0
 309 0060 13D1     		bne	.L37
 310              	.L32:
 311 0062 2900     		movs	r1, r5
 312 0064 2000     		movs	r0, r4
 313 0066 FFF7FEFF 		bl	sx126x_lr_fhss_get_next_freq_in_pll_steps
 314 006a 2861     		str	r0, [r5, #16]
 315 006c E0E7     		b	.L27
 316              	.L31:
 317 006e 2900     		movs	r1, r5
 318 0070 3800     		movs	r0, r7
 319 0072 FFF7FEFF 		bl	lr_fhss_get_next_state
 320 0076 019B     		ldr	r3, [sp, #4]
 321 0078 0133     		adds	r3, r3, #1
 322 007a 0193     		str	r3, [sp, #4]
 323              	.L30:
 324 007c 0422     		movs	r2, #4
 325 007e 637A     		ldrb	r3, [r4, #9]
 326 0080 D31A     		subs	r3, r2, r3
 327 0082 019A     		ldr	r2, [sp, #4]
 328 0084 9342     		cmp	r3, r2
 329 0086 F2DC     		bgt	.L31
 330 0088 EBE7     		b	.L32
 331              	.L37:
 332 008a 0190     		str	r0, [sp, #4]
 333 008c F6E7     		b	.L30
 335              		.section	.text.sx126x_lr_fhss_write_hop_sequence_head,"ax",%progbits
 336              		.align	1
 337              		.global	sx126x_lr_fhss_write_hop_sequence_head
 338              		.syntax unified
 339              		.code	16
 340              		.thumb_func
 341              		.fpu softvfp
 343              	sx126x_lr_fhss_write_hop_sequence_head:
 344              		@ args = 0, pretend = 0, frame = 8
 345              		@ frame_needed = 0, uses_anonymous_args = 0
 346 0000 F7B5     		push	{r0, r1, r2, r4, r5, r6, r7, lr}
 347 0002 1400     		movs	r4, r2
 348 0004 0091     		str	r1, [sp]
 349 0006 127B     		ldrb	r2, [r2, #12]
 350 0008 217A     		ldrb	r1, [r4, #8]
 351 000a 0700     		movs	r7, r0
 352 000c FFF7FEFF 		bl	sx126x_lr_fhss_write_hop_config
 353 0010 051E     		subs	r5, r0, #0
 354 0012 11D1     		bne	.L39
 355 0014 009B     		ldr	r3, [sp]
 356 0016 1B7A     		ldrb	r3, [r3, #8]
 357 0018 002B     		cmp	r3, #0
ARM GAS  /tmp/cckBgKSI.s 			page 7


 358 001a 0FD1     		bne	.L40
 359 001c 6289     		ldrh	r2, [r4, #10]
 360 001e 3800     		movs	r0, r7
 361 0020 0132     		adds	r2, r2, #1
 362 0022 A17D     		ldrb	r1, [r4, #22]
 363 0024 2369     		ldr	r3, [r4, #16]
 364 0026 92B2     		uxth	r2, r2
 365 0028 FFF7FEFF 		bl	sx126x_lr_fhss_write_hop
 366 002c 051E     		subs	r5, r0, #0
 367 002e 03D1     		bne	.L39
 368 0030 A37D     		ldrb	r3, [r4, #22]
 369 0032 6081     		strh	r0, [r4, #10]
 370 0034 0133     		adds	r3, r3, #1
 371 0036 A375     		strb	r3, [r4, #22]
 372              	.L39:
 373 0038 2800     		movs	r0, r5
 374              		@ sp needed
 375 003a FEBD     		pop	{r1, r2, r3, r4, r5, r6, r7, pc}
 376              	.L40:
 377 003c 227B     		ldrb	r2, [r4, #12]
 378 003e 131C     		adds	r3, r2, #0
 379 0040 102A     		cmp	r2, #16
 380 0042 00D9     		bls	.L41
 381 0044 1023     		movs	r3, #16
 382              	.L41:
 383 0046 DBB2     		uxtb	r3, r3
 384 0048 0193     		str	r3, [sp, #4]
 385              	.L42:
 386 004a A17D     		ldrb	r1, [r4, #22]
 387 004c 019B     		ldr	r3, [sp, #4]
 388 004e 8B42     		cmp	r3, r1
 389 0050 F2D9     		bls	.L39
 390 0052 009B     		ldr	r3, [sp]
 391 0054 5B7A     		ldrb	r3, [r3, #9]
 392 0056 8B42     		cmp	r3, r1
 393 0058 18D8     		bhi	.L43
 394 005a 6389     		ldrh	r3, [r4, #10]
 395 005c 1E1C     		adds	r6, r3, #0
 396 005e 322B     		cmp	r3, #50
 397 0060 00D9     		bls	.L44
 398 0062 3226     		movs	r6, #50
 399              	.L44:
 400 0064 B6B2     		uxth	r6, r6
 401              	.L45:
 402 0066 3200     		movs	r2, r6
 403 0068 3800     		movs	r0, r7
 404 006a 2369     		ldr	r3, [r4, #16]
 405 006c FFF7FEFF 		bl	sx126x_lr_fhss_write_hop
 406 0070 0028     		cmp	r0, #0
 407 0072 0FD1     		bne	.L48
 408 0074 A37D     		ldrb	r3, [r4, #22]
 409 0076 2100     		movs	r1, r4
 410 0078 0133     		adds	r3, r3, #1
 411 007a A375     		strb	r3, [r4, #22]
 412 007c 6389     		ldrh	r3, [r4, #10]
 413 007e 0098     		ldr	r0, [sp]
 414 0080 9E1B     		subs	r6, r3, r6
ARM GAS  /tmp/cckBgKSI.s 			page 8


 415 0082 6681     		strh	r6, [r4, #10]
 416 0084 FFF7FEFF 		bl	sx126x_lr_fhss_get_next_freq_in_pll_steps
 417 0088 2061     		str	r0, [r4, #16]
 418 008a DEE7     		b	.L42
 419              	.L43:
 420 008c 4E42     		rsbs	r6, r1, #0
 421 008e 4E41     		adcs	r6, r6, r1
 422 0090 7236     		adds	r6, r6, #114
 423 0092 E8E7     		b	.L45
 424              	.L48:
 425 0094 0500     		movs	r5, r0
 426 0096 CFE7     		b	.L39
 428              		.section	.text.sx126x_lr_fhss_build_frame,"ax",%progbits
 429              		.align	1
 430              		.global	sx126x_lr_fhss_build_frame
 431              		.syntax unified
 432              		.code	16
 433              		.thumb_func
 434              		.fpu softvfp
 436              	sx126x_lr_fhss_build_frame:
 437              		@ args = 12, pretend = 0, frame = 264
 438              		@ frame_needed = 0, uses_anonymous_args = 0
 439 0000 F0B5     		push	{r4, r5, r6, r7, lr}
 440 0002 0D00     		movs	r5, r1
 441 0004 1400     		movs	r4, r2
 442 0006 C5B0     		sub	sp, sp, #276
 443 0008 1900     		movs	r1, r3
 444 000a 4AAB     		add	r3, sp, #296
 445 000c 04CB     		ldmia	r3!, {r2}
 446 000e 0600     		movs	r6, r0
 447 0010 1B88     		ldrh	r3, [r3]
 448 0012 0392     		str	r2, [sp, #12]
 449 0014 0293     		str	r3, [sp, #8]
 450 0016 2800     		movs	r0, r5
 451 0018 2300     		movs	r3, r4
 452 001a 029A     		ldr	r2, [sp, #8]
 453 001c 4C9F     		ldr	r7, [sp, #304]
 454 001e FFF7FEFF 		bl	sx126x_lr_fhss_process_parameters
 455 0022 0028     		cmp	r0, #0
 456 0024 17D1     		bne	.L50
 457 0026 002F     		cmp	r7, #0
 458 0028 01D0     		beq	.L51
 459 002a 2369     		ldr	r3, [r4, #16]
 460 002c 3B60     		str	r3, [r7]
 461              	.L51:
 462 002e 04AF     		add	r7, sp, #16
 463 0030 E188     		ldrh	r1, [r4, #6]
 464 0032 039A     		ldr	r2, [sp, #12]
 465 0034 2800     		movs	r0, r5
 466 0036 029B     		ldr	r3, [sp, #8]
 467 0038 0097     		str	r7, [sp]
 468 003a FFF7FEFF 		bl	lr_fhss_build_frame
 469 003e 3A00     		movs	r2, r7
 470 0040 2100     		movs	r1, r4
 471 0042 3000     		movs	r0, r6
 472 0044 FFF7FEFF 		bl	sx126x_lr_fhss_write_payload
 473 0048 0028     		cmp	r0, #0
ARM GAS  /tmp/cckBgKSI.s 			page 9


 474 004a 04D1     		bne	.L50
 475 004c 2200     		movs	r2, r4
 476 004e 2900     		movs	r1, r5
 477 0050 3000     		movs	r0, r6
 478 0052 FFF7FEFF 		bl	sx126x_lr_fhss_write_hop_sequence_head
 479              	.L50:
 480 0056 45B0     		add	sp, sp, #276
 481              		@ sp needed
 482 0058 F0BD     		pop	{r4, r5, r6, r7, pc}
 484              		.section	.text.sx126x_lr_fhss_handle_hop,"ax",%progbits
 485              		.align	1
 486              		.global	sx126x_lr_fhss_handle_hop
 487              		.syntax unified
 488              		.code	16
 489              		.thumb_func
 490              		.fpu softvfp
 492              	sx126x_lr_fhss_handle_hop:
 493              		@ args = 0, pretend = 0, frame = 0
 494              		@ frame_needed = 0, uses_anonymous_args = 0
 495 0000 F8B5     		push	{r3, r4, r5, r6, r7, lr}
 496 0002 0E00     		movs	r6, r1
 497 0004 137B     		ldrb	r3, [r2, #12]
 498 0006 917D     		ldrb	r1, [r2, #22]
 499 0008 1400     		movs	r4, r2
 500 000a 0025     		movs	r5, #0
 501 000c 8B42     		cmp	r3, r1
 502 000e 17D9     		bls	.L56
 503 0010 0F23     		movs	r3, #15
 504 0012 5789     		ldrh	r7, [r2, #10]
 505 0014 1940     		ands	r1, r3
 506 0016 1369     		ldr	r3, [r2, #16]
 507 0018 3222     		movs	r2, #50
 508 001a FFF7FEFF 		bl	sx126x_lr_fhss_write_hop
 509 001e 051E     		subs	r5, r0, #0
 510 0020 0ED1     		bne	.L56
 511 0022 A37D     		ldrb	r3, [r4, #22]
 512 0024 3A1C     		adds	r2, r7, #0
 513 0026 0133     		adds	r3, r3, #1
 514 0028 A375     		strb	r3, [r4, #22]
 515 002a 322F     		cmp	r7, #50
 516 002c 00D9     		bls	.L57
 517 002e 3222     		movs	r2, #50
 518              	.L57:
 519 0030 6389     		ldrh	r3, [r4, #10]
 520 0032 2100     		movs	r1, r4
 521 0034 9B1A     		subs	r3, r3, r2
 522 0036 3000     		movs	r0, r6
 523 0038 6381     		strh	r3, [r4, #10]
 524 003a FFF7FEFF 		bl	sx126x_lr_fhss_get_next_freq_in_pll_steps
 525 003e 2061     		str	r0, [r4, #16]
 526              	.L56:
 527 0040 2800     		movs	r0, r5
 528              		@ sp needed
 529 0042 F8BD     		pop	{r3, r4, r5, r6, r7, pc}
 531              		.section	.rodata
 532              		.set	.LANCHOR0,. + 0
 533              	.LC0:
ARM GAS  /tmp/cckBgKSI.s 			page 10


 534 0000 8C000000 		.ascii	"\214\000\000\000\000\000\000\000\000\000"
 534      00000000 
 534      0000
 535              	.LC2:
 536 000a 8B200000 		.ascii	"\213 \000\000\013\000\000\000\000"
 536      0B000000 
 536      00
 537              		.ident	"GCC: (15:10.3-2021.07-4) 10.3.1 20210621 (release)"
ARM GAS  /tmp/cckBgKSI.s 			page 11

