ARM GAS  /tmp/cctnOPM2.s 			page 1


   1              		.cpu cortex-m0
   2              		.eabi_attribute 23, 1
   3              		.eabi_attribute 24, 1
   4              		.eabi_attribute 25, 1
   5              		.eabi_attribute 26, 1
   6              		.eabi_attribute 30, 4
   7              		.eabi_attribute 34, 0
   8              		.eabi_attribute 18, 4
   9              		.file	"main.c"
  10              		.text
  11              		.section	.text.lr11xx_wifi_read_mac_address_from_buffer1,"ax",%progbits
  12              		.align	1
  13              		.arch armv6s-m
  14              		.syntax unified
  15              		.code	16
  16              		.thumb_func
  17              		.fpu softvfp
  19              	lr11xx_wifi_read_mac_address_from_buffer1:
  20              		@ args = 0, pretend = 0, frame = 0
  21              		@ frame_needed = 0, uses_anonymous_args = 0
  22              		@ link register save eliminated.
  23 0000 0023     		movs	r3, #0
  24 0002 4018     		adds	r0, r0, r1
  25              	.L2:
  26 0004 C15C     		ldrb	r1, [r0, r3]
  27 0006 D154     		strb	r1, [r2, r3]
  28 0008 0133     		adds	r3, r3, #1
  29 000a 062B     		cmp	r3, #6
  30 000c FAD1     		bne	.L2
  31              		@ sp needed
  32 000e 7047     		bx	lr
  34              		.section	.text.uint16_from_array1,"ax",%progbits
  35              		.align	1
  36              		.syntax unified
  37              		.code	16
  38              		.thumb_func
  39              		.fpu softvfp
  41              	uint16_from_array1:
  42              		@ args = 0, pretend = 0, frame = 0
  43              		@ frame_needed = 0, uses_anonymous_args = 0
  44              		@ link register save eliminated.
  45 0000 425C     		ldrb	r2, [r0, r1]
  46 0002 0131     		adds	r1, r1, #1
  47 0004 89B2     		uxth	r1, r1
  48 0006 405C     		ldrb	r0, [r0, r1]
  49 0008 1202     		lsls	r2, r2, #8
  50 000a 8018     		adds	r0, r0, r2
  51 000c 80B2     		uxth	r0, r0
  52              		@ sp needed
  53 000e 7047     		bx	lr
  55              		.section	.text.lr11xx_wifi_scan1,"ax",%progbits
  56              		.align	1
  57              		.global	lr11xx_wifi_scan1
  58              		.syntax unified
  59              		.code	16
  60              		.thumb_func
  61              		.fpu softvfp
ARM GAS  /tmp/cctnOPM2.s 			page 2


  63              	lr11xx_wifi_scan1:
  64              		@ args = 16, pretend = 0, frame = 24
  65              		@ frame_needed = 0, uses_anonymous_args = 0
  66 0000 F0B5     		push	{r4, r5, r6, r7, lr}
  67 0002 89B0     		sub	sp, sp, #36
  68 0004 9C46     		mov	ip, r3
  69 0006 0EAB     		add	r3, sp, #56
  70 0008 1F78     		ldrb	r7, [r3]
  71 000a 0FAB     		add	r3, sp, #60
  72 000c 1E78     		ldrb	r6, [r3]
  73 000e 10AB     		add	r3, sp, #64
  74 0010 1D88     		ldrh	r5, [r3]
  75 0012 11AB     		add	r3, sp, #68
  76 0014 1B78     		ldrb	r3, [r3]
  77 0016 05AC     		add	r4, sp, #20
  78 0018 0393     		str	r3, [sp, #12]
  79 001a 0323     		movs	r3, #3
  80 001c A170     		strb	r1, [r4, #2]
  81 001e 2271     		strb	r2, [r4, #4]
  82 0020 110A     		lsrs	r1, r2, #8
  83 0022 6246     		mov	r2, ip
  84 0024 2370     		strb	r3, [r4]
  85 0026 0023     		movs	r3, #0
  86 0028 6271     		strb	r2, [r4, #5]
  87 002a 2A0A     		lsrs	r2, r5, #8
  88 002c 2272     		strb	r2, [r4, #8]
  89 002e 039A     		ldr	r2, [sp, #12]
  90 0030 E170     		strb	r1, [r4, #3]
  91 0032 A272     		strb	r2, [r4, #10]
  92 0034 6370     		strb	r3, [r4, #1]
  93 0036 A771     		strb	r7, [r4, #6]
  94 0038 E671     		strb	r6, [r4, #7]
  95 003a 6572     		strb	r5, [r4, #9]
  96 003c 0B22     		movs	r2, #11
  97 003e 2100     		movs	r1, r4
  98 0040 0093     		str	r3, [sp]
  99 0042 FFF7FEFF 		bl	lr11xx_hal_write
 100 0046 C0B2     		uxtb	r0, r0
 101 0048 09B0     		add	sp, sp, #36
 102              		@ sp needed
 103 004a F0BD     		pop	{r4, r5, r6, r7, pc}
 105              		.section	.text.interpret_extended_full_result_from_buffer1,"ax",%progbits
 106              		.align	1
 107              		.global	interpret_extended_full_result_from_buffer1
 108              		.syntax unified
 109              		.code	16
 110              		.thumb_func
 111              		.fpu softvfp
 113              	interpret_extended_full_result_from_buffer1:
 114              		@ args = 0, pretend = 0, frame = 88
 115              		@ frame_needed = 0, uses_anonymous_args = 0
 116 0000 F0B5     		push	{r4, r5, r6, r7, lr}
 117 0002 97B0     		sub	sp, sp, #92
 118 0004 1500     		movs	r5, r2
 119 0006 0192     		str	r2, [sp, #4]
 120 0008 5822     		movs	r2, #88
 121 000a 4A43     		muls	r2, r1
ARM GAS  /tmp/cctnOPM2.s 			page 3


 122 000c 9C18     		adds	r4, r3, r2
 123 000e 2B00     		movs	r3, r5
 124 0010 2033     		adds	r3, r3, #32
 125 0012 0593     		str	r3, [sp, #20]
 126 0014 2833     		adds	r3, r3, #40
 127 0016 0493     		str	r3, [sp, #16]
 128 0018 4F23     		movs	r3, #79
 129 001a 4343     		muls	r3, r0
 130 001c 2600     		movs	r6, r4
 131 001e 1593     		str	r3, [sp, #84]
 132 0020 0023     		movs	r3, #0
 133 0022 4C36     		adds	r6, r6, #76
 134 0024 1493     		str	r3, [sp, #80]
 135              	.L7:
 136 0026 149B     		ldr	r3, [sp, #80]
 137 0028 159A     		ldr	r2, [sp, #84]
 138 002a 9342     		cmp	r3, r2
 139 002c 01D1     		bne	.L9
 140 002e 17B0     		add	sp, sp, #92
 141              		@ sp needed
 142 0030 F0BD     		pop	{r4, r5, r6, r7, pc}
 143              	.L9:
 144 0032 019B     		ldr	r3, [sp, #4]
 145 0034 5022     		movs	r2, #80
 146 0036 1B78     		ldrb	r3, [r3]
 147 0038 2800     		movs	r0, r5
 148 003a 2370     		strb	r3, [r4]
 149 003c 019B     		ldr	r3, [sp, #4]
 150 003e 5B78     		ldrb	r3, [r3, #1]
 151 0040 6370     		strb	r3, [r4, #1]
 152 0042 019B     		ldr	r3, [sp, #4]
 153 0044 9B78     		ldrb	r3, [r3, #2]
 154 0046 A370     		strb	r3, [r4, #2]
 155 0048 019B     		ldr	r3, [sp, #4]
 156 004a DB78     		ldrb	r3, [r3, #3]
 157 004c E370     		strb	r3, [r4, #3]
 158 004e 6B46     		mov	r3, sp
 159 0050 9B18     		adds	r3, r3, r2
 160 0052 1F88     		ldrh	r7, [r3]
 161 0054 391D     		adds	r1, r7, #4
 162 0056 89B2     		uxth	r1, r1
 163 0058 FFF7FEFF 		bl	uint16_from_array1
 164 005c B91D     		adds	r1, r7, #6
 165 005e A080     		strh	r0, [r4, #4]
 166 0060 89B2     		uxth	r1, r1
 167 0062 2800     		movs	r0, r5
 168 0064 FFF7FEFF 		bl	uint16_from_array1
 169 0068 3900     		movs	r1, r7
 170 006a 0831     		adds	r1, r1, #8
 171 006c E080     		strh	r0, [r4, #6]
 172 006e 89B2     		uxth	r1, r1
 173 0070 2800     		movs	r0, r5
 174 0072 FFF7FEFF 		bl	uint16_from_array1
 175 0076 3900     		movs	r1, r7
 176 0078 2200     		movs	r2, r4
 177 007a 0A31     		adds	r1, r1, #10
 178 007c 2081     		strh	r0, [r4, #8]
ARM GAS  /tmp/cctnOPM2.s 			page 4


 179 007e 89B2     		uxth	r1, r1
 180 0080 2800     		movs	r0, r5
 181 0082 0A32     		adds	r2, r2, #10
 182 0084 FFF7FEFF 		bl	lr11xx_wifi_read_mac_address_from_buffer1
 183 0088 3900     		movs	r1, r7
 184 008a 2200     		movs	r2, r4
 185 008c 1031     		adds	r1, r1, #16
 186 008e 2800     		movs	r0, r5
 187 0090 89B2     		uxth	r1, r1
 188 0092 1032     		adds	r2, r2, #16
 189 0094 FFF7FEFF 		bl	lr11xx_wifi_read_mac_address_from_buffer1
 190 0098 3900     		movs	r1, r7
 191 009a 2200     		movs	r2, r4
 192 009c 1631     		adds	r1, r1, #22
 193 009e 2800     		movs	r0, r5
 194 00a0 89B2     		uxth	r1, r1
 195 00a2 1632     		adds	r2, r2, #22
 196 00a4 FFF7FEFF 		bl	lr11xx_wifi_read_mac_address_from_buffer1
 197 00a8 019B     		ldr	r3, [sp, #4]
 198 00aa 019A     		ldr	r2, [sp, #4]
 199 00ac 1B7F     		ldrb	r3, [r3, #28]
 200 00ae 3100     		movs	r1, r6
 201 00b0 1B06     		lsls	r3, r3, #24
 202 00b2 0393     		str	r3, [sp, #12]
 203 00b4 0023     		movs	r3, #0
 204 00b6 0293     		str	r3, [sp, #8]
 205 00b8 537F     		ldrb	r3, [r2, #29]
 206 00ba 2C39     		subs	r1, r1, #44
 207 00bc 1A04     		lsls	r2, r3, #16
 208 00be 0D92     		str	r2, [sp, #52]
 209 00c0 0022     		movs	r2, #0
 210 00c2 0C92     		str	r2, [sp, #48]
 211 00c4 8C46     		mov	ip, r1
 212 00c6 029A     		ldr	r2, [sp, #8]
 213 00c8 039B     		ldr	r3, [sp, #12]
 214 00ca 0C98     		ldr	r0, [sp, #48]
 215 00cc 0D99     		ldr	r1, [sp, #52]
 216 00ce 1218     		adds	r2, r2, r0
 217 00d0 4B41     		adcs	r3, r3, r1
 218 00d2 0598     		ldr	r0, [sp, #20]
 219 00d4 C078     		ldrb	r0, [r0, #3]
 220 00d6 0E90     		str	r0, [sp, #56]
 221 00d8 0020     		movs	r0, #0
 222 00da 0F90     		str	r0, [sp, #60]
 223 00dc 0E98     		ldr	r0, [sp, #56]
 224 00de 0F99     		ldr	r1, [sp, #60]
 225 00e0 1218     		adds	r2, r2, r0
 226 00e2 4B41     		adcs	r3, r3, r1
 227 00e4 0198     		ldr	r0, [sp, #4]
 228 00e6 807F     		ldrb	r0, [r0, #30]
 229 00e8 0002     		lsls	r0, r0, #8
 230 00ea 1190     		str	r0, [sp, #68]
 231 00ec 0020     		movs	r0, #0
 232 00ee 1090     		str	r0, [sp, #64]
 233 00f0 1098     		ldr	r0, [sp, #64]
 234 00f2 1199     		ldr	r1, [sp, #68]
 235 00f4 1218     		adds	r2, r2, r0
ARM GAS  /tmp/cctnOPM2.s 			page 5


 236 00f6 4B41     		adcs	r3, r3, r1
 237 00f8 0198     		ldr	r0, [sp, #4]
 238 00fa C07F     		ldrb	r0, [r0, #31]
 239 00fc 1390     		str	r0, [sp, #76]
 240 00fe 0020     		movs	r0, #0
 241 0100 1290     		str	r0, [sp, #72]
 242 0102 1298     		ldr	r0, [sp, #72]
 243 0104 1399     		ldr	r1, [sp, #76]
 244 0106 1218     		adds	r2, r2, r0
 245 0108 4B41     		adcs	r3, r3, r1
 246 010a 0021     		movs	r1, #0
 247 010c 0598     		ldr	r0, [sp, #20]
 248 010e 0791     		str	r1, [sp, #28]
 249 0110 0078     		ldrb	r0, [r0]
 250 0112 0006     		lsls	r0, r0, #24
 251 0114 0690     		str	r0, [sp, #24]
 252 0116 0698     		ldr	r0, [sp, #24]
 253 0118 0799     		ldr	r1, [sp, #28]
 254 011a 1218     		adds	r2, r2, r0
 255 011c 4B41     		adcs	r3, r3, r1
 256 011e 0021     		movs	r1, #0
 257 0120 0598     		ldr	r0, [sp, #20]
 258 0122 4078     		ldrb	r0, [r0, #1]
 259 0124 0991     		str	r1, [sp, #36]
 260 0126 0004     		lsls	r0, r0, #16
 261 0128 0890     		str	r0, [sp, #32]
 262 012a 0898     		ldr	r0, [sp, #32]
 263 012c 0999     		ldr	r1, [sp, #36]
 264 012e 1218     		adds	r2, r2, r0
 265 0130 4B41     		adcs	r3, r3, r1
 266 0132 0021     		movs	r1, #0
 267 0134 0598     		ldr	r0, [sp, #20]
 268 0136 0B91     		str	r1, [sp, #44]
 269 0138 8078     		ldrb	r0, [r0, #2]
 270 013a 0102     		lsls	r1, r0, #8
 271 013c 0A91     		str	r1, [sp, #40]
 272 013e 0A98     		ldr	r0, [sp, #40]
 273 0140 0B99     		ldr	r1, [sp, #44]
 274 0142 1218     		adds	r2, r2, r0
 275 0144 4B41     		adcs	r3, r3, r1
 276 0146 6146     		mov	r1, ip
 277 0148 0A60     		str	r2, [r1]
 278 014a 4B60     		str	r3, [r1, #4]
 279 014c 3900     		movs	r1, r7
 280 014e 2431     		adds	r1, r1, #36
 281 0150 89B2     		uxth	r1, r1
 282 0152 2800     		movs	r0, r5
 283 0154 FFF7FEFF 		bl	uint16_from_array1
 284 0158 3300     		movs	r3, r6
 285 015a 3900     		movs	r1, r7
 286 015c 243B     		subs	r3, r3, #36
 287 015e 2631     		adds	r1, r1, #38
 288 0160 1880     		strh	r0, [r3]
 289 0162 89B2     		uxth	r1, r1
 290 0164 2800     		movs	r0, r5
 291 0166 FFF7FEFF 		bl	uint16_from_array1
 292 016a 3300     		movs	r3, r6
ARM GAS  /tmp/cctnOPM2.s 			page 6


 293 016c 223B     		subs	r3, r3, #34
 294 016e 1880     		strh	r0, [r3]
 295 0170 2300     		movs	r3, r4
 296 0172 019A     		ldr	r2, [sp, #4]
 297 0174 2C33     		adds	r3, r3, #44
 298 0176 2832     		adds	r2, r2, #40
 299              	.L8:
 300 0178 1178     		ldrb	r1, [r2]
 301 017a 0132     		adds	r2, r2, #1
 302 017c 1970     		strb	r1, [r3]
 303 017e 0133     		adds	r3, r3, #1
 304 0180 B342     		cmp	r3, r6
 305 0182 F9D1     		bne	.L8
 306 0184 0122     		movs	r2, #1
 307 0186 049B     		ldr	r3, [sp, #16]
 308 0188 4D37     		adds	r7, r7, #77
 309 018a 1B78     		ldrb	r3, [r3]
 310 018c 2800     		movs	r0, r5
 311 018e 3370     		strb	r3, [r6]
 312 0190 049B     		ldr	r3, [sp, #16]
 313 0192 B9B2     		uxth	r1, r7
 314 0194 5B78     		ldrb	r3, [r3, #1]
 315 0196 5834     		adds	r4, r4, #88
 316 0198 7370     		strb	r3, [r6, #1]
 317 019a 049B     		ldr	r3, [sp, #16]
 318 019c 9B78     		ldrb	r3, [r3, #2]
 319 019e B370     		strb	r3, [r6, #2]
 320 01a0 049B     		ldr	r3, [sp, #16]
 321 01a2 DB78     		ldrb	r3, [r3, #3]
 322 01a4 F370     		strb	r3, [r6, #3]
 323 01a6 049B     		ldr	r3, [sp, #16]
 324 01a8 1B79     		ldrb	r3, [r3, #4]
 325 01aa 1340     		ands	r3, r2
 326 01ac 7371     		strb	r3, [r6, #5]
 327 01ae 049B     		ldr	r3, [sp, #16]
 328 01b0 1B79     		ldrb	r3, [r3, #4]
 329 01b2 D340     		lsrs	r3, r3, r2
 330 01b4 1340     		ands	r3, r2
 331 01b6 3371     		strb	r3, [r6, #4]
 332 01b8 FFF7FEFF 		bl	uint16_from_array1
 333 01bc 019B     		ldr	r3, [sp, #4]
 334 01be F080     		strh	r0, [r6, #6]
 335 01c0 4F33     		adds	r3, r3, #79
 336 01c2 0193     		str	r3, [sp, #4]
 337 01c4 149B     		ldr	r3, [sp, #80]
 338 01c6 5836     		adds	r6, r6, #88
 339 01c8 4F33     		adds	r3, r3, #79
 340 01ca 1493     		str	r3, [sp, #80]
 341 01cc 059B     		ldr	r3, [sp, #20]
 342 01ce 4F33     		adds	r3, r3, #79
 343 01d0 0593     		str	r3, [sp, #20]
 344 01d2 049B     		ldr	r3, [sp, #16]
 345 01d4 4F33     		adds	r3, r3, #79
 346 01d6 0493     		str	r3, [sp, #16]
 347 01d8 25E7     		b	.L7
 349              		.section	.text.min,"ax",%progbits
 350              		.align	1
ARM GAS  /tmp/cctnOPM2.s 			page 7


 351              		.global	min
 352              		.syntax unified
 353              		.code	16
 354              		.thumb_func
 355              		.fpu softvfp
 357              	min:
 358              		@ args = 0, pretend = 0, frame = 0
 359              		@ frame_needed = 0, uses_anonymous_args = 0
 360              		@ link register save eliminated.
 361 0000 0B1C     		adds	r3, r1, #0
 362 0002 8142     		cmp	r1, r0
 363 0004 00D9     		bls	.L12
 364 0006 031C     		adds	r3, r0, #0
 365              	.L12:
 366 0008 D8B2     		uxtb	r0, r3
 367              		@ sp needed
 368 000a 7047     		bx	lr
 370              		.section	.text.lr11xx_wifi_read_extended_full_results1,"ax",%progbits
 371              		.align	1
 372              		.global	lr11xx_wifi_read_extended_full_results1
 373              		.syntax unified
 374              		.code	16
 375              		.thumb_func
 376              		.fpu softvfp
 378              	lr11xx_wifi_read_extended_full_results1:
 379              		@ args = 0, pretend = 0, frame = 1048
 380              		@ frame_needed = 0, uses_anonymous_args = 0
 381 0000 F0B5     		push	{r4, r5, r6, r7, lr}
 382 0002 244C     		ldr	r4, .L20
 383 0004 1500     		movs	r5, r2
 384 0006 A544     		add	sp, sp, r4
 385 0008 FE22     		movs	r2, #254
 386 000a 0024     		movs	r4, #0
 387 000c 0490     		str	r0, [sp, #16]
 388 000e 0391     		str	r1, [sp, #12]
 389 0010 9200     		lsls	r2, r2, #2
 390 0012 2100     		movs	r1, r4
 391 0014 0AA8     		add	r0, sp, #40
 392 0016 0593     		str	r3, [sp, #20]
 393 0018 0994     		str	r4, [sp, #36]
 394 001a FFF7FEFF 		bl	memset
 395 001e 0294     		str	r4, [sp, #8]
 396              	.L14:
 397 0020 002D     		cmp	r5, #0
 398 0022 04D1     		bne	.L18
 399 0024 2C00     		movs	r4, r5
 400              	.L16:
 401 0026 2000     		movs	r0, r4
 402 0028 1B4B     		ldr	r3, .L20+4
 403 002a 9D44     		add	sp, sp, r3
 404              		@ sp needed
 405 002c F0BD     		pop	{r4, r5, r6, r7, pc}
 406              	.L18:
 407 002e 2B1C     		adds	r3, r5, #0
 408 0030 0C2D     		cmp	r5, #12
 409 0032 00D9     		bls	.L15
 410 0034 0C23     		movs	r3, #12
ARM GAS  /tmp/cctnOPM2.s 			page 8


 411              	.L15:
 412 0036 07A9     		add	r1, sp, #28
 413 0038 CB70     		strb	r3, [r1, #3]
 414 003a DEB2     		uxtb	r6, r3
 415 003c 0123     		movs	r3, #1
 416 003e 0322     		movs	r2, #3
 417 0040 0B71     		strb	r3, [r1, #4]
 418 0042 4E33     		adds	r3, r3, #78
 419 0044 7343     		muls	r3, r6
 420 0046 0A70     		strb	r2, [r1]
 421 0048 9218     		adds	r2, r2, r2
 422 004a 4A70     		strb	r2, [r1, #1]
 423 004c 039A     		ldr	r2, [sp, #12]
 424 004e 09AF     		add	r7, sp, #36
 425 0050 8A70     		strb	r2, [r1, #2]
 426 0052 0498     		ldr	r0, [sp, #16]
 427 0054 0093     		str	r3, [sp]
 428 0056 0522     		movs	r2, #5
 429 0058 3B00     		movs	r3, r7
 430 005a FFF7FEFF 		bl	lr11xx_hal_read
 431 005e C4B2     		uxtb	r4, r0
 432 0060 002C     		cmp	r4, #0
 433 0062 E0D1     		bne	.L16
 434 0064 3A00     		movs	r2, r7
 435 0066 059B     		ldr	r3, [sp, #20]
 436 0068 3000     		movs	r0, r6
 437 006a 0299     		ldr	r1, [sp, #8]
 438 006c FFF7FEFF 		bl	interpret_extended_full_result_from_buffer1
 439 0070 ED23     		movs	r3, #237
 440 0072 2200     		movs	r2, r4
 441 0074 9B00     		lsls	r3, r3, #2
 442              	.L17:
 443 0076 E255     		strb	r2, [r4, r7]
 444 0078 0134     		adds	r4, r4, #1
 445 007a 9C42     		cmp	r4, r3
 446 007c FBD1     		bne	.L17
 447 007e 039B     		ldr	r3, [sp, #12]
 448 0080 AD1B     		subs	r5, r5, r6
 449 0082 F118     		adds	r1, r6, r3
 450 0084 CBB2     		uxtb	r3, r1
 451 0086 0393     		str	r3, [sp, #12]
 452 0088 029B     		ldr	r3, [sp, #8]
 453 008a EDB2     		uxtb	r5, r5
 454 008c F318     		adds	r3, r6, r3
 455 008e DBB2     		uxtb	r3, r3
 456 0090 0293     		str	r3, [sp, #8]
 457 0092 C5E7     		b	.L14
 458              	.L21:
 459              		.align	2
 460              	.L20:
 461 0094 DCFBFFFF 		.word	-1060
 462 0098 24040000 		.word	1060
 464              		.section	.rodata.main.str1.1,"aMS",%progbits,1
 465              	.LC0:
 466 0000 5F5F5F5F 		.ascii	"___________________________________________________"
 466      5F5F5F5F 
 466      5F5F5F5F 
ARM GAS  /tmp/cctnOPM2.s 			page 9


 466      5F5F5F5F 
 466      5F5F5F5F 
 467 0033 5F5F5F5F 		.ascii	"____________________________\015\012\000"
 467      5F5F5F5F 
 467      5F5F5F5F 
 467      5F5F5F5F 
 467      5F5F5F5F 
 468              	.LC2:
 469 0052 0D0A2D2D 		.ascii	"\015\012-----------------WIFI Scan-----------------"
 469      2D2D2D2D 
 469      2D2D2D2D 
 469      2D2D2D2D 
 469      2D2D2D57 
 470 007f 0D0A00   		.ascii	"\015\012\000"
 471              	.LC4:
 472 0082 77696669 		.ascii	"wifi %d: SSID: %s, \000"
 472      2025643A 
 472      20535349 
 472      443A2025 
 472      732C2000 
 473              	.LC6:
 474 0096 6D61633A 		.ascii	"mac: %02x:%02x:%02x:%02x:%02x:%02x, rssi: %d\015\012"
 474      20253032 
 474      783A2530 
 474      32783A25 
 474      3032783A 
 475 00c4 00       		.ascii	"\000"
 476              		.section	.text.startup.main,"ax",%progbits
 477              		.align	1
 478              		.global	main
 479              		.syntax unified
 480              		.code	16
 481              		.thumb_func
 482              		.fpu softvfp
 484              	main:
 485              		@ Volatile: function does not return.
 486              		@ args = 0, pretend = 0, frame = 88
 487              		@ frame_needed = 0, uses_anonymous_args = 0
 488 0000 70B5     		push	{r4, r5, r6, lr}
 489 0002 9AB0     		sub	sp, sp, #104
 490 0004 FFF7FEFF 		bl	hal_mcu_init
 491 0008 1D48     		ldr	r0, .L26
 492 000a FFF7FEFF 		bl	hal_trace_print_var
 493 000e 0126     		movs	r6, #1
 494              	.L24:
 495 0010 1C48     		ldr	r0, .L26+4
 496 0012 FFF7FEFF 		bl	hal_trace_print_var
 497 0016 0323     		movs	r3, #3
 498 0018 6E24     		movs	r4, #110
 499 001a 0193     		str	r3, [sp, #4]
 500 001c 0933     		adds	r3, r3, #9
 501 001e 0421     		movs	r1, #4
 502 0020 194A     		ldr	r2, .L26+8
 503 0022 0093     		str	r3, [sp]
 504 0024 0020     		movs	r0, #0
 505 0026 073B     		subs	r3, r3, #7
 506 0028 0396     		str	r6, [sp, #12]
ARM GAS  /tmp/cctnOPM2.s 			page 10


 507 002a 0294     		str	r4, [sp, #8]
 508 002c FFF7FEFF 		bl	lr11xx_wifi_scan1
 509 0030 2000     		movs	r0, r4
 510 0032 FFF7FEFF 		bl	HAL_Delay
 511 0036 0025     		movs	r5, #0
 512              	.L23:
 513 0038 04AC     		add	r4, sp, #16
 514 003a 2300     		movs	r3, r4
 515 003c 3200     		movs	r2, r6
 516 003e E9B2     		uxtb	r1, r5
 517 0040 0020     		movs	r0, #0
 518 0042 FFF7FEFF 		bl	lr11xx_wifi_read_extended_full_results1
 519 0046 2900     		movs	r1, r5
 520 0048 1048     		ldr	r0, .L26+12
 521 004a 0FAA     		add	r2, sp, #60
 522 004c FFF7FEFF 		bl	hal_trace_print_var
 523 0050 0220     		movs	r0, #2
 524 0052 2056     		ldrsb	r0, [r4, r0]
 525 0054 237E     		ldrb	r3, [r4, #24]
 526 0056 E27D     		ldrb	r2, [r4, #23]
 527 0058 A17D     		ldrb	r1, [r4, #22]
 528 005a 0390     		str	r0, [sp, #12]
 529 005c E07E     		ldrb	r0, [r4, #27]
 530 005e 0290     		str	r0, [sp, #8]
 531 0060 A07E     		ldrb	r0, [r4, #26]
 532 0062 0190     		str	r0, [sp, #4]
 533 0064 607E     		ldrb	r0, [r4, #25]
 534 0066 0090     		str	r0, [sp]
 535 0068 0948     		ldr	r0, .L26+16
 536 006a FFF7FEFF 		bl	hal_trace_print_var
 537 006e 012D     		cmp	r5, #1
 538 0070 04D1     		bne	.L25
 539 0072 FA20     		movs	r0, #250
 540 0074 C000     		lsls	r0, r0, #3
 541 0076 FFF7FEFF 		bl	HAL_Delay
 542 007a C9E7     		b	.L24
 543              	.L25:
 544 007c 3500     		movs	r5, r6
 545 007e DBE7     		b	.L23
 546              	.L27:
 547              		.align	2
 548              	.L26:
 549 0080 00000000 		.word	.LC0
 550 0084 52000000 		.word	.LC2
 551 0088 FF3F0000 		.word	16383
 552 008c 82000000 		.word	.LC4
 553 0090 96000000 		.word	.LC6
 555              		.global	modem_radio
 556              		.section	.rodata.modem_radio,"a"
 557              		.align	2
 560              	modem_radio:
 561 0000 00000000 		.word	0
 562 0004 00000000 		.word	ral_lr11xx_handles_part
 563 0008 00000000 		.word	ral_lr11xx_reset
 564 000c 00000000 		.word	ral_lr11xx_init
 565 0010 00000000 		.word	ral_lr11xx_wakeup
 566 0014 00000000 		.word	ral_lr11xx_set_sleep
ARM GAS  /tmp/cctnOPM2.s 			page 11


 567 0018 00000000 		.word	ral_lr11xx_set_standby
 568 001c 00000000 		.word	ral_lr11xx_set_fs
 569 0020 00000000 		.word	ral_lr11xx_set_tx
 570 0024 00000000 		.word	ral_lr11xx_set_rx
 571 0028 00000000 		.word	ral_lr11xx_cfg_rx_boosted
 572 002c 00000000 		.word	ral_lr11xx_set_rx_tx_fallback_mode
 573 0030 00000000 		.word	ral_lr11xx_stop_timer_on_preamble
 574 0034 00000000 		.word	ral_lr11xx_set_rx_duty_cycle
 575 0038 00000000 		.word	ral_lr11xx_set_lora_cad
 576 003c 00000000 		.word	ral_lr11xx_set_tx_cw
 577 0040 00000000 		.word	ral_lr11xx_set_tx_infinite_preamble
 578 0044 00000000 		.word	ral_lr11xx_cal_img
 579 0048 00000000 		.word	ral_lr11xx_set_tx_cfg
 580 004c 00000000 		.word	ral_lr11xx_set_pkt_payload
 581 0050 00000000 		.word	ral_lr11xx_get_pkt_payload
 582 0054 00000000 		.word	ral_lr11xx_get_irq_status
 583 0058 00000000 		.word	ral_lr11xx_clear_irq_status
 584 005c 00000000 		.word	ral_lr11xx_get_and_clear_irq_status
 585 0060 00000000 		.word	ral_lr11xx_set_dio_irq_params
 586 0064 00000000 		.word	ral_lr11xx_set_rf_freq
 587 0068 00000000 		.word	ral_lr11xx_set_pkt_type
 588 006c 00000000 		.word	ral_lr11xx_get_pkt_type
 589 0070 00000000 		.word	ral_lr11xx_set_gfsk_mod_params
 590 0074 00000000 		.word	ral_lr11xx_set_gfsk_pkt_params
 591 0078 00000000 		.word	ral_lr11xx_set_lora_mod_params
 592 007c 00000000 		.word	ral_lr11xx_set_lora_pkt_params
 593 0080 00000000 		.word	ral_lr11xx_set_lora_cad_params
 594 0084 00000000 		.word	ral_lr11xx_set_lora_symb_nb_timeout
 595 0088 00000000 		.word	ral_lr11xx_set_flrc_mod_params
 596 008c 00000000 		.word	ral_lr11xx_set_flrc_pkt_params
 597 0090 00000000 		.word	ral_lr11xx_get_gfsk_rx_pkt_status
 598 0094 00000000 		.word	ral_lr11xx_get_lora_rx_pkt_status
 599 0098 00000000 		.word	ral_lr11xx_get_flrc_rx_pkt_status
 600 009c 00000000 		.word	ral_lr11xx_get_rssi_inst
 601 00a0 00000000 		.word	ral_lr11xx_get_lora_time_on_air_in_ms
 602 00a4 00000000 		.word	ral_lr11xx_get_gfsk_time_on_air_in_ms
 603 00a8 00000000 		.word	ral_lr11xx_get_flrc_time_on_air_in_ms
 604 00ac 00000000 		.word	ral_lr11xx_set_gfsk_sync_word
 605 00b0 00000000 		.word	ral_lr11xx_set_lora_sync_word
 606 00b4 00000000 		.word	ral_lr11xx_set_flrc_sync_word
 607 00b8 00000000 		.word	ral_lr11xx_set_gfsk_crc_params
 608 00bc 00000000 		.word	ral_lr11xx_set_flrc_crc_params
 609 00c0 00000000 		.word	ral_lr11xx_set_gfsk_whitening_seed
 610 00c4 00000000 		.word	ral_lr11xx_lr_fhss_init
 611 00c8 00000000 		.word	ral_lr11xx_lr_fhss_build_frame
 612 00cc 00000000 		.word	ral_lr11xx_lr_fhss_handle_hop
 613 00d0 00000000 		.word	ral_lr11xx_lr_fhss_handle_tx_done
 614 00d4 00000000 		.word	ral_lr11xx_lr_fhss_get_time_on_air_in_ms
 615 00d8 00000000 		.word	ral_lr11xx_lr_fhss_get_hop_sequence_count
 616 00dc 00000000 		.word	ral_lr11xx_get_lora_rx_pkt_cr_crc
 617 00e0 00000000 		.word	ral_lr11xx_get_tx_consumption_in_ua
 618 00e4 00000000 		.word	ral_lr11xx_get_gfsk_rx_consumption_in_ua
 619 00e8 00000000 		.word	ral_lr11xx_get_lora_rx_consumption_in_ua
 620 00ec 00000000 		.word	ral_lr11xx_get_random_numbers
 621 00f0 00000000 		.word	ralf_lr11xx_setup_gfsk
 622 00f4 00000000 		.word	ralf_lr11xx_setup_lora
 623 00f8 00000000 		.word	ralf_lr11xx_setup_flrc
ARM GAS  /tmp/cctnOPM2.s 			page 12


 624              		.ident	"GCC: (15:10.3-2021.07-4) 10.3.1 20210621 (release)"
ARM GAS  /tmp/cctnOPM2.s 			page 13


DEFINED SYMBOLS
                            *ABS*:0000000000000000 main.c
     /tmp/cctnOPM2.s:12     .text.lr11xx_wifi_read_mac_address_from_buffer1:0000000000000000 $t
     /tmp/cctnOPM2.s:19     .text.lr11xx_wifi_read_mac_address_from_buffer1:0000000000000000 lr11xx_wifi_read_mac_address_from_buffer1
     /tmp/cctnOPM2.s:35     .text.uint16_from_array1:0000000000000000 $t
     /tmp/cctnOPM2.s:41     .text.uint16_from_array1:0000000000000000 uint16_from_array1
     /tmp/cctnOPM2.s:56     .text.lr11xx_wifi_scan1:0000000000000000 $t
     /tmp/cctnOPM2.s:63     .text.lr11xx_wifi_scan1:0000000000000000 lr11xx_wifi_scan1
     /tmp/cctnOPM2.s:106    .text.interpret_extended_full_result_from_buffer1:0000000000000000 $t
     /tmp/cctnOPM2.s:113    .text.interpret_extended_full_result_from_buffer1:0000000000000000 interpret_extended_full_result_from_buffer1
     /tmp/cctnOPM2.s:350    .text.min:0000000000000000 $t
     /tmp/cctnOPM2.s:357    .text.min:0000000000000000 min
     /tmp/cctnOPM2.s:371    .text.lr11xx_wifi_read_extended_full_results1:0000000000000000 $t
     /tmp/cctnOPM2.s:378    .text.lr11xx_wifi_read_extended_full_results1:0000000000000000 lr11xx_wifi_read_extended_full_results1
     /tmp/cctnOPM2.s:461    .text.lr11xx_wifi_read_extended_full_results1:0000000000000094 $d
     /tmp/cctnOPM2.s:477    .text.startup.main:0000000000000000 $t
     /tmp/cctnOPM2.s:484    .text.startup.main:0000000000000000 main
     /tmp/cctnOPM2.s:549    .text.startup.main:0000000000000080 $d
     /tmp/cctnOPM2.s:560    .rodata.modem_radio:0000000000000000 modem_radio
     /tmp/cctnOPM2.s:557    .rodata.modem_radio:0000000000000000 $d

UNDEFINED SYMBOLS
lr11xx_hal_write
memset
lr11xx_hal_read
hal_mcu_init
hal_trace_print_var
HAL_Delay
ral_lr11xx_handles_part
ral_lr11xx_reset
ral_lr11xx_init
ral_lr11xx_wakeup
ral_lr11xx_set_sleep
ral_lr11xx_set_standby
ral_lr11xx_set_fs
ral_lr11xx_set_tx
ral_lr11xx_set_rx
ral_lr11xx_cfg_rx_boosted
ral_lr11xx_set_rx_tx_fallback_mode
ral_lr11xx_stop_timer_on_preamble
ral_lr11xx_set_rx_duty_cycle
ral_lr11xx_set_lora_cad
ral_lr11xx_set_tx_cw
ral_lr11xx_set_tx_infinite_preamble
ral_lr11xx_cal_img
ral_lr11xx_set_tx_cfg
ral_lr11xx_set_pkt_payload
ral_lr11xx_get_pkt_payload
ral_lr11xx_get_irq_status
ral_lr11xx_clear_irq_status
ral_lr11xx_get_and_clear_irq_status
ral_lr11xx_set_dio_irq_params
ral_lr11xx_set_rf_freq
ral_lr11xx_set_pkt_type
ral_lr11xx_get_pkt_type
ral_lr11xx_set_gfsk_mod_params
ral_lr11xx_set_gfsk_pkt_params
ARM GAS  /tmp/cctnOPM2.s 			page 14


ral_lr11xx_set_lora_mod_params
ral_lr11xx_set_lora_pkt_params
ral_lr11xx_set_lora_cad_params
ral_lr11xx_set_lora_symb_nb_timeout
ral_lr11xx_set_flrc_mod_params
ral_lr11xx_set_flrc_pkt_params
ral_lr11xx_get_gfsk_rx_pkt_status
ral_lr11xx_get_lora_rx_pkt_status
ral_lr11xx_get_flrc_rx_pkt_status
ral_lr11xx_get_rssi_inst
ral_lr11xx_get_lora_time_on_air_in_ms
ral_lr11xx_get_gfsk_time_on_air_in_ms
ral_lr11xx_get_flrc_time_on_air_in_ms
ral_lr11xx_set_gfsk_sync_word
ral_lr11xx_set_lora_sync_word
ral_lr11xx_set_flrc_sync_word
ral_lr11xx_set_gfsk_crc_params
ral_lr11xx_set_flrc_crc_params
ral_lr11xx_set_gfsk_whitening_seed
ral_lr11xx_lr_fhss_init
ral_lr11xx_lr_fhss_build_frame
ral_lr11xx_lr_fhss_handle_hop
ral_lr11xx_lr_fhss_handle_tx_done
ral_lr11xx_lr_fhss_get_time_on_air_in_ms
ral_lr11xx_lr_fhss_get_hop_sequence_count
ral_lr11xx_get_lora_rx_pkt_cr_crc
ral_lr11xx_get_tx_consumption_in_ua
ral_lr11xx_get_gfsk_rx_consumption_in_ua
ral_lr11xx_get_lora_rx_consumption_in_ua
ral_lr11xx_get_random_numbers
ralf_lr11xx_setup_gfsk
ralf_lr11xx_setup_lora
ralf_lr11xx_setup_flrc
