ARM GAS  /tmp/ccp80YOK.s 			page 1


   1              		.cpu cortex-m0
   2              		.eabi_attribute 23, 1
   3              		.eabi_attribute 24, 1
   4              		.eabi_attribute 25, 1
   5              		.eabi_attribute 26, 1
   6              		.eabi_attribute 30, 4
   7              		.eabi_attribute 34, 0
   8              		.eabi_attribute 18, 4
   9              		.file	"settings.c"
  10              		.text
  11              		.section	.text.settings_init,"ax",%progbits
  12              		.align	1
  13              		.global	settings_init
  14              		.arch armv6s-m
  15              		.syntax unified
  16              		.code	16
  17              		.thumb_func
  18              		.fpu softvfp
  20              	settings_init:
  21              		@ args = 0, pretend = 0, frame = 0
  22              		@ frame_needed = 0, uses_anonymous_args = 0
  23 0000 10B5     		push	{r4, lr}
  24 0002 0B4C     		ldr	r4, .L2
  25 0004 0822     		movs	r2, #8
  26              		@ sp needed
  27 0006 2000     		movs	r0, r4
  28 0008 0A49     		ldr	r1, .L2+4
  29 000a FFF7FEFF 		bl	memcpy
  30 000e 2000     		movs	r0, r4
  31 0010 0822     		movs	r2, #8
  32 0012 0949     		ldr	r1, .L2+8
  33 0014 0830     		adds	r0, r0, #8
  34 0016 FFF7FEFF 		bl	memcpy
  35 001a 2000     		movs	r0, r4
  36 001c 1022     		movs	r2, #16
  37 001e 0749     		ldr	r1, .L2+12
  38 0020 1030     		adds	r0, r0, #16
  39 0022 FFF7FEFF 		bl	memcpy
  40 0026 0123     		movs	r3, #1
  41 0028 0134     		adds	r4, r4, #1
  42 002a E377     		strb	r3, [r4, #31]
  43 002c 10BD     		pop	{r4, pc}
  44              	.L3:
  45 002e C046     		.align	2
  46              	.L2:
  47 0030 00000000 		.word	.LANCHOR1
  48 0034 00000000 		.word	.LANCHOR0
  49 0038 00000000 		.word	.LANCHOR2
  50 003c 00000000 		.word	.LANCHOR3
  52              		.section	.rodata.settings_print.str1.1,"aMS",%progbits,1
  53              	.LC7:
  54 0000 494E464F 		.ascii	"INFO: Settings:\012\000"
  54      3A205365 
  54      7474696E 
  54      67733A0A 
  54      00
  55              	.LC9:
ARM GAS  /tmp/ccp80YOK.s 			page 2


  56 0011 00       		.ascii	"\000"
  57              	.LC12:
  58 0012 494E464F 		.ascii	"INFO:  - deveui:                   %02X%02X%02X%02X"
  58      3A20202D 
  58      20646576 
  58      6575693A 
  58      20202020 
  59 0045 25303258 		.ascii	"%02X%02X%02X%02X\012\000"
  59      25303258 
  59      25303258 
  59      25303258 
  59      0A00
  60              	.LC14:
  61 0057 494E464F 		.ascii	"INFO:  - joineui:                  %02X%02X%02X%02X"
  61      3A20202D 
  61      206A6F69 
  61      6E657569 
  61      3A202020 
  62 008a 25303258 		.ascii	"%02X%02X%02X%02X\012\000"
  62      25303258 
  62      25303258 
  62      25303258 
  62      0A00
  63              	.LC16:
  64 009c 494E464F 		.ascii	"INFO:  - nwkey:                    %02X%02X%02X%02X"
  64      3A20202D 
  64      206E776B 
  64      65793A20 
  64      20202020 
  65 00cf 25303258 		.ascii	"%02X%02X%02X%02X%02X%02X%02X%02X%02X%02X%02X%02X\012"
  65      25303258 
  65      25303258 
  65      25303258 
  65      25303258 
  66 0100 00       		.ascii	"\000"
  67              	.LC18:
  68 0101 494E464F 		.ascii	"INFO:  - region:                   %u\012\000"
  68      3A20202D 
  68      20726567 
  68      696F6E3A 
  68      20202020 
  69              		.section	.text.settings_print,"ax",%progbits
  70              		.align	1
  71              		.global	settings_print
  72              		.syntax unified
  73              		.code	16
  74              		.thumb_func
  75              		.fpu softvfp
  77              	settings_print:
  78              		@ args = 0, pretend = 0, frame = 0
  79              		@ frame_needed = 0, uses_anonymous_args = 0
  80 0000 30B5     		push	{r4, r5, lr}
  81 0002 2E48     		ldr	r0, .L5
  82 0004 8FB0     		sub	sp, sp, #60
  83 0006 FFF7FEFF 		bl	hal_trace_print_var
  84 000a 2D4D     		ldr	r5, .L5+4
  85 000c 2800     		movs	r0, r5
ARM GAS  /tmp/ccp80YOK.s 			page 3


  86 000e FFF7FEFF 		bl	hal_trace_print_var
  87 0012 2C4C     		ldr	r4, .L5+8
  88 0014 E079     		ldrb	r0, [r4, #7]
  89 0016 A378     		ldrb	r3, [r4, #2]
  90 0018 6278     		ldrb	r2, [r4, #1]
  91 001a 2178     		ldrb	r1, [r4]
  92 001c 0490     		str	r0, [sp, #16]
  93 001e A079     		ldrb	r0, [r4, #6]
  94 0020 0134     		adds	r4, r4, #1
  95 0022 0390     		str	r0, [sp, #12]
  96 0024 2079     		ldrb	r0, [r4, #4]
  97 0026 0290     		str	r0, [sp, #8]
  98 0028 E078     		ldrb	r0, [r4, #3]
  99 002a 0190     		str	r0, [sp, #4]
 100 002c A078     		ldrb	r0, [r4, #2]
 101 002e 0090     		str	r0, [sp]
 102 0030 2548     		ldr	r0, .L5+12
 103 0032 FFF7FEFF 		bl	hal_trace_print_var
 104 0036 2800     		movs	r0, r5
 105 0038 FFF7FEFF 		bl	hal_trace_print_var
 106 003c A07B     		ldrb	r0, [r4, #14]
 107 003e 637A     		ldrb	r3, [r4, #9]
 108 0040 227A     		ldrb	r2, [r4, #8]
 109 0042 E179     		ldrb	r1, [r4, #7]
 110 0044 0490     		str	r0, [sp, #16]
 111 0046 607B     		ldrb	r0, [r4, #13]
 112 0048 0390     		str	r0, [sp, #12]
 113 004a 207B     		ldrb	r0, [r4, #12]
 114 004c 0290     		str	r0, [sp, #8]
 115 004e E07A     		ldrb	r0, [r4, #11]
 116 0050 0190     		str	r0, [sp, #4]
 117 0052 A07A     		ldrb	r0, [r4, #10]
 118 0054 0090     		str	r0, [sp]
 119 0056 1D48     		ldr	r0, .L5+16
 120 0058 FFF7FEFF 		bl	hal_trace_print_var
 121 005c 2800     		movs	r0, r5
 122 005e FFF7FEFF 		bl	hal_trace_print_var
 123 0062 A07F     		ldrb	r0, [r4, #30]
 124 0064 637C     		ldrb	r3, [r4, #17]
 125 0066 227C     		ldrb	r2, [r4, #16]
 126 0068 E17B     		ldrb	r1, [r4, #15]
 127 006a 0C90     		str	r0, [sp, #48]
 128 006c 607F     		ldrb	r0, [r4, #29]
 129 006e 0B90     		str	r0, [sp, #44]
 130 0070 207F     		ldrb	r0, [r4, #28]
 131 0072 0A90     		str	r0, [sp, #40]
 132 0074 E07E     		ldrb	r0, [r4, #27]
 133 0076 0990     		str	r0, [sp, #36]
 134 0078 A07E     		ldrb	r0, [r4, #26]
 135 007a 0890     		str	r0, [sp, #32]
 136 007c 607E     		ldrb	r0, [r4, #25]
 137 007e 0790     		str	r0, [sp, #28]
 138 0080 207E     		ldrb	r0, [r4, #24]
 139 0082 0690     		str	r0, [sp, #24]
 140 0084 E07D     		ldrb	r0, [r4, #23]
 141 0086 0590     		str	r0, [sp, #20]
 142 0088 A07D     		ldrb	r0, [r4, #22]
ARM GAS  /tmp/ccp80YOK.s 			page 4


 143 008a 0490     		str	r0, [sp, #16]
 144 008c 607D     		ldrb	r0, [r4, #21]
 145 008e 0390     		str	r0, [sp, #12]
 146 0090 207D     		ldrb	r0, [r4, #20]
 147 0092 0290     		str	r0, [sp, #8]
 148 0094 E07C     		ldrb	r0, [r4, #19]
 149 0096 0190     		str	r0, [sp, #4]
 150 0098 A07C     		ldrb	r0, [r4, #18]
 151 009a 0090     		str	r0, [sp]
 152 009c 0C48     		ldr	r0, .L5+20
 153 009e FFF7FEFF 		bl	hal_trace_print_var
 154 00a2 2800     		movs	r0, r5
 155 00a4 FFF7FEFF 		bl	hal_trace_print_var
 156 00a8 E17F     		ldrb	r1, [r4, #31]
 157 00aa 0A48     		ldr	r0, .L5+24
 158 00ac FFF7FEFF 		bl	hal_trace_print_var
 159 00b0 2800     		movs	r0, r5
 160 00b2 FFF7FEFF 		bl	hal_trace_print_var
 161 00b6 0FB0     		add	sp, sp, #60
 162              		@ sp needed
 163 00b8 30BD     		pop	{r4, r5, pc}
 164              	.L6:
 165 00ba C046     		.align	2
 166              	.L5:
 167 00bc 00000000 		.word	.LC7
 168 00c0 11000000 		.word	.LC9
 169 00c4 00000000 		.word	.LANCHOR1
 170 00c8 12000000 		.word	.LC12
 171 00cc 57000000 		.word	.LC14
 172 00d0 9C000000 		.word	.LC16
 173 00d4 01010000 		.word	.LC18
 175              		.global	settings
 176              		.section	.bss.deveui,"aw",%nobits
 177              		.align	2
 178              		.set	.LANCHOR0,. + 0
 181              	deveui:
 182 0000 00000000 		.space	8
 182      00000000 
 183              		.section	.bss.joineui,"aw",%nobits
 184              		.align	2
 185              		.set	.LANCHOR2,. + 0
 188              	joineui:
 189 0000 00000000 		.space	8
 189      00000000 
 190              		.section	.bss.nwkey,"aw",%nobits
 191              		.align	2
 192              		.set	.LANCHOR3,. + 0
 195              	nwkey:
 196 0000 00000000 		.space	16
 196      00000000 
 196      00000000 
 196      00000000 
 197              		.section	.bss.settings,"aw",%nobits
 198              		.align	2
 199              		.set	.LANCHOR1,. + 0
 202              	settings:
 203 0000 00000000 		.space	65
ARM GAS  /tmp/ccp80YOK.s 			page 5


 203      00000000 
 203      00000000 
 203      00000000 
 203      00000000 
 204              		.ident	"GCC: (15:10.3-2021.07-4) 10.3.1 20210621 (release)"
ARM GAS  /tmp/ccp80YOK.s 			page 6


DEFINED SYMBOLS
                            *ABS*:0000000000000000 settings.c
     /tmp/ccp80YOK.s:12     .text.settings_init:0000000000000000 $t
     /tmp/ccp80YOK.s:20     .text.settings_init:0000000000000000 settings_init
     /tmp/ccp80YOK.s:47     .text.settings_init:0000000000000030 $d
     /tmp/ccp80YOK.s:70     .text.settings_print:0000000000000000 $t
     /tmp/ccp80YOK.s:77     .text.settings_print:0000000000000000 settings_print
     /tmp/ccp80YOK.s:167    .text.settings_print:00000000000000bc $d
     /tmp/ccp80YOK.s:202    .bss.settings:0000000000000000 settings
     /tmp/ccp80YOK.s:177    .bss.deveui:0000000000000000 $d
     /tmp/ccp80YOK.s:181    .bss.deveui:0000000000000000 deveui
     /tmp/ccp80YOK.s:184    .bss.joineui:0000000000000000 $d
     /tmp/ccp80YOK.s:188    .bss.joineui:0000000000000000 joineui
     /tmp/ccp80YOK.s:191    .bss.nwkey:0000000000000000 $d
     /tmp/ccp80YOK.s:195    .bss.nwkey:0000000000000000 nwkey
     /tmp/ccp80YOK.s:198    .bss.settings:0000000000000000 $d

UNDEFINED SYMBOLS
memcpy
hal_trace_print_var
