ARM GAS  /tmp/ccRUgEeI.s 			page 1


   1              		.cpu cortex-m0
   2              		.eabi_attribute 23, 1
   3              		.eabi_attribute 24, 1
   4              		.eabi_attribute 25, 1
   5              		.eabi_attribute 26, 1
   6              		.eabi_attribute 30, 4
   7              		.eabi_attribute 34, 0
   8              		.eabi_attribute 18, 4
   9              		.file	"smtc_modem_hal.c"
  10              		.text
  11              		.section	.text.smtc_modem_hal_reset_mcu,"ax",%progbits
  12              		.align	1
  13              		.global	smtc_modem_hal_reset_mcu
  14              		.arch armv6s-m
  15              		.syntax unified
  16              		.code	16
  17              		.thumb_func
  18              		.fpu softvfp
  20              	smtc_modem_hal_reset_mcu:
  21              		@ args = 0, pretend = 0, frame = 0
  22              		@ frame_needed = 0, uses_anonymous_args = 0
  23 0000 10B5     		push	{r4, lr}
  24 0002 FFF7FEFF 		bl	hal_mcu_reset
  25              		@ sp needed
  26 0006 10BD     		pop	{r4, pc}
  28              		.section	.text.smtc_modem_hal_reload_wdog,"ax",%progbits
  29              		.align	1
  30              		.global	smtc_modem_hal_reload_wdog
  31              		.syntax unified
  32              		.code	16
  33              		.thumb_func
  34              		.fpu softvfp
  36              	smtc_modem_hal_reload_wdog:
  37              		@ args = 0, pretend = 0, frame = 0
  38              		@ frame_needed = 0, uses_anonymous_args = 0
  39 0000 10B5     		push	{r4, lr}
  40 0002 FFF7FEFF 		bl	watchdog_reload
  41              		@ sp needed
  42 0006 10BD     		pop	{r4, pc}
  44              		.section	.text.smtc_modem_hal_get_time_in_s,"ax",%progbits
  45              		.align	1
  46              		.global	smtc_modem_hal_get_time_in_s
  47              		.syntax unified
  48              		.code	16
  49              		.thumb_func
  50              		.fpu softvfp
  52              	smtc_modem_hal_get_time_in_s:
  53              		@ args = 0, pretend = 0, frame = 0
  54              		@ frame_needed = 0, uses_anonymous_args = 0
  55 0000 10B5     		push	{r4, lr}
  56 0002 FFF7FEFF 		bl	hal_rtc_get_time_s
  57              		@ sp needed
  58 0006 10BD     		pop	{r4, pc}
  60              		.section	.text.smtc_modem_hal_get_compensated_time_in_s,"ax",%progbits
  61              		.align	1
  62              		.global	smtc_modem_hal_get_compensated_time_in_s
  63              		.syntax unified
ARM GAS  /tmp/ccRUgEeI.s 			page 2


  64              		.code	16
  65              		.thumb_func
  66              		.fpu softvfp
  68              	smtc_modem_hal_get_compensated_time_in_s:
  69              		@ args = 0, pretend = 0, frame = 0
  70              		@ frame_needed = 0, uses_anonymous_args = 0
  71 0000 10B5     		push	{r4, lr}
  72 0002 FFF7FEFF 		bl	hal_rtc_get_time_s
  73              		@ sp needed
  74 0006 10BD     		pop	{r4, pc}
  76              		.section	.text.smtc_modem_hal_get_time_compensation_in_s,"ax",%progbits
  77              		.align	1
  78              		.global	smtc_modem_hal_get_time_compensation_in_s
  79              		.syntax unified
  80              		.code	16
  81              		.thumb_func
  82              		.fpu softvfp
  84              	smtc_modem_hal_get_time_compensation_in_s:
  85              		@ args = 0, pretend = 0, frame = 0
  86              		@ frame_needed = 0, uses_anonymous_args = 0
  87              		@ link register save eliminated.
  88 0000 0020     		movs	r0, #0
  89              		@ sp needed
  90 0002 7047     		bx	lr
  92              		.section	.text.smtc_modem_hal_get_time_in_ms,"ax",%progbits
  93              		.align	1
  94              		.global	smtc_modem_hal_get_time_in_ms
  95              		.syntax unified
  96              		.code	16
  97              		.thumb_func
  98              		.fpu softvfp
 100              	smtc_modem_hal_get_time_in_ms:
 101              		@ args = 0, pretend = 0, frame = 0
 102              		@ frame_needed = 0, uses_anonymous_args = 0
 103 0000 10B5     		push	{r4, lr}
 104 0002 FFF7FEFF 		bl	hal_rtc_get_time_ms
 105              		@ sp needed
 106 0006 10BD     		pop	{r4, pc}
 108              		.section	.text.smtc_modem_hal_get_time_in_100us,"ax",%progbits
 109              		.align	1
 110              		.global	smtc_modem_hal_get_time_in_100us
 111              		.syntax unified
 112              		.code	16
 113              		.thumb_func
 114              		.fpu softvfp
 116              	smtc_modem_hal_get_time_in_100us:
 117              		@ args = 0, pretend = 0, frame = 0
 118              		@ frame_needed = 0, uses_anonymous_args = 0
 119 0000 10B5     		push	{r4, lr}
 120 0002 FFF7FEFF 		bl	hal_rtc_get_time_100us
 121              		@ sp needed
 122 0006 10BD     		pop	{r4, pc}
 124              		.section	.text.smtc_modem_hal_get_radio_irq_timestamp_in_100us,"ax",%progbits
 125              		.align	1
 126              		.global	smtc_modem_hal_get_radio_irq_timestamp_in_100us
 127              		.syntax unified
 128              		.code	16
ARM GAS  /tmp/ccRUgEeI.s 			page 3


 129              		.thumb_func
 130              		.fpu softvfp
 132              	smtc_modem_hal_get_radio_irq_timestamp_in_100us:
 133              		@ args = 0, pretend = 0, frame = 0
 134              		@ frame_needed = 0, uses_anonymous_args = 0
 135 0000 10B5     		push	{r4, lr}
 136 0002 FFF7FEFF 		bl	hal_rtc_get_time_100us
 137              		@ sp needed
 138 0006 10BD     		pop	{r4, pc}
 140              		.section	.text.smtc_modem_hal_start_timer,"ax",%progbits
 141              		.align	1
 142              		.global	smtc_modem_hal_start_timer
 143              		.syntax unified
 144              		.code	16
 145              		.thumb_func
 146              		.fpu softvfp
 148              	smtc_modem_hal_start_timer:
 149              		@ args = 0, pretend = 0, frame = 8
 150              		@ frame_needed = 0, uses_anonymous_args = 0
 151 0000 07B5     		push	{r0, r1, r2, lr}
 152 0002 0191     		str	r1, [sp, #4]
 153 0004 6946     		mov	r1, sp
 154              		@ sp needed
 155 0006 0092     		str	r2, [sp]
 156 0008 FFF7FEFF 		bl	hal_lp_timer_start
 157 000c 07BD     		pop	{r0, r1, r2, pc}
 159              		.section	.text.smtc_modem_hal_stop_timer,"ax",%progbits
 160              		.align	1
 161              		.global	smtc_modem_hal_stop_timer
 162              		.syntax unified
 163              		.code	16
 164              		.thumb_func
 165              		.fpu softvfp
 167              	smtc_modem_hal_stop_timer:
 168              		@ args = 0, pretend = 0, frame = 0
 169              		@ frame_needed = 0, uses_anonymous_args = 0
 170 0000 10B5     		push	{r4, lr}
 171 0002 FFF7FEFF 		bl	hal_lp_timer_stop
 172              		@ sp needed
 173 0006 10BD     		pop	{r4, pc}
 175              		.section	.text.smtc_modem_hal_disable_modem_irq,"ax",%progbits
 176              		.align	1
 177              		.global	smtc_modem_hal_disable_modem_irq
 178              		.syntax unified
 179              		.code	16
 180              		.thumb_func
 181              		.fpu softvfp
 183              	smtc_modem_hal_disable_modem_irq:
 184              		@ args = 0, pretend = 0, frame = 0
 185              		@ frame_needed = 0, uses_anonymous_args = 0
 186 0000 10B5     		push	{r4, lr}
 187 0002 FFF7FEFF 		bl	hal_gpio_irq_disable
 188              		@ sp needed
 189 0006 FFF7FEFF 		bl	hal_lp_timer_irq_disable
 190 000a 10BD     		pop	{r4, pc}
 192              		.section	.text.smtc_modem_hal_enable_modem_irq,"ax",%progbits
 193              		.align	1
ARM GAS  /tmp/ccRUgEeI.s 			page 4


 194              		.global	smtc_modem_hal_enable_modem_irq
 195              		.syntax unified
 196              		.code	16
 197              		.thumb_func
 198              		.fpu softvfp
 200              	smtc_modem_hal_enable_modem_irq:
 201              		@ args = 0, pretend = 0, frame = 0
 202              		@ frame_needed = 0, uses_anonymous_args = 0
 203 0000 10B5     		push	{r4, lr}
 204 0002 FFF7FEFF 		bl	hal_gpio_irq_enable
 205              		@ sp needed
 206 0006 FFF7FEFF 		bl	hal_lp_timer_irq_enable
 207 000a 10BD     		pop	{r4, pc}
 209              		.section	.rodata.smtc_modem_hal_context_restore.str1.1,"aMS",%progbits,1
 210              	.LC1:
 211 0000 4552524F 		.ascii	"ERROR: mcu_panic:%s\012\000"
 211      523A206D 
 211      63755F70 
 211      616E6963 
 211      3A25730A 
 212              	.LC3:
 213 0015 00       		.ascii	"\000"
 214              	.LC5:
 215 0016 4552524F 		.ascii	"ERROR: -> \000"
 215      523A202D 
 215      3E2000
 216              		.section	.text.smtc_modem_hal_context_restore,"ax",%progbits
 217              		.align	1
 218              		.global	smtc_modem_hal_context_restore
 219              		.syntax unified
 220              		.code	16
 221              		.thumb_func
 222              		.fpu softvfp
 224              	smtc_modem_hal_context_restore:
 225              		@ args = 0, pretend = 0, frame = 0
 226              		@ frame_needed = 0, uses_anonymous_args = 0
 227 0000 10B5     		push	{r4, lr}
 228 0002 0328     		cmp	r0, #3
 229 0004 0ED8     		bhi	.L14
 230 0006 FFF7FEFF 		bl	__gnu_thumb1_case_uqi
 231              	.L16:
 232 000a 02       		.byte	(.L19-.L16)/2
 233 000b 06       		.byte	(.L18-.L16)/2
 234 000c 08       		.byte	(.L17-.L16)/2
 235 000d 0A       		.byte	(.L15-.L16)/2
 236              		.p2align 1
 237              	.L19:
 238 000e 0E48     		ldr	r0, .L22
 239              	.L21:
 240 0010 FFF7FEFF 		bl	hal_eeprom_read_buffer
 241              	.L13:
 242              		@ sp needed
 243 0014 10BD     		pop	{r4, pc}
 244              	.L18:
 245 0016 0D48     		ldr	r0, .L22+4
 246 0018 FAE7     		b	.L21
 247              	.L17:
ARM GAS  /tmp/ccRUgEeI.s 			page 5


 248 001a 0D48     		ldr	r0, .L22+8
 249 001c F8E7     		b	.L21
 250              	.L15:
 251 001e C020     		movs	r0, #192
 252 0020 0001     		lsls	r0, r0, #4
 253 0022 F5E7     		b	.L21
 254              	.L14:
 255 0024 0B49     		ldr	r1, .L22+12
 256 0026 0C48     		ldr	r0, .L22+16
 257 0028 FFF7FEFF 		bl	hal_trace_print_var
 258 002c 0B4C     		ldr	r4, .L22+20
 259 002e 2000     		movs	r0, r4
 260 0030 FFF7FEFF 		bl	hal_trace_print_var
 261 0034 0A48     		ldr	r0, .L22+24
 262 0036 FFF7FEFF 		bl	hal_trace_print_var
 263 003a 2000     		movs	r0, r4
 264 003c FFF7FEFF 		bl	hal_trace_print_var
 265 0040 FFF7FEFF 		bl	hal_mcu_reset
 266 0044 E6E7     		b	.L13
 267              	.L23:
 268 0046 C046     		.align	2
 269              	.L22:
 270 0048 2C0D0000 		.word	3372
 271 004c C80C0000 		.word	3272
 272 0050 640C0000 		.word	3172
 273 0054 00000000 		.word	.LANCHOR0
 274 0058 00000000 		.word	.LC1
 275 005c 15000000 		.word	.LC3
 276 0060 16000000 		.word	.LC5
 278              		.section	.text.smtc_modem_hal_context_store,"ax",%progbits
 279              		.align	1
 280              		.global	smtc_modem_hal_context_store
 281              		.syntax unified
 282              		.code	16
 283              		.thumb_func
 284              		.fpu softvfp
 286              	smtc_modem_hal_context_store:
 287              		@ args = 0, pretend = 0, frame = 0
 288              		@ frame_needed = 0, uses_anonymous_args = 0
 289 0000 10B5     		push	{r4, lr}
 290 0002 0328     		cmp	r0, #3
 291 0004 0ED8     		bhi	.L25
 292 0006 FFF7FEFF 		bl	__gnu_thumb1_case_uqi
 293              	.L27:
 294 000a 02       		.byte	(.L30-.L27)/2
 295 000b 06       		.byte	(.L29-.L27)/2
 296 000c 08       		.byte	(.L28-.L27)/2
 297 000d 0A       		.byte	(.L26-.L27)/2
 298              		.p2align 1
 299              	.L30:
 300 000e 0E48     		ldr	r0, .L33
 301              	.L32:
 302 0010 FFF7FEFF 		bl	hal_eeprom_write_buffer
 303              	.L24:
 304              		@ sp needed
 305 0014 10BD     		pop	{r4, pc}
 306              	.L29:
ARM GAS  /tmp/ccRUgEeI.s 			page 6


 307 0016 0D48     		ldr	r0, .L33+4
 308 0018 FAE7     		b	.L32
 309              	.L28:
 310 001a 0D48     		ldr	r0, .L33+8
 311 001c F8E7     		b	.L32
 312              	.L26:
 313 001e C020     		movs	r0, #192
 314 0020 0001     		lsls	r0, r0, #4
 315 0022 F5E7     		b	.L32
 316              	.L25:
 317 0024 0B49     		ldr	r1, .L33+12
 318 0026 0C48     		ldr	r0, .L33+16
 319 0028 FFF7FEFF 		bl	hal_trace_print_var
 320 002c 0B4C     		ldr	r4, .L33+20
 321 002e 2000     		movs	r0, r4
 322 0030 FFF7FEFF 		bl	hal_trace_print_var
 323 0034 0A48     		ldr	r0, .L33+24
 324 0036 FFF7FEFF 		bl	hal_trace_print_var
 325 003a 2000     		movs	r0, r4
 326 003c FFF7FEFF 		bl	hal_trace_print_var
 327 0040 FFF7FEFF 		bl	hal_mcu_reset
 328 0044 E6E7     		b	.L24
 329              	.L34:
 330 0046 C046     		.align	2
 331              	.L33:
 332 0048 2C0D0000 		.word	3372
 333 004c C80C0000 		.word	3272
 334 0050 640C0000 		.word	3172
 335 0054 00000000 		.word	.LANCHOR1
 336 0058 00000000 		.word	.LC1
 337 005c 15000000 		.word	.LC3
 338 0060 16000000 		.word	.LC5
 340              		.section	.text.smtc_modem_hal_store_crashlog,"ax",%progbits
 341              		.align	1
 342              		.global	smtc_modem_hal_store_crashlog
 343              		.syntax unified
 344              		.code	16
 345              		.thumb_func
 346              		.fpu softvfp
 348              	smtc_modem_hal_store_crashlog:
 349              		@ args = 0, pretend = 0, frame = 0
 350              		@ frame_needed = 0, uses_anonymous_args = 0
 351 0000 10B5     		push	{r4, lr}
 352 0002 0100     		movs	r1, r0
 353              		@ sp needed
 354 0004 2022     		movs	r2, #32
 355 0006 0248     		ldr	r0, .L36
 356 0008 FFF7FEFF 		bl	memcpy
 357 000c 10BD     		pop	{r4, pc}
 358              	.L37:
 359 000e C046     		.align	2
 360              	.L36:
 361 0010 00000000 		.word	.LANCHOR2
 363              		.section	.text.smtc_modem_hal_restore_crashlog,"ax",%progbits
 364              		.align	1
 365              		.global	smtc_modem_hal_restore_crashlog
 366              		.syntax unified
ARM GAS  /tmp/ccRUgEeI.s 			page 7


 367              		.code	16
 368              		.thumb_func
 369              		.fpu softvfp
 371              	smtc_modem_hal_restore_crashlog:
 372              		@ args = 0, pretend = 0, frame = 0
 373              		@ frame_needed = 0, uses_anonymous_args = 0
 374 0000 10B5     		push	{r4, lr}
 375 0002 2022     		movs	r2, #32
 376              		@ sp needed
 377 0004 0149     		ldr	r1, .L39
 378 0006 FFF7FEFF 		bl	memcpy
 379 000a 10BD     		pop	{r4, pc}
 380              	.L40:
 381              		.align	2
 382              	.L39:
 383 000c 00000000 		.word	.LANCHOR2
 385              		.section	.text.smtc_modem_hal_set_crashlog_status,"ax",%progbits
 386              		.align	1
 387              		.global	smtc_modem_hal_set_crashlog_status
 388              		.syntax unified
 389              		.code	16
 390              		.thumb_func
 391              		.fpu softvfp
 393              	smtc_modem_hal_set_crashlog_status:
 394              		@ args = 0, pretend = 0, frame = 0
 395              		@ frame_needed = 0, uses_anonymous_args = 0
 396              		@ link register save eliminated.
 397 0000 014B     		ldr	r3, .L42
 398              		@ sp needed
 399 0002 0133     		adds	r3, r3, #1
 400 0004 D877     		strb	r0, [r3, #31]
 401 0006 7047     		bx	lr
 402              	.L43:
 403              		.align	2
 404              	.L42:
 405 0008 00000000 		.word	.LANCHOR2
 407              		.section	.text.smtc_modem_hal_get_crashlog_status,"ax",%progbits
 408              		.align	1
 409              		.global	smtc_modem_hal_get_crashlog_status
 410              		.syntax unified
 411              		.code	16
 412              		.thumb_func
 413              		.fpu softvfp
 415              	smtc_modem_hal_get_crashlog_status:
 416              		@ args = 0, pretend = 0, frame = 0
 417              		@ frame_needed = 0, uses_anonymous_args = 0
 418              		@ link register save eliminated.
 419 0000 024B     		ldr	r3, .L45
 420              		@ sp needed
 421 0002 0133     		adds	r3, r3, #1
 422 0004 D87F     		ldrb	r0, [r3, #31]
 423 0006 C0B2     		uxtb	r0, r0
 424 0008 7047     		bx	lr
 425              	.L46:
 426 000a C046     		.align	2
 427              	.L45:
 428 000c 00000000 		.word	.LANCHOR2
ARM GAS  /tmp/ccRUgEeI.s 			page 8


 430              		.section	.text.smtc_modem_hal_get_random_nb,"ax",%progbits
 431              		.align	1
 432              		.global	smtc_modem_hal_get_random_nb
 433              		.syntax unified
 434              		.code	16
 435              		.thumb_func
 436              		.fpu softvfp
 438              	smtc_modem_hal_get_random_nb:
 439              		@ args = 0, pretend = 0, frame = 0
 440              		@ frame_needed = 0, uses_anonymous_args = 0
 441 0000 10B5     		push	{r4, lr}
 442 0002 FFF7FEFF 		bl	hal_rng_get_random
 443              		@ sp needed
 444 0006 10BD     		pop	{r4, pc}
 446              		.section	.text.smtc_modem_hal_get_random_nb_in_range,"ax",%progbits
 447              		.align	1
 448              		.global	smtc_modem_hal_get_random_nb_in_range
 449              		.syntax unified
 450              		.code	16
 451              		.thumb_func
 452              		.fpu softvfp
 454              	smtc_modem_hal_get_random_nb_in_range:
 455              		@ args = 0, pretend = 0, frame = 0
 456              		@ frame_needed = 0, uses_anonymous_args = 0
 457 0000 10B5     		push	{r4, lr}
 458 0002 FFF7FEFF 		bl	hal_rng_get_random_in_range
 459              		@ sp needed
 460 0006 10BD     		pop	{r4, pc}
 462              		.section	.text.smtc_modem_hal_get_signed_random_nb_in_range,"ax",%progbits
 463              		.align	1
 464              		.global	smtc_modem_hal_get_signed_random_nb_in_range
 465              		.syntax unified
 466              		.code	16
 467              		.thumb_func
 468              		.fpu softvfp
 470              	smtc_modem_hal_get_signed_random_nb_in_range:
 471              		@ args = 0, pretend = 0, frame = 0
 472              		@ frame_needed = 0, uses_anonymous_args = 0
 473 0000 10B5     		push	{r4, lr}
 474 0002 FFF7FEFF 		bl	hal_rng_get_signed_random_in_range
 475              		@ sp needed
 476 0006 10BD     		pop	{r4, pc}
 478              		.section	.text.smtc_modem_hal_irq_config_radio_irq,"ax",%progbits
 479              		.align	1
 480              		.global	smtc_modem_hal_irq_config_radio_irq
 481              		.syntax unified
 482              		.code	16
 483              		.thumb_func
 484              		.fpu softvfp
 486              	smtc_modem_hal_irq_config_radio_irq:
 487              		@ args = 0, pretend = 0, frame = 0
 488              		@ frame_needed = 0, uses_anonymous_args = 0
 489 0000 0122     		movs	r2, #1
 490 0002 10B5     		push	{r4, lr}
 491 0004 034B     		ldr	r3, .L51
 492              		@ sp needed
 493 0006 9860     		str	r0, [r3, #8]
ARM GAS  /tmp/ccRUgEeI.s 			page 9


 494 0008 1800     		movs	r0, r3
 495 000a 1A70     		strb	r2, [r3]
 496 000c 5960     		str	r1, [r3, #4]
 497 000e FFF7FEFF 		bl	hal_gpio_irq_attach
 498 0012 10BD     		pop	{r4, pc}
 499              	.L52:
 500              		.align	2
 501              	.L51:
 502 0014 00000000 		.word	.LANCHOR3
 504              		.section	.text.smtc_modem_hal_radio_irq_clear_pending,"ax",%progbits
 505              		.align	1
 506              		.global	smtc_modem_hal_radio_irq_clear_pending
 507              		.syntax unified
 508              		.code	16
 509              		.thumb_func
 510              		.fpu softvfp
 512              	smtc_modem_hal_radio_irq_clear_pending:
 513              		@ args = 0, pretend = 0, frame = 0
 514              		@ frame_needed = 0, uses_anonymous_args = 0
 515 0000 10B5     		push	{r4, lr}
 516 0002 0120     		movs	r0, #1
 517              		@ sp needed
 518 0004 FFF7FEFF 		bl	hal_gpio_clear_pending_irq
 519 0008 10BD     		pop	{r4, pc}
 521              		.section	.text.smtc_modem_hal_start_radio_tcxo,"ax",%progbits
 522              		.align	1
 523              		.global	smtc_modem_hal_start_radio_tcxo
 524              		.syntax unified
 525              		.code	16
 526              		.thumb_func
 527              		.fpu softvfp
 529              	smtc_modem_hal_start_radio_tcxo:
 530              		@ args = 0, pretend = 0, frame = 0
 531              		@ frame_needed = 0, uses_anonymous_args = 0
 532              		@ link register save eliminated.
 533              		@ sp needed
 534 0000 7047     		bx	lr
 536              		.section	.text.smtc_modem_hal_stop_radio_tcxo,"ax",%progbits
 537              		.align	1
 538              		.global	smtc_modem_hal_stop_radio_tcxo
 539              		.syntax unified
 540              		.code	16
 541              		.thumb_func
 542              		.fpu softvfp
 544              	smtc_modem_hal_stop_radio_tcxo:
 545              		@ args = 0, pretend = 0, frame = 0
 546              		@ frame_needed = 0, uses_anonymous_args = 0
 547              		@ link register save eliminated.
 548              		@ sp needed
 549 0000 7047     		bx	lr
 551              		.section	.text.smtc_modem_hal_get_radio_tcxo_startup_delay_ms,"ax",%progbits
 552              		.align	1
 553              		.global	smtc_modem_hal_get_radio_tcxo_startup_delay_ms
 554              		.syntax unified
 555              		.code	16
 556              		.thumb_func
 557              		.fpu softvfp
ARM GAS  /tmp/ccRUgEeI.s 			page 10


 559              	smtc_modem_hal_get_radio_tcxo_startup_delay_ms:
 560              		@ args = 0, pretend = 0, frame = 0
 561              		@ frame_needed = 0, uses_anonymous_args = 0
 562              		@ link register save eliminated.
 563 0000 0520     		movs	r0, #5
 564              		@ sp needed
 565 0002 7047     		bx	lr
 567              		.section	.text.smtc_modem_hal_get_battery_level,"ax",%progbits
 568              		.align	1
 569              		.global	smtc_modem_hal_get_battery_level
 570              		.syntax unified
 571              		.code	16
 572              		.thumb_func
 573              		.fpu softvfp
 575              	smtc_modem_hal_get_battery_level:
 576              		@ args = 0, pretend = 0, frame = 0
 577              		@ frame_needed = 0, uses_anonymous_args = 0
 578              		@ link register save eliminated.
 579 0000 FE20     		movs	r0, #254
 580              		@ sp needed
 581 0002 7047     		bx	lr
 583              		.section	.text.smtc_modem_hal_get_temperature,"ax",%progbits
 584              		.align	1
 585              		.global	smtc_modem_hal_get_temperature
 586              		.syntax unified
 587              		.code	16
 588              		.thumb_func
 589              		.fpu softvfp
 591              	smtc_modem_hal_get_temperature:
 592              		@ args = 0, pretend = 0, frame = 0
 593              		@ frame_needed = 0, uses_anonymous_args = 0
 594 0000 10B5     		push	{r4, lr}
 595 0002 FFF7FEFF 		bl	hal_adc_init
 596              		@ sp needed
 597 0006 FFF7FEFF 		bl	hal_adc_get_temp
 598 000a 0400     		movs	r4, r0
 599 000c FFF7FEFF 		bl	hal_adc_deinit
 600 0010 2000     		movs	r0, r4
 601 0012 10BD     		pop	{r4, pc}
 603              		.global	__aeabi_uidiv
 604              		.section	.text.smtc_modem_hal_get_voltage,"ax",%progbits
 605              		.align	1
 606              		.global	smtc_modem_hal_get_voltage
 607              		.syntax unified
 608              		.code	16
 609              		.thumb_func
 610              		.fpu softvfp
 612              	smtc_modem_hal_get_voltage:
 613              		@ args = 0, pretend = 0, frame = 0
 614              		@ frame_needed = 0, uses_anonymous_args = 0
 615 0000 10B5     		push	{r4, lr}
 616 0002 FFF7FEFF 		bl	hal_adc_init
 617              		@ sp needed
 618 0006 FFF7FEFF 		bl	hal_adc_get_vref_int
 619 000a 0400     		movs	r4, r0
 620 000c FFF7FEFF 		bl	hal_adc_deinit
 621 0010 1421     		movs	r1, #20
ARM GAS  /tmp/ccRUgEeI.s 			page 11


 622 0012 2000     		movs	r0, r4
 623 0014 FFF7FEFF 		bl	__aeabi_uidiv
 624 0018 C0B2     		uxtb	r0, r0
 625 001a 10BD     		pop	{r4, pc}
 627              		.section	.text.smtc_modem_hal_get_board_delay_ms,"ax",%progbits
 628              		.align	1
 629              		.global	smtc_modem_hal_get_board_delay_ms
 630              		.syntax unified
 631              		.code	16
 632              		.thumb_func
 633              		.fpu softvfp
 635              	smtc_modem_hal_get_board_delay_ms:
 636              		@ args = 0, pretend = 0, frame = 0
 637              		@ frame_needed = 0, uses_anonymous_args = 0
 638              		@ link register save eliminated.
 639 0000 0120     		movs	r0, #1
 640              		@ sp needed
 641 0002 7047     		bx	lr
 643              		.section	.text.smtc_modem_hal_print_trace,"ax",%progbits
 644              		.align	1
 645              		.global	smtc_modem_hal_print_trace
 646              		.syntax unified
 647              		.code	16
 648              		.thumb_func
 649              		.fpu softvfp
 651              	smtc_modem_hal_print_trace:
 652              		@ args = 4, pretend = 16, frame = 8
 653              		@ frame_needed = 0, uses_anonymous_args = 1
 654 0000 0FB4     		push	{r0, r1, r2, r3}
 655 0002 07B5     		push	{r0, r1, r2, lr}
 656 0004 04A9     		add	r1, sp, #16
 657 0006 01C9     		ldmia	r1!, {r0}
 658 0008 0191     		str	r1, [sp, #4]
 659 000a FFF7FEFF 		bl	hal_trace_print
 660 000e 03B0     		add	sp, sp, #12
 661              		@ sp needed
 662 0010 08BC     		pop	{r3}
 663 0012 04B0     		add	sp, sp, #16
 664 0014 1847     		bx	r3
 666              		.section	.rodata.smtc_modem_hal_assert_fail.str1.1,"aMS",%progbits,1
 667              	.LC19:
 668 0000 1B5B303B 		.ascii	"\033[0;31mcrash log :%s:%u\012\033[0m\000"
 668      33316D63 
 668      72617368 
 668      206C6F67 
 668      203A2573 
 669              		.section	.text.smtc_modem_hal_assert_fail,"ax",%progbits
 670              		.align	1
 671              		.global	smtc_modem_hal_assert_fail
 672              		.syntax unified
 673              		.code	16
 674              		.thumb_func
 675              		.fpu softvfp
 677              	smtc_modem_hal_assert_fail:
 678              		@ args = 0, pretend = 0, frame = 0
 679              		@ frame_needed = 0, uses_anonymous_args = 0
 680 0000 70B5     		push	{r4, r5, r6, lr}
ARM GAS  /tmp/ccRUgEeI.s 			page 12


 681 0002 0D00     		movs	r5, r1
 682              		@ sp needed
 683 0004 0400     		movs	r4, r0
 684 0006 FFF7FEFF 		bl	smtc_modem_hal_store_crashlog
 685 000a 0122     		movs	r2, #1
 686 000c 054B     		ldr	r3, .L63
 687 000e 2100     		movs	r1, r4
 688 0010 0133     		adds	r3, r3, #1
 689 0012 DA77     		strb	r2, [r3, #31]
 690 0014 0448     		ldr	r0, .L63+4
 691 0016 2A00     		movs	r2, r5
 692 0018 FFF7FEFF 		bl	smtc_modem_hal_print_trace
 693 001c FFF7FEFF 		bl	hal_mcu_reset
 694 0020 70BD     		pop	{r4, r5, r6, pc}
 695              	.L64:
 696 0022 C046     		.align	2
 697              	.L63:
 698 0024 00000000 		.word	.LANCHOR2
 699 0028 00000000 		.word	.LC19
 701              		.global	crashlog_available
 702              		.global	saved_crashlog
 703              		.section	.bss.radio_dio_irq,"aw",%nobits
 704              		.align	2
 705              		.set	.LANCHOR3,. + 0
 708              	radio_dio_irq:
 709 0000 00000000 		.space	12
 709      00000000 
 709      00000000 
 710              		.section	.noinit,"aw"
 711              		.set	.LANCHOR2,. + 0
 714              	saved_crashlog:
 715 0000 00000000 		.space	32
 715      00000000 
 715      00000000 
 715      00000000 
 715      00000000 
 718              	crashlog_available:
 719 0020 00       		.space	1
 720              		.section	.rodata.__func__.0,"a"
 721              		.set	.LANCHOR1,. + 0
 724              	__func__.0:
 725 0000 736D7463 		.ascii	"smtc_modem_hal_context_store\000"
 725      5F6D6F64 
 725      656D5F68 
 725      616C5F63 
 725      6F6E7465 
 726              		.section	.rodata.__func__.1,"a"
 727              		.set	.LANCHOR0,. + 0
 730              	__func__.1:
 731 0000 736D7463 		.ascii	"smtc_modem_hal_context_restore\000"
 731      5F6D6F64 
 731      656D5F68 
 731      616C5F63 
 731      6F6E7465 
 732              		.ident	"GCC: (15:10.3-2021.07-4) 10.3.1 20210621 (release)"
ARM GAS  /tmp/ccRUgEeI.s 			page 13

