ARM GAS  /tmp/ccCf125a.s 			page 1


   1              		.cpu cortex-m0
   2              		.eabi_attribute 23, 1
   3              		.eabi_attribute 24, 1
   4              		.eabi_attribute 25, 1
   5              		.eabi_attribute 26, 1
   6              		.eabi_attribute 30, 4
   7              		.eabi_attribute 34, 0
   8              		.eabi_attribute 18, 4
   9              		.file	"smtc_hal_uart.c"
  10              		.text
  11              		.section	.rodata.uart1_init.str1.1,"aMS",%progbits,1
  12              	.LC2:
  13 0000 4552524F 		.ascii	"ERROR: mcu_panic:%s\012\000"
  13      523A206D 
  13      63755F70 
  13      616E6963 
  13      3A25730A 
  14              	.LC4:
  15 0015 00       		.ascii	"\000"
  16              	.LC6:
  17 0016 4552524F 		.ascii	"ERROR: -> \000"
  17      523A202D 
  17      3E2000
  18              		.section	.text.uart1_init,"ax",%progbits
  19              		.align	1
  20              		.global	uart1_init
  21              		.arch armv6s-m
  22              		.syntax unified
  23              		.code	16
  24              		.thumb_func
  25              		.fpu softvfp
  27              	uart1_init:
  28              		@ args = 0, pretend = 0, frame = 0
  29              		@ frame_needed = 0, uses_anonymous_args = 0
  30 0000 1248     		ldr	r0, .L6
  31 0002 134B     		ldr	r3, .L6+4
  32 0004 10B5     		push	{r4, lr}
  33 0006 0360     		str	r3, [r0]
  34 0008 E123     		movs	r3, #225
  35 000a 5B02     		lsls	r3, r3, #9
  36 000c 0822     		movs	r2, #8
  37 000e 4360     		str	r3, [r0, #4]
  38 0010 0023     		movs	r3, #0
  39 0012 4261     		str	r2, [r0, #20]
  40 0014 8360     		str	r3, [r0, #8]
  41 0016 C360     		str	r3, [r0, #12]
  42 0018 0361     		str	r3, [r0, #16]
  43 001a 8361     		str	r3, [r0, #24]
  44 001c C361     		str	r3, [r0, #28]
  45 001e 0362     		str	r3, [r0, #32]
  46 0020 4362     		str	r3, [r0, #36]
  47 0022 FFF7FEFF 		bl	HAL_UART_Init
  48 0026 0028     		cmp	r0, #0
  49 0028 0FD0     		beq	.L1
  50 002a 0A49     		ldr	r1, .L6+8
  51 002c 0A48     		ldr	r0, .L6+12
  52 002e FFF7FEFF 		bl	hal_trace_print_var
ARM GAS  /tmp/ccCf125a.s 			page 2


  53 0032 0A4C     		ldr	r4, .L6+16
  54 0034 2000     		movs	r0, r4
  55 0036 FFF7FEFF 		bl	hal_trace_print_var
  56 003a 0948     		ldr	r0, .L6+20
  57 003c FFF7FEFF 		bl	hal_trace_print_var
  58 0040 2000     		movs	r0, r4
  59 0042 FFF7FEFF 		bl	hal_trace_print_var
  60 0046 FFF7FEFF 		bl	hal_mcu_reset
  61              	.L1:
  62              		@ sp needed
  63 004a 10BD     		pop	{r4, pc}
  64              	.L7:
  65              		.align	2
  66              	.L6:
  67 004c 00000000 		.word	huart1
  68 0050 00380140 		.word	1073821696
  69 0054 00000000 		.word	.LANCHOR0
  70 0058 00000000 		.word	.LC2
  71 005c 15000000 		.word	.LC4
  72 0060 16000000 		.word	.LC6
  74              		.section	.text.uart1_deinit,"ax",%progbits
  75              		.align	1
  76              		.global	uart1_deinit
  77              		.syntax unified
  78              		.code	16
  79              		.thumb_func
  80              		.fpu softvfp
  82              	uart1_deinit:
  83              		@ args = 0, pretend = 0, frame = 0
  84              		@ frame_needed = 0, uses_anonymous_args = 0
  85 0000 10B5     		push	{r4, lr}
  86 0002 0248     		ldr	r0, .L9
  87 0004 FFF7FEFF 		bl	HAL_UART_DeInit
  88              		@ sp needed
  89 0008 10BD     		pop	{r4, pc}
  90              	.L10:
  91 000a C046     		.align	2
  92              	.L9:
  93 000c 00000000 		.word	huart1
  95              		.section	.text.uart2_init,"ax",%progbits
  96              		.align	1
  97              		.global	uart2_init
  98              		.syntax unified
  99              		.code	16
 100              		.thumb_func
 101              		.fpu softvfp
 103              	uart2_init:
 104              		@ args = 0, pretend = 0, frame = 8
 105              		@ frame_needed = 0, uses_anonymous_args = 0
 106 0000 13B5     		push	{r0, r1, r4, lr}
 107 0002 0120     		movs	r0, #1
 108 0004 1D4A     		ldr	r2, .L16
 109 0006 116B     		ldr	r1, [r2, #48]
 110 0008 0143     		orrs	r1, r0
 111 000a 1163     		str	r1, [r2, #48]
 112 000c 136B     		ldr	r3, [r2, #48]
 113 000e 0022     		movs	r2, #0
ARM GAS  /tmp/ccCf125a.s 			page 3


 114 0010 0340     		ands	r3, r0
 115 0012 1100     		movs	r1, r2
 116 0014 0193     		str	r3, [sp, #4]
 117 0016 0A30     		adds	r0, r0, #10
 118 0018 019B     		ldr	r3, [sp, #4]
 119 001a FFF7FEFF 		bl	HAL_NVIC_SetPriority
 120 001e 0B20     		movs	r0, #11
 121 0020 FFF7FEFF 		bl	HAL_NVIC_EnableIRQ
 122 0024 1648     		ldr	r0, .L16+4
 123 0026 174B     		ldr	r3, .L16+8
 124 0028 0C22     		movs	r2, #12
 125 002a 0360     		str	r3, [r0]
 126 002c 9623     		movs	r3, #150
 127 002e 9B01     		lsls	r3, r3, #6
 128 0030 4360     		str	r3, [r0, #4]
 129 0032 0023     		movs	r3, #0
 130 0034 8360     		str	r3, [r0, #8]
 131 0036 C360     		str	r3, [r0, #12]
 132 0038 0361     		str	r3, [r0, #16]
 133 003a 8361     		str	r3, [r0, #24]
 134 003c C361     		str	r3, [r0, #28]
 135 003e 0362     		str	r3, [r0, #32]
 136 0040 3033     		adds	r3, r3, #48
 137 0042 4261     		str	r2, [r0, #20]
 138 0044 4362     		str	r3, [r0, #36]
 139 0046 8022     		movs	r2, #128
 140 0048 8023     		movs	r3, #128
 141 004a 5201     		lsls	r2, r2, #5
 142 004c 9B01     		lsls	r3, r3, #6
 143 004e 8263     		str	r2, [r0, #56]
 144 0050 C363     		str	r3, [r0, #60]
 145 0052 FFF7FEFF 		bl	HAL_UART_Init
 146 0056 0028     		cmp	r0, #0
 147 0058 0FD0     		beq	.L11
 148 005a 0B49     		ldr	r1, .L16+12
 149 005c 0B48     		ldr	r0, .L16+16
 150 005e FFF7FEFF 		bl	hal_trace_print_var
 151 0062 0B4C     		ldr	r4, .L16+20
 152 0064 2000     		movs	r0, r4
 153 0066 FFF7FEFF 		bl	hal_trace_print_var
 154 006a 0A48     		ldr	r0, .L16+24
 155 006c FFF7FEFF 		bl	hal_trace_print_var
 156 0070 2000     		movs	r0, r4
 157 0072 FFF7FEFF 		bl	hal_trace_print_var
 158 0076 FFF7FEFF 		bl	hal_mcu_reset
 159              	.L11:
 160              		@ sp needed
 161 007a 13BD     		pop	{r0, r1, r4, pc}
 162              	.L17:
 163              		.align	2
 164              	.L16:
 165 007c 00100240 		.word	1073876992
 166 0080 00000000 		.word	huart2
 167 0084 00440040 		.word	1073759232
 168 0088 00000000 		.word	.LANCHOR1
 169 008c 00000000 		.word	.LC2
 170 0090 15000000 		.word	.LC4
ARM GAS  /tmp/ccCf125a.s 			page 4


 171 0094 16000000 		.word	.LC6
 173              		.section	.text.uart2_deinit,"ax",%progbits
 174              		.align	1
 175              		.global	uart2_deinit
 176              		.syntax unified
 177              		.code	16
 178              		.thumb_func
 179              		.fpu softvfp
 181              	uart2_deinit:
 182              		@ args = 0, pretend = 0, frame = 0
 183              		@ frame_needed = 0, uses_anonymous_args = 0
 184 0000 10B5     		push	{r4, lr}
 185 0002 0448     		ldr	r0, .L19
 186 0004 FFF7FEFF 		bl	HAL_UART_DeInit
 187              		@ sp needed
 188 0008 0121     		movs	r1, #1
 189 000a 034A     		ldr	r2, .L19+4
 190 000c 136B     		ldr	r3, [r2, #48]
 191 000e 8B43     		bics	r3, r1
 192 0010 1363     		str	r3, [r2, #48]
 193 0012 10BD     		pop	{r4, pc}
 194              	.L20:
 195              		.align	2
 196              	.L19:
 197 0014 00000000 		.word	huart2
 198 0018 00100240 		.word	1073876992
 200              		.section	.text.uart2_dma_start_rx,"ax",%progbits
 201              		.align	1
 202              		.global	uart2_dma_start_rx
 203              		.syntax unified
 204              		.code	16
 205              		.thumb_func
 206              		.fpu softvfp
 208              	uart2_dma_start_rx:
 209              		@ args = 0, pretend = 0, frame = 0
 210              		@ frame_needed = 0, uses_anonymous_args = 0
 211 0000 10B5     		push	{r4, lr}
 212 0002 0A00     		movs	r2, r1
 213              		@ sp needed
 214 0004 0100     		movs	r1, r0
 215 0006 0248     		ldr	r0, .L22
 216 0008 FFF7FEFF 		bl	HAL_UART_Receive_DMA
 217 000c 10BD     		pop	{r4, pc}
 218              	.L23:
 219 000e C046     		.align	2
 220              	.L22:
 221 0010 00000000 		.word	huart2
 223              		.section	.text.uart2_dma_stop_rx,"ax",%progbits
 224              		.align	1
 225              		.global	uart2_dma_stop_rx
 226              		.syntax unified
 227              		.code	16
 228              		.thumb_func
 229              		.fpu softvfp
 231              	uart2_dma_stop_rx:
 232              		@ args = 0, pretend = 0, frame = 0
 233              		@ frame_needed = 0, uses_anonymous_args = 0
ARM GAS  /tmp/ccCf125a.s 			page 5


 234 0000 10B5     		push	{r4, lr}
 235 0002 0248     		ldr	r0, .L25
 236 0004 FFF7FEFF 		bl	HAL_UART_DMAStop
 237              		@ sp needed
 238 0008 10BD     		pop	{r4, pc}
 239              	.L26:
 240 000a C046     		.align	2
 241              	.L25:
 242 000c 00000000 		.word	huart2
 244              		.section	.text.uart1_tx,"ax",%progbits
 245              		.align	1
 246              		.global	uart1_tx
 247              		.syntax unified
 248              		.code	16
 249              		.thumb_func
 250              		.fpu softvfp
 252              	uart1_tx:
 253              		@ args = 0, pretend = 0, frame = 0
 254              		@ frame_needed = 0, uses_anonymous_args = 0
 255 0000 10B5     		push	{r4, lr}
 256 0002 0A00     		movs	r2, r1
 257              		@ sp needed
 258 0004 0100     		movs	r1, r0
 259 0006 024B     		ldr	r3, .L28
 260 0008 0248     		ldr	r0, .L28+4
 261 000a FFF7FEFF 		bl	HAL_UART_Transmit
 262 000e 10BD     		pop	{r4, pc}
 263              	.L29:
 264              		.align	2
 265              	.L28:
 266 0010 FFFFFF00 		.word	16777215
 267 0014 00000000 		.word	huart1
 269              		.section	.text.uart2_tx,"ax",%progbits
 270              		.align	1
 271              		.global	uart2_tx
 272              		.syntax unified
 273              		.code	16
 274              		.thumb_func
 275              		.fpu softvfp
 277              	uart2_tx:
 278              		@ args = 0, pretend = 0, frame = 0
 279              		@ frame_needed = 0, uses_anonymous_args = 0
 280 0000 10B5     		push	{r4, lr}
 281 0002 0A00     		movs	r2, r1
 282              		@ sp needed
 283 0004 0100     		movs	r1, r0
 284 0006 024B     		ldr	r3, .L31
 285 0008 0248     		ldr	r0, .L31+4
 286 000a FFF7FEFF 		bl	HAL_UART_Transmit
 287 000e 10BD     		pop	{r4, pc}
 288              	.L32:
 289              		.align	2
 290              	.L31:
 291 0010 FFFFFF00 		.word	16777215
 292 0014 00000000 		.word	huart2
 294              		.section	.text.HAL_UART_MspInit,"ax",%progbits
 295              		.align	1
ARM GAS  /tmp/ccCf125a.s 			page 6


 296              		.global	HAL_UART_MspInit
 297              		.syntax unified
 298              		.code	16
 299              		.thumb_func
 300              		.fpu softvfp
 302              	HAL_UART_MspInit:
 303              		@ args = 0, pretend = 0, frame = 32
 304              		@ frame_needed = 0, uses_anonymous_args = 0
 305 0000 70B5     		push	{r4, r5, r6, lr}
 306 0002 0368     		ldr	r3, [r0]
 307 0004 414A     		ldr	r2, .L41
 308 0006 0500     		movs	r5, r0
 309 0008 88B0     		sub	sp, sp, #32
 310 000a 9342     		cmp	r3, r2
 311 000c 1FD1     		bne	.L34
 312 000e 8022     		movs	r2, #128
 313 0010 3F4B     		ldr	r3, .L41+4
 314 0012 D201     		lsls	r2, r2, #7
 315 0014 596B     		ldr	r1, [r3, #52]
 316 0016 A020     		movs	r0, #160
 317 0018 0A43     		orrs	r2, r1
 318 001a 0121     		movs	r1, #1
 319 001c 5A63     		str	r2, [r3, #52]
 320 001e DA6A     		ldr	r2, [r3, #44]
 321 0020 C005     		lsls	r0, r0, #23
 322 0022 0A43     		orrs	r2, r1
 323 0024 DA62     		str	r2, [r3, #44]
 324 0026 DB6A     		ldr	r3, [r3, #44]
 325 0028 C022     		movs	r2, #192
 326 002a 0B40     		ands	r3, r1
 327 002c 0093     		str	r3, [sp]
 328 002e 009B     		ldr	r3, [sp]
 329 0030 0423     		movs	r3, #4
 330 0032 0693     		str	r3, [sp, #24]
 331 0034 0223     		movs	r3, #2
 332 0036 D200     		lsls	r2, r2, #3
 333 0038 0292     		str	r2, [sp, #8]
 334 003a 0393     		str	r3, [sp, #12]
 335 003c 0022     		movs	r2, #0
 336 003e 0323     		movs	r3, #3
 337 0040 02A9     		add	r1, sp, #8
 338 0042 0492     		str	r2, [sp, #16]
 339 0044 0593     		str	r3, [sp, #20]
 340 0046 FFF7FEFF 		bl	HAL_GPIO_Init
 341              	.L33:
 342 004a 08B0     		add	sp, sp, #32
 343              		@ sp needed
 344 004c 70BD     		pop	{r4, r5, r6, pc}
 345              	.L34:
 346 004e 314A     		ldr	r2, .L41+8
 347 0050 9342     		cmp	r3, r2
 348 0052 49D1     		bne	.L36
 349 0054 8022     		movs	r2, #128
 350 0056 2E4B     		ldr	r3, .L41+4
 351 0058 9202     		lsls	r2, r2, #10
 352 005a 996B     		ldr	r1, [r3, #56]
 353 005c A020     		movs	r0, #160
ARM GAS  /tmp/ccCf125a.s 			page 7


 354 005e 0A43     		orrs	r2, r1
 355 0060 0121     		movs	r1, #1
 356 0062 9A63     		str	r2, [r3, #56]
 357 0064 DA6A     		ldr	r2, [r3, #44]
 358 0066 0426     		movs	r6, #4
 359 0068 0A43     		orrs	r2, r1
 360 006a DA62     		str	r2, [r3, #44]
 361 006c DB6A     		ldr	r3, [r3, #44]
 362 006e 0C22     		movs	r2, #12
 363 0070 0B40     		ands	r3, r1
 364 0072 0193     		str	r3, [sp, #4]
 365 0074 019B     		ldr	r3, [sp, #4]
 366 0076 0223     		movs	r3, #2
 367 0078 0292     		str	r2, [sp, #8]
 368 007a 0393     		str	r3, [sp, #12]
 369 007c 0022     		movs	r2, #0
 370 007e 0323     		movs	r3, #3
 371 0080 C005     		lsls	r0, r0, #23
 372 0082 02A9     		add	r1, sp, #8
 373 0084 0492     		str	r2, [sp, #16]
 374 0086 0593     		str	r3, [sp, #20]
 375 0088 0696     		str	r6, [sp, #24]
 376 008a FFF7FEFF 		bl	HAL_GPIO_Init
 377 008e 224C     		ldr	r4, .L41+12
 378 0090 224B     		ldr	r3, .L41+16
 379 0092 8022     		movs	r2, #128
 380 0094 2360     		str	r3, [r4]
 381 0096 0023     		movs	r3, #0
 382 0098 2000     		movs	r0, r4
 383 009a 6660     		str	r6, [r4, #4]
 384 009c A360     		str	r3, [r4, #8]
 385 009e E360     		str	r3, [r4, #12]
 386 00a0 2261     		str	r2, [r4, #16]
 387 00a2 6361     		str	r3, [r4, #20]
 388 00a4 A361     		str	r3, [r4, #24]
 389 00a6 E361     		str	r3, [r4, #28]
 390 00a8 2362     		str	r3, [r4, #32]
 391 00aa FFF7FEFF 		bl	HAL_DMA_Init
 392 00ae 0028     		cmp	r0, #0
 393 00b0 0FD0     		beq	.L37
 394 00b2 1B49     		ldr	r1, .L41+20
 395 00b4 1B48     		ldr	r0, .L41+24
 396 00b6 FFF7FEFF 		bl	hal_trace_print_var
 397 00ba 1B4E     		ldr	r6, .L41+28
 398 00bc 3000     		movs	r0, r6
 399 00be FFF7FEFF 		bl	hal_trace_print_var
 400 00c2 1A48     		ldr	r0, .L41+32
 401 00c4 FFF7FEFF 		bl	hal_trace_print_var
 402 00c8 3000     		movs	r0, r6
 403 00ca FFF7FEFF 		bl	hal_trace_print_var
 404 00ce FFF7FEFF 		bl	hal_mcu_reset
 405              	.L37:
 406 00d2 0022     		movs	r2, #0
 407 00d4 1C20     		movs	r0, #28
 408 00d6 1100     		movs	r1, r2
 409 00d8 2C67     		str	r4, [r5, #112]
 410 00da A562     		str	r5, [r4, #40]
ARM GAS  /tmp/ccCf125a.s 			page 8


 411 00dc FFF7FEFF 		bl	HAL_NVIC_SetPriority
 412 00e0 1C20     		movs	r0, #28
 413 00e2 FFF7FEFF 		bl	HAL_NVIC_EnableIRQ
 414 00e6 B0E7     		b	.L33
 415              	.L36:
 416 00e8 0D49     		ldr	r1, .L41+20
 417 00ea 0E48     		ldr	r0, .L41+24
 418 00ec FFF7FEFF 		bl	hal_trace_print_var
 419 00f0 0D4C     		ldr	r4, .L41+28
 420 00f2 2000     		movs	r0, r4
 421 00f4 FFF7FEFF 		bl	hal_trace_print_var
 422 00f8 0C48     		ldr	r0, .L41+32
 423 00fa FFF7FEFF 		bl	hal_trace_print_var
 424 00fe 2000     		movs	r0, r4
 425 0100 FFF7FEFF 		bl	hal_trace_print_var
 426 0104 FFF7FEFF 		bl	hal_mcu_reset
 427 0108 9FE7     		b	.L33
 428              	.L42:
 429 010a C046     		.align	2
 430              	.L41:
 431 010c 00380140 		.word	1073821696
 432 0110 00100240 		.word	1073876992
 433 0114 00440040 		.word	1073759232
 434 0118 00000000 		.word	.LANCHOR2
 435 011c 58000240 		.word	1073872984
 436 0120 00000000 		.word	.LANCHOR3
 437 0124 00000000 		.word	.LC2
 438 0128 15000000 		.word	.LC4
 439 012c 16000000 		.word	.LC6
 441              		.section	.text.HAL_UART_MspDeInit,"ax",%progbits
 442              		.align	1
 443              		.global	HAL_UART_MspDeInit
 444              		.syntax unified
 445              		.code	16
 446              		.thumb_func
 447              		.fpu softvfp
 449              	HAL_UART_MspDeInit:
 450              		@ args = 0, pretend = 0, frame = 0
 451              		@ frame_needed = 0, uses_anonymous_args = 0
 452 0000 0368     		ldr	r3, [r0]
 453 0002 174A     		ldr	r2, .L46
 454 0004 10B5     		push	{r4, lr}
 455 0006 9342     		cmp	r3, r2
 456 0008 11D1     		bne	.L44
 457 000a 164A     		ldr	r2, .L46+4
 458 000c 1649     		ldr	r1, .L46+8
 459 000e 536B     		ldr	r3, [r2, #52]
 460 0010 A020     		movs	r0, #160
 461 0012 0B40     		ands	r3, r1
 462 0014 8021     		movs	r1, #128
 463 0016 C005     		lsls	r0, r0, #23
 464 0018 8900     		lsls	r1, r1, #2
 465 001a 5363     		str	r3, [r2, #52]
 466 001c FFF7FEFF 		bl	HAL_GPIO_DeInit
 467 0020 8021     		movs	r1, #128
 468 0022 A020     		movs	r0, #160
 469 0024 C900     		lsls	r1, r1, #3
ARM GAS  /tmp/ccCf125a.s 			page 9


 470 0026 C005     		lsls	r0, r0, #23
 471 0028 FFF7FEFF 		bl	HAL_GPIO_DeInit
 472              	.L43:
 473              		@ sp needed
 474 002c 10BD     		pop	{r4, pc}
 475              	.L44:
 476 002e 0F4A     		ldr	r2, .L46+12
 477 0030 9342     		cmp	r3, r2
 478 0032 FBD1     		bne	.L43
 479 0034 A020     		movs	r0, #160
 480 0036 0B4A     		ldr	r2, .L46+4
 481 0038 0D49     		ldr	r1, .L46+16
 482 003a 936B     		ldr	r3, [r2, #56]
 483 003c C005     		lsls	r0, r0, #23
 484 003e 0B40     		ands	r3, r1
 485 0040 9363     		str	r3, [r2, #56]
 486 0042 0421     		movs	r1, #4
 487 0044 FFF7FEFF 		bl	HAL_GPIO_DeInit
 488 0048 A020     		movs	r0, #160
 489 004a 0821     		movs	r1, #8
 490 004c C005     		lsls	r0, r0, #23
 491 004e FFF7FEFF 		bl	HAL_GPIO_DeInit
 492 0052 0848     		ldr	r0, .L46+20
 493 0054 FFF7FEFF 		bl	HAL_DMA_DeInit
 494 0058 1C20     		movs	r0, #28
 495 005a FFF7FEFF 		bl	HAL_NVIC_DisableIRQ
 496 005e E5E7     		b	.L43
 497              	.L47:
 498              		.align	2
 499              	.L46:
 500 0060 00380140 		.word	1073821696
 501 0064 00100240 		.word	1073876992
 502 0068 FFBFFFFF 		.word	-16385
 503 006c 00440040 		.word	1073759232
 504 0070 FFFFFDFF 		.word	-131073
 505 0074 00000000 		.word	.LANCHOR2
 507              		.section	.text.DMA1_Channel4_5_6_7_IRQHandler,"ax",%progbits
 508              		.align	1
 509              		.global	DMA1_Channel4_5_6_7_IRQHandler
 510              		.syntax unified
 511              		.code	16
 512              		.thumb_func
 513              		.fpu softvfp
 515              	DMA1_Channel4_5_6_7_IRQHandler:
 516              		@ args = 0, pretend = 0, frame = 0
 517              		@ frame_needed = 0, uses_anonymous_args = 0
 518 0000 10B5     		push	{r4, lr}
 519 0002 0248     		ldr	r0, .L49
 520 0004 FFF7FEFF 		bl	HAL_DMA_IRQHandler
 521              		@ sp needed
 522 0008 10BD     		pop	{r4, pc}
 523              	.L50:
 524 000a C046     		.align	2
 525              	.L49:
 526 000c 00000000 		.word	.LANCHOR2
 528              		.section	.text.USART2_IRQHandler,"ax",%progbits
 529              		.align	1
ARM GAS  /tmp/ccCf125a.s 			page 10


 530              		.global	USART2_IRQHandler
 531              		.syntax unified
 532              		.code	16
 533              		.thumb_func
 534              		.fpu softvfp
 536              	USART2_IRQHandler:
 537              		@ args = 0, pretend = 0, frame = 0
 538              		@ frame_needed = 0, uses_anonymous_args = 0
 539 0000 10B5     		push	{r4, lr}
 540 0002 0248     		ldr	r0, .L52
 541 0004 FFF7FEFF 		bl	HAL_UART_IRQHandler
 542              		@ sp needed
 543 0008 10BD     		pop	{r4, pc}
 544              	.L53:
 545 000a C046     		.align	2
 546              	.L52:
 547 000c 00000000 		.word	huart2
 549              		.section	.bss.hdma_usart2_rx,"aw",%nobits
 550              		.align	2
 551              		.set	.LANCHOR2,. + 0
 554              	hdma_usart2_rx:
 555 0000 00000000 		.space	72
 555      00000000 
 555      00000000 
 555      00000000 
 555      00000000 
 556              		.section	.bss.huart1,"aw",%nobits
 557              		.align	2
 560              	huart1:
 561 0000 00000000 		.space	132
 561      00000000 
 561      00000000 
 561      00000000 
 561      00000000 
 562              		.section	.bss.huart2,"aw",%nobits
 563              		.align	3
 566              	huart2:
 567 0000 00000000 		.space	132
 567      00000000 
 567      00000000 
 567      00000000 
 567      00000000 
 568              		.section	.rodata.__func__.0,"a"
 569              		.set	.LANCHOR3,. + 0
 572              	__func__.0:
 573 0000 48414C5F 		.ascii	"HAL_UART_MspInit\000"
 573      55415254 
 573      5F4D7370 
 573      496E6974 
 573      00
 574              		.section	.rodata.__func__.1,"a"
 575              		.set	.LANCHOR1,. + 0
 578              	__func__.1:
 579 0000 75617274 		.ascii	"uart2_init\000"
 579      325F696E 
 579      697400
 580              		.section	.rodata.__func__.2,"a"
ARM GAS  /tmp/ccCf125a.s 			page 11


 581              		.set	.LANCHOR0,. + 0
 584              	__func__.2:
 585 0000 75617274 		.ascii	"uart1_init\000"
 585      315F696E 
 585      697400
 586              		.ident	"GCC: (15:10.3-2021.07-4) 10.3.1 20210621 (release)"
ARM GAS  /tmp/ccCf125a.s 			page 12

