ARM GAS  /tmp/ccU0DqCC.s 			page 1


   1              		.cpu cortex-m0
   2              		.eabi_attribute 23, 1
   3              		.eabi_attribute 24, 1
   4              		.eabi_attribute 25, 1
   5              		.eabi_attribute 26, 1
   6              		.eabi_attribute 30, 4
   7              		.eabi_attribute 34, 0
   8              		.eabi_attribute 18, 4
   9              		.file	"smtc_hal_lp_timer.c"
  10              		.text
  11              		.section	.rodata.hal_lp_timer_init.str1.1,"aMS",%progbits,1
  12              	.LC2:
  13 0000 4552524F 		.ascii	"ERROR: mcu_panic:%s\012\000"
  13      523A206D 
  13      63755F70 
  13      616E6963 
  13      3A25730A 
  14              	.LC4:
  15 0015 00       		.ascii	"\000"
  16              	.LC6:
  17 0016 4552524F 		.ascii	"ERROR: -> \000"
  17      523A202D 
  17      3E2000
  18              		.section	.text.hal_lp_timer_init,"ax",%progbits
  19              		.align	1
  20              		.global	hal_lp_timer_init
  21              		.arch armv6s-m
  22              		.syntax unified
  23              		.code	16
  24              		.thumb_func
  25              		.fpu softvfp
  27              	hal_lp_timer_init:
  28              		@ args = 0, pretend = 0, frame = 0
  29              		@ frame_needed = 0, uses_anonymous_args = 0
  30 0000 8022     		movs	r2, #128
  31 0002 1448     		ldr	r0, .L6
  32 0004 144B     		ldr	r3, .L6+4
  33 0006 70B5     		push	{r4, r5, r6, lr}
  34 0008 0024     		movs	r4, #0
  35 000a 0025     		movs	r5, #0
  36 000c 0360     		str	r3, [r0]
  37 000e 0023     		movs	r3, #0
  38 0010 1201     		lsls	r2, r2, #4
  39 0012 8260     		str	r2, [r0, #8]
  40 0014 114A     		ldr	r2, .L6+8
  41 0016 0462     		str	r4, [r0, #32]
  42 0018 4562     		str	r5, [r0, #36]
  43 001a 4360     		str	r3, [r0, #4]
  44 001c 4261     		str	r2, [r0, #20]
  45 001e 8362     		str	r3, [r0, #40]
  46 0020 FFF7FEFF 		bl	HAL_LPTIM_Init
  47 0024 0028     		cmp	r0, #0
  48 0026 0FD0     		beq	.L2
  49 0028 0D49     		ldr	r1, .L6+12
  50 002a 0E48     		ldr	r0, .L6+16
  51 002c FFF7FEFF 		bl	hal_trace_print_var
  52 0030 0D4C     		ldr	r4, .L6+20
ARM GAS  /tmp/ccU0DqCC.s 			page 2


  53 0032 2000     		movs	r0, r4
  54 0034 FFF7FEFF 		bl	hal_trace_print_var
  55 0038 0C48     		ldr	r0, .L6+24
  56 003a FFF7FEFF 		bl	hal_trace_print_var
  57 003e 2000     		movs	r0, r4
  58 0040 FFF7FEFF 		bl	hal_trace_print_var
  59 0044 FFF7FEFF 		bl	hal_mcu_reset
  60              	.L2:
  61              		@ sp needed
  62 0048 0022     		movs	r2, #0
  63 004a 094B     		ldr	r3, .L6+28
  64 004c 1A60     		str	r2, [r3]
  65 004e 5A60     		str	r2, [r3, #4]
  66 0050 70BD     		pop	{r4, r5, r6, pc}
  67              	.L7:
  68 0052 C046     		.align	2
  69              	.L6:
  70 0054 00000000 		.word	.LANCHOR0
  71 0058 007C0040 		.word	1073773568
  72 005c FFFF0000 		.word	65535
  73 0060 00000000 		.word	.LANCHOR1
  74 0064 00000000 		.word	.LC2
  75 0068 15000000 		.word	.LC4
  76 006c 16000000 		.word	.LC6
  77 0070 00000000 		.word	.LANCHOR2
  79              		.global	__aeabi_uldivmod
  80              		.global	__aeabi_ldivmod
  81              		.section	.text.hal_lp_timer_start,"ax",%progbits
  82              		.align	1
  83              		.global	hal_lp_timer_start
  84              		.syntax unified
  85              		.code	16
  86              		.thumb_func
  87              		.fpu softvfp
  89              	hal_lp_timer_start:
  90              		@ args = 0, pretend = 0, frame = 0
  91              		@ frame_needed = 0, uses_anonymous_args = 0
  92 0000 FA22     		movs	r2, #250
  93 0002 0023     		movs	r3, #0
  94 0004 10B5     		push	{r4, lr}
  95 0006 9200     		lsls	r2, r2, #2
  96 0008 0C00     		movs	r4, r1
  97 000a 410D     		lsrs	r1, r0, #21
  98 000c C002     		lsls	r0, r0, #11
  99 000e FFF7FEFF 		bl	__aeabi_uldivmod
 100 0012 8023     		movs	r3, #128
 101 0014 0200     		movs	r2, r0
 102 0016 5B02     		lsls	r3, r3, #9
 103 0018 9842     		cmp	r0, r3
 104 001a 00D3     		bcc	.L9
 105 001c 044A     		ldr	r2, .L10
 106              	.L9:
 107 001e 0449     		ldr	r1, .L10
 108 0020 0448     		ldr	r0, .L10+4
 109 0022 FFF7FEFF 		bl	HAL_LPTIM_TimeOut_Start_IT
 110              		@ sp needed
 111 0026 044B     		ldr	r3, .L10+8
ARM GAS  /tmp/ccU0DqCC.s 			page 3


 112 0028 06CC     		ldmia	r4!, {r1, r2}
 113 002a 06C3     		stmia	r3!, {r1, r2}
 114 002c 10BD     		pop	{r4, pc}
 115              	.L11:
 116 002e C046     		.align	2
 117              	.L10:
 118 0030 FFFF0000 		.word	65535
 119 0034 00000000 		.word	.LANCHOR0
 120 0038 00000000 		.word	.LANCHOR2
 122              		.section	.text.hal_lp_timer_stop,"ax",%progbits
 123              		.align	1
 124              		.global	hal_lp_timer_stop
 125              		.syntax unified
 126              		.code	16
 127              		.thumb_func
 128              		.fpu softvfp
 130              	hal_lp_timer_stop:
 131              		@ args = 0, pretend = 0, frame = 0
 132              		@ frame_needed = 0, uses_anonymous_args = 0
 133 0000 10B5     		push	{r4, lr}
 134 0002 0248     		ldr	r0, .L13
 135 0004 FFF7FEFF 		bl	HAL_LPTIM_TimeOut_Stop_IT
 136              		@ sp needed
 137 0008 10BD     		pop	{r4, pc}
 138              	.L14:
 139 000a C046     		.align	2
 140              	.L13:
 141 000c 00000000 		.word	.LANCHOR0
 143              		.section	.text.hal_lp_timer_irq_enable,"ax",%progbits
 144              		.align	1
 145              		.global	hal_lp_timer_irq_enable
 146              		.syntax unified
 147              		.code	16
 148              		.thumb_func
 149              		.fpu softvfp
 151              	hal_lp_timer_irq_enable:
 152              		@ args = 0, pretend = 0, frame = 0
 153              		@ frame_needed = 0, uses_anonymous_args = 0
 154 0000 10B5     		push	{r4, lr}
 155 0002 0D20     		movs	r0, #13
 156              		@ sp needed
 157 0004 FFF7FEFF 		bl	HAL_NVIC_EnableIRQ
 158 0008 10BD     		pop	{r4, pc}
 160              		.section	.text.hal_lp_timer_irq_disable,"ax",%progbits
 161              		.align	1
 162              		.global	hal_lp_timer_irq_disable
 163              		.syntax unified
 164              		.code	16
 165              		.thumb_func
 166              		.fpu softvfp
 168              	hal_lp_timer_irq_disable:
 169              		@ args = 0, pretend = 0, frame = 0
 170              		@ frame_needed = 0, uses_anonymous_args = 0
 171 0000 10B5     		push	{r4, lr}
 172 0002 0D20     		movs	r0, #13
 173              		@ sp needed
 174 0004 FFF7FEFF 		bl	HAL_NVIC_DisableIRQ
ARM GAS  /tmp/ccU0DqCC.s 			page 4


 175 0008 10BD     		pop	{r4, pc}
 177              		.section	.text.LPTIM1_IRQHandler,"ax",%progbits
 178              		.align	1
 179              		.global	LPTIM1_IRQHandler
 180              		.syntax unified
 181              		.code	16
 182              		.thumb_func
 183              		.fpu softvfp
 185              	LPTIM1_IRQHandler:
 186              		@ args = 0, pretend = 0, frame = 0
 187              		@ frame_needed = 0, uses_anonymous_args = 0
 188 0000 10B5     		push	{r4, lr}
 189 0002 074C     		ldr	r4, .L22
 190 0004 2000     		movs	r0, r4
 191 0006 FFF7FEFF 		bl	HAL_LPTIM_IRQHandler
 192 000a 2000     		movs	r0, r4
 193 000c FFF7FEFF 		bl	HAL_LPTIM_TimeOut_Stop
 194 0010 044A     		ldr	r2, .L22+4
 195 0012 5368     		ldr	r3, [r2, #4]
 196 0014 002B     		cmp	r3, #0
 197 0016 01D0     		beq	.L17
 198 0018 1068     		ldr	r0, [r2]
 199 001a 9847     		blx	r3
 200              	.L17:
 201              		@ sp needed
 202 001c 10BD     		pop	{r4, pc}
 203              	.L23:
 204 001e C046     		.align	2
 205              	.L22:
 206 0020 00000000 		.word	.LANCHOR0
 207 0024 00000000 		.word	.LANCHOR2
 209              		.section	.text.HAL_LPTIM_MspInit,"ax",%progbits
 210              		.align	1
 211              		.global	HAL_LPTIM_MspInit
 212              		.syntax unified
 213              		.code	16
 214              		.thumb_func
 215              		.fpu softvfp
 217              	HAL_LPTIM_MspInit:
 218              		@ args = 0, pretend = 0, frame = 0
 219              		@ frame_needed = 0, uses_anonymous_args = 0
 220 0000 094B     		ldr	r3, .L26
 221 0002 0268     		ldr	r2, [r0]
 222 0004 10B5     		push	{r4, lr}
 223 0006 9A42     		cmp	r2, r3
 224 0008 0DD1     		bne	.L24
 225 000a 8023     		movs	r3, #128
 226 000c 074A     		ldr	r2, .L26+4
 227 000e 1B06     		lsls	r3, r3, #24
 228 0010 916B     		ldr	r1, [r2, #56]
 229 0012 0D20     		movs	r0, #13
 230 0014 0B43     		orrs	r3, r1
 231 0016 9363     		str	r3, [r2, #56]
 232 0018 0022     		movs	r2, #0
 233 001a 1100     		movs	r1, r2
 234 001c FFF7FEFF 		bl	HAL_NVIC_SetPriority
 235 0020 0D20     		movs	r0, #13
ARM GAS  /tmp/ccU0DqCC.s 			page 5


 236 0022 FFF7FEFF 		bl	HAL_NVIC_EnableIRQ
 237              	.L24:
 238              		@ sp needed
 239 0026 10BD     		pop	{r4, pc}
 240              	.L27:
 241              		.align	2
 242              	.L26:
 243 0028 007C0040 		.word	1073773568
 244 002c 00100240 		.word	1073876992
 246              		.section	.text.HAL_LPTIM_MspDeInit,"ax",%progbits
 247              		.align	1
 248              		.global	HAL_LPTIM_MspDeInit
 249              		.syntax unified
 250              		.code	16
 251              		.thumb_func
 252              		.fpu softvfp
 254              	HAL_LPTIM_MspDeInit:
 255              		@ args = 0, pretend = 0, frame = 0
 256              		@ frame_needed = 0, uses_anonymous_args = 0
 257 0000 064B     		ldr	r3, .L30
 258 0002 0268     		ldr	r2, [r0]
 259 0004 10B5     		push	{r4, lr}
 260 0006 9A42     		cmp	r2, r3
 261 0008 07D1     		bne	.L28
 262 000a 054A     		ldr	r2, .L30+4
 263 000c 0D20     		movs	r0, #13
 264 000e 936B     		ldr	r3, [r2, #56]
 265 0010 5B00     		lsls	r3, r3, #1
 266 0012 5B08     		lsrs	r3, r3, #1
 267 0014 9363     		str	r3, [r2, #56]
 268 0016 FFF7FEFF 		bl	HAL_NVIC_DisableIRQ
 269              	.L28:
 270              		@ sp needed
 271 001a 10BD     		pop	{r4, pc}
 272              	.L31:
 273              		.align	2
 274              	.L30:
 275 001c 007C0040 		.word	1073773568
 276 0020 00100240 		.word	1073876992
 278              		.section	.bss.lptim_handle,"aw",%nobits
 279              		.align	3
 280              		.set	.LANCHOR0,. + 0
 283              	lptim_handle:
 284 0000 00000000 		.space	48
 284      00000000 
 284      00000000 
 284      00000000 
 284      00000000 
 285              		.section	.bss.lptim_tmr_irq,"aw",%nobits
 286              		.align	2
 287              		.set	.LANCHOR2,. + 0
 290              	lptim_tmr_irq:
 291 0000 00000000 		.space	8
 291      00000000 
 292              		.section	.rodata.__func__.0,"a"
 293              		.set	.LANCHOR1,. + 0
 296              	__func__.0:
ARM GAS  /tmp/ccU0DqCC.s 			page 6


 297 0000 68616C5F 		.ascii	"hal_lp_timer_init\000"
 297      6C705F74 
 297      696D6572 
 297      5F696E69 
 297      7400
 298              		.ident	"GCC: (15:10.3-2021.07-4) 10.3.1 20210621 (release)"
ARM GAS  /tmp/ccU0DqCC.s 			page 7

