ARM GAS  /tmp/cclRNoWa.s 			page 1


   1              		.cpu cortex-m0
   2              		.eabi_attribute 23, 1
   3              		.eabi_attribute 24, 1
   4              		.eabi_attribute 25, 1
   5              		.eabi_attribute 26, 1
   6              		.eabi_attribute 30, 4
   7              		.eabi_attribute 34, 0
   8              		.eabi_attribute 18, 4
   9              		.file	"stm32l0xx_hal_uart.c"
  10              		.text
  11              		.section	.text.UART_EndRxTransfer,"ax",%progbits
  12              		.align	1
  13              		.arch armv6s-m
  14              		.syntax unified
  15              		.code	16
  16              		.thumb_func
  17              		.fpu softvfp
  19              	UART_EndRxTransfer:
  20              		@ args = 0, pretend = 0, frame = 0
  21              		@ frame_needed = 0, uses_anonymous_args = 0
  22 0000 30B5     		push	{r4, r5, lr}
  23              		.syntax divided
  24              	@ 453 "bsp_l0/mcu_drivers/cmsis/Core/Include/cmsis_gcc.h" 1
  25 0002 EFF31084 		MRS r4, primask
  26              	@ 0 "" 2
  27              		.thumb
  28              		.syntax unified
  29 0006 0122     		movs	r2, #1
  30              		.syntax divided
  31              	@ 481 "bsp_l0/mcu_drivers/cmsis/Core/Include/cmsis_gcc.h" 1
  32 0008 82F31088 		MSR primask, r2
  33              	@ 0 "" 2
  34              		.thumb
  35              		.syntax unified
  36 000c 0168     		ldr	r1, [r0]
  37 000e 124D     		ldr	r5, .L3
  38 0010 0B68     		ldr	r3, [r1]
  39 0012 2B40     		ands	r3, r5
  40 0014 0B60     		str	r3, [r1]
  41              		.syntax divided
  42              	@ 481 "bsp_l0/mcu_drivers/cmsis/Core/Include/cmsis_gcc.h" 1
  43 0016 84F31088 		MSR primask, r4
  44              	@ 0 "" 2
  45              	@ 453 "bsp_l0/mcu_drivers/cmsis/Core/Include/cmsis_gcc.h" 1
  46 001a EFF31084 		MRS r4, primask
  47              	@ 0 "" 2
  48              	@ 481 "bsp_l0/mcu_drivers/cmsis/Core/Include/cmsis_gcc.h" 1
  49 001e 82F31088 		MSR primask, r2
  50              	@ 0 "" 2
  51              		.thumb
  52              		.syntax unified
  53 0022 0168     		ldr	r1, [r0]
  54 0024 8B68     		ldr	r3, [r1, #8]
  55 0026 9343     		bics	r3, r2
  56 0028 8B60     		str	r3, [r1, #8]
  57              		.syntax divided
  58              	@ 481 "bsp_l0/mcu_drivers/cmsis/Core/Include/cmsis_gcc.h" 1
ARM GAS  /tmp/cclRNoWa.s 			page 2


  59 002a 84F31088 		MSR primask, r4
  60              	@ 0 "" 2
  61              		.thumb
  62              		.syntax unified
  63 002e 036E     		ldr	r3, [r0, #96]
  64 0030 9342     		cmp	r3, r2
  65 0032 0AD1     		bne	.L2
  66              		.syntax divided
  67              	@ 453 "bsp_l0/mcu_drivers/cmsis/Core/Include/cmsis_gcc.h" 1
  68 0034 EFF31081 		MRS r1, primask
  69              	@ 0 "" 2
  70              	@ 481 "bsp_l0/mcu_drivers/cmsis/Core/Include/cmsis_gcc.h" 1
  71 0038 83F31088 		MSR primask, r3
  72              	@ 0 "" 2
  73              		.thumb
  74              		.syntax unified
  75 003c 1024     		movs	r4, #16
  76 003e 0268     		ldr	r2, [r0]
  77 0040 1368     		ldr	r3, [r2]
  78 0042 A343     		bics	r3, r4
  79 0044 1360     		str	r3, [r2]
  80              		.syntax divided
  81              	@ 481 "bsp_l0/mcu_drivers/cmsis/Core/Include/cmsis_gcc.h" 1
  82 0046 81F31088 		MSR primask, r1
  83              	@ 0 "" 2
  84              		.thumb
  85              		.syntax unified
  86              	.L2:
  87 004a 2023     		movs	r3, #32
  88              		@ sp needed
  89 004c C367     		str	r3, [r0, #124]
  90 004e 0023     		movs	r3, #0
  91 0050 0366     		str	r3, [r0, #96]
  92 0052 4366     		str	r3, [r0, #100]
  93 0054 30BD     		pop	{r4, r5, pc}
  94              	.L4:
  95 0056 C046     		.align	2
  96              	.L3:
  97 0058 DFFEFFFF 		.word	-289
  99              		.section	.text.UART_TxISR_8BIT.part.0,"ax",%progbits
 100              		.align	1
 101              		.syntax unified
 102              		.code	16
 103              		.thumb_func
 104              		.fpu softvfp
 106              	UART_TxISR_8BIT.part.0:
 107              		@ args = 0, pretend = 0, frame = 0
 108              		@ frame_needed = 0, uses_anonymous_args = 0
 109 0000 30B5     		push	{r4, r5, lr}
 110              		.syntax divided
 111              	@ 453 "bsp_l0/mcu_drivers/cmsis/Core/Include/cmsis_gcc.h" 1
 112 0002 EFF31084 		MRS r4, primask
 113              	@ 0 "" 2
 114              		.thumb
 115              		.syntax unified
 116 0006 0122     		movs	r2, #1
 117              		.syntax divided
ARM GAS  /tmp/cclRNoWa.s 			page 3


 118              	@ 481 "bsp_l0/mcu_drivers/cmsis/Core/Include/cmsis_gcc.h" 1
 119 0008 82F31088 		MSR primask, r2
 120              	@ 0 "" 2
 121              		.thumb
 122              		.syntax unified
 123 000c 8025     		movs	r5, #128
 124 000e 0168     		ldr	r1, [r0]
 125 0010 0B68     		ldr	r3, [r1]
 126 0012 AB43     		bics	r3, r5
 127 0014 0B60     		str	r3, [r1]
 128              		.syntax divided
 129              	@ 481 "bsp_l0/mcu_drivers/cmsis/Core/Include/cmsis_gcc.h" 1
 130 0016 84F31088 		MSR primask, r4
 131              	@ 0 "" 2
 132              	@ 453 "bsp_l0/mcu_drivers/cmsis/Core/Include/cmsis_gcc.h" 1
 133 001a EFF31081 		MRS r1, primask
 134              	@ 0 "" 2
 135              	@ 481 "bsp_l0/mcu_drivers/cmsis/Core/Include/cmsis_gcc.h" 1
 136 001e 82F31088 		MSR primask, r2
 137              	@ 0 "" 2
 138              		.thumb
 139              		.syntax unified
 140 0022 4023     		movs	r3, #64
 141 0024 0268     		ldr	r2, [r0]
 142 0026 1068     		ldr	r0, [r2]
 143 0028 0343     		orrs	r3, r0
 144 002a 1360     		str	r3, [r2]
 145              		.syntax divided
 146              	@ 481 "bsp_l0/mcu_drivers/cmsis/Core/Include/cmsis_gcc.h" 1
 147 002c 81F31088 		MSR primask, r1
 148              	@ 0 "" 2
 149              		.thumb
 150              		.syntax unified
 151              		@ sp needed
 152 0030 30BD     		pop	{r4, r5, pc}
 154              		.thumb_set UART_TxISR_16BIT.part.0,UART_TxISR_8BIT.part.0
 155              		.section	.text.UART_TxISR_8BIT,"ax",%progbits
 156              		.align	1
 157              		.syntax unified
 158              		.code	16
 159              		.thumb_func
 160              		.fpu softvfp
 162              	UART_TxISR_8BIT:
 163              		@ args = 0, pretend = 0, frame = 0
 164              		@ frame_needed = 0, uses_anonymous_args = 0
 165 0000 836F     		ldr	r3, [r0, #120]
 166 0002 10B5     		push	{r4, lr}
 167 0004 212B     		cmp	r3, #33
 168 0006 06D1     		bne	.L6
 169 0008 0200     		movs	r2, r0
 170 000a 5232     		adds	r2, r2, #82
 171 000c 1388     		ldrh	r3, [r2]
 172 000e 002B     		cmp	r3, #0
 173 0010 02D1     		bne	.L8
 174 0012 FFF7FEFF 		bl	UART_TxISR_8BIT.part.0
 175              	.L6:
 176              		@ sp needed
ARM GAS  /tmp/cclRNoWa.s 			page 4


 177 0016 10BD     		pop	{r4, pc}
 178              	.L8:
 179 0018 C36C     		ldr	r3, [r0, #76]
 180 001a 0168     		ldr	r1, [r0]
 181 001c 1C78     		ldrb	r4, [r3]
 182 001e 0133     		adds	r3, r3, #1
 183 0020 8C62     		str	r4, [r1, #40]
 184 0022 C364     		str	r3, [r0, #76]
 185 0024 1388     		ldrh	r3, [r2]
 186 0026 013B     		subs	r3, r3, #1
 187 0028 9BB2     		uxth	r3, r3
 188 002a 1380     		strh	r3, [r2]
 189 002c F3E7     		b	.L6
 191              		.section	.text.UART_TxISR_16BIT,"ax",%progbits
 192              		.align	1
 193              		.syntax unified
 194              		.code	16
 195              		.thumb_func
 196              		.fpu softvfp
 198              	UART_TxISR_16BIT:
 199              		@ args = 0, pretend = 0, frame = 0
 200              		@ frame_needed = 0, uses_anonymous_args = 0
 201 0000 836F     		ldr	r3, [r0, #120]
 202 0002 10B5     		push	{r4, lr}
 203 0004 212B     		cmp	r3, #33
 204 0006 06D1     		bne	.L9
 205 0008 0100     		movs	r1, r0
 206 000a 5231     		adds	r1, r1, #82
 207 000c 0B88     		ldrh	r3, [r1]
 208 000e 002B     		cmp	r3, #0
 209 0010 02D1     		bne	.L11
 210 0012 FFF7FEFF 		bl	UART_TxISR_16BIT.part.0
 211              	.L9:
 212              		@ sp needed
 213 0016 10BD     		pop	{r4, pc}
 214              	.L11:
 215 0018 C26C     		ldr	r2, [r0, #76]
 216 001a 0468     		ldr	r4, [r0]
 217 001c 1388     		ldrh	r3, [r2]
 218 001e 0232     		adds	r2, r2, #2
 219 0020 DB05     		lsls	r3, r3, #23
 220 0022 DB0D     		lsrs	r3, r3, #23
 221 0024 A362     		str	r3, [r4, #40]
 222 0026 C264     		str	r2, [r0, #76]
 223 0028 0B88     		ldrh	r3, [r1]
 224 002a 013B     		subs	r3, r3, #1
 225 002c 9BB2     		uxth	r3, r3
 226 002e 0B80     		strh	r3, [r1]
 227 0030 F1E7     		b	.L9
 229              		.section	.text.HAL_UART_MspInit,"ax",%progbits
 230              		.align	1
 231              		.weak	HAL_UART_MspInit
 232              		.syntax unified
 233              		.code	16
 234              		.thumb_func
 235              		.fpu softvfp
 237              	HAL_UART_MspInit:
ARM GAS  /tmp/cclRNoWa.s 			page 5


 238              		@ args = 0, pretend = 0, frame = 0
 239              		@ frame_needed = 0, uses_anonymous_args = 0
 240              		@ link register save eliminated.
 241              		@ sp needed
 242 0000 7047     		bx	lr
 244              		.section	.text.HAL_UART_MspDeInit,"ax",%progbits
 245              		.align	1
 246              		.weak	HAL_UART_MspDeInit
 247              		.syntax unified
 248              		.code	16
 249              		.thumb_func
 250              		.fpu softvfp
 252              	HAL_UART_MspDeInit:
 253              		@ args = 0, pretend = 0, frame = 0
 254              		@ frame_needed = 0, uses_anonymous_args = 0
 255              		@ link register save eliminated.
 256              		@ sp needed
 257 0000 7047     		bx	lr
 259              		.section	.text.HAL_UART_DeInit,"ax",%progbits
 260              		.align	1
 261              		.global	HAL_UART_DeInit
 262              		.syntax unified
 263              		.code	16
 264              		.thumb_func
 265              		.fpu softvfp
 267              	HAL_UART_DeInit:
 268              		@ args = 0, pretend = 0, frame = 0
 269              		@ frame_needed = 0, uses_anonymous_args = 0
 270 0000 70B5     		push	{r4, r5, r6, lr}
 271 0002 0400     		movs	r4, r0
 272 0004 0120     		movs	r0, #1
 273 0006 002C     		cmp	r4, #0
 274 0008 14D0     		beq	.L15
 275 000a 2423     		movs	r3, #36
 276 000c 0025     		movs	r5, #0
 277 000e A367     		str	r3, [r4, #120]
 278 0010 2368     		ldr	r3, [r4]
 279 0012 1A68     		ldr	r2, [r3]
 280 0014 8243     		bics	r2, r0
 281 0016 1A60     		str	r2, [r3]
 282 0018 2000     		movs	r0, r4
 283 001a 1D60     		str	r5, [r3]
 284 001c 5D60     		str	r5, [r3, #4]
 285 001e 9D60     		str	r5, [r3, #8]
 286 0020 FFF7FEFF 		bl	HAL_UART_MspDeInit
 287 0024 2800     		movs	r0, r5
 288 0026 231D     		adds	r3, r4, #4
 289 0028 DD67     		str	r5, [r3, #124]
 290 002a A567     		str	r5, [r4, #120]
 291 002c E567     		str	r5, [r4, #124]
 292 002e 2566     		str	r5, [r4, #96]
 293 0030 7434     		adds	r4, r4, #116
 294 0032 2570     		strb	r5, [r4]
 295              	.L15:
 296              		@ sp needed
 297 0034 70BD     		pop	{r4, r5, r6, pc}
 299              		.section	.text.HAL_UART_Transmit_IT,"ax",%progbits
ARM GAS  /tmp/cclRNoWa.s 			page 6


 300              		.align	1
 301              		.global	HAL_UART_Transmit_IT
 302              		.syntax unified
 303              		.code	16
 304              		.thumb_func
 305              		.fpu softvfp
 307              	HAL_UART_Transmit_IT:
 308              		@ args = 0, pretend = 0, frame = 0
 309              		@ frame_needed = 0, uses_anonymous_args = 0
 310 0000 70B5     		push	{r4, r5, r6, lr}
 311 0002 846F     		ldr	r4, [r0, #120]
 312 0004 0300     		movs	r3, r0
 313 0006 0220     		movs	r0, #2
 314 0008 202C     		cmp	r4, #32
 315 000a 38D1     		bne	.L18
 316 000c 0138     		subs	r0, r0, #1
 317 000e 0029     		cmp	r1, #0
 318 0010 35D0     		beq	.L18
 319 0012 002A     		cmp	r2, #0
 320 0014 33D0     		beq	.L18
 321 0016 8020     		movs	r0, #128
 322 0018 9D68     		ldr	r5, [r3, #8]
 323 001a 4001     		lsls	r0, r0, #5
 324 001c 8542     		cmp	r5, r0
 325 001e 06D1     		bne	.L19
 326 0020 1869     		ldr	r0, [r3, #16]
 327 0022 0028     		cmp	r0, #0
 328 0024 03D1     		bne	.L19
 329 0026 1F3C     		subs	r4, r4, #31
 330 0028 2000     		movs	r0, r4
 331 002a 2142     		tst	r1, r4
 332 002c 27D1     		bne	.L18
 333              	.L19:
 334 002e 1C00     		movs	r4, r3
 335 0030 7434     		adds	r4, r4, #116
 336 0032 2678     		ldrb	r6, [r4]
 337 0034 0220     		movs	r0, #2
 338 0036 012E     		cmp	r6, #1
 339 0038 21D0     		beq	.L18
 340 003a D964     		str	r1, [r3, #76]
 341 003c 1900     		movs	r1, r3
 342 003e 5031     		adds	r1, r1, #80
 343 0040 0A80     		strh	r2, [r1]
 344 0042 4A80     		strh	r2, [r1, #2]
 345 0044 0021     		movs	r1, #0
 346 0046 1A1D     		adds	r2, r3, #4
 347 0048 D167     		str	r1, [r2, #124]
 348 004a 2122     		movs	r2, #33
 349 004c 8021     		movs	r1, #128
 350 004e 9A67     		str	r2, [r3, #120]
 351 0050 4901     		lsls	r1, r1, #5
 352 0052 0B4A     		ldr	r2, .L28
 353 0054 8D42     		cmp	r5, r1
 354 0056 03D1     		bne	.L20
 355 0058 1969     		ldr	r1, [r3, #16]
 356 005a 0029     		cmp	r1, #0
 357 005c 00D1     		bne	.L20
ARM GAS  /tmp/cclRNoWa.s 			page 7


 358 005e 094A     		ldr	r2, .L28+4
 359              	.L20:
 360 0060 0020     		movs	r0, #0
 361 0062 9A66     		str	r2, [r3, #104]
 362 0064 2070     		strb	r0, [r4]
 363              		.syntax divided
 364              	@ 453 "bsp_l0/mcu_drivers/cmsis/Core/Include/cmsis_gcc.h" 1
 365 0066 EFF31081 		MRS r1, primask
 366              	@ 0 "" 2
 367              		.thumb
 368              		.syntax unified
 369 006a 0122     		movs	r2, #1
 370              		.syntax divided
 371              	@ 481 "bsp_l0/mcu_drivers/cmsis/Core/Include/cmsis_gcc.h" 1
 372 006c 82F31088 		MSR primask, r2
 373              	@ 0 "" 2
 374              		.thumb
 375              		.syntax unified
 376 0070 1A68     		ldr	r2, [r3]
 377 0072 8023     		movs	r3, #128
 378 0074 1468     		ldr	r4, [r2]
 379 0076 2343     		orrs	r3, r4
 380 0078 1360     		str	r3, [r2]
 381              		.syntax divided
 382              	@ 481 "bsp_l0/mcu_drivers/cmsis/Core/Include/cmsis_gcc.h" 1
 383 007a 81F31088 		MSR primask, r1
 384              	@ 0 "" 2
 385              		.thumb
 386              		.syntax unified
 387              	.L18:
 388              		@ sp needed
 389 007e 70BD     		pop	{r4, r5, r6, pc}
 390              	.L29:
 391              		.align	2
 392              	.L28:
 393 0080 00000000 		.word	UART_TxISR_8BIT
 394 0084 00000000 		.word	UART_TxISR_16BIT
 396              		.section	.text.HAL_UART_Transmit_DMA,"ax",%progbits
 397              		.align	1
 398              		.global	HAL_UART_Transmit_DMA
 399              		.syntax unified
 400              		.code	16
 401              		.thumb_func
 402              		.fpu softvfp
 404              	HAL_UART_Transmit_DMA:
 405              		@ args = 0, pretend = 0, frame = 8
 406              		@ frame_needed = 0, uses_anonymous_args = 0
 407 0000 F7B5     		push	{r0, r1, r2, r4, r5, r6, r7, lr}
 408 0002 1300     		movs	r3, r2
 409 0004 826F     		ldr	r2, [r0, #120]
 410 0006 0400     		movs	r4, r0
 411 0008 0220     		movs	r0, #2
 412 000a 202A     		cmp	r2, #32
 413 000c 3AD1     		bne	.L31
 414 000e 0138     		subs	r0, r0, #1
 415 0010 0029     		cmp	r1, #0
 416 0012 37D0     		beq	.L31
ARM GAS  /tmp/cclRNoWa.s 			page 8


 417 0014 002B     		cmp	r3, #0
 418 0016 35D0     		beq	.L31
 419 0018 8022     		movs	r2, #128
 420 001a A068     		ldr	r0, [r4, #8]
 421 001c 5201     		lsls	r2, r2, #5
 422 001e 9042     		cmp	r0, r2
 423 0020 06D1     		bne	.L32
 424 0022 2269     		ldr	r2, [r4, #16]
 425 0024 002A     		cmp	r2, #0
 426 0026 03D1     		bne	.L32
 427 0028 0132     		adds	r2, r2, #1
 428 002a 1000     		movs	r0, r2
 429 002c 1142     		tst	r1, r2
 430 002e 29D1     		bne	.L31
 431              	.L32:
 432 0030 2500     		movs	r5, r4
 433 0032 7435     		adds	r5, r5, #116
 434 0034 2A78     		ldrb	r2, [r5]
 435 0036 0220     		movs	r0, #2
 436 0038 012A     		cmp	r2, #1
 437 003a 23D0     		beq	.L31
 438 003c 0122     		movs	r2, #1
 439 003e 2A70     		strb	r2, [r5]
 440 0040 2200     		movs	r2, r4
 441 0042 5032     		adds	r2, r2, #80
 442 0044 E164     		str	r1, [r4, #76]
 443 0046 0026     		movs	r6, #0
 444 0048 1380     		strh	r3, [r2]
 445 004a 5380     		strh	r3, [r2, #2]
 446 004c 2122     		movs	r2, #33
 447 004e E06E     		ldr	r0, [r4, #108]
 448 0050 271D     		adds	r7, r4, #4
 449 0052 FE67     		str	r6, [r7, #124]
 450 0054 A267     		str	r2, [r4, #120]
 451 0056 B042     		cmp	r0, r6
 452 0058 15D0     		beq	.L33
 453 005a 2268     		ldr	r2, [r4]
 454 005c 8663     		str	r6, [r0, #56]
 455 005e 0192     		str	r2, [sp, #4]
 456 0060 124A     		ldr	r2, .L45
 457 0062 C262     		str	r2, [r0, #44]
 458 0064 124A     		ldr	r2, .L45+4
 459 0066 0263     		str	r2, [r0, #48]
 460 0068 124A     		ldr	r2, .L45+8
 461 006a 4263     		str	r2, [r0, #52]
 462 006c 019A     		ldr	r2, [sp, #4]
 463 006e 2832     		adds	r2, r2, #40
 464 0070 FFF7FEFF 		bl	HAL_DMA_Start_IT
 465 0074 B042     		cmp	r0, r6
 466 0076 06D0     		beq	.L33
 467 0078 1023     		movs	r3, #16
 468 007a 0120     		movs	r0, #1
 469 007c FB67     		str	r3, [r7, #124]
 470 007e DB18     		adds	r3, r3, r3
 471 0080 2E70     		strb	r6, [r5]
 472 0082 A367     		str	r3, [r4, #120]
 473              	.L31:
ARM GAS  /tmp/cclRNoWa.s 			page 9


 474              		@ sp needed
 475 0084 FEBD     		pop	{r1, r2, r3, r4, r5, r6, r7, pc}
 476              	.L33:
 477 0086 4022     		movs	r2, #64
 478 0088 0020     		movs	r0, #0
 479 008a 2368     		ldr	r3, [r4]
 480 008c 1A62     		str	r2, [r3, #32]
 481 008e 2870     		strb	r0, [r5]
 482              		.syntax divided
 483              	@ 453 "bsp_l0/mcu_drivers/cmsis/Core/Include/cmsis_gcc.h" 1
 484 0090 EFF31081 		MRS r1, primask
 485              	@ 0 "" 2
 486              		.thumb
 487              		.syntax unified
 488 0094 0123     		movs	r3, #1
 489              		.syntax divided
 490              	@ 481 "bsp_l0/mcu_drivers/cmsis/Core/Include/cmsis_gcc.h" 1
 491 0096 83F31088 		MSR primask, r3
 492              	@ 0 "" 2
 493              		.thumb
 494              		.syntax unified
 495 009a 2268     		ldr	r2, [r4]
 496 009c 7F33     		adds	r3, r3, #127
 497 009e 9468     		ldr	r4, [r2, #8]
 498 00a0 2343     		orrs	r3, r4
 499 00a2 9360     		str	r3, [r2, #8]
 500              		.syntax divided
 501              	@ 481 "bsp_l0/mcu_drivers/cmsis/Core/Include/cmsis_gcc.h" 1
 502 00a4 81F31088 		MSR primask, r1
 503              	@ 0 "" 2
 504              		.thumb
 505              		.syntax unified
 506 00a8 ECE7     		b	.L31
 507              	.L46:
 508 00aa C046     		.align	2
 509              	.L45:
 510 00ac 00000000 		.word	UART_DMATransmitCplt
 511 00b0 00000000 		.word	UART_DMATxHalfCplt
 512 00b4 00000000 		.word	UART_DMAError
 514              		.section	.text.HAL_UART_DMAPause,"ax",%progbits
 515              		.align	1
 516              		.global	HAL_UART_DMAPause
 517              		.syntax unified
 518              		.code	16
 519              		.thumb_func
 520              		.fpu softvfp
 522              	HAL_UART_DMAPause:
 523              		@ args = 0, pretend = 0, frame = 0
 524              		@ frame_needed = 0, uses_anonymous_args = 0
 525 0000 0100     		movs	r1, r0
 526 0002 F0B5     		push	{r4, r5, r6, r7, lr}
 527 0004 7431     		adds	r1, r1, #116
 528 0006 0A78     		ldrb	r2, [r1]
 529 0008 866F     		ldr	r6, [r0, #120]
 530 000a 0300     		movs	r3, r0
 531 000c C56F     		ldr	r5, [r0, #124]
 532 000e 0220     		movs	r0, #2
ARM GAS  /tmp/cclRNoWa.s 			page 10


 533 0010 012A     		cmp	r2, #1
 534 0012 3BD0     		beq	.L48
 535 0014 0122     		movs	r2, #1
 536 0016 8024     		movs	r4, #128
 537 0018 0A70     		strb	r2, [r1]
 538 001a 1868     		ldr	r0, [r3]
 539 001c 8068     		ldr	r0, [r0, #8]
 540 001e 2042     		tst	r0, r4
 541 0020 0BD0     		beq	.L49
 542 0022 212E     		cmp	r6, #33
 543 0024 09D1     		bne	.L49
 544              		.syntax divided
 545              	@ 453 "bsp_l0/mcu_drivers/cmsis/Core/Include/cmsis_gcc.h" 1
 546 0026 EFF31086 		MRS r6, primask
 547              	@ 0 "" 2
 548              	@ 481 "bsp_l0/mcu_drivers/cmsis/Core/Include/cmsis_gcc.h" 1
 549 002a 82F31088 		MSR primask, r2
 550              	@ 0 "" 2
 551              		.thumb
 552              		.syntax unified
 553 002e 1868     		ldr	r0, [r3]
 554 0030 8268     		ldr	r2, [r0, #8]
 555 0032 A243     		bics	r2, r4
 556 0034 8260     		str	r2, [r0, #8]
 557              		.syntax divided
 558              	@ 481 "bsp_l0/mcu_drivers/cmsis/Core/Include/cmsis_gcc.h" 1
 559 0036 86F31088 		MSR primask, r6
 560              	@ 0 "" 2
 561              		.thumb
 562              		.syntax unified
 563              	.L49:
 564 003a 4024     		movs	r4, #64
 565 003c 1A68     		ldr	r2, [r3]
 566 003e 9268     		ldr	r2, [r2, #8]
 567 0040 2242     		tst	r2, r4
 568 0042 21D0     		beq	.L50
 569 0044 222D     		cmp	r5, #34
 570 0046 1FD1     		bne	.L50
 571              		.syntax divided
 572              	@ 453 "bsp_l0/mcu_drivers/cmsis/Core/Include/cmsis_gcc.h" 1
 573 0048 EFF31086 		MRS r6, primask
 574              	@ 0 "" 2
 575              		.thumb
 576              		.syntax unified
 577 004c 0122     		movs	r2, #1
 578              		.syntax divided
 579              	@ 481 "bsp_l0/mcu_drivers/cmsis/Core/Include/cmsis_gcc.h" 1
 580 004e 82F31088 		MSR primask, r2
 581              	@ 0 "" 2
 582              		.thumb
 583              		.syntax unified
 584 0052 1D68     		ldr	r5, [r3]
 585 0054 0E4F     		ldr	r7, .L58
 586 0056 2868     		ldr	r0, [r5]
 587 0058 3840     		ands	r0, r7
 588 005a 2860     		str	r0, [r5]
 589              		.syntax divided
ARM GAS  /tmp/cclRNoWa.s 			page 11


 590              	@ 481 "bsp_l0/mcu_drivers/cmsis/Core/Include/cmsis_gcc.h" 1
 591 005c 86F31088 		MSR primask, r6
 592              	@ 0 "" 2
 593              	@ 453 "bsp_l0/mcu_drivers/cmsis/Core/Include/cmsis_gcc.h" 1
 594 0060 EFF31086 		MRS r6, primask
 595              	@ 0 "" 2
 596              	@ 481 "bsp_l0/mcu_drivers/cmsis/Core/Include/cmsis_gcc.h" 1
 597 0064 82F31088 		MSR primask, r2
 598              	@ 0 "" 2
 599              		.thumb
 600              		.syntax unified
 601 0068 1D68     		ldr	r5, [r3]
 602 006a A868     		ldr	r0, [r5, #8]
 603 006c 9043     		bics	r0, r2
 604 006e A860     		str	r0, [r5, #8]
 605              		.syntax divided
 606              	@ 481 "bsp_l0/mcu_drivers/cmsis/Core/Include/cmsis_gcc.h" 1
 607 0070 86F31088 		MSR primask, r6
 608              	@ 0 "" 2
 609              	@ 453 "bsp_l0/mcu_drivers/cmsis/Core/Include/cmsis_gcc.h" 1
 610 0074 EFF31080 		MRS r0, primask
 611              	@ 0 "" 2
 612              	@ 481 "bsp_l0/mcu_drivers/cmsis/Core/Include/cmsis_gcc.h" 1
 613 0078 82F31088 		MSR primask, r2
 614              	@ 0 "" 2
 615              		.thumb
 616              		.syntax unified
 617 007c 1A68     		ldr	r2, [r3]
 618 007e 9368     		ldr	r3, [r2, #8]
 619 0080 A343     		bics	r3, r4
 620 0082 9360     		str	r3, [r2, #8]
 621              		.syntax divided
 622              	@ 481 "bsp_l0/mcu_drivers/cmsis/Core/Include/cmsis_gcc.h" 1
 623 0084 80F31088 		MSR primask, r0
 624              	@ 0 "" 2
 625              		.thumb
 626              		.syntax unified
 627              	.L50:
 628 0088 0020     		movs	r0, #0
 629 008a 0870     		strb	r0, [r1]
 630              	.L48:
 631              		@ sp needed
 632 008c F0BD     		pop	{r4, r5, r6, r7, pc}
 633              	.L59:
 634 008e C046     		.align	2
 635              	.L58:
 636 0090 FFFEFFFF 		.word	-257
 638              		.section	.text.HAL_UART_DMAResume,"ax",%progbits
 639              		.align	1
 640              		.global	HAL_UART_DMAResume
 641              		.syntax unified
 642              		.code	16
 643              		.thumb_func
 644              		.fpu softvfp
 646              	HAL_UART_DMAResume:
 647              		@ args = 0, pretend = 0, frame = 0
 648              		@ frame_needed = 0, uses_anonymous_args = 0
ARM GAS  /tmp/cclRNoWa.s 			page 12


 649 0000 0100     		movs	r1, r0
 650 0002 70B5     		push	{r4, r5, r6, lr}
 651 0004 7431     		adds	r1, r1, #116
 652 0006 0A78     		ldrb	r2, [r1]
 653 0008 0300     		movs	r3, r0
 654 000a 0220     		movs	r0, #2
 655 000c 012A     		cmp	r2, #1
 656 000e 38D0     		beq	.L61
 657 0010 0122     		movs	r2, #1
 658 0012 0A70     		strb	r2, [r1]
 659 0014 986F     		ldr	r0, [r3, #120]
 660 0016 2128     		cmp	r0, #33
 661 0018 0AD1     		bne	.L62
 662              		.syntax divided
 663              	@ 453 "bsp_l0/mcu_drivers/cmsis/Core/Include/cmsis_gcc.h" 1
 664 001a EFF31084 		MRS r4, primask
 665              	@ 0 "" 2
 666              	@ 481 "bsp_l0/mcu_drivers/cmsis/Core/Include/cmsis_gcc.h" 1
 667 001e 82F31088 		MSR primask, r2
 668              	@ 0 "" 2
 669              		.thumb
 670              		.syntax unified
 671 0022 1868     		ldr	r0, [r3]
 672 0024 7F32     		adds	r2, r2, #127
 673 0026 8568     		ldr	r5, [r0, #8]
 674 0028 2A43     		orrs	r2, r5
 675 002a 8260     		str	r2, [r0, #8]
 676              		.syntax divided
 677              	@ 481 "bsp_l0/mcu_drivers/cmsis/Core/Include/cmsis_gcc.h" 1
 678 002c 84F31088 		MSR primask, r4
 679              	@ 0 "" 2
 680              		.thumb
 681              		.syntax unified
 682              	.L62:
 683 0030 DA6F     		ldr	r2, [r3, #124]
 684 0032 222A     		cmp	r2, #34
 685 0034 23D1     		bne	.L63
 686 0036 0820     		movs	r0, #8
 687 0038 1A68     		ldr	r2, [r3]
 688 003a 1062     		str	r0, [r2, #32]
 689              		.syntax divided
 690              	@ 453 "bsp_l0/mcu_drivers/cmsis/Core/Include/cmsis_gcc.h" 1
 691 003c EFF31085 		MRS r5, primask
 692              	@ 0 "" 2
 693              		.thumb
 694              		.syntax unified
 695 0040 0122     		movs	r2, #1
 696              		.syntax divided
 697              	@ 481 "bsp_l0/mcu_drivers/cmsis/Core/Include/cmsis_gcc.h" 1
 698 0042 82F31088 		MSR primask, r2
 699              	@ 0 "" 2
 700              		.thumb
 701              		.syntax unified
 702 0046 1C68     		ldr	r4, [r3]
 703 0048 F830     		adds	r0, r0, #248
 704 004a 2668     		ldr	r6, [r4]
 705 004c 3043     		orrs	r0, r6
ARM GAS  /tmp/cclRNoWa.s 			page 13


 706 004e 2060     		str	r0, [r4]
 707              		.syntax divided
 708              	@ 481 "bsp_l0/mcu_drivers/cmsis/Core/Include/cmsis_gcc.h" 1
 709 0050 85F31088 		MSR primask, r5
 710              	@ 0 "" 2
 711              	@ 453 "bsp_l0/mcu_drivers/cmsis/Core/Include/cmsis_gcc.h" 1
 712 0054 EFF31085 		MRS r5, primask
 713              	@ 0 "" 2
 714              	@ 481 "bsp_l0/mcu_drivers/cmsis/Core/Include/cmsis_gcc.h" 1
 715 0058 82F31088 		MSR primask, r2
 716              	@ 0 "" 2
 717              		.thumb
 718              		.syntax unified
 719 005c 1C68     		ldr	r4, [r3]
 720 005e A068     		ldr	r0, [r4, #8]
 721 0060 1043     		orrs	r0, r2
 722 0062 A060     		str	r0, [r4, #8]
 723              		.syntax divided
 724              	@ 481 "bsp_l0/mcu_drivers/cmsis/Core/Include/cmsis_gcc.h" 1
 725 0064 85F31088 		MSR primask, r5
 726              	@ 0 "" 2
 727              	@ 453 "bsp_l0/mcu_drivers/cmsis/Core/Include/cmsis_gcc.h" 1
 728 0068 EFF31080 		MRS r0, primask
 729              	@ 0 "" 2
 730              	@ 481 "bsp_l0/mcu_drivers/cmsis/Core/Include/cmsis_gcc.h" 1
 731 006c 82F31088 		MSR primask, r2
 732              	@ 0 "" 2
 733              		.thumb
 734              		.syntax unified
 735 0070 1A68     		ldr	r2, [r3]
 736 0072 4023     		movs	r3, #64
 737 0074 9468     		ldr	r4, [r2, #8]
 738 0076 2343     		orrs	r3, r4
 739 0078 9360     		str	r3, [r2, #8]
 740              		.syntax divided
 741              	@ 481 "bsp_l0/mcu_drivers/cmsis/Core/Include/cmsis_gcc.h" 1
 742 007a 80F31088 		MSR primask, r0
 743              	@ 0 "" 2
 744              		.thumb
 745              		.syntax unified
 746              	.L63:
 747 007e 0020     		movs	r0, #0
 748 0080 0870     		strb	r0, [r1]
 749              	.L61:
 750              		@ sp needed
 751 0082 70BD     		pop	{r4, r5, r6, pc}
 753              		.section	.text.HAL_UART_DMAStop,"ax",%progbits
 754              		.align	1
 755              		.global	HAL_UART_DMAStop
 756              		.syntax unified
 757              		.code	16
 758              		.thumb_func
 759              		.fpu softvfp
 761              	HAL_UART_DMAStop:
 762              		@ args = 0, pretend = 0, frame = 0
 763              		@ frame_needed = 0, uses_anonymous_args = 0
 764 0000 8021     		movs	r1, #128
ARM GAS  /tmp/cclRNoWa.s 			page 14


 765 0002 0268     		ldr	r2, [r0]
 766 0004 70B5     		push	{r4, r5, r6, lr}
 767 0006 836F     		ldr	r3, [r0, #120]
 768 0008 C56F     		ldr	r5, [r0, #124]
 769 000a 9268     		ldr	r2, [r2, #8]
 770 000c 0400     		movs	r4, r0
 771 000e 0A42     		tst	r2, r1
 772 0010 2BD0     		beq	.L66
 773 0012 212B     		cmp	r3, #33
 774 0014 29D1     		bne	.L66
 775              		.syntax divided
 776              	@ 453 "bsp_l0/mcu_drivers/cmsis/Core/Include/cmsis_gcc.h" 1
 777 0016 EFF31080 		MRS r0, primask
 778              	@ 0 "" 2
 779              		.thumb
 780              		.syntax unified
 781 001a 203B     		subs	r3, r3, #32
 782              		.syntax divided
 783              	@ 481 "bsp_l0/mcu_drivers/cmsis/Core/Include/cmsis_gcc.h" 1
 784 001c 83F31088 		MSR primask, r3
 785              	@ 0 "" 2
 786              		.thumb
 787              		.syntax unified
 788 0020 2268     		ldr	r2, [r4]
 789 0022 9368     		ldr	r3, [r2, #8]
 790 0024 8B43     		bics	r3, r1
 791 0026 9360     		str	r3, [r2, #8]
 792              		.syntax divided
 793              	@ 481 "bsp_l0/mcu_drivers/cmsis/Core/Include/cmsis_gcc.h" 1
 794 0028 80F31088 		MSR primask, r0
 795              	@ 0 "" 2
 796              		.thumb
 797              		.syntax unified
 798 002c E06E     		ldr	r0, [r4, #108]
 799 002e 0028     		cmp	r0, #0
 800 0030 0DD0     		beq	.L67
 801 0032 FFF7FEFF 		bl	HAL_DMA_Abort
 802 0036 0028     		cmp	r0, #0
 803 0038 09D0     		beq	.L67
 804 003a E06E     		ldr	r0, [r4, #108]
 805 003c FFF7FEFF 		bl	HAL_DMA_GetError
 806 0040 2028     		cmp	r0, #32
 807 0042 04D1     		bne	.L67
 808              	.L88:
 809 0044 1023     		movs	r3, #16
 810 0046 0434     		adds	r4, r4, #4
 811 0048 E367     		str	r3, [r4, #124]
 812 004a 1D38     		subs	r0, r0, #29
 813              	.L68:
 814              		@ sp needed
 815 004c 70BD     		pop	{r4, r5, r6, pc}
 816              	.L67:
 817              		.syntax divided
 818              	@ 453 "bsp_l0/mcu_drivers/cmsis/Core/Include/cmsis_gcc.h" 1
 819 004e EFF31081 		MRS r1, primask
 820              	@ 0 "" 2
 821              		.thumb
ARM GAS  /tmp/cclRNoWa.s 			page 15


 822              		.syntax unified
 823 0052 0123     		movs	r3, #1
 824              		.syntax divided
 825              	@ 481 "bsp_l0/mcu_drivers/cmsis/Core/Include/cmsis_gcc.h" 1
 826 0054 83F31088 		MSR primask, r3
 827              	@ 0 "" 2
 828              		.thumb
 829              		.syntax unified
 830 0058 C020     		movs	r0, #192
 831 005a 2268     		ldr	r2, [r4]
 832 005c 1368     		ldr	r3, [r2]
 833 005e 8343     		bics	r3, r0
 834 0060 1360     		str	r3, [r2]
 835              		.syntax divided
 836              	@ 481 "bsp_l0/mcu_drivers/cmsis/Core/Include/cmsis_gcc.h" 1
 837 0062 81F31088 		MSR primask, r1
 838              	@ 0 "" 2
 839              		.thumb
 840              		.syntax unified
 841 0066 2023     		movs	r3, #32
 842 0068 A367     		str	r3, [r4, #120]
 843              	.L66:
 844 006a 4021     		movs	r1, #64
 845 006c 2368     		ldr	r3, [r4]
 846 006e 0020     		movs	r0, #0
 847 0070 9B68     		ldr	r3, [r3, #8]
 848 0072 0B42     		tst	r3, r1
 849 0074 EAD0     		beq	.L68
 850 0076 222D     		cmp	r5, #34
 851 0078 E8D1     		bne	.L68
 852              		.syntax divided
 853              	@ 453 "bsp_l0/mcu_drivers/cmsis/Core/Include/cmsis_gcc.h" 1
 854 007a EFF31080 		MRS r0, primask
 855              	@ 0 "" 2
 856              		.thumb
 857              		.syntax unified
 858 007e 0123     		movs	r3, #1
 859              		.syntax divided
 860              	@ 481 "bsp_l0/mcu_drivers/cmsis/Core/Include/cmsis_gcc.h" 1
 861 0080 83F31088 		MSR primask, r3
 862              	@ 0 "" 2
 863              		.thumb
 864              		.syntax unified
 865 0084 2268     		ldr	r2, [r4]
 866 0086 9368     		ldr	r3, [r2, #8]
 867 0088 8B43     		bics	r3, r1
 868 008a 9360     		str	r3, [r2, #8]
 869              		.syntax divided
 870              	@ 481 "bsp_l0/mcu_drivers/cmsis/Core/Include/cmsis_gcc.h" 1
 871 008c 80F31088 		MSR primask, r0
 872              	@ 0 "" 2
 873              		.thumb
 874              		.syntax unified
 875 0090 206F     		ldr	r0, [r4, #112]
 876 0092 0028     		cmp	r0, #0
 877 0094 08D0     		beq	.L69
 878 0096 FFF7FEFF 		bl	HAL_DMA_Abort
ARM GAS  /tmp/cclRNoWa.s 			page 16


 879 009a 0028     		cmp	r0, #0
 880 009c 04D0     		beq	.L69
 881 009e 206F     		ldr	r0, [r4, #112]
 882 00a0 FFF7FEFF 		bl	HAL_DMA_GetError
 883 00a4 2028     		cmp	r0, #32
 884 00a6 CDD0     		beq	.L88
 885              	.L69:
 886 00a8 2000     		movs	r0, r4
 887 00aa FFF7FEFF 		bl	UART_EndRxTransfer
 888 00ae 0020     		movs	r0, #0
 889 00b0 CCE7     		b	.L68
 891              		.section	.text.HAL_UART_Abort,"ax",%progbits
 892              		.align	1
 893              		.global	HAL_UART_Abort
 894              		.syntax unified
 895              		.code	16
 896              		.thumb_func
 897              		.fpu softvfp
 899              	HAL_UART_Abort:
 900              		@ args = 0, pretend = 0, frame = 0
 901              		@ frame_needed = 0, uses_anonymous_args = 0
 902 0000 70B5     		push	{r4, r5, r6, lr}
 903 0002 0400     		movs	r4, r0
 904              		.syntax divided
 905              	@ 453 "bsp_l0/mcu_drivers/cmsis/Core/Include/cmsis_gcc.h" 1
 906 0004 EFF31080 		MRS r0, primask
 907              	@ 0 "" 2
 908              		.thumb
 909              		.syntax unified
 910 0008 0122     		movs	r2, #1
 911              		.syntax divided
 912              	@ 481 "bsp_l0/mcu_drivers/cmsis/Core/Include/cmsis_gcc.h" 1
 913 000a 82F31088 		MSR primask, r2
 914              	@ 0 "" 2
 915              		.thumb
 916              		.syntax unified
 917 000e 2168     		ldr	r1, [r4]
 918 0010 384D     		ldr	r5, .L113
 919 0012 0B68     		ldr	r3, [r1]
 920 0014 2B40     		ands	r3, r5
 921 0016 0B60     		str	r3, [r1]
 922              		.syntax divided
 923              	@ 481 "bsp_l0/mcu_drivers/cmsis/Core/Include/cmsis_gcc.h" 1
 924 0018 80F31088 		MSR primask, r0
 925              	@ 0 "" 2
 926              	@ 453 "bsp_l0/mcu_drivers/cmsis/Core/Include/cmsis_gcc.h" 1
 927 001c EFF31080 		MRS r0, primask
 928              	@ 0 "" 2
 929              	@ 481 "bsp_l0/mcu_drivers/cmsis/Core/Include/cmsis_gcc.h" 1
 930 0020 82F31088 		MSR primask, r2
 931              	@ 0 "" 2
 932              		.thumb
 933              		.syntax unified
 934 0024 2168     		ldr	r1, [r4]
 935 0026 8B68     		ldr	r3, [r1, #8]
 936 0028 9343     		bics	r3, r2
 937 002a 8B60     		str	r3, [r1, #8]
ARM GAS  /tmp/cclRNoWa.s 			page 17


 938              		.syntax divided
 939              	@ 481 "bsp_l0/mcu_drivers/cmsis/Core/Include/cmsis_gcc.h" 1
 940 002c 80F31088 		MSR primask, r0
 941              	@ 0 "" 2
 942              		.thumb
 943              		.syntax unified
 944 0030 236E     		ldr	r3, [r4, #96]
 945 0032 9342     		cmp	r3, r2
 946 0034 0AD1     		bne	.L90
 947              		.syntax divided
 948              	@ 453 "bsp_l0/mcu_drivers/cmsis/Core/Include/cmsis_gcc.h" 1
 949 0036 EFF31081 		MRS r1, primask
 950              	@ 0 "" 2
 951              	@ 481 "bsp_l0/mcu_drivers/cmsis/Core/Include/cmsis_gcc.h" 1
 952 003a 83F31088 		MSR primask, r3
 953              	@ 0 "" 2
 954              		.thumb
 955              		.syntax unified
 956 003e 1020     		movs	r0, #16
 957 0040 2268     		ldr	r2, [r4]
 958 0042 1368     		ldr	r3, [r2]
 959 0044 8343     		bics	r3, r0
 960 0046 1360     		str	r3, [r2]
 961              		.syntax divided
 962              	@ 481 "bsp_l0/mcu_drivers/cmsis/Core/Include/cmsis_gcc.h" 1
 963 0048 81F31088 		MSR primask, r1
 964              	@ 0 "" 2
 965              		.thumb
 966              		.syntax unified
 967              	.L90:
 968 004c 2500     		movs	r5, r4
 969 004e 8021     		movs	r1, #128
 970 0050 08CD     		ldmia	r5!, {r3}
 971 0052 9B68     		ldr	r3, [r3, #8]
 972 0054 0B42     		tst	r3, r1
 973 0056 1CD0     		beq	.L91
 974              		.syntax divided
 975              	@ 453 "bsp_l0/mcu_drivers/cmsis/Core/Include/cmsis_gcc.h" 1
 976 0058 EFF31080 		MRS r0, primask
 977              	@ 0 "" 2
 978              		.thumb
 979              		.syntax unified
 980 005c 0123     		movs	r3, #1
 981              		.syntax divided
 982              	@ 481 "bsp_l0/mcu_drivers/cmsis/Core/Include/cmsis_gcc.h" 1
 983 005e 83F31088 		MSR primask, r3
 984              	@ 0 "" 2
 985              		.thumb
 986              		.syntax unified
 987 0062 2268     		ldr	r2, [r4]
 988 0064 9368     		ldr	r3, [r2, #8]
 989 0066 8B43     		bics	r3, r1
 990 0068 9360     		str	r3, [r2, #8]
 991              		.syntax divided
 992              	@ 481 "bsp_l0/mcu_drivers/cmsis/Core/Include/cmsis_gcc.h" 1
 993 006a 80F31088 		MSR primask, r0
 994              	@ 0 "" 2
ARM GAS  /tmp/cclRNoWa.s 			page 18


 995              		.thumb
 996              		.syntax unified
 997 006e E06E     		ldr	r0, [r4, #108]
 998 0070 0028     		cmp	r0, #0
 999 0072 0ED0     		beq	.L91
 1000 0074 0023     		movs	r3, #0
 1001 0076 8363     		str	r3, [r0, #56]
 1002 0078 FFF7FEFF 		bl	HAL_DMA_Abort
 1003 007c 0028     		cmp	r0, #0
 1004 007e 08D0     		beq	.L91
 1005 0080 E06E     		ldr	r0, [r4, #108]
 1006 0082 FFF7FEFF 		bl	HAL_DMA_GetError
 1007 0086 2028     		cmp	r0, #32
 1008 0088 03D1     		bne	.L91
 1009              	.L112:
 1010 008a 1023     		movs	r3, #16
 1011 008c 1D38     		subs	r0, r0, #29
 1012 008e EB67     		str	r3, [r5, #124]
 1013              	.L92:
 1014              		@ sp needed
 1015 0090 70BD     		pop	{r4, r5, r6, pc}
 1016              	.L91:
 1017 0092 4021     		movs	r1, #64
 1018 0094 2368     		ldr	r3, [r4]
 1019 0096 9B68     		ldr	r3, [r3, #8]
 1020 0098 0B42     		tst	r3, r1
 1021 009a 18D0     		beq	.L93
 1022              		.syntax divided
 1023              	@ 453 "bsp_l0/mcu_drivers/cmsis/Core/Include/cmsis_gcc.h" 1
 1024 009c EFF31080 		MRS r0, primask
 1025              	@ 0 "" 2
 1026              		.thumb
 1027              		.syntax unified
 1028 00a0 0123     		movs	r3, #1
 1029              		.syntax divided
 1030              	@ 481 "bsp_l0/mcu_drivers/cmsis/Core/Include/cmsis_gcc.h" 1
 1031 00a2 83F31088 		MSR primask, r3
 1032              	@ 0 "" 2
 1033              		.thumb
 1034              		.syntax unified
 1035 00a6 2268     		ldr	r2, [r4]
 1036 00a8 9368     		ldr	r3, [r2, #8]
 1037 00aa 8B43     		bics	r3, r1
 1038 00ac 9360     		str	r3, [r2, #8]
 1039              		.syntax divided
 1040              	@ 481 "bsp_l0/mcu_drivers/cmsis/Core/Include/cmsis_gcc.h" 1
 1041 00ae 80F31088 		MSR primask, r0
 1042              	@ 0 "" 2
 1043              		.thumb
 1044              		.syntax unified
 1045 00b2 206F     		ldr	r0, [r4, #112]
 1046 00b4 0028     		cmp	r0, #0
 1047 00b6 0AD0     		beq	.L93
 1048 00b8 0023     		movs	r3, #0
 1049 00ba 8363     		str	r3, [r0, #56]
 1050 00bc FFF7FEFF 		bl	HAL_DMA_Abort
 1051 00c0 0028     		cmp	r0, #0
ARM GAS  /tmp/cclRNoWa.s 			page 19


 1052 00c2 04D0     		beq	.L93
 1053 00c4 206F     		ldr	r0, [r4, #112]
 1054 00c6 FFF7FEFF 		bl	HAL_DMA_GetError
 1055 00ca 2028     		cmp	r0, #32
 1056 00cc DDD0     		beq	.L112
 1057              	.L93:
 1058 00ce 2300     		movs	r3, r4
 1059 00d0 0020     		movs	r0, #0
 1060 00d2 0F22     		movs	r2, #15
 1061 00d4 5233     		adds	r3, r3, #82
 1062 00d6 1880     		strh	r0, [r3]
 1063 00d8 1881     		strh	r0, [r3, #8]
 1064 00da 2368     		ldr	r3, [r4]
 1065 00dc 1A62     		str	r2, [r3, #32]
 1066 00de 9969     		ldr	r1, [r3, #24]
 1067 00e0 073A     		subs	r2, r2, #7
 1068 00e2 0A43     		orrs	r2, r1
 1069 00e4 9A61     		str	r2, [r3, #24]
 1070 00e6 2023     		movs	r3, #32
 1071 00e8 A367     		str	r3, [r4, #120]
 1072 00ea E367     		str	r3, [r4, #124]
 1073 00ec 2066     		str	r0, [r4, #96]
 1074 00ee E867     		str	r0, [r5, #124]
 1075 00f0 CEE7     		b	.L92
 1076              	.L114:
 1077 00f2 C046     		.align	2
 1078              	.L113:
 1079 00f4 1FFEFFFF 		.word	-481
 1081              		.section	.text.HAL_UART_AbortTransmit,"ax",%progbits
 1082              		.align	1
 1083              		.global	HAL_UART_AbortTransmit
 1084              		.syntax unified
 1085              		.code	16
 1086              		.thumb_func
 1087              		.fpu softvfp
 1089              	HAL_UART_AbortTransmit:
 1090              		@ args = 0, pretend = 0, frame = 0
 1091              		@ frame_needed = 0, uses_anonymous_args = 0
 1092 0000 70B5     		push	{r4, r5, r6, lr}
 1093 0002 0400     		movs	r4, r0
 1094              		.syntax divided
 1095              	@ 453 "bsp_l0/mcu_drivers/cmsis/Core/Include/cmsis_gcc.h" 1
 1096 0004 EFF31080 		MRS r0, primask
 1097              	@ 0 "" 2
 1098              		.thumb
 1099              		.syntax unified
 1100 0008 0122     		movs	r2, #1
 1101              		.syntax divided
 1102              	@ 481 "bsp_l0/mcu_drivers/cmsis/Core/Include/cmsis_gcc.h" 1
 1103 000a 82F31088 		MSR primask, r2
 1104              	@ 0 "" 2
 1105              		.thumb
 1106              		.syntax unified
 1107 000e C025     		movs	r5, #192
 1108 0010 2168     		ldr	r1, [r4]
 1109 0012 0B68     		ldr	r3, [r1]
 1110 0014 AB43     		bics	r3, r5
ARM GAS  /tmp/cclRNoWa.s 			page 20


 1111 0016 0B60     		str	r3, [r1]
 1112              		.syntax divided
 1113              	@ 481 "bsp_l0/mcu_drivers/cmsis/Core/Include/cmsis_gcc.h" 1
 1114 0018 80F31088 		MSR primask, r0
 1115              	@ 0 "" 2
 1116              		.thumb
 1117              		.syntax unified
 1118 001c 8021     		movs	r1, #128
 1119 001e 2368     		ldr	r3, [r4]
 1120 0020 9B68     		ldr	r3, [r3, #8]
 1121 0022 0B42     		tst	r3, r1
 1122 0024 1CD0     		beq	.L116
 1123              		.syntax divided
 1124              	@ 453 "bsp_l0/mcu_drivers/cmsis/Core/Include/cmsis_gcc.h" 1
 1125 0026 EFF31080 		MRS r0, primask
 1126              	@ 0 "" 2
 1127              	@ 481 "bsp_l0/mcu_drivers/cmsis/Core/Include/cmsis_gcc.h" 1
 1128 002a 82F31088 		MSR primask, r2
 1129              	@ 0 "" 2
 1130              		.thumb
 1131              		.syntax unified
 1132 002e 2268     		ldr	r2, [r4]
 1133 0030 9368     		ldr	r3, [r2, #8]
 1134 0032 8B43     		bics	r3, r1
 1135 0034 9360     		str	r3, [r2, #8]
 1136              		.syntax divided
 1137              	@ 481 "bsp_l0/mcu_drivers/cmsis/Core/Include/cmsis_gcc.h" 1
 1138 0036 80F31088 		MSR primask, r0
 1139              	@ 0 "" 2
 1140              		.thumb
 1141              		.syntax unified
 1142 003a E06E     		ldr	r0, [r4, #108]
 1143 003c 0028     		cmp	r0, #0
 1144 003e 0FD0     		beq	.L116
 1145 0040 0023     		movs	r3, #0
 1146 0042 8363     		str	r3, [r0, #56]
 1147 0044 FFF7FEFF 		bl	HAL_DMA_Abort
 1148 0048 0028     		cmp	r0, #0
 1149 004a 09D0     		beq	.L116
 1150 004c E06E     		ldr	r0, [r4, #108]
 1151 004e FFF7FEFF 		bl	HAL_DMA_GetError
 1152 0052 2028     		cmp	r0, #32
 1153 0054 04D1     		bne	.L116
 1154 0056 1023     		movs	r3, #16
 1155 0058 0434     		adds	r4, r4, #4
 1156 005a E367     		str	r3, [r4, #124]
 1157 005c 1D38     		subs	r0, r0, #29
 1158              	.L117:
 1159              		@ sp needed
 1160 005e 70BD     		pop	{r4, r5, r6, pc}
 1161              	.L116:
 1162 0060 2300     		movs	r3, r4
 1163 0062 0020     		movs	r0, #0
 1164 0064 5233     		adds	r3, r3, #82
 1165 0066 1880     		strh	r0, [r3]
 1166 0068 2023     		movs	r3, #32
 1167 006a A367     		str	r3, [r4, #120]
ARM GAS  /tmp/cclRNoWa.s 			page 21


 1168 006c F7E7     		b	.L117
 1170              		.section	.text.HAL_UART_AbortReceive,"ax",%progbits
 1171              		.align	1
 1172              		.global	HAL_UART_AbortReceive
 1173              		.syntax unified
 1174              		.code	16
 1175              		.thumb_func
 1176              		.fpu softvfp
 1178              	HAL_UART_AbortReceive:
 1179              		@ args = 0, pretend = 0, frame = 0
 1180              		@ frame_needed = 0, uses_anonymous_args = 0
 1181 0000 70B5     		push	{r4, r5, r6, lr}
 1182 0002 0400     		movs	r4, r0
 1183              		.syntax divided
 1184              	@ 453 "bsp_l0/mcu_drivers/cmsis/Core/Include/cmsis_gcc.h" 1
 1185 0004 EFF31080 		MRS r0, primask
 1186              	@ 0 "" 2
 1187              		.thumb
 1188              		.syntax unified
 1189 0008 0122     		movs	r2, #1
 1190              		.syntax divided
 1191              	@ 481 "bsp_l0/mcu_drivers/cmsis/Core/Include/cmsis_gcc.h" 1
 1192 000a 82F31088 		MSR primask, r2
 1193              	@ 0 "" 2
 1194              		.thumb
 1195              		.syntax unified
 1196 000e 2168     		ldr	r1, [r4]
 1197 0010 274D     		ldr	r5, .L140
 1198 0012 0B68     		ldr	r3, [r1]
 1199 0014 2B40     		ands	r3, r5
 1200 0016 0B60     		str	r3, [r1]
 1201              		.syntax divided
 1202              	@ 481 "bsp_l0/mcu_drivers/cmsis/Core/Include/cmsis_gcc.h" 1
 1203 0018 80F31088 		MSR primask, r0
 1204              	@ 0 "" 2
 1205              	@ 453 "bsp_l0/mcu_drivers/cmsis/Core/Include/cmsis_gcc.h" 1
 1206 001c EFF31080 		MRS r0, primask
 1207              	@ 0 "" 2
 1208              	@ 481 "bsp_l0/mcu_drivers/cmsis/Core/Include/cmsis_gcc.h" 1
 1209 0020 82F31088 		MSR primask, r2
 1210              	@ 0 "" 2
 1211              		.thumb
 1212              		.syntax unified
 1213 0024 2168     		ldr	r1, [r4]
 1214 0026 8B68     		ldr	r3, [r1, #8]
 1215 0028 9343     		bics	r3, r2
 1216 002a 8B60     		str	r3, [r1, #8]
 1217              		.syntax divided
 1218              	@ 481 "bsp_l0/mcu_drivers/cmsis/Core/Include/cmsis_gcc.h" 1
 1219 002c 80F31088 		MSR primask, r0
 1220              	@ 0 "" 2
 1221              		.thumb
 1222              		.syntax unified
 1223 0030 236E     		ldr	r3, [r4, #96]
 1224 0032 9342     		cmp	r3, r2
 1225 0034 0AD1     		bne	.L128
 1226              		.syntax divided
ARM GAS  /tmp/cclRNoWa.s 			page 22


 1227              	@ 453 "bsp_l0/mcu_drivers/cmsis/Core/Include/cmsis_gcc.h" 1
 1228 0036 EFF31081 		MRS r1, primask
 1229              	@ 0 "" 2
 1230              	@ 481 "bsp_l0/mcu_drivers/cmsis/Core/Include/cmsis_gcc.h" 1
 1231 003a 83F31088 		MSR primask, r3
 1232              	@ 0 "" 2
 1233              		.thumb
 1234              		.syntax unified
 1235 003e 1020     		movs	r0, #16
 1236 0040 2268     		ldr	r2, [r4]
 1237 0042 1368     		ldr	r3, [r2]
 1238 0044 8343     		bics	r3, r0
 1239 0046 1360     		str	r3, [r2]
 1240              		.syntax divided
 1241              	@ 481 "bsp_l0/mcu_drivers/cmsis/Core/Include/cmsis_gcc.h" 1
 1242 0048 81F31088 		MSR primask, r1
 1243              	@ 0 "" 2
 1244              		.thumb
 1245              		.syntax unified
 1246              	.L128:
 1247 004c 4021     		movs	r1, #64
 1248 004e 2368     		ldr	r3, [r4]
 1249 0050 9B68     		ldr	r3, [r3, #8]
 1250 0052 0B42     		tst	r3, r1
 1251 0054 1DD0     		beq	.L129
 1252              		.syntax divided
 1253              	@ 453 "bsp_l0/mcu_drivers/cmsis/Core/Include/cmsis_gcc.h" 1
 1254 0056 EFF31080 		MRS r0, primask
 1255              	@ 0 "" 2
 1256              		.thumb
 1257              		.syntax unified
 1258 005a 0123     		movs	r3, #1
 1259              		.syntax divided
 1260              	@ 481 "bsp_l0/mcu_drivers/cmsis/Core/Include/cmsis_gcc.h" 1
 1261 005c 83F31088 		MSR primask, r3
 1262              	@ 0 "" 2
 1263              		.thumb
 1264              		.syntax unified
 1265 0060 2268     		ldr	r2, [r4]
 1266 0062 9368     		ldr	r3, [r2, #8]
 1267 0064 8B43     		bics	r3, r1
 1268 0066 9360     		str	r3, [r2, #8]
 1269              		.syntax divided
 1270              	@ 481 "bsp_l0/mcu_drivers/cmsis/Core/Include/cmsis_gcc.h" 1
 1271 0068 80F31088 		MSR primask, r0
 1272              	@ 0 "" 2
 1273              		.thumb
 1274              		.syntax unified
 1275 006c 206F     		ldr	r0, [r4, #112]
 1276 006e 0028     		cmp	r0, #0
 1277 0070 0FD0     		beq	.L129
 1278 0072 0023     		movs	r3, #0
 1279 0074 8363     		str	r3, [r0, #56]
 1280 0076 FFF7FEFF 		bl	HAL_DMA_Abort
 1281 007a 0028     		cmp	r0, #0
 1282 007c 09D0     		beq	.L129
 1283 007e 206F     		ldr	r0, [r4, #112]
ARM GAS  /tmp/cclRNoWa.s 			page 23


 1284 0080 FFF7FEFF 		bl	HAL_DMA_GetError
 1285 0084 2028     		cmp	r0, #32
 1286 0086 04D1     		bne	.L129
 1287 0088 1023     		movs	r3, #16
 1288 008a 0434     		adds	r4, r4, #4
 1289 008c E367     		str	r3, [r4, #124]
 1290 008e 1D38     		subs	r0, r0, #29
 1291              	.L130:
 1292              		@ sp needed
 1293 0090 70BD     		pop	{r4, r5, r6, pc}
 1294              	.L129:
 1295 0092 2300     		movs	r3, r4
 1296 0094 0020     		movs	r0, #0
 1297 0096 0F22     		movs	r2, #15
 1298 0098 5A33     		adds	r3, r3, #90
 1299 009a 1880     		strh	r0, [r3]
 1300 009c 2368     		ldr	r3, [r4]
 1301 009e 1A62     		str	r2, [r3, #32]
 1302 00a0 9969     		ldr	r1, [r3, #24]
 1303 00a2 073A     		subs	r2, r2, #7
 1304 00a4 0A43     		orrs	r2, r1
 1305 00a6 9A61     		str	r2, [r3, #24]
 1306 00a8 2023     		movs	r3, #32
 1307 00aa E367     		str	r3, [r4, #124]
 1308 00ac 2066     		str	r0, [r4, #96]
 1309 00ae EFE7     		b	.L130
 1310              	.L141:
 1311              		.align	2
 1312              	.L140:
 1313 00b0 DFFEFFFF 		.word	-289
 1315              		.section	.text.HAL_UART_TxCpltCallback,"ax",%progbits
 1316              		.align	1
 1317              		.weak	HAL_UART_TxCpltCallback
 1318              		.syntax unified
 1319              		.code	16
 1320              		.thumb_func
 1321              		.fpu softvfp
 1323              	HAL_UART_TxCpltCallback:
 1324              		@ args = 0, pretend = 0, frame = 0
 1325              		@ frame_needed = 0, uses_anonymous_args = 0
 1326              		@ link register save eliminated.
 1327              		@ sp needed
 1328 0000 7047     		bx	lr
 1330              		.section	.text.UART_DMATransmitCplt,"ax",%progbits
 1331              		.align	1
 1332              		.syntax unified
 1333              		.code	16
 1334              		.thumb_func
 1335              		.fpu softvfp
 1337              	UART_DMATransmitCplt:
 1338              		@ args = 0, pretend = 0, frame = 0
 1339              		@ frame_needed = 0, uses_anonymous_args = 0
 1340 0000 0300     		movs	r3, r0
 1341 0002 1B68     		ldr	r3, [r3]
 1342 0004 70B5     		push	{r4, r5, r6, lr}
 1343 0006 1A68     		ldr	r2, [r3]
 1344 0008 2023     		movs	r3, #32
ARM GAS  /tmp/cclRNoWa.s 			page 24


 1345 000a 1100     		movs	r1, r2
 1346 000c 806A     		ldr	r0, [r0, #40]
 1347 000e 1940     		ands	r1, r3
 1348 0010 1A42     		tst	r2, r3
 1349 0012 1AD1     		bne	.L144
 1350 0014 0300     		movs	r3, r0
 1351 0016 5233     		adds	r3, r3, #82
 1352 0018 1980     		strh	r1, [r3]
 1353              		.syntax divided
 1354              	@ 453 "bsp_l0/mcu_drivers/cmsis/Core/Include/cmsis_gcc.h" 1
 1355 001a EFF31084 		MRS r4, primask
 1356              	@ 0 "" 2
 1357              		.thumb
 1358              		.syntax unified
 1359 001e 0122     		movs	r2, #1
 1360              		.syntax divided
 1361              	@ 481 "bsp_l0/mcu_drivers/cmsis/Core/Include/cmsis_gcc.h" 1
 1362 0020 82F31088 		MSR primask, r2
 1363              	@ 0 "" 2
 1364              		.thumb
 1365              		.syntax unified
 1366 0024 8025     		movs	r5, #128
 1367 0026 0168     		ldr	r1, [r0]
 1368 0028 8B68     		ldr	r3, [r1, #8]
 1369 002a AB43     		bics	r3, r5
 1370 002c 8B60     		str	r3, [r1, #8]
 1371              		.syntax divided
 1372              	@ 481 "bsp_l0/mcu_drivers/cmsis/Core/Include/cmsis_gcc.h" 1
 1373 002e 84F31088 		MSR primask, r4
 1374              	@ 0 "" 2
 1375              	@ 453 "bsp_l0/mcu_drivers/cmsis/Core/Include/cmsis_gcc.h" 1
 1376 0032 EFF31081 		MRS r1, primask
 1377              	@ 0 "" 2
 1378              	@ 481 "bsp_l0/mcu_drivers/cmsis/Core/Include/cmsis_gcc.h" 1
 1379 0036 82F31088 		MSR primask, r2
 1380              	@ 0 "" 2
 1381              		.thumb
 1382              		.syntax unified
 1383 003a 4023     		movs	r3, #64
 1384 003c 0268     		ldr	r2, [r0]
 1385 003e 1068     		ldr	r0, [r2]
 1386 0040 0343     		orrs	r3, r0
 1387 0042 1360     		str	r3, [r2]
 1388              		.syntax divided
 1389              	@ 481 "bsp_l0/mcu_drivers/cmsis/Core/Include/cmsis_gcc.h" 1
 1390 0044 81F31088 		MSR primask, r1
 1391              	@ 0 "" 2
 1392              		.thumb
 1393              		.syntax unified
 1394              	.L143:
 1395              		@ sp needed
 1396 0048 70BD     		pop	{r4, r5, r6, pc}
 1397              	.L144:
 1398 004a FFF7FEFF 		bl	HAL_UART_TxCpltCallback
 1399 004e FBE7     		b	.L143
 1401              		.section	.text.HAL_UART_TxHalfCpltCallback,"ax",%progbits
 1402              		.align	1
ARM GAS  /tmp/cclRNoWa.s 			page 25


 1403              		.weak	HAL_UART_TxHalfCpltCallback
 1404              		.syntax unified
 1405              		.code	16
 1406              		.thumb_func
 1407              		.fpu softvfp
 1409              	HAL_UART_TxHalfCpltCallback:
 1410              		@ args = 0, pretend = 0, frame = 0
 1411              		@ frame_needed = 0, uses_anonymous_args = 0
 1412              		@ link register save eliminated.
 1413              		@ sp needed
 1414 0000 7047     		bx	lr
 1416              		.section	.text.UART_DMATxHalfCplt,"ax",%progbits
 1417              		.align	1
 1418              		.syntax unified
 1419              		.code	16
 1420              		.thumb_func
 1421              		.fpu softvfp
 1423              	UART_DMATxHalfCplt:
 1424              		@ args = 0, pretend = 0, frame = 0
 1425              		@ frame_needed = 0, uses_anonymous_args = 0
 1426 0000 10B5     		push	{r4, lr}
 1427 0002 806A     		ldr	r0, [r0, #40]
 1428 0004 FFF7FEFF 		bl	HAL_UART_TxHalfCpltCallback
 1429              		@ sp needed
 1430 0008 10BD     		pop	{r4, pc}
 1432              		.section	.text.HAL_UART_RxCpltCallback,"ax",%progbits
 1433              		.align	1
 1434              		.weak	HAL_UART_RxCpltCallback
 1435              		.syntax unified
 1436              		.code	16
 1437              		.thumb_func
 1438              		.fpu softvfp
 1440              	HAL_UART_RxCpltCallback:
 1441              		@ args = 0, pretend = 0, frame = 0
 1442              		@ frame_needed = 0, uses_anonymous_args = 0
 1443              		@ link register save eliminated.
 1444              		@ sp needed
 1445 0000 7047     		bx	lr
 1447              		.section	.text.HAL_UART_RxHalfCpltCallback,"ax",%progbits
 1448              		.align	1
 1449              		.weak	HAL_UART_RxHalfCpltCallback
 1450              		.syntax unified
 1451              		.code	16
 1452              		.thumb_func
 1453              		.fpu softvfp
 1455              	HAL_UART_RxHalfCpltCallback:
 1456              		@ args = 0, pretend = 0, frame = 0
 1457              		@ frame_needed = 0, uses_anonymous_args = 0
 1458              		@ link register save eliminated.
 1459              		@ sp needed
 1460 0000 7047     		bx	lr
 1462              		.section	.text.HAL_UART_ErrorCallback,"ax",%progbits
 1463              		.align	1
 1464              		.weak	HAL_UART_ErrorCallback
 1465              		.syntax unified
 1466              		.code	16
 1467              		.thumb_func
ARM GAS  /tmp/cclRNoWa.s 			page 26


 1468              		.fpu softvfp
 1470              	HAL_UART_ErrorCallback:
 1471              		@ args = 0, pretend = 0, frame = 0
 1472              		@ frame_needed = 0, uses_anonymous_args = 0
 1473              		@ link register save eliminated.
 1474              		@ sp needed
 1475 0000 7047     		bx	lr
 1477              		.section	.text.UART_DMAError,"ax",%progbits
 1478              		.align	1
 1479              		.syntax unified
 1480              		.code	16
 1481              		.thumb_func
 1482              		.fpu softvfp
 1484              	UART_DMAError:
 1485              		@ args = 0, pretend = 0, frame = 0
 1486              		@ frame_needed = 0, uses_anonymous_args = 0
 1487 0000 70B5     		push	{r4, r5, r6, lr}
 1488 0002 846A     		ldr	r4, [r0, #40]
 1489 0004 2268     		ldr	r2, [r4]
 1490 0006 A36F     		ldr	r3, [r4, #120]
 1491 0008 E16F     		ldr	r1, [r4, #124]
 1492 000a 9268     		ldr	r2, [r2, #8]
 1493 000c 1206     		lsls	r2, r2, #24
 1494 000e 13D5     		bpl	.L152
 1495 0010 212B     		cmp	r3, #33
 1496 0012 11D1     		bne	.L152
 1497 0014 2300     		movs	r3, r4
 1498 0016 0022     		movs	r2, #0
 1499 0018 5233     		adds	r3, r3, #82
 1500 001a 1A80     		strh	r2, [r3]
 1501              		.syntax divided
 1502              	@ 453 "bsp_l0/mcu_drivers/cmsis/Core/Include/cmsis_gcc.h" 1
 1503 001c EFF31080 		MRS r0, primask
 1504              	@ 0 "" 2
 1505              		.thumb
 1506              		.syntax unified
 1507 0020 0123     		movs	r3, #1
 1508              		.syntax divided
 1509              	@ 481 "bsp_l0/mcu_drivers/cmsis/Core/Include/cmsis_gcc.h" 1
 1510 0022 83F31088 		MSR primask, r3
 1511              	@ 0 "" 2
 1512              		.thumb
 1513              		.syntax unified
 1514 0026 C025     		movs	r5, #192
 1515 0028 2268     		ldr	r2, [r4]
 1516 002a 1368     		ldr	r3, [r2]
 1517 002c AB43     		bics	r3, r5
 1518 002e 1360     		str	r3, [r2]
 1519              		.syntax divided
 1520              	@ 481 "bsp_l0/mcu_drivers/cmsis/Core/Include/cmsis_gcc.h" 1
 1521 0030 80F31088 		MSR primask, r0
 1522              	@ 0 "" 2
 1523              		.thumb
 1524              		.syntax unified
 1525 0034 2023     		movs	r3, #32
 1526 0036 A367     		str	r3, [r4, #120]
 1527              	.L152:
ARM GAS  /tmp/cclRNoWa.s 			page 27


 1528 0038 2368     		ldr	r3, [r4]
 1529 003a 9B68     		ldr	r3, [r3, #8]
 1530 003c 5B06     		lsls	r3, r3, #25
 1531 003e 08D5     		bpl	.L153
 1532 0040 2229     		cmp	r1, #34
 1533 0042 06D1     		bne	.L153
 1534 0044 2300     		movs	r3, r4
 1535 0046 0022     		movs	r2, #0
 1536 0048 5A33     		adds	r3, r3, #90
 1537 004a 2000     		movs	r0, r4
 1538 004c 1A80     		strh	r2, [r3]
 1539 004e FFF7FEFF 		bl	UART_EndRxTransfer
 1540              	.L153:
 1541              		@ sp needed
 1542 0052 1023     		movs	r3, #16
 1543 0054 221D     		adds	r2, r4, #4
 1544 0056 D16F     		ldr	r1, [r2, #124]
 1545 0058 2000     		movs	r0, r4
 1546 005a 0B43     		orrs	r3, r1
 1547 005c D367     		str	r3, [r2, #124]
 1548 005e FFF7FEFF 		bl	HAL_UART_ErrorCallback
 1549 0062 70BD     		pop	{r4, r5, r6, pc}
 1551              		.section	.text.UART_DMAAbortOnError,"ax",%progbits
 1552              		.align	1
 1553              		.syntax unified
 1554              		.code	16
 1555              		.thumb_func
 1556              		.fpu softvfp
 1558              	UART_DMAAbortOnError:
 1559              		@ args = 0, pretend = 0, frame = 0
 1560              		@ frame_needed = 0, uses_anonymous_args = 0
 1561 0000 806A     		ldr	r0, [r0, #40]
 1562 0002 0023     		movs	r3, #0
 1563 0004 0200     		movs	r2, r0
 1564 0006 10B5     		push	{r4, lr}
 1565 0008 5A32     		adds	r2, r2, #90
 1566 000a 1380     		strh	r3, [r2]
 1567 000c 083A     		subs	r2, r2, #8
 1568 000e 1380     		strh	r3, [r2]
 1569 0010 FFF7FEFF 		bl	HAL_UART_ErrorCallback
 1570              		@ sp needed
 1571 0014 10BD     		pop	{r4, pc}
 1573              		.section	.text.HAL_UART_AbortCpltCallback,"ax",%progbits
 1574              		.align	1
 1575              		.weak	HAL_UART_AbortCpltCallback
 1576              		.syntax unified
 1577              		.code	16
 1578              		.thumb_func
 1579              		.fpu softvfp
 1581              	HAL_UART_AbortCpltCallback:
 1582              		@ args = 0, pretend = 0, frame = 0
 1583              		@ frame_needed = 0, uses_anonymous_args = 0
 1584              		@ link register save eliminated.
 1585              		@ sp needed
 1586 0000 7047     		bx	lr
 1588              		.section	.text.HAL_UART_Abort_IT,"ax",%progbits
 1589              		.align	1
ARM GAS  /tmp/cclRNoWa.s 			page 28


 1590              		.global	HAL_UART_Abort_IT
 1591              		.syntax unified
 1592              		.code	16
 1593              		.thumb_func
 1594              		.fpu softvfp
 1596              	HAL_UART_Abort_IT:
 1597              		@ args = 0, pretend = 0, frame = 0
 1598              		@ frame_needed = 0, uses_anonymous_args = 0
 1599 0000 70B5     		push	{r4, r5, r6, lr}
 1600 0002 0400     		movs	r4, r0
 1601              		.syntax divided
 1602              	@ 453 "bsp_l0/mcu_drivers/cmsis/Core/Include/cmsis_gcc.h" 1
 1603 0004 EFF31080 		MRS r0, primask
 1604              	@ 0 "" 2
 1605              		.thumb
 1606              		.syntax unified
 1607 0008 0122     		movs	r2, #1
 1608              		.syntax divided
 1609              	@ 481 "bsp_l0/mcu_drivers/cmsis/Core/Include/cmsis_gcc.h" 1
 1610 000a 82F31088 		MSR primask, r2
 1611              	@ 0 "" 2
 1612              		.thumb
 1613              		.syntax unified
 1614 000e 2168     		ldr	r1, [r4]
 1615 0010 454D     		ldr	r5, .L193
 1616 0012 0B68     		ldr	r3, [r1]
 1617 0014 2B40     		ands	r3, r5
 1618 0016 0B60     		str	r3, [r1]
 1619              		.syntax divided
 1620              	@ 481 "bsp_l0/mcu_drivers/cmsis/Core/Include/cmsis_gcc.h" 1
 1621 0018 80F31088 		MSR primask, r0
 1622              	@ 0 "" 2
 1623              	@ 453 "bsp_l0/mcu_drivers/cmsis/Core/Include/cmsis_gcc.h" 1
 1624 001c EFF31080 		MRS r0, primask
 1625              	@ 0 "" 2
 1626              	@ 481 "bsp_l0/mcu_drivers/cmsis/Core/Include/cmsis_gcc.h" 1
 1627 0020 82F31088 		MSR primask, r2
 1628              	@ 0 "" 2
 1629              		.thumb
 1630              		.syntax unified
 1631 0024 2168     		ldr	r1, [r4]
 1632 0026 8B68     		ldr	r3, [r1, #8]
 1633 0028 9343     		bics	r3, r2
 1634 002a 8B60     		str	r3, [r1, #8]
 1635              		.syntax divided
 1636              	@ 481 "bsp_l0/mcu_drivers/cmsis/Core/Include/cmsis_gcc.h" 1
 1637 002c 80F31088 		MSR primask, r0
 1638              	@ 0 "" 2
 1639              		.thumb
 1640              		.syntax unified
 1641 0030 236E     		ldr	r3, [r4, #96]
 1642 0032 9342     		cmp	r3, r2
 1643 0034 0AD1     		bne	.L163
 1644              		.syntax divided
 1645              	@ 453 "bsp_l0/mcu_drivers/cmsis/Core/Include/cmsis_gcc.h" 1
 1646 0036 EFF31081 		MRS r1, primask
 1647              	@ 0 "" 2
ARM GAS  /tmp/cclRNoWa.s 			page 29


 1648              	@ 481 "bsp_l0/mcu_drivers/cmsis/Core/Include/cmsis_gcc.h" 1
 1649 003a 83F31088 		MSR primask, r3
 1650              	@ 0 "" 2
 1651              		.thumb
 1652              		.syntax unified
 1653 003e 1020     		movs	r0, #16
 1654 0040 2268     		ldr	r2, [r4]
 1655 0042 1368     		ldr	r3, [r2]
 1656 0044 8343     		bics	r3, r0
 1657 0046 1360     		str	r3, [r2]
 1658              		.syntax divided
 1659              	@ 481 "bsp_l0/mcu_drivers/cmsis/Core/Include/cmsis_gcc.h" 1
 1660 0048 81F31088 		MSR primask, r1
 1661              	@ 0 "" 2
 1662              		.thumb
 1663              		.syntax unified
 1664              	.L163:
 1665 004c E26E     		ldr	r2, [r4, #108]
 1666 004e 2368     		ldr	r3, [r4]
 1667 0050 002A     		cmp	r2, #0
 1668 0052 07D0     		beq	.L164
 1669 0054 9868     		ldr	r0, [r3, #8]
 1670 0056 8021     		movs	r1, #128
 1671 0058 0500     		movs	r5, r0
 1672 005a 0D40     		ands	r5, r1
 1673 005c 0842     		tst	r0, r1
 1674 005e 43D0     		beq	.L165
 1675 0060 3249     		ldr	r1, .L193+4
 1676 0062 9163     		str	r1, [r2, #56]
 1677              	.L164:
 1678 0064 226F     		ldr	r2, [r4, #112]
 1679 0066 002A     		cmp	r2, #0
 1680 0068 07D0     		beq	.L166
 1681 006a 9868     		ldr	r0, [r3, #8]
 1682 006c 4021     		movs	r1, #64
 1683 006e 0500     		movs	r5, r0
 1684 0070 0D40     		ands	r5, r1
 1685 0072 0842     		tst	r0, r1
 1686 0074 3AD0     		beq	.L167
 1687 0076 2E49     		ldr	r1, .L193+8
 1688 0078 9163     		str	r1, [r2, #56]
 1689              	.L166:
 1690 007a 8021     		movs	r1, #128
 1691 007c 9B68     		ldr	r3, [r3, #8]
 1692 007e 0B42     		tst	r3, r1
 1693 0080 36D1     		bne	.L168
 1694              	.L170:
 1695 0082 0123     		movs	r3, #1
 1696              	.L169:
 1697 0084 4020     		movs	r0, #64
 1698 0086 2268     		ldr	r2, [r4]
 1699 0088 9268     		ldr	r2, [r2, #8]
 1700 008a 0242     		tst	r2, r0
 1701 008c 47D0     		beq	.L171
 1702              		.syntax divided
 1703              	@ 453 "bsp_l0/mcu_drivers/cmsis/Core/Include/cmsis_gcc.h" 1
 1704 008e EFF31085 		MRS r5, primask
ARM GAS  /tmp/cclRNoWa.s 			page 30


 1705              	@ 0 "" 2
 1706              		.thumb
 1707              		.syntax unified
 1708 0092 0122     		movs	r2, #1
 1709              		.syntax divided
 1710              	@ 481 "bsp_l0/mcu_drivers/cmsis/Core/Include/cmsis_gcc.h" 1
 1711 0094 82F31088 		MSR primask, r2
 1712              	@ 0 "" 2
 1713              		.thumb
 1714              		.syntax unified
 1715 0098 2168     		ldr	r1, [r4]
 1716 009a 8A68     		ldr	r2, [r1, #8]
 1717 009c 8243     		bics	r2, r0
 1718 009e 8A60     		str	r2, [r1, #8]
 1719              		.syntax divided
 1720              	@ 481 "bsp_l0/mcu_drivers/cmsis/Core/Include/cmsis_gcc.h" 1
 1721 00a0 85F31088 		MSR primask, r5
 1722              	@ 0 "" 2
 1723              		.thumb
 1724              		.syntax unified
 1725 00a4 206F     		ldr	r0, [r4, #112]
 1726 00a6 0028     		cmp	r0, #0
 1727 00a8 39D0     		beq	.L171
 1728 00aa FFF7FEFF 		bl	HAL_DMA_Abort_IT
 1729 00ae 0028     		cmp	r0, #0
 1730 00b0 37D0     		beq	.L173
 1731 00b2 0022     		movs	r2, #0
 1732 00b4 236F     		ldr	r3, [r4, #112]
 1733 00b6 9A63     		str	r2, [r3, #56]
 1734              	.L174:
 1735 00b8 2200     		movs	r2, r4
 1736 00ba 0023     		movs	r3, #0
 1737 00bc 0F21     		movs	r1, #15
 1738 00be 5232     		adds	r2, r2, #82
 1739 00c0 1380     		strh	r3, [r2]
 1740 00c2 1381     		strh	r3, [r2, #8]
 1741 00c4 221D     		adds	r2, r4, #4
 1742 00c6 6366     		str	r3, [r4, #100]
 1743 00c8 A366     		str	r3, [r4, #104]
 1744 00ca D367     		str	r3, [r2, #124]
 1745 00cc 2268     		ldr	r2, [r4]
 1746 00ce 1162     		str	r1, [r2, #32]
 1747 00d0 9069     		ldr	r0, [r2, #24]
 1748 00d2 0739     		subs	r1, r1, #7
 1749 00d4 0143     		orrs	r1, r0
 1750 00d6 9161     		str	r1, [r2, #24]
 1751 00d8 2022     		movs	r2, #32
 1752 00da 2000     		movs	r0, r4
 1753 00dc A267     		str	r2, [r4, #120]
 1754 00de E267     		str	r2, [r4, #124]
 1755 00e0 2366     		str	r3, [r4, #96]
 1756 00e2 FFF7FEFF 		bl	HAL_UART_AbortCpltCallback
 1757 00e6 1CE0     		b	.L173
 1758              	.L165:
 1759 00e8 9563     		str	r5, [r2, #56]
 1760 00ea BBE7     		b	.L164
 1761              	.L167:
ARM GAS  /tmp/cclRNoWa.s 			page 31


 1762 00ec 9563     		str	r5, [r2, #56]
 1763 00ee C4E7     		b	.L166
 1764              	.L168:
 1765              		.syntax divided
 1766              	@ 453 "bsp_l0/mcu_drivers/cmsis/Core/Include/cmsis_gcc.h" 1
 1767 00f0 EFF31080 		MRS r0, primask
 1768              	@ 0 "" 2
 1769              		.thumb
 1770              		.syntax unified
 1771 00f4 0125     		movs	r5, #1
 1772              		.syntax divided
 1773              	@ 481 "bsp_l0/mcu_drivers/cmsis/Core/Include/cmsis_gcc.h" 1
 1774 00f6 85F31088 		MSR primask, r5
 1775              	@ 0 "" 2
 1776              		.thumb
 1777              		.syntax unified
 1778 00fa 2268     		ldr	r2, [r4]
 1779 00fc 9368     		ldr	r3, [r2, #8]
 1780 00fe 8B43     		bics	r3, r1
 1781 0100 9360     		str	r3, [r2, #8]
 1782              		.syntax divided
 1783              	@ 481 "bsp_l0/mcu_drivers/cmsis/Core/Include/cmsis_gcc.h" 1
 1784 0102 80F31088 		MSR primask, r0
 1785              	@ 0 "" 2
 1786              		.thumb
 1787              		.syntax unified
 1788 0106 E06E     		ldr	r0, [r4, #108]
 1789 0108 0028     		cmp	r0, #0
 1790 010a BAD0     		beq	.L170
 1791 010c FFF7FEFF 		bl	HAL_DMA_Abort_IT
 1792 0110 0023     		movs	r3, #0
 1793 0112 9842     		cmp	r0, r3
 1794 0114 B6D0     		beq	.L169
 1795 0116 E26E     		ldr	r2, [r4, #108]
 1796 0118 9363     		str	r3, [r2, #56]
 1797 011a 2B00     		movs	r3, r5
 1798 011c B2E7     		b	.L169
 1799              	.L171:
 1800 011e 012B     		cmp	r3, #1
 1801 0120 CAD0     		beq	.L174
 1802              	.L173:
 1803              		@ sp needed
 1804 0122 0020     		movs	r0, #0
 1805 0124 70BD     		pop	{r4, r5, r6, pc}
 1806              	.L194:
 1807 0126 C046     		.align	2
 1808              	.L193:
 1809 0128 1FFEFFFF 		.word	-481
 1810 012c 00000000 		.word	UART_DMATxAbortCallback
 1811 0130 00000000 		.word	UART_DMARxAbortCallback
 1813              		.section	.text.UART_DMARxAbortCallback,"ax",%progbits
 1814              		.align	1
 1815              		.syntax unified
 1816              		.code	16
 1817              		.thumb_func
 1818              		.fpu softvfp
 1820              	UART_DMARxAbortCallback:
ARM GAS  /tmp/cclRNoWa.s 			page 32


 1821              		@ args = 0, pretend = 0, frame = 0
 1822              		@ frame_needed = 0, uses_anonymous_args = 0
 1823 0000 0023     		movs	r3, #0
 1824 0002 806A     		ldr	r0, [r0, #40]
 1825 0004 10B5     		push	{r4, lr}
 1826 0006 026F     		ldr	r2, [r0, #112]
 1827 0008 9363     		str	r3, [r2, #56]
 1828 000a C26E     		ldr	r2, [r0, #108]
 1829 000c 9A42     		cmp	r2, r3
 1830 000e 02D0     		beq	.L196
 1831 0010 926B     		ldr	r2, [r2, #56]
 1832 0012 9A42     		cmp	r2, r3
 1833 0014 12D1     		bne	.L195
 1834              	.L196:
 1835 0016 0200     		movs	r2, r0
 1836 0018 0F21     		movs	r1, #15
 1837 001a 5232     		adds	r2, r2, #82
 1838 001c 1380     		strh	r3, [r2]
 1839 001e 1381     		strh	r3, [r2, #8]
 1840 0020 021D     		adds	r2, r0, #4
 1841 0022 D367     		str	r3, [r2, #124]
 1842 0024 0268     		ldr	r2, [r0]
 1843 0026 1162     		str	r1, [r2, #32]
 1844 0028 9469     		ldr	r4, [r2, #24]
 1845 002a 0739     		subs	r1, r1, #7
 1846 002c 2143     		orrs	r1, r4
 1847 002e 9161     		str	r1, [r2, #24]
 1848 0030 2022     		movs	r2, #32
 1849 0032 8267     		str	r2, [r0, #120]
 1850 0034 C267     		str	r2, [r0, #124]
 1851 0036 0366     		str	r3, [r0, #96]
 1852 0038 FFF7FEFF 		bl	HAL_UART_AbortCpltCallback
 1853              	.L195:
 1854              		@ sp needed
 1855 003c 10BD     		pop	{r4, pc}
 1857              		.section	.text.UART_DMATxAbortCallback,"ax",%progbits
 1858              		.align	1
 1859              		.syntax unified
 1860              		.code	16
 1861              		.thumb_func
 1862              		.fpu softvfp
 1864              	UART_DMATxAbortCallback:
 1865              		@ args = 0, pretend = 0, frame = 0
 1866              		@ frame_needed = 0, uses_anonymous_args = 0
 1867 0000 0023     		movs	r3, #0
 1868 0002 806A     		ldr	r0, [r0, #40]
 1869 0004 10B5     		push	{r4, lr}
 1870 0006 C26E     		ldr	r2, [r0, #108]
 1871 0008 9363     		str	r3, [r2, #56]
 1872 000a 026F     		ldr	r2, [r0, #112]
 1873 000c 9A42     		cmp	r2, r3
 1874 000e 02D0     		beq	.L202
 1875 0010 926B     		ldr	r2, [r2, #56]
 1876 0012 9A42     		cmp	r2, r3
 1877 0014 0ED1     		bne	.L201
 1878              	.L202:
 1879 0016 0200     		movs	r2, r0
ARM GAS  /tmp/cclRNoWa.s 			page 33


 1880 0018 0F21     		movs	r1, #15
 1881 001a 5232     		adds	r2, r2, #82
 1882 001c 1380     		strh	r3, [r2]
 1883 001e 1381     		strh	r3, [r2, #8]
 1884 0020 021D     		adds	r2, r0, #4
 1885 0022 D367     		str	r3, [r2, #124]
 1886 0024 0268     		ldr	r2, [r0]
 1887 0026 1162     		str	r1, [r2, #32]
 1888 0028 2022     		movs	r2, #32
 1889 002a 8267     		str	r2, [r0, #120]
 1890 002c C267     		str	r2, [r0, #124]
 1891 002e 0366     		str	r3, [r0, #96]
 1892 0030 FFF7FEFF 		bl	HAL_UART_AbortCpltCallback
 1893              	.L201:
 1894              		@ sp needed
 1895 0034 10BD     		pop	{r4, pc}
 1897              		.section	.text.HAL_UART_AbortTransmitCpltCallback,"ax",%progbits
 1898              		.align	1
 1899              		.weak	HAL_UART_AbortTransmitCpltCallback
 1900              		.syntax unified
 1901              		.code	16
 1902              		.thumb_func
 1903              		.fpu softvfp
 1905              	HAL_UART_AbortTransmitCpltCallback:
 1906              		@ args = 0, pretend = 0, frame = 0
 1907              		@ frame_needed = 0, uses_anonymous_args = 0
 1908              		@ link register save eliminated.
 1909              		@ sp needed
 1910 0000 7047     		bx	lr
 1912              		.section	.text.HAL_UART_AbortTransmit_IT,"ax",%progbits
 1913              		.align	1
 1914              		.global	HAL_UART_AbortTransmit_IT
 1915              		.syntax unified
 1916              		.code	16
 1917              		.thumb_func
 1918              		.fpu softvfp
 1920              	HAL_UART_AbortTransmit_IT:
 1921              		@ args = 0, pretend = 0, frame = 0
 1922              		@ frame_needed = 0, uses_anonymous_args = 0
 1923 0000 70B5     		push	{r4, r5, r6, lr}
 1924 0002 0400     		movs	r4, r0
 1925              		.syntax divided
 1926              	@ 453 "bsp_l0/mcu_drivers/cmsis/Core/Include/cmsis_gcc.h" 1
 1927 0004 EFF31080 		MRS r0, primask
 1928              	@ 0 "" 2
 1929              		.thumb
 1930              		.syntax unified
 1931 0008 0121     		movs	r1, #1
 1932              		.syntax divided
 1933              	@ 481 "bsp_l0/mcu_drivers/cmsis/Core/Include/cmsis_gcc.h" 1
 1934 000a 81F31088 		MSR primask, r1
 1935              	@ 0 "" 2
 1936              		.thumb
 1937              		.syntax unified
 1938 000e C025     		movs	r5, #192
 1939 0010 2268     		ldr	r2, [r4]
 1940 0012 1368     		ldr	r3, [r2]
ARM GAS  /tmp/cclRNoWa.s 			page 34


 1941 0014 AB43     		bics	r3, r5
 1942 0016 1360     		str	r3, [r2]
 1943              		.syntax divided
 1944              	@ 481 "bsp_l0/mcu_drivers/cmsis/Core/Include/cmsis_gcc.h" 1
 1945 0018 80F31088 		MSR primask, r0
 1946              	@ 0 "" 2
 1947              		.thumb
 1948              		.syntax unified
 1949 001c 2368     		ldr	r3, [r4]
 1950 001e 8022     		movs	r2, #128
 1951 0020 9868     		ldr	r0, [r3, #8]
 1952 0022 0300     		movs	r3, r0
 1953 0024 1340     		ands	r3, r2
 1954 0026 1042     		tst	r0, r2
 1955 0028 21D0     		beq	.L209
 1956              		.syntax divided
 1957              	@ 453 "bsp_l0/mcu_drivers/cmsis/Core/Include/cmsis_gcc.h" 1
 1958 002a EFF31080 		MRS r0, primask
 1959              	@ 0 "" 2
 1960              	@ 481 "bsp_l0/mcu_drivers/cmsis/Core/Include/cmsis_gcc.h" 1
 1961 002e 81F31088 		MSR primask, r1
 1962              	@ 0 "" 2
 1963              		.thumb
 1964              		.syntax unified
 1965 0032 2168     		ldr	r1, [r4]
 1966 0034 8B68     		ldr	r3, [r1, #8]
 1967 0036 9343     		bics	r3, r2
 1968 0038 8B60     		str	r3, [r1, #8]
 1969              		.syntax divided
 1970              	@ 481 "bsp_l0/mcu_drivers/cmsis/Core/Include/cmsis_gcc.h" 1
 1971 003a 80F31088 		MSR primask, r0
 1972              	@ 0 "" 2
 1973              		.thumb
 1974              		.syntax unified
 1975 003e E06E     		ldr	r0, [r4, #108]
 1976 0040 0028     		cmp	r0, #0
 1977 0042 0AD0     		beq	.L210
 1978 0044 0C4B     		ldr	r3, .L216
 1979 0046 8363     		str	r3, [r0, #56]
 1980 0048 FFF7FEFF 		bl	HAL_DMA_Abort_IT
 1981 004c 0028     		cmp	r0, #0
 1982 004e 02D0     		beq	.L211
 1983 0050 E06E     		ldr	r0, [r4, #108]
 1984 0052 836B     		ldr	r3, [r0, #56]
 1985 0054 9847     		blx	r3
 1986              	.L211:
 1987              		@ sp needed
 1988 0056 0020     		movs	r0, #0
 1989 0058 70BD     		pop	{r4, r5, r6, pc}
 1990              	.L210:
 1991 005a 2300     		movs	r3, r4
 1992 005c 5233     		adds	r3, r3, #82
 1993 005e 1880     		strh	r0, [r3]
 1994 0060 A066     		str	r0, [r4, #104]
 1995              	.L215:
 1996 0062 2023     		movs	r3, #32
 1997 0064 2000     		movs	r0, r4
ARM GAS  /tmp/cclRNoWa.s 			page 35


 1998 0066 A367     		str	r3, [r4, #120]
 1999 0068 FFF7FEFF 		bl	HAL_UART_AbortTransmitCpltCallback
 2000 006c F3E7     		b	.L211
 2001              	.L209:
 2002 006e 2200     		movs	r2, r4
 2003 0070 5232     		adds	r2, r2, #82
 2004 0072 1380     		strh	r3, [r2]
 2005 0074 A366     		str	r3, [r4, #104]
 2006 0076 F4E7     		b	.L215
 2007              	.L217:
 2008              		.align	2
 2009              	.L216:
 2010 0078 00000000 		.word	UART_DMATxOnlyAbortCallback
 2012              		.section	.text.UART_DMATxOnlyAbortCallback,"ax",%progbits
 2013              		.align	1
 2014              		.syntax unified
 2015              		.code	16
 2016              		.thumb_func
 2017              		.fpu softvfp
 2019              	UART_DMATxOnlyAbortCallback:
 2020              		@ args = 0, pretend = 0, frame = 0
 2021              		@ frame_needed = 0, uses_anonymous_args = 0
 2022 0000 806A     		ldr	r0, [r0, #40]
 2023 0002 0022     		movs	r2, #0
 2024 0004 0300     		movs	r3, r0
 2025 0006 5233     		adds	r3, r3, #82
 2026 0008 10B5     		push	{r4, lr}
 2027 000a 1A80     		strh	r2, [r3]
 2028 000c 2023     		movs	r3, #32
 2029              		@ sp needed
 2030 000e 8367     		str	r3, [r0, #120]
 2031 0010 FFF7FEFF 		bl	HAL_UART_AbortTransmitCpltCallback
 2032 0014 10BD     		pop	{r4, pc}
 2034              		.section	.text.HAL_UART_AbortReceiveCpltCallback,"ax",%progbits
 2035              		.align	1
 2036              		.weak	HAL_UART_AbortReceiveCpltCallback
 2037              		.syntax unified
 2038              		.code	16
 2039              		.thumb_func
 2040              		.fpu softvfp
 2042              	HAL_UART_AbortReceiveCpltCallback:
 2043              		@ args = 0, pretend = 0, frame = 0
 2044              		@ frame_needed = 0, uses_anonymous_args = 0
 2045              		@ link register save eliminated.
 2046              		@ sp needed
 2047 0000 7047     		bx	lr
 2049              		.section	.text.HAL_UART_AbortReceive_IT,"ax",%progbits
 2050              		.align	1
 2051              		.global	HAL_UART_AbortReceive_IT
 2052              		.syntax unified
 2053              		.code	16
 2054              		.thumb_func
 2055              		.fpu softvfp
 2057              	HAL_UART_AbortReceive_IT:
 2058              		@ args = 0, pretend = 0, frame = 0
 2059              		@ frame_needed = 0, uses_anonymous_args = 0
 2060 0000 70B5     		push	{r4, r5, r6, lr}
ARM GAS  /tmp/cclRNoWa.s 			page 36


 2061 0002 0400     		movs	r4, r0
 2062              		.syntax divided
 2063              	@ 453 "bsp_l0/mcu_drivers/cmsis/Core/Include/cmsis_gcc.h" 1
 2064 0004 EFF31080 		MRS r0, primask
 2065              	@ 0 "" 2
 2066              		.thumb
 2067              		.syntax unified
 2068 0008 0122     		movs	r2, #1
 2069              		.syntax divided
 2070              	@ 481 "bsp_l0/mcu_drivers/cmsis/Core/Include/cmsis_gcc.h" 1
 2071 000a 82F31088 		MSR primask, r2
 2072              	@ 0 "" 2
 2073              		.thumb
 2074              		.syntax unified
 2075 000e 2168     		ldr	r1, [r4]
 2076 0010 2C4D     		ldr	r5, .L229
 2077 0012 0B68     		ldr	r3, [r1]
 2078 0014 2B40     		ands	r3, r5
 2079 0016 0B60     		str	r3, [r1]
 2080              		.syntax divided
 2081              	@ 481 "bsp_l0/mcu_drivers/cmsis/Core/Include/cmsis_gcc.h" 1
 2082 0018 80F31088 		MSR primask, r0
 2083              	@ 0 "" 2
 2084              	@ 453 "bsp_l0/mcu_drivers/cmsis/Core/Include/cmsis_gcc.h" 1
 2085 001c EFF31080 		MRS r0, primask
 2086              	@ 0 "" 2
 2087              	@ 481 "bsp_l0/mcu_drivers/cmsis/Core/Include/cmsis_gcc.h" 1
 2088 0020 82F31088 		MSR primask, r2
 2089              	@ 0 "" 2
 2090              		.thumb
 2091              		.syntax unified
 2092 0024 2168     		ldr	r1, [r4]
 2093 0026 8B68     		ldr	r3, [r1, #8]
 2094 0028 9343     		bics	r3, r2
 2095 002a 8B60     		str	r3, [r1, #8]
 2096              		.syntax divided
 2097              	@ 481 "bsp_l0/mcu_drivers/cmsis/Core/Include/cmsis_gcc.h" 1
 2098 002c 80F31088 		MSR primask, r0
 2099              	@ 0 "" 2
 2100              		.thumb
 2101              		.syntax unified
 2102 0030 236E     		ldr	r3, [r4, #96]
 2103 0032 9342     		cmp	r3, r2
 2104 0034 0AD1     		bne	.L221
 2105              		.syntax divided
 2106              	@ 453 "bsp_l0/mcu_drivers/cmsis/Core/Include/cmsis_gcc.h" 1
 2107 0036 EFF31081 		MRS r1, primask
 2108              	@ 0 "" 2
 2109              	@ 481 "bsp_l0/mcu_drivers/cmsis/Core/Include/cmsis_gcc.h" 1
 2110 003a 83F31088 		MSR primask, r3
 2111              	@ 0 "" 2
 2112              		.thumb
 2113              		.syntax unified
 2114 003e 1020     		movs	r0, #16
 2115 0040 2268     		ldr	r2, [r4]
 2116 0042 1368     		ldr	r3, [r2]
 2117 0044 8343     		bics	r3, r0
ARM GAS  /tmp/cclRNoWa.s 			page 37


 2118 0046 1360     		str	r3, [r2]
 2119              		.syntax divided
 2120              	@ 481 "bsp_l0/mcu_drivers/cmsis/Core/Include/cmsis_gcc.h" 1
 2121 0048 81F31088 		MSR primask, r1
 2122              	@ 0 "" 2
 2123              		.thumb
 2124              		.syntax unified
 2125              	.L221:
 2126 004c 2168     		ldr	r1, [r4]
 2127 004e 4022     		movs	r2, #64
 2128 0050 8868     		ldr	r0, [r1, #8]
 2129 0052 0300     		movs	r3, r0
 2130 0054 1340     		ands	r3, r2
 2131 0056 1042     		tst	r0, r2
 2132 0058 2AD0     		beq	.L222
 2133              		.syntax divided
 2134              	@ 453 "bsp_l0/mcu_drivers/cmsis/Core/Include/cmsis_gcc.h" 1
 2135 005a EFF31080 		MRS r0, primask
 2136              	@ 0 "" 2
 2137              		.thumb
 2138              		.syntax unified
 2139 005e 0123     		movs	r3, #1
 2140              		.syntax divided
 2141              	@ 481 "bsp_l0/mcu_drivers/cmsis/Core/Include/cmsis_gcc.h" 1
 2142 0060 83F31088 		MSR primask, r3
 2143              	@ 0 "" 2
 2144              		.thumb
 2145              		.syntax unified
 2146 0064 2168     		ldr	r1, [r4]
 2147 0066 8B68     		ldr	r3, [r1, #8]
 2148 0068 9343     		bics	r3, r2
 2149 006a 8B60     		str	r3, [r1, #8]
 2150              		.syntax divided
 2151              	@ 481 "bsp_l0/mcu_drivers/cmsis/Core/Include/cmsis_gcc.h" 1
 2152 006c 80F31088 		MSR primask, r0
 2153              	@ 0 "" 2
 2154              		.thumb
 2155              		.syntax unified
 2156 0070 206F     		ldr	r0, [r4, #112]
 2157 0072 0028     		cmp	r0, #0
 2158 0074 0AD0     		beq	.L223
 2159 0076 144B     		ldr	r3, .L229+4
 2160 0078 8363     		str	r3, [r0, #56]
 2161 007a FFF7FEFF 		bl	HAL_DMA_Abort_IT
 2162 007e 0028     		cmp	r0, #0
 2163 0080 02D0     		beq	.L224
 2164 0082 206F     		ldr	r0, [r4, #112]
 2165 0084 836B     		ldr	r3, [r0, #56]
 2166 0086 9847     		blx	r3
 2167              	.L224:
 2168              		@ sp needed
 2169 0088 0020     		movs	r0, #0
 2170 008a 70BD     		pop	{r4, r5, r6, pc}
 2171              	.L223:
 2172 008c 2300     		movs	r3, r4
 2173 008e 0F22     		movs	r2, #15
 2174 0090 5A33     		adds	r3, r3, #90
ARM GAS  /tmp/cclRNoWa.s 			page 38


 2175 0092 1880     		strh	r0, [r3]
 2176 0094 2368     		ldr	r3, [r4]
 2177 0096 6065     		str	r0, [r4, #84]
 2178 0098 1A62     		str	r2, [r3, #32]
 2179 009a 9969     		ldr	r1, [r3, #24]
 2180 009c 073A     		subs	r2, r2, #7
 2181 009e 0A43     		orrs	r2, r1
 2182 00a0 9A61     		str	r2, [r3, #24]
 2183 00a2 2023     		movs	r3, #32
 2184 00a4 E367     		str	r3, [r4, #124]
 2185 00a6 2066     		str	r0, [r4, #96]
 2186              	.L228:
 2187 00a8 2000     		movs	r0, r4
 2188 00aa FFF7FEFF 		bl	HAL_UART_AbortReceiveCpltCallback
 2189 00ae EBE7     		b	.L224
 2190              	.L222:
 2191 00b0 2200     		movs	r2, r4
 2192 00b2 5A32     		adds	r2, r2, #90
 2193 00b4 1380     		strh	r3, [r2]
 2194 00b6 0F22     		movs	r2, #15
 2195 00b8 6365     		str	r3, [r4, #84]
 2196 00ba 0A62     		str	r2, [r1, #32]
 2197 00bc 1132     		adds	r2, r2, #17
 2198 00be E267     		str	r2, [r4, #124]
 2199 00c0 2366     		str	r3, [r4, #96]
 2200 00c2 F1E7     		b	.L228
 2201              	.L230:
 2202              		.align	2
 2203              	.L229:
 2204 00c4 DFFEFFFF 		.word	-289
 2205 00c8 00000000 		.word	UART_DMARxOnlyAbortCallback
 2207              		.section	.text.UART_DMARxOnlyAbortCallback,"ax",%progbits
 2208              		.align	1
 2209              		.syntax unified
 2210              		.code	16
 2211              		.thumb_func
 2212              		.fpu softvfp
 2214              	UART_DMARxOnlyAbortCallback:
 2215              		@ args = 0, pretend = 0, frame = 0
 2216              		@ frame_needed = 0, uses_anonymous_args = 0
 2217 0000 806A     		ldr	r0, [r0, #40]
 2218 0002 0021     		movs	r1, #0
 2219 0004 0300     		movs	r3, r0
 2220 0006 0F22     		movs	r2, #15
 2221 0008 5A33     		adds	r3, r3, #90
 2222 000a 10B5     		push	{r4, lr}
 2223 000c 1980     		strh	r1, [r3]
 2224 000e 0368     		ldr	r3, [r0]
 2225              		@ sp needed
 2226 0010 1A62     		str	r2, [r3, #32]
 2227 0012 9C69     		ldr	r4, [r3, #24]
 2228 0014 073A     		subs	r2, r2, #7
 2229 0016 2243     		orrs	r2, r4
 2230 0018 9A61     		str	r2, [r3, #24]
 2231 001a 2023     		movs	r3, #32
 2232 001c C367     		str	r3, [r0, #124]
 2233 001e 0166     		str	r1, [r0, #96]
ARM GAS  /tmp/cclRNoWa.s 			page 39


 2234 0020 FFF7FEFF 		bl	HAL_UART_AbortReceiveCpltCallback
 2235 0024 10BD     		pop	{r4, pc}
 2237              		.section	.text.HAL_UARTEx_RxEventCallback,"ax",%progbits
 2238              		.align	1
 2239              		.weak	HAL_UARTEx_RxEventCallback
 2240              		.syntax unified
 2241              		.code	16
 2242              		.thumb_func
 2243              		.fpu softvfp
 2245              	HAL_UARTEx_RxEventCallback:
 2246              		@ args = 0, pretend = 0, frame = 0
 2247              		@ frame_needed = 0, uses_anonymous_args = 0
 2248              		@ link register save eliminated.
 2249              		@ sp needed
 2250 0000 7047     		bx	lr
 2252              		.section	.text.HAL_UART_IRQHandler,"ax",%progbits
 2253              		.align	1
 2254              		.global	HAL_UART_IRQHandler
 2255              		.syntax unified
 2256              		.code	16
 2257              		.thumb_func
 2258              		.fpu softvfp
 2260              	HAL_UART_IRQHandler:
 2261              		@ args = 0, pretend = 0, frame = 8
 2262              		@ frame_needed = 0, uses_anonymous_args = 0
 2263 0000 F7B5     		push	{r0, r1, r2, r4, r5, r6, r7, lr}
 2264 0002 0400     		movs	r4, r0
 2265 0004 0068     		ldr	r0, [r0]
 2266 0006 A74B     		ldr	r3, .L353
 2267 0008 C169     		ldr	r1, [r0, #28]
 2268 000a 0668     		ldr	r6, [r0]
 2269 000c 8568     		ldr	r5, [r0, #8]
 2270 000e 1942     		tst	r1, r3
 2271 0010 0BD1     		bne	.L234
 2272 0012 2023     		movs	r3, #32
 2273 0014 1942     		tst	r1, r3
 2274 0016 00D1     		bne	.LCB1735
 2275 0018 7FE0     		b	.L235	@long jump
 2276              	.LCB1735:
 2277 001a 1E42     		tst	r6, r3
 2278 001c 00D1     		bne	.LCB1738
 2279 001e 7CE0     		b	.L235	@long jump
 2280              	.LCB1738:
 2281 0020 636E     		ldr	r3, [r4, #100]
 2282              	.L352:
 2283 0022 2000     		movs	r0, r4
 2284 0024 002B     		cmp	r3, #0
 2285 0026 6ED1     		bne	.L348
 2286 0028 6EE0     		b	.L233
 2287              	.L234:
 2288 002a 0123     		movs	r3, #1
 2289 002c 2F00     		movs	r7, r5
 2290 002e 9E4A     		ldr	r2, .L353+4
 2291 0030 1F40     		ands	r7, r3
 2292 0032 3240     		ands	r2, r6
 2293 0034 3A43     		orrs	r2, r7
 2294 0036 00D1     		bne	.LCB1756
ARM GAS  /tmp/cclRNoWa.s 			page 40


 2295 0038 6FE0     		b	.L235	@long jump
 2296              	.LCB1756:
 2297 003a 251D     		adds	r5, r4, #4
 2298 003c 1942     		tst	r1, r3
 2299 003e 05D0     		beq	.L238
 2300 0040 F205     		lsls	r2, r6, #23
 2301 0042 03D5     		bpl	.L238
 2302 0044 0362     		str	r3, [r0, #32]
 2303 0046 EA6F     		ldr	r2, [r5, #124]
 2304 0048 1343     		orrs	r3, r2
 2305 004a EB67     		str	r3, [r5, #124]
 2306              	.L238:
 2307 004c 0223     		movs	r3, #2
 2308 004e 1942     		tst	r1, r3
 2309 0050 06D0     		beq	.L239
 2310 0052 002F     		cmp	r7, #0
 2311 0054 04D0     		beq	.L239
 2312 0056 0362     		str	r3, [r0, #32]
 2313 0058 EA6F     		ldr	r2, [r5, #124]
 2314 005a DB18     		adds	r3, r3, r3
 2315 005c 1343     		orrs	r3, r2
 2316 005e EB67     		str	r3, [r5, #124]
 2317              	.L239:
 2318 0060 0423     		movs	r3, #4
 2319 0062 1942     		tst	r1, r3
 2320 0064 06D0     		beq	.L240
 2321 0066 002F     		cmp	r7, #0
 2322 0068 04D0     		beq	.L240
 2323 006a 0362     		str	r3, [r0, #32]
 2324 006c EA6F     		ldr	r2, [r5, #124]
 2325 006e 023B     		subs	r3, r3, #2
 2326 0070 1343     		orrs	r3, r2
 2327 0072 EB67     		str	r3, [r5, #124]
 2328              	.L240:
 2329 0074 0823     		movs	r3, #8
 2330 0076 1942     		tst	r1, r3
 2331 0078 07D0     		beq	.L241
 2332 007a 2022     		movs	r2, #32
 2333 007c 3240     		ands	r2, r6
 2334 007e 3A43     		orrs	r2, r7
 2335 0080 03D0     		beq	.L241
 2336 0082 0362     		str	r3, [r0, #32]
 2337 0084 EA6F     		ldr	r2, [r5, #124]
 2338 0086 1343     		orrs	r3, r2
 2339 0088 EB67     		str	r3, [r5, #124]
 2340              	.L241:
 2341 008a 8023     		movs	r3, #128
 2342 008c 1B01     		lsls	r3, r3, #4
 2343 008e 1942     		tst	r1, r3
 2344 0090 06D0     		beq	.L242
 2345 0092 7201     		lsls	r2, r6, #5
 2346 0094 04D5     		bpl	.L242
 2347 0096 0362     		str	r3, [r0, #32]
 2348 0098 2023     		movs	r3, #32
 2349 009a EA6F     		ldr	r2, [r5, #124]
 2350 009c 1343     		orrs	r3, r2
 2351 009e EB67     		str	r3, [r5, #124]
ARM GAS  /tmp/cclRNoWa.s 			page 41


 2352              	.L242:
 2353 00a0 EB6F     		ldr	r3, [r5, #124]
 2354 00a2 002B     		cmp	r3, #0
 2355 00a4 30D0     		beq	.L233
 2356 00a6 2023     		movs	r3, #32
 2357 00a8 1942     		tst	r1, r3
 2358 00aa 06D0     		beq	.L244
 2359 00ac 1E42     		tst	r6, r3
 2360 00ae 04D0     		beq	.L244
 2361 00b0 636E     		ldr	r3, [r4, #100]
 2362 00b2 002B     		cmp	r3, #0
 2363 00b4 01D0     		beq	.L244
 2364 00b6 2000     		movs	r0, r4
 2365 00b8 9847     		blx	r3
 2366              	.L244:
 2367 00ba 2268     		ldr	r2, [r4]
 2368 00bc EB6F     		ldr	r3, [r5, #124]
 2369 00be 4027     		movs	r7, #64
 2370 00c0 9668     		ldr	r6, [r2, #8]
 2371 00c2 2822     		movs	r2, #40
 2372 00c4 3E40     		ands	r6, r7
 2373 00c6 1340     		ands	r3, r2
 2374 00c8 2000     		movs	r0, r4
 2375 00ca 1E43     		orrs	r6, r3
 2376 00cc 21D0     		beq	.L245
 2377 00ce FFF7FEFF 		bl	UART_EndRxTransfer
 2378 00d2 2368     		ldr	r3, [r4]
 2379 00d4 9B68     		ldr	r3, [r3, #8]
 2380 00d6 3B42     		tst	r3, r7
 2381 00d8 17D0     		beq	.L246
 2382              		.syntax divided
 2383              	@ 453 "bsp_l0/mcu_drivers/cmsis/Core/Include/cmsis_gcc.h" 1
 2384 00da EFF31081 		MRS r1, primask
 2385              	@ 0 "" 2
 2386              		.thumb
 2387              		.syntax unified
 2388 00de 0123     		movs	r3, #1
 2389              		.syntax divided
 2390              	@ 481 "bsp_l0/mcu_drivers/cmsis/Core/Include/cmsis_gcc.h" 1
 2391 00e0 83F31088 		MSR primask, r3
 2392              	@ 0 "" 2
 2393              		.thumb
 2394              		.syntax unified
 2395 00e4 2268     		ldr	r2, [r4]
 2396 00e6 9368     		ldr	r3, [r2, #8]
 2397 00e8 BB43     		bics	r3, r7
 2398 00ea 9360     		str	r3, [r2, #8]
 2399              		.syntax divided
 2400              	@ 481 "bsp_l0/mcu_drivers/cmsis/Core/Include/cmsis_gcc.h" 1
 2401 00ec 81F31088 		MSR primask, r1
 2402              	@ 0 "" 2
 2403              		.thumb
 2404              		.syntax unified
 2405 00f0 206F     		ldr	r0, [r4, #112]
 2406 00f2 0028     		cmp	r0, #0
 2407 00f4 09D0     		beq	.L246
 2408 00f6 6D4B     		ldr	r3, .L353+8
ARM GAS  /tmp/cclRNoWa.s 			page 42


 2409 00f8 8363     		str	r3, [r0, #56]
 2410 00fa FFF7FEFF 		bl	HAL_DMA_Abort_IT
 2411 00fe 0028     		cmp	r0, #0
 2412 0100 02D0     		beq	.L233
 2413 0102 206F     		ldr	r0, [r4, #112]
 2414 0104 836B     		ldr	r3, [r0, #56]
 2415              	.L348:
 2416 0106 9847     		blx	r3
 2417              	.L233:
 2418              		@ sp needed
 2419 0108 F7BD     		pop	{r0, r1, r2, r4, r5, r6, r7, pc}
 2420              	.L246:
 2421 010a 2000     		movs	r0, r4
 2422 010c FFF7FEFF 		bl	HAL_UART_ErrorCallback
 2423 0110 FAE7     		b	.L233
 2424              	.L245:
 2425 0112 FFF7FEFF 		bl	HAL_UART_ErrorCallback
 2426 0116 EE67     		str	r6, [r5, #124]
 2427 0118 F6E7     		b	.L233
 2428              	.L235:
 2429 011a 236E     		ldr	r3, [r4, #96]
 2430 011c 012B     		cmp	r3, #1
 2431 011e 00D0     		beq	.LCB1910
 2432 0120 94E0     		b	.L247	@long jump
 2433              	.LCB1910:
 2434 0122 1022     		movs	r2, #16
 2435 0124 1142     		tst	r1, r2
 2436 0126 00D1     		bne	.LCB1915
 2437 0128 90E0     		b	.L247	@long jump
 2438              	.LCB1915:
 2439 012a 1642     		tst	r6, r2
 2440 012c 00D1     		bne	.LCB1919
 2441 012e 8DE0     		b	.L247	@long jump
 2442              	.LCB1919:
 2443 0130 0262     		str	r2, [r0, #32]
 2444 0132 8168     		ldr	r1, [r0, #8]
 2445 0134 4020     		movs	r0, #64
 2446 0136 0D00     		movs	r5, r1
 2447 0138 0540     		ands	r5, r0
 2448 013a 0142     		tst	r1, r0
 2449 013c 50D0     		beq	.L248
 2450 013e 216F     		ldr	r1, [r4, #112]
 2451 0140 0D68     		ldr	r5, [r1]
 2452 0142 6968     		ldr	r1, [r5, #4]
 2453 0144 89B2     		uxth	r1, r1
 2454 0146 0029     		cmp	r1, #0
 2455 0148 DED0     		beq	.L233
 2456 014a 2600     		movs	r6, r4
 2457 014c 5836     		adds	r6, r6, #88
 2458 014e 3688     		ldrh	r6, [r6]
 2459 0150 8E42     		cmp	r6, r1
 2460 0152 D9D9     		bls	.L233
 2461 0154 2600     		movs	r6, r4
 2462 0156 5A36     		adds	r6, r6, #90
 2463 0158 3180     		strh	r1, [r6]
 2464 015a 2D68     		ldr	r5, [r5]
 2465 015c 2021     		movs	r1, #32
ARM GAS  /tmp/cclRNoWa.s 			page 43


 2466 015e 2E00     		movs	r6, r5
 2467 0160 0E40     		ands	r6, r1
 2468 0162 0196     		str	r6, [sp, #4]
 2469 0164 0D42     		tst	r5, r1
 2470 0166 2FD1     		bne	.L249
 2471              		.syntax divided
 2472              	@ 453 "bsp_l0/mcu_drivers/cmsis/Core/Include/cmsis_gcc.h" 1
 2473 0168 EFF31087 		MRS r7, primask
 2474              	@ 0 "" 2
 2475              	@ 481 "bsp_l0/mcu_drivers/cmsis/Core/Include/cmsis_gcc.h" 1
 2476 016c 83F31088 		MSR primask, r3
 2477              	@ 0 "" 2
 2478              		.thumb
 2479              		.syntax unified
 2480 0170 2668     		ldr	r6, [r4]
 2481 0172 4F4A     		ldr	r2, .L353+12
 2482 0174 3568     		ldr	r5, [r6]
 2483 0176 1540     		ands	r5, r2
 2484 0178 3560     		str	r5, [r6]
 2485              		.syntax divided
 2486              	@ 481 "bsp_l0/mcu_drivers/cmsis/Core/Include/cmsis_gcc.h" 1
 2487 017a 87F31088 		MSR primask, r7
 2488              	@ 0 "" 2
 2489              	@ 453 "bsp_l0/mcu_drivers/cmsis/Core/Include/cmsis_gcc.h" 1
 2490 017e EFF31087 		MRS r7, primask
 2491              	@ 0 "" 2
 2492              	@ 481 "bsp_l0/mcu_drivers/cmsis/Core/Include/cmsis_gcc.h" 1
 2493 0182 83F31088 		MSR primask, r3
 2494              	@ 0 "" 2
 2495              		.thumb
 2496              		.syntax unified
 2497 0186 2668     		ldr	r6, [r4]
 2498 0188 B568     		ldr	r5, [r6, #8]
 2499 018a 9D43     		bics	r5, r3
 2500 018c B560     		str	r5, [r6, #8]
 2501              		.syntax divided
 2502              	@ 481 "bsp_l0/mcu_drivers/cmsis/Core/Include/cmsis_gcc.h" 1
 2503 018e 87F31088 		MSR primask, r7
 2504              	@ 0 "" 2
 2505              	@ 453 "bsp_l0/mcu_drivers/cmsis/Core/Include/cmsis_gcc.h" 1
 2506 0192 EFF31086 		MRS r6, primask
 2507              	@ 0 "" 2
 2508              	@ 481 "bsp_l0/mcu_drivers/cmsis/Core/Include/cmsis_gcc.h" 1
 2509 0196 83F31088 		MSR primask, r3
 2510              	@ 0 "" 2
 2511              		.thumb
 2512              		.syntax unified
 2513 019a 2568     		ldr	r5, [r4]
 2514 019c AF68     		ldr	r7, [r5, #8]
 2515 019e 8743     		bics	r7, r0
 2516 01a0 AF60     		str	r7, [r5, #8]
 2517              		.syntax divided
 2518              	@ 481 "bsp_l0/mcu_drivers/cmsis/Core/Include/cmsis_gcc.h" 1
 2519 01a2 86F31088 		MSR primask, r6
 2520              	@ 0 "" 2
 2521              		.thumb
 2522              		.syntax unified
ARM GAS  /tmp/cclRNoWa.s 			page 44


 2523 01a6 019A     		ldr	r2, [sp, #4]
 2524 01a8 E167     		str	r1, [r4, #124]
 2525 01aa 2266     		str	r2, [r4, #96]
 2526              		.syntax divided
 2527              	@ 453 "bsp_l0/mcu_drivers/cmsis/Core/Include/cmsis_gcc.h" 1
 2528 01ac EFF31080 		MRS r0, primask
 2529              	@ 0 "" 2
 2530              	@ 481 "bsp_l0/mcu_drivers/cmsis/Core/Include/cmsis_gcc.h" 1
 2531 01b0 83F31088 		MSR primask, r3
 2532              	@ 0 "" 2
 2533              		.thumb
 2534              		.syntax unified
 2535 01b4 1022     		movs	r2, #16
 2536 01b6 2168     		ldr	r1, [r4]
 2537 01b8 0B68     		ldr	r3, [r1]
 2538 01ba 9343     		bics	r3, r2
 2539 01bc 0B60     		str	r3, [r1]
 2540              		.syntax divided
 2541              	@ 481 "bsp_l0/mcu_drivers/cmsis/Core/Include/cmsis_gcc.h" 1
 2542 01be 80F31088 		MSR primask, r0
 2543              	@ 0 "" 2
 2544              		.thumb
 2545              		.syntax unified
 2546 01c2 206F     		ldr	r0, [r4, #112]
 2547 01c4 FFF7FEFF 		bl	HAL_DMA_Abort
 2548              	.L249:
 2549 01c8 2300     		movs	r3, r4
 2550 01ca 2200     		movs	r2, r4
 2551 01cc 5A33     		adds	r3, r3, #90
 2552 01ce 5832     		adds	r2, r2, #88
 2553 01d0 1B88     		ldrh	r3, [r3]
 2554 01d2 1188     		ldrh	r1, [r2]
 2555 01d4 C91A     		subs	r1, r1, r3
 2556 01d6 89B2     		uxth	r1, r1
 2557              	.L349:
 2558 01d8 2000     		movs	r0, r4
 2559 01da FFF7FEFF 		bl	HAL_UARTEx_RxEventCallback
 2560 01de 93E7     		b	.L233
 2561              	.L248:
 2562 01e0 2600     		movs	r6, r4
 2563 01e2 5A36     		adds	r6, r6, #90
 2564 01e4 3088     		ldrh	r0, [r6]
 2565 01e6 3188     		ldrh	r1, [r6]
 2566 01e8 80B2     		uxth	r0, r0
 2567 01ea 0029     		cmp	r1, #0
 2568 01ec 00D1     		bne	.LCB2010
 2569 01ee 8BE7     		b	.L233	@long jump
 2570              	.LCB2010:
 2571 01f0 2100     		movs	r1, r4
 2572 01f2 5831     		adds	r1, r1, #88
 2573 01f4 0988     		ldrh	r1, [r1]
 2574 01f6 091A     		subs	r1, r1, r0
 2575 01f8 89B2     		uxth	r1, r1
 2576 01fa 0029     		cmp	r1, #0
 2577 01fc 00D1     		bne	.LCB2017
 2578 01fe 83E7     		b	.L233	@long jump
 2579              	.LCB2017:
ARM GAS  /tmp/cclRNoWa.s 			page 45


 2580              		.syntax divided
 2581              	@ 453 "bsp_l0/mcu_drivers/cmsis/Core/Include/cmsis_gcc.h" 1
 2582 0200 EFF31087 		MRS r7, primask
 2583              	@ 0 "" 2
 2584              	@ 481 "bsp_l0/mcu_drivers/cmsis/Core/Include/cmsis_gcc.h" 1
 2585 0204 83F31088 		MSR primask, r3
 2586              	@ 0 "" 2
 2587              		.thumb
 2588              		.syntax unified
 2589 0208 2668     		ldr	r6, [r4]
 2590 020a 2A4A     		ldr	r2, .L353+16
 2591 020c 3068     		ldr	r0, [r6]
 2592 020e 1040     		ands	r0, r2
 2593 0210 3060     		str	r0, [r6]
 2594              		.syntax divided
 2595              	@ 481 "bsp_l0/mcu_drivers/cmsis/Core/Include/cmsis_gcc.h" 1
 2596 0212 87F31088 		MSR primask, r7
 2597              	@ 0 "" 2
 2598              	@ 453 "bsp_l0/mcu_drivers/cmsis/Core/Include/cmsis_gcc.h" 1
 2599 0216 EFF31087 		MRS r7, primask
 2600              	@ 0 "" 2
 2601              	@ 481 "bsp_l0/mcu_drivers/cmsis/Core/Include/cmsis_gcc.h" 1
 2602 021a 83F31088 		MSR primask, r3
 2603              	@ 0 "" 2
 2604              		.thumb
 2605              		.syntax unified
 2606 021e 2668     		ldr	r6, [r4]
 2607 0220 B068     		ldr	r0, [r6, #8]
 2608 0222 9843     		bics	r0, r3
 2609 0224 B060     		str	r0, [r6, #8]
 2610              		.syntax divided
 2611              	@ 481 "bsp_l0/mcu_drivers/cmsis/Core/Include/cmsis_gcc.h" 1
 2612 0226 87F31088 		MSR primask, r7
 2613              	@ 0 "" 2
 2614              		.thumb
 2615              		.syntax unified
 2616 022a 2020     		movs	r0, #32
 2617 022c 6566     		str	r5, [r4, #100]
 2618 022e E067     		str	r0, [r4, #124]
 2619 0230 2566     		str	r5, [r4, #96]
 2620              		.syntax divided
 2621              	@ 453 "bsp_l0/mcu_drivers/cmsis/Core/Include/cmsis_gcc.h" 1
 2622 0232 EFF31085 		MRS r5, primask
 2623              	@ 0 "" 2
 2624              	@ 481 "bsp_l0/mcu_drivers/cmsis/Core/Include/cmsis_gcc.h" 1
 2625 0236 83F31088 		MSR primask, r3
 2626              	@ 0 "" 2
 2627              		.thumb
 2628              		.syntax unified
 2629 023a 2068     		ldr	r0, [r4]
 2630 023c 3232     		adds	r2, r2, #50
 2631 023e 0368     		ldr	r3, [r0]
 2632 0240 FF32     		adds	r2, r2, #255
 2633 0242 9343     		bics	r3, r2
 2634 0244 0360     		str	r3, [r0]
 2635              		.syntax divided
 2636              	@ 481 "bsp_l0/mcu_drivers/cmsis/Core/Include/cmsis_gcc.h" 1
ARM GAS  /tmp/cclRNoWa.s 			page 46


 2637 0246 85F31088 		MSR primask, r5
 2638              	@ 0 "" 2
 2639              		.thumb
 2640              		.syntax unified
 2641 024a C5E7     		b	.L349
 2642              	.L247:
 2643 024c 8023     		movs	r3, #128
 2644 024e 5B03     		lsls	r3, r3, #13
 2645 0250 1942     		tst	r1, r3
 2646 0252 06D0     		beq	.L250
 2647 0254 6A02     		lsls	r2, r5, #9
 2648 0256 04D5     		bpl	.L250
 2649 0258 0362     		str	r3, [r0, #32]
 2650 025a 2000     		movs	r0, r4
 2651 025c FFF7FEFF 		bl	HAL_UARTEx_WakeupCallback
 2652 0260 52E7     		b	.L233
 2653              	.L250:
 2654 0262 8023     		movs	r3, #128
 2655 0264 1942     		tst	r1, r3
 2656 0266 03D0     		beq	.L251
 2657 0268 1E42     		tst	r6, r3
 2658 026a 01D0     		beq	.L251
 2659 026c A36E     		ldr	r3, [r4, #104]
 2660 026e D8E6     		b	.L352
 2661              	.L251:
 2662 0270 4022     		movs	r2, #64
 2663 0272 1142     		tst	r1, r2
 2664 0274 00D1     		bne	.LCB2081
 2665 0276 47E7     		b	.L233	@long jump
 2666              	.LCB2081:
 2667 0278 1642     		tst	r6, r2
 2668 027a 00D1     		bne	.LCB2084
 2669 027c 44E7     		b	.L233	@long jump
 2670              	.LCB2084:
 2671              		.syntax divided
 2672              	@ 453 "bsp_l0/mcu_drivers/cmsis/Core/Include/cmsis_gcc.h" 1
 2673 027e EFF31080 		MRS r0, primask
 2674              	@ 0 "" 2
 2675              		.thumb
 2676              		.syntax unified
 2677 0282 0123     		movs	r3, #1
 2678              		.syntax divided
 2679              	@ 481 "bsp_l0/mcu_drivers/cmsis/Core/Include/cmsis_gcc.h" 1
 2680 0284 83F31088 		MSR primask, r3
 2681              	@ 0 "" 2
 2682              		.thumb
 2683              		.syntax unified
 2684 0288 2168     		ldr	r1, [r4]
 2685 028a 0B68     		ldr	r3, [r1]
 2686 028c 9343     		bics	r3, r2
 2687 028e 0B60     		str	r3, [r1]
 2688              		.syntax divided
 2689              	@ 481 "bsp_l0/mcu_drivers/cmsis/Core/Include/cmsis_gcc.h" 1
 2690 0290 80F31088 		MSR primask, r0
 2691              	@ 0 "" 2
 2692              		.thumb
 2693              		.syntax unified
ARM GAS  /tmp/cclRNoWa.s 			page 47


 2694 0294 2023     		movs	r3, #32
 2695 0296 A367     		str	r3, [r4, #120]
 2696 0298 0023     		movs	r3, #0
 2697 029a 2000     		movs	r0, r4
 2698 029c A366     		str	r3, [r4, #104]
 2699 029e FFF7FEFF 		bl	HAL_UART_TxCpltCallback
 2700 02a2 31E7     		b	.L233
 2701              	.L354:
 2702              		.align	2
 2703              	.L353:
 2704 02a4 0F080000 		.word	2063
 2705 02a8 20010004 		.word	67109152
 2706 02ac 00000000 		.word	UART_DMAAbortOnError
 2707 02b0 FFFEFFFF 		.word	-257
 2708 02b4 DFFEFFFF 		.word	-289
 2710              		.section	.text.UART_RxISR_8BIT,"ax",%progbits
 2711              		.align	1
 2712              		.syntax unified
 2713              		.code	16
 2714              		.thumb_func
 2715              		.fpu softvfp
 2717              	UART_RxISR_8BIT:
 2718              		@ args = 0, pretend = 0, frame = 0
 2719              		@ frame_needed = 0, uses_anonymous_args = 0
 2720 0000 C26F     		ldr	r2, [r0, #124]
 2721 0002 70B5     		push	{r4, r5, r6, lr}
 2722 0004 0368     		ldr	r3, [r0]
 2723 0006 222A     		cmp	r2, #34
 2724 0008 49D1     		bne	.L356
 2725 000a 0200     		movs	r2, r0
 2726 000c 5C32     		adds	r2, r2, #92
 2727 000e 5B6A     		ldr	r3, [r3, #36]
 2728 0010 1288     		ldrh	r2, [r2]
 2729 0012 1340     		ands	r3, r2
 2730 0014 426D     		ldr	r2, [r0, #84]
 2731 0016 1370     		strb	r3, [r2]
 2732 0018 0200     		movs	r2, r0
 2733 001a 436D     		ldr	r3, [r0, #84]
 2734 001c 5A32     		adds	r2, r2, #90
 2735 001e 0133     		adds	r3, r3, #1
 2736 0020 4365     		str	r3, [r0, #84]
 2737 0022 1388     		ldrh	r3, [r2]
 2738 0024 013B     		subs	r3, r3, #1
 2739 0026 9BB2     		uxth	r3, r3
 2740 0028 1380     		strh	r3, [r2]
 2741 002a 1388     		ldrh	r3, [r2]
 2742 002c 99B2     		uxth	r1, r3
 2743 002e 002B     		cmp	r3, #0
 2744 0030 31D1     		bne	.L355
 2745              		.syntax divided
 2746              	@ 453 "bsp_l0/mcu_drivers/cmsis/Core/Include/cmsis_gcc.h" 1
 2747 0032 EFF31085 		MRS r5, primask
 2748              	@ 0 "" 2
 2749              		.thumb
 2750              		.syntax unified
 2751 0036 0122     		movs	r2, #1
 2752              		.syntax divided
ARM GAS  /tmp/cclRNoWa.s 			page 48


 2753              	@ 481 "bsp_l0/mcu_drivers/cmsis/Core/Include/cmsis_gcc.h" 1
 2754 0038 82F31088 		MSR primask, r2
 2755              	@ 0 "" 2
 2756              		.thumb
 2757              		.syntax unified
 2758 003c 0468     		ldr	r4, [r0]
 2759 003e 1A4E     		ldr	r6, .L363
 2760 0040 2368     		ldr	r3, [r4]
 2761 0042 3340     		ands	r3, r6
 2762 0044 2360     		str	r3, [r4]
 2763              		.syntax divided
 2764              	@ 481 "bsp_l0/mcu_drivers/cmsis/Core/Include/cmsis_gcc.h" 1
 2765 0046 85F31088 		MSR primask, r5
 2766              	@ 0 "" 2
 2767              	@ 453 "bsp_l0/mcu_drivers/cmsis/Core/Include/cmsis_gcc.h" 1
 2768 004a EFF31085 		MRS r5, primask
 2769              	@ 0 "" 2
 2770              	@ 481 "bsp_l0/mcu_drivers/cmsis/Core/Include/cmsis_gcc.h" 1
 2771 004e 82F31088 		MSR primask, r2
 2772              	@ 0 "" 2
 2773              		.thumb
 2774              		.syntax unified
 2775 0052 0468     		ldr	r4, [r0]
 2776 0054 A368     		ldr	r3, [r4, #8]
 2777 0056 9343     		bics	r3, r2
 2778 0058 A360     		str	r3, [r4, #8]
 2779              		.syntax divided
 2780              	@ 481 "bsp_l0/mcu_drivers/cmsis/Core/Include/cmsis_gcc.h" 1
 2781 005a 85F31088 		MSR primask, r5
 2782              	@ 0 "" 2
 2783              		.thumb
 2784              		.syntax unified
 2785 005e 2023     		movs	r3, #32
 2786 0060 C367     		str	r3, [r0, #124]
 2787 0062 036E     		ldr	r3, [r0, #96]
 2788 0064 4166     		str	r1, [r0, #100]
 2789 0066 9342     		cmp	r3, r2
 2790 0068 16D1     		bne	.L358
 2791 006a 0166     		str	r1, [r0, #96]
 2792              		.syntax divided
 2793              	@ 453 "bsp_l0/mcu_drivers/cmsis/Core/Include/cmsis_gcc.h" 1
 2794 006c EFF31084 		MRS r4, primask
 2795              	@ 0 "" 2
 2796              	@ 481 "bsp_l0/mcu_drivers/cmsis/Core/Include/cmsis_gcc.h" 1
 2797 0070 83F31088 		MSR primask, r3
 2798              	@ 0 "" 2
 2799              		.thumb
 2800              		.syntax unified
 2801 0074 1023     		movs	r3, #16
 2802 0076 0168     		ldr	r1, [r0]
 2803 0078 0A68     		ldr	r2, [r1]
 2804 007a 9A43     		bics	r2, r3
 2805 007c 0A60     		str	r2, [r1]
 2806              		.syntax divided
 2807              	@ 481 "bsp_l0/mcu_drivers/cmsis/Core/Include/cmsis_gcc.h" 1
 2808 007e 84F31088 		MSR primask, r4
 2809              	@ 0 "" 2
ARM GAS  /tmp/cclRNoWa.s 			page 49


 2810              		.thumb
 2811              		.syntax unified
 2812 0082 0268     		ldr	r2, [r0]
 2813 0084 D169     		ldr	r1, [r2, #28]
 2814 0086 1942     		tst	r1, r3
 2815 0088 00D0     		beq	.L359
 2816 008a 1362     		str	r3, [r2, #32]
 2817              	.L359:
 2818 008c 0300     		movs	r3, r0
 2819 008e 5833     		adds	r3, r3, #88
 2820 0090 1988     		ldrh	r1, [r3]
 2821 0092 FFF7FEFF 		bl	HAL_UARTEx_RxEventCallback
 2822              	.L355:
 2823              		@ sp needed
 2824 0096 70BD     		pop	{r4, r5, r6, pc}
 2825              	.L358:
 2826 0098 FFF7FEFF 		bl	HAL_UART_RxCpltCallback
 2827 009c FBE7     		b	.L355
 2828              	.L356:
 2829 009e 0822     		movs	r2, #8
 2830 00a0 9969     		ldr	r1, [r3, #24]
 2831 00a2 0A43     		orrs	r2, r1
 2832 00a4 9A61     		str	r2, [r3, #24]
 2833 00a6 F6E7     		b	.L355
 2834              	.L364:
 2835              		.align	2
 2836              	.L363:
 2837 00a8 DFFEFFFF 		.word	-289
 2839              		.section	.text.UART_RxISR_16BIT,"ax",%progbits
 2840              		.align	1
 2841              		.syntax unified
 2842              		.code	16
 2843              		.thumb_func
 2844              		.fpu softvfp
 2846              	UART_RxISR_16BIT:
 2847              		@ args = 0, pretend = 0, frame = 0
 2848              		@ frame_needed = 0, uses_anonymous_args = 0
 2849 0000 C26F     		ldr	r2, [r0, #124]
 2850 0002 70B5     		push	{r4, r5, r6, lr}
 2851 0004 0368     		ldr	r3, [r0]
 2852 0006 222A     		cmp	r2, #34
 2853 0008 48D1     		bne	.L366
 2854 000a 0100     		movs	r1, r0
 2855 000c 5C31     		adds	r1, r1, #92
 2856 000e 5A6A     		ldr	r2, [r3, #36]
 2857 0010 0988     		ldrh	r1, [r1]
 2858 0012 436D     		ldr	r3, [r0, #84]
 2859 0014 0A40     		ands	r2, r1
 2860 0016 1A80     		strh	r2, [r3]
 2861 0018 0200     		movs	r2, r0
 2862 001a 0233     		adds	r3, r3, #2
 2863 001c 4365     		str	r3, [r0, #84]
 2864 001e 5A32     		adds	r2, r2, #90
 2865 0020 1388     		ldrh	r3, [r2]
 2866 0022 013B     		subs	r3, r3, #1
 2867 0024 9BB2     		uxth	r3, r3
 2868 0026 1380     		strh	r3, [r2]
ARM GAS  /tmp/cclRNoWa.s 			page 50


 2869 0028 1388     		ldrh	r3, [r2]
 2870 002a 99B2     		uxth	r1, r3
 2871 002c 002B     		cmp	r3, #0
 2872 002e 31D1     		bne	.L365
 2873              		.syntax divided
 2874              	@ 453 "bsp_l0/mcu_drivers/cmsis/Core/Include/cmsis_gcc.h" 1
 2875 0030 EFF31085 		MRS r5, primask
 2876              	@ 0 "" 2
 2877              		.thumb
 2878              		.syntax unified
 2879 0034 0122     		movs	r2, #1
 2880              		.syntax divided
 2881              	@ 481 "bsp_l0/mcu_drivers/cmsis/Core/Include/cmsis_gcc.h" 1
 2882 0036 82F31088 		MSR primask, r2
 2883              	@ 0 "" 2
 2884              		.thumb
 2885              		.syntax unified
 2886 003a 0468     		ldr	r4, [r0]
 2887 003c 1A4E     		ldr	r6, .L373
 2888 003e 2368     		ldr	r3, [r4]
 2889 0040 3340     		ands	r3, r6
 2890 0042 2360     		str	r3, [r4]
 2891              		.syntax divided
 2892              	@ 481 "bsp_l0/mcu_drivers/cmsis/Core/Include/cmsis_gcc.h" 1
 2893 0044 85F31088 		MSR primask, r5
 2894              	@ 0 "" 2
 2895              	@ 453 "bsp_l0/mcu_drivers/cmsis/Core/Include/cmsis_gcc.h" 1
 2896 0048 EFF31085 		MRS r5, primask
 2897              	@ 0 "" 2
 2898              	@ 481 "bsp_l0/mcu_drivers/cmsis/Core/Include/cmsis_gcc.h" 1
 2899 004c 82F31088 		MSR primask, r2
 2900              	@ 0 "" 2
 2901              		.thumb
 2902              		.syntax unified
 2903 0050 0468     		ldr	r4, [r0]
 2904 0052 A368     		ldr	r3, [r4, #8]
 2905 0054 9343     		bics	r3, r2
 2906 0056 A360     		str	r3, [r4, #8]
 2907              		.syntax divided
 2908              	@ 481 "bsp_l0/mcu_drivers/cmsis/Core/Include/cmsis_gcc.h" 1
 2909 0058 85F31088 		MSR primask, r5
 2910              	@ 0 "" 2
 2911              		.thumb
 2912              		.syntax unified
 2913 005c 2023     		movs	r3, #32
 2914 005e C367     		str	r3, [r0, #124]
 2915 0060 036E     		ldr	r3, [r0, #96]
 2916 0062 4166     		str	r1, [r0, #100]
 2917 0064 9342     		cmp	r3, r2
 2918 0066 16D1     		bne	.L368
 2919 0068 0166     		str	r1, [r0, #96]
 2920              		.syntax divided
 2921              	@ 453 "bsp_l0/mcu_drivers/cmsis/Core/Include/cmsis_gcc.h" 1
 2922 006a EFF31084 		MRS r4, primask
 2923              	@ 0 "" 2
 2924              	@ 481 "bsp_l0/mcu_drivers/cmsis/Core/Include/cmsis_gcc.h" 1
 2925 006e 83F31088 		MSR primask, r3
ARM GAS  /tmp/cclRNoWa.s 			page 51


 2926              	@ 0 "" 2
 2927              		.thumb
 2928              		.syntax unified
 2929 0072 1023     		movs	r3, #16
 2930 0074 0168     		ldr	r1, [r0]
 2931 0076 0A68     		ldr	r2, [r1]
 2932 0078 9A43     		bics	r2, r3
 2933 007a 0A60     		str	r2, [r1]
 2934              		.syntax divided
 2935              	@ 481 "bsp_l0/mcu_drivers/cmsis/Core/Include/cmsis_gcc.h" 1
 2936 007c 84F31088 		MSR primask, r4
 2937              	@ 0 "" 2
 2938              		.thumb
 2939              		.syntax unified
 2940 0080 0268     		ldr	r2, [r0]
 2941 0082 D169     		ldr	r1, [r2, #28]
 2942 0084 1942     		tst	r1, r3
 2943 0086 00D0     		beq	.L369
 2944 0088 1362     		str	r3, [r2, #32]
 2945              	.L369:
 2946 008a 0300     		movs	r3, r0
 2947 008c 5833     		adds	r3, r3, #88
 2948 008e 1988     		ldrh	r1, [r3]
 2949 0090 FFF7FEFF 		bl	HAL_UARTEx_RxEventCallback
 2950              	.L365:
 2951              		@ sp needed
 2952 0094 70BD     		pop	{r4, r5, r6, pc}
 2953              	.L368:
 2954 0096 FFF7FEFF 		bl	HAL_UART_RxCpltCallback
 2955 009a FBE7     		b	.L365
 2956              	.L366:
 2957 009c 0822     		movs	r2, #8
 2958 009e 9969     		ldr	r1, [r3, #24]
 2959 00a0 0A43     		orrs	r2, r1
 2960 00a2 9A61     		str	r2, [r3, #24]
 2961 00a4 F6E7     		b	.L365
 2962              	.L374:
 2963 00a6 C046     		.align	2
 2964              	.L373:
 2965 00a8 DFFEFFFF 		.word	-289
 2967              		.section	.text.UART_DMARxHalfCplt,"ax",%progbits
 2968              		.align	1
 2969              		.syntax unified
 2970              		.code	16
 2971              		.thumb_func
 2972              		.fpu softvfp
 2974              	UART_DMARxHalfCplt:
 2975              		@ args = 0, pretend = 0, frame = 0
 2976              		@ frame_needed = 0, uses_anonymous_args = 0
 2977 0000 806A     		ldr	r0, [r0, #40]
 2978 0002 10B5     		push	{r4, lr}
 2979 0004 036E     		ldr	r3, [r0, #96]
 2980 0006 012B     		cmp	r3, #1
 2981 0008 06D1     		bne	.L376
 2982 000a 0300     		movs	r3, r0
 2983 000c 5833     		adds	r3, r3, #88
 2984 000e 1988     		ldrh	r1, [r3]
ARM GAS  /tmp/cclRNoWa.s 			page 52


 2985 0010 4908     		lsrs	r1, r1, #1
 2986 0012 FFF7FEFF 		bl	HAL_UARTEx_RxEventCallback
 2987              	.L375:
 2988              		@ sp needed
 2989 0016 10BD     		pop	{r4, pc}
 2990              	.L376:
 2991 0018 FFF7FEFF 		bl	HAL_UART_RxHalfCpltCallback
 2992 001c FBE7     		b	.L375
 2994              		.section	.text.UART_DMAReceiveCplt,"ax",%progbits
 2995              		.align	1
 2996              		.syntax unified
 2997              		.code	16
 2998              		.thumb_func
 2999              		.fpu softvfp
 3001              	UART_DMAReceiveCplt:
 3002              		@ args = 0, pretend = 0, frame = 0
 3003              		@ frame_needed = 0, uses_anonymous_args = 0
 3004 0000 0300     		movs	r3, r0
 3005 0002 1B68     		ldr	r3, [r3]
 3006 0004 2022     		movs	r2, #32
 3007 0006 1B68     		ldr	r3, [r3]
 3008 0008 70B5     		push	{r4, r5, r6, lr}
 3009 000a 1900     		movs	r1, r3
 3010 000c 806A     		ldr	r0, [r0, #40]
 3011 000e 1140     		ands	r1, r2
 3012 0010 1342     		tst	r3, r2
 3013 0012 32D1     		bne	.L380
 3014 0014 0300     		movs	r3, r0
 3015 0016 5A33     		adds	r3, r3, #90
 3016 0018 1980     		strh	r1, [r3]
 3017              		.syntax divided
 3018              	@ 453 "bsp_l0/mcu_drivers/cmsis/Core/Include/cmsis_gcc.h" 1
 3019 001a EFF31085 		MRS r5, primask
 3020              	@ 0 "" 2
 3021              		.thumb
 3022              		.syntax unified
 3023 001e 0123     		movs	r3, #1
 3024              		.syntax divided
 3025              	@ 481 "bsp_l0/mcu_drivers/cmsis/Core/Include/cmsis_gcc.h" 1
 3026 0020 83F31088 		MSR primask, r3
 3027              	@ 0 "" 2
 3028              		.thumb
 3029              		.syntax unified
 3030 0024 0468     		ldr	r4, [r0]
 3031 0026 1B4E     		ldr	r6, .L384
 3032 0028 2168     		ldr	r1, [r4]
 3033 002a 3140     		ands	r1, r6
 3034 002c 2160     		str	r1, [r4]
 3035              		.syntax divided
 3036              	@ 481 "bsp_l0/mcu_drivers/cmsis/Core/Include/cmsis_gcc.h" 1
 3037 002e 85F31088 		MSR primask, r5
 3038              	@ 0 "" 2
 3039              	@ 453 "bsp_l0/mcu_drivers/cmsis/Core/Include/cmsis_gcc.h" 1
 3040 0032 EFF31085 		MRS r5, primask
 3041              	@ 0 "" 2
 3042              	@ 481 "bsp_l0/mcu_drivers/cmsis/Core/Include/cmsis_gcc.h" 1
 3043 0036 83F31088 		MSR primask, r3
ARM GAS  /tmp/cclRNoWa.s 			page 53


 3044              	@ 0 "" 2
 3045              		.thumb
 3046              		.syntax unified
 3047 003a 0468     		ldr	r4, [r0]
 3048 003c A168     		ldr	r1, [r4, #8]
 3049 003e 9943     		bics	r1, r3
 3050 0040 A160     		str	r1, [r4, #8]
 3051              		.syntax divided
 3052              	@ 481 "bsp_l0/mcu_drivers/cmsis/Core/Include/cmsis_gcc.h" 1
 3053 0042 85F31088 		MSR primask, r5
 3054              	@ 0 "" 2
 3055              	@ 453 "bsp_l0/mcu_drivers/cmsis/Core/Include/cmsis_gcc.h" 1
 3056 0046 EFF31084 		MRS r4, primask
 3057              	@ 0 "" 2
 3058              	@ 481 "bsp_l0/mcu_drivers/cmsis/Core/Include/cmsis_gcc.h" 1
 3059 004a 83F31088 		MSR primask, r3
 3060              	@ 0 "" 2
 3061              		.thumb
 3062              		.syntax unified
 3063 004e 4025     		movs	r5, #64
 3064 0050 0168     		ldr	r1, [r0]
 3065 0052 8B68     		ldr	r3, [r1, #8]
 3066 0054 AB43     		bics	r3, r5
 3067 0056 8B60     		str	r3, [r1, #8]
 3068              		.syntax divided
 3069              	@ 481 "bsp_l0/mcu_drivers/cmsis/Core/Include/cmsis_gcc.h" 1
 3070 0058 84F31088 		MSR primask, r4
 3071              	@ 0 "" 2
 3072              		.thumb
 3073              		.syntax unified
 3074 005c C267     		str	r2, [r0, #124]
 3075 005e 036E     		ldr	r3, [r0, #96]
 3076 0060 012B     		cmp	r3, #1
 3077 0062 0AD1     		bne	.L380
 3078              		.syntax divided
 3079              	@ 453 "bsp_l0/mcu_drivers/cmsis/Core/Include/cmsis_gcc.h" 1
 3080 0064 EFF31081 		MRS r1, primask
 3081              	@ 0 "" 2
 3082              	@ 481 "bsp_l0/mcu_drivers/cmsis/Core/Include/cmsis_gcc.h" 1
 3083 0068 83F31088 		MSR primask, r3
 3084              	@ 0 "" 2
 3085              		.thumb
 3086              		.syntax unified
 3087 006c 1024     		movs	r4, #16
 3088 006e 0268     		ldr	r2, [r0]
 3089 0070 1368     		ldr	r3, [r2]
 3090 0072 A343     		bics	r3, r4
 3091 0074 1360     		str	r3, [r2]
 3092              		.syntax divided
 3093              	@ 481 "bsp_l0/mcu_drivers/cmsis/Core/Include/cmsis_gcc.h" 1
 3094 0076 81F31088 		MSR primask, r1
 3095              	@ 0 "" 2
 3096              		.thumb
 3097              		.syntax unified
 3098              	.L380:
 3099 007a 036E     		ldr	r3, [r0, #96]
 3100 007c 012B     		cmp	r3, #1
ARM GAS  /tmp/cclRNoWa.s 			page 54


 3101 007e 05D1     		bne	.L382
 3102 0080 0300     		movs	r3, r0
 3103 0082 5833     		adds	r3, r3, #88
 3104 0084 1988     		ldrh	r1, [r3]
 3105 0086 FFF7FEFF 		bl	HAL_UARTEx_RxEventCallback
 3106              	.L378:
 3107              		@ sp needed
 3108 008a 70BD     		pop	{r4, r5, r6, pc}
 3109              	.L382:
 3110 008c FFF7FEFF 		bl	HAL_UART_RxCpltCallback
 3111 0090 FBE7     		b	.L378
 3112              	.L385:
 3113 0092 C046     		.align	2
 3114              	.L384:
 3115 0094 FFFEFFFF 		.word	-257
 3117              		.section	.text.HAL_UART_ReceiverTimeout_Config,"ax",%progbits
 3118              		.align	1
 3119              		.global	HAL_UART_ReceiverTimeout_Config
 3120              		.syntax unified
 3121              		.code	16
 3122              		.thumb_func
 3123              		.fpu softvfp
 3125              	HAL_UART_ReceiverTimeout_Config:
 3126              		@ args = 0, pretend = 0, frame = 0
 3127              		@ frame_needed = 0, uses_anonymous_args = 0
 3128 0000 0268     		ldr	r2, [r0]
 3129 0002 054B     		ldr	r3, .L388
 3130 0004 10B5     		push	{r4, lr}
 3131 0006 0C00     		movs	r4, r1
 3132 0008 9A42     		cmp	r2, r3
 3133 000a 04D0     		beq	.L386
 3134 000c 5369     		ldr	r3, [r2, #20]
 3135 000e 1B0E     		lsrs	r3, r3, #24
 3136 0010 1906     		lsls	r1, r3, #24
 3137 0012 2143     		orrs	r1, r4
 3138 0014 5161     		str	r1, [r2, #20]
 3139              	.L386:
 3140              		@ sp needed
 3141 0016 10BD     		pop	{r4, pc}
 3142              	.L389:
 3143              		.align	2
 3144              	.L388:
 3145 0018 00480040 		.word	1073760256
 3147              		.section	.text.HAL_UART_EnableReceiverTimeout,"ax",%progbits
 3148              		.align	1
 3149              		.global	HAL_UART_EnableReceiverTimeout
 3150              		.syntax unified
 3151              		.code	16
 3152              		.thumb_func
 3153              		.fpu softvfp
 3155              	HAL_UART_EnableReceiverTimeout:
 3156              		@ args = 0, pretend = 0, frame = 0
 3157              		@ frame_needed = 0, uses_anonymous_args = 0
 3158 0000 0268     		ldr	r2, [r0]
 3159 0002 0D49     		ldr	r1, .L395
 3160 0004 0300     		movs	r3, r0
 3161 0006 30B5     		push	{r4, r5, lr}
ARM GAS  /tmp/cclRNoWa.s 			page 55


 3162 0008 0120     		movs	r0, #1
 3163 000a 8A42     		cmp	r2, r1
 3164 000c 12D0     		beq	.L391
 3165 000e 9D6F     		ldr	r5, [r3, #120]
 3166 0010 0018     		adds	r0, r0, r0
 3167 0012 202D     		cmp	r5, #32
 3168 0014 0ED1     		bne	.L391
 3169 0016 1C00     		movs	r4, r3
 3170 0018 7434     		adds	r4, r4, #116
 3171 001a 2178     		ldrb	r1, [r4]
 3172 001c 0129     		cmp	r1, #1
 3173 001e 09D0     		beq	.L391
 3174 0020 2421     		movs	r1, #36
 3175 0022 9967     		str	r1, [r3, #120]
 3176 0024 8021     		movs	r1, #128
 3177 0026 5068     		ldr	r0, [r2, #4]
 3178 0028 0904     		lsls	r1, r1, #16
 3179 002a 0143     		orrs	r1, r0
 3180 002c 0020     		movs	r0, #0
 3181 002e 5160     		str	r1, [r2, #4]
 3182 0030 9D67     		str	r5, [r3, #120]
 3183 0032 2070     		strb	r0, [r4]
 3184              	.L391:
 3185              		@ sp needed
 3186 0034 30BD     		pop	{r4, r5, pc}
 3187              	.L396:
 3188 0036 C046     		.align	2
 3189              	.L395:
 3190 0038 00480040 		.word	1073760256
 3192              		.section	.text.HAL_UART_DisableReceiverTimeout,"ax",%progbits
 3193              		.align	1
 3194              		.global	HAL_UART_DisableReceiverTimeout
 3195              		.syntax unified
 3196              		.code	16
 3197              		.thumb_func
 3198              		.fpu softvfp
 3200              	HAL_UART_DisableReceiverTimeout:
 3201              		@ args = 0, pretend = 0, frame = 0
 3202              		@ frame_needed = 0, uses_anonymous_args = 0
 3203 0000 0268     		ldr	r2, [r0]
 3204 0002 0C49     		ldr	r1, .L402
 3205 0004 0300     		movs	r3, r0
 3206 0006 30B5     		push	{r4, r5, lr}
 3207 0008 0120     		movs	r0, #1
 3208 000a 8A42     		cmp	r2, r1
 3209 000c 11D0     		beq	.L398
 3210 000e 9D6F     		ldr	r5, [r3, #120]
 3211 0010 0018     		adds	r0, r0, r0
 3212 0012 202D     		cmp	r5, #32
 3213 0014 0DD1     		bne	.L398
 3214 0016 1C00     		movs	r4, r3
 3215 0018 7434     		adds	r4, r4, #116
 3216 001a 2178     		ldrb	r1, [r4]
 3217 001c 0129     		cmp	r1, #1
 3218 001e 08D0     		beq	.L398
 3219 0020 2421     		movs	r1, #36
 3220 0022 9967     		str	r1, [r3, #120]
ARM GAS  /tmp/cclRNoWa.s 			page 56


 3221 0024 5168     		ldr	r1, [r2, #4]
 3222 0026 0448     		ldr	r0, .L402+4
 3223 0028 0140     		ands	r1, r0
 3224 002a 0020     		movs	r0, #0
 3225 002c 5160     		str	r1, [r2, #4]
 3226 002e 9D67     		str	r5, [r3, #120]
 3227 0030 2070     		strb	r0, [r4]
 3228              	.L398:
 3229              		@ sp needed
 3230 0032 30BD     		pop	{r4, r5, pc}
 3231              	.L403:
 3232              		.align	2
 3233              	.L402:
 3234 0034 00480040 		.word	1073760256
 3235 0038 FFFF7FFF 		.word	-8388609
 3237              		.section	.text.HAL_MultiProcessor_EnterMuteMode,"ax",%progbits
 3238              		.align	1
 3239              		.global	HAL_MultiProcessor_EnterMuteMode
 3240              		.syntax unified
 3241              		.code	16
 3242              		.thumb_func
 3243              		.fpu softvfp
 3245              	HAL_MultiProcessor_EnterMuteMode:
 3246              		@ args = 0, pretend = 0, frame = 0
 3247              		@ frame_needed = 0, uses_anonymous_args = 0
 3248              		@ link register save eliminated.
 3249 0000 0423     		movs	r3, #4
 3250              		@ sp needed
 3251 0002 0268     		ldr	r2, [r0]
 3252 0004 9169     		ldr	r1, [r2, #24]
 3253 0006 0B43     		orrs	r3, r1
 3254 0008 9361     		str	r3, [r2, #24]
 3255 000a 7047     		bx	lr
 3257              		.section	.text.HAL_HalfDuplex_EnableTransmitter,"ax",%progbits
 3258              		.align	1
 3259              		.global	HAL_HalfDuplex_EnableTransmitter
 3260              		.syntax unified
 3261              		.code	16
 3262              		.thumb_func
 3263              		.fpu softvfp
 3265              	HAL_HalfDuplex_EnableTransmitter:
 3266              		@ args = 0, pretend = 0, frame = 0
 3267              		@ frame_needed = 0, uses_anonymous_args = 0
 3268 0000 0200     		movs	r2, r0
 3269 0002 70B5     		push	{r4, r5, r6, lr}
 3270 0004 7432     		adds	r2, r2, #116
 3271 0006 1178     		ldrb	r1, [r2]
 3272 0008 0300     		movs	r3, r0
 3273 000a 0220     		movs	r0, #2
 3274 000c 0129     		cmp	r1, #1
 3275 000e 1DD0     		beq	.L406
 3276 0010 0121     		movs	r1, #1
 3277 0012 2230     		adds	r0, r0, #34
 3278 0014 1170     		strb	r1, [r2]
 3279 0016 9867     		str	r0, [r3, #120]
 3280              		.syntax divided
 3281              	@ 453 "bsp_l0/mcu_drivers/cmsis/Core/Include/cmsis_gcc.h" 1
ARM GAS  /tmp/cclRNoWa.s 			page 57


 3282 0018 EFF31085 		MRS r5, primask
 3283              	@ 0 "" 2
 3284              	@ 481 "bsp_l0/mcu_drivers/cmsis/Core/Include/cmsis_gcc.h" 1
 3285 001c 81F31088 		MSR primask, r1
 3286              	@ 0 "" 2
 3287              		.thumb
 3288              		.syntax unified
 3289 0020 0C26     		movs	r6, #12
 3290 0022 1C68     		ldr	r4, [r3]
 3291 0024 2068     		ldr	r0, [r4]
 3292 0026 B043     		bics	r0, r6
 3293 0028 2060     		str	r0, [r4]
 3294              		.syntax divided
 3295              	@ 481 "bsp_l0/mcu_drivers/cmsis/Core/Include/cmsis_gcc.h" 1
 3296 002a 85F31088 		MSR primask, r5
 3297              	@ 0 "" 2
 3298              	@ 453 "bsp_l0/mcu_drivers/cmsis/Core/Include/cmsis_gcc.h" 1
 3299 002e EFF31084 		MRS r4, primask
 3300              	@ 0 "" 2
 3301              	@ 481 "bsp_l0/mcu_drivers/cmsis/Core/Include/cmsis_gcc.h" 1
 3302 0032 81F31088 		MSR primask, r1
 3303              	@ 0 "" 2
 3304              		.thumb
 3305              		.syntax unified
 3306 0036 1868     		ldr	r0, [r3]
 3307 0038 0731     		adds	r1, r1, #7
 3308 003a 0568     		ldr	r5, [r0]
 3309 003c 2943     		orrs	r1, r5
 3310 003e 0160     		str	r1, [r0]
 3311              		.syntax divided
 3312              	@ 481 "bsp_l0/mcu_drivers/cmsis/Core/Include/cmsis_gcc.h" 1
 3313 0040 84F31088 		MSR primask, r4
 3314              	@ 0 "" 2
 3315              		.thumb
 3316              		.syntax unified
 3317 0044 2021     		movs	r1, #32
 3318 0046 0020     		movs	r0, #0
 3319 0048 9967     		str	r1, [r3, #120]
 3320 004a 1070     		strb	r0, [r2]
 3321              	.L406:
 3322              		@ sp needed
 3323 004c 70BD     		pop	{r4, r5, r6, pc}
 3325              		.section	.text.HAL_HalfDuplex_EnableReceiver,"ax",%progbits
 3326              		.align	1
 3327              		.global	HAL_HalfDuplex_EnableReceiver
 3328              		.syntax unified
 3329              		.code	16
 3330              		.thumb_func
 3331              		.fpu softvfp
 3333              	HAL_HalfDuplex_EnableReceiver:
 3334              		@ args = 0, pretend = 0, frame = 0
 3335              		@ frame_needed = 0, uses_anonymous_args = 0
 3336 0000 0200     		movs	r2, r0
 3337 0002 70B5     		push	{r4, r5, r6, lr}
 3338 0004 7432     		adds	r2, r2, #116
 3339 0006 1178     		ldrb	r1, [r2]
 3340 0008 0300     		movs	r3, r0
ARM GAS  /tmp/cclRNoWa.s 			page 58


 3341 000a 0220     		movs	r0, #2
 3342 000c 0129     		cmp	r1, #1
 3343 000e 1DD0     		beq	.L409
 3344 0010 0121     		movs	r1, #1
 3345 0012 2230     		adds	r0, r0, #34
 3346 0014 1170     		strb	r1, [r2]
 3347 0016 9867     		str	r0, [r3, #120]
 3348              		.syntax divided
 3349              	@ 453 "bsp_l0/mcu_drivers/cmsis/Core/Include/cmsis_gcc.h" 1
 3350 0018 EFF31085 		MRS r5, primask
 3351              	@ 0 "" 2
 3352              	@ 481 "bsp_l0/mcu_drivers/cmsis/Core/Include/cmsis_gcc.h" 1
 3353 001c 81F31088 		MSR primask, r1
 3354              	@ 0 "" 2
 3355              		.thumb
 3356              		.syntax unified
 3357 0020 0C26     		movs	r6, #12
 3358 0022 1C68     		ldr	r4, [r3]
 3359 0024 2068     		ldr	r0, [r4]
 3360 0026 B043     		bics	r0, r6
 3361 0028 2060     		str	r0, [r4]
 3362              		.syntax divided
 3363              	@ 481 "bsp_l0/mcu_drivers/cmsis/Core/Include/cmsis_gcc.h" 1
 3364 002a 85F31088 		MSR primask, r5
 3365              	@ 0 "" 2
 3366              	@ 453 "bsp_l0/mcu_drivers/cmsis/Core/Include/cmsis_gcc.h" 1
 3367 002e EFF31084 		MRS r4, primask
 3368              	@ 0 "" 2
 3369              	@ 481 "bsp_l0/mcu_drivers/cmsis/Core/Include/cmsis_gcc.h" 1
 3370 0032 81F31088 		MSR primask, r1
 3371              	@ 0 "" 2
 3372              		.thumb
 3373              		.syntax unified
 3374 0036 1868     		ldr	r0, [r3]
 3375 0038 0331     		adds	r1, r1, #3
 3376 003a 0568     		ldr	r5, [r0]
 3377 003c 2943     		orrs	r1, r5
 3378 003e 0160     		str	r1, [r0]
 3379              		.syntax divided
 3380              	@ 481 "bsp_l0/mcu_drivers/cmsis/Core/Include/cmsis_gcc.h" 1
 3381 0040 84F31088 		MSR primask, r4
 3382              	@ 0 "" 2
 3383              		.thumb
 3384              		.syntax unified
 3385 0044 2021     		movs	r1, #32
 3386 0046 0020     		movs	r0, #0
 3387 0048 9967     		str	r1, [r3, #120]
 3388 004a 1070     		strb	r0, [r2]
 3389              	.L409:
 3390              		@ sp needed
 3391 004c 70BD     		pop	{r4, r5, r6, pc}
 3393              		.section	.text.HAL_LIN_SendBreak,"ax",%progbits
 3394              		.align	1
 3395              		.global	HAL_LIN_SendBreak
 3396              		.syntax unified
 3397              		.code	16
 3398              		.thumb_func
ARM GAS  /tmp/cclRNoWa.s 			page 59


 3399              		.fpu softvfp
 3401              	HAL_LIN_SendBreak:
 3402              		@ args = 0, pretend = 0, frame = 0
 3403              		@ frame_needed = 0, uses_anonymous_args = 0
 3404 0000 0100     		movs	r1, r0
 3405 0002 10B5     		push	{r4, lr}
 3406 0004 7431     		adds	r1, r1, #116
 3407 0006 0A78     		ldrb	r2, [r1]
 3408 0008 0300     		movs	r3, r0
 3409 000a 0220     		movs	r0, #2
 3410 000c 012A     		cmp	r2, #1
 3411 000e 0AD0     		beq	.L412
 3412 0010 2422     		movs	r2, #36
 3413 0012 1868     		ldr	r0, [r3]
 3414 0014 9A67     		str	r2, [r3, #120]
 3415 0016 8469     		ldr	r4, [r0, #24]
 3416 0018 223A     		subs	r2, r2, #34
 3417 001a 2243     		orrs	r2, r4
 3418 001c 8261     		str	r2, [r0, #24]
 3419 001e 2022     		movs	r2, #32
 3420 0020 0020     		movs	r0, #0
 3421 0022 9A67     		str	r2, [r3, #120]
 3422 0024 0870     		strb	r0, [r1]
 3423              	.L412:
 3424              		@ sp needed
 3425 0026 10BD     		pop	{r4, pc}
 3427              		.section	.text.HAL_UART_GetState,"ax",%progbits
 3428              		.align	1
 3429              		.global	HAL_UART_GetState
 3430              		.syntax unified
 3431              		.code	16
 3432              		.thumb_func
 3433              		.fpu softvfp
 3435              	HAL_UART_GetState:
 3436              		@ args = 0, pretend = 0, frame = 0
 3437              		@ frame_needed = 0, uses_anonymous_args = 0
 3438              		@ link register save eliminated.
 3439 0000 836F     		ldr	r3, [r0, #120]
 3440 0002 C06F     		ldr	r0, [r0, #124]
 3441              		@ sp needed
 3442 0004 1843     		orrs	r0, r3
 3443 0006 7047     		bx	lr
 3445              		.section	.text.HAL_UART_GetError,"ax",%progbits
 3446              		.align	1
 3447              		.global	HAL_UART_GetError
 3448              		.syntax unified
 3449              		.code	16
 3450              		.thumb_func
 3451              		.fpu softvfp
 3453              	HAL_UART_GetError:
 3454              		@ args = 0, pretend = 0, frame = 0
 3455              		@ frame_needed = 0, uses_anonymous_args = 0
 3456              		@ link register save eliminated.
 3457 0000 0430     		adds	r0, r0, #4
 3458 0002 C06F     		ldr	r0, [r0, #124]
 3459              		@ sp needed
 3460 0004 7047     		bx	lr
ARM GAS  /tmp/cclRNoWa.s 			page 60


 3462              		.global	__aeabi_uldivmod
 3463              		.global	__aeabi_ldivmod
 3464              		.global	__aeabi_uidiv
 3465              		.section	.text.UART_SetConfig,"ax",%progbits
 3466              		.align	1
 3467              		.global	UART_SetConfig
 3468              		.syntax unified
 3469              		.code	16
 3470              		.thumb_func
 3471              		.fpu softvfp
 3473              	UART_SetConfig:
 3474              		@ args = 0, pretend = 0, frame = 0
 3475              		@ frame_needed = 0, uses_anonymous_args = 0
 3476 0000 F8B5     		push	{r3, r4, r5, r6, r7, lr}
 3477 0002 0400     		movs	r4, r0
 3478 0004 2569     		ldr	r5, [r4, #16]
 3479 0006 A168     		ldr	r1, [r4, #8]
 3480 0008 0268     		ldr	r2, [r0]
 3481 000a 2943     		orrs	r1, r5
 3482 000c 6569     		ldr	r5, [r4, #20]
 3483 000e C369     		ldr	r3, [r0, #28]
 3484 0010 2943     		orrs	r1, r5
 3485 0012 1068     		ldr	r0, [r2]
 3486 0014 784D     		ldr	r5, .L470
 3487 0016 1943     		orrs	r1, r3
 3488 0018 2840     		ands	r0, r5
 3489 001a 0143     		orrs	r1, r0
 3490 001c 1160     		str	r1, [r2]
 3491 001e 5168     		ldr	r1, [r2, #4]
 3492 0020 7648     		ldr	r0, .L470+4
 3493 0022 774D     		ldr	r5, .L470+8
 3494 0024 0140     		ands	r1, r0
 3495 0026 E068     		ldr	r0, [r4, #12]
 3496 0028 0143     		orrs	r1, r0
 3497 002a 5160     		str	r1, [r2, #4]
 3498 002c A069     		ldr	r0, [r4, #24]
 3499 002e AA42     		cmp	r2, r5
 3500 0030 01D0     		beq	.L417
 3501 0032 216A     		ldr	r1, [r4, #32]
 3502 0034 0843     		orrs	r0, r1
 3503              	.L417:
 3504 0036 9168     		ldr	r1, [r2, #8]
 3505 0038 724E     		ldr	r6, .L470+12
 3506 003a 3140     		ands	r1, r6
 3507 003c 0143     		orrs	r1, r0
 3508 003e 9160     		str	r1, [r2, #8]
 3509 0040 7149     		ldr	r1, .L470+16
 3510 0042 8A42     		cmp	r2, r1
 3511 0044 0FD1     		bne	.L418
 3512 0046 0321     		movs	r1, #3
 3513 0048 704A     		ldr	r2, .L470+20
 3514 004a D26C     		ldr	r2, [r2, #76]
 3515 004c 0A40     		ands	r2, r1
 3516 004e 013A     		subs	r2, r2, #1
 3517 0050 6F49     		ldr	r1, .L470+24
 3518 0052 022A     		cmp	r2, #2
 3519 0054 0FD9     		bls	.L463
ARM GAS  /tmp/cclRNoWa.s 			page 61


 3520 0056 8022     		movs	r2, #128
 3521 0058 1202     		lsls	r2, r2, #8
 3522 005a 9342     		cmp	r3, r2
 3523 005c 00D0     		beq	.LCB2783
 3524 005e A2E0     		b	.L446	@long jump
 3525              	.LCB2783:
 3526              	.L438:
 3527 0060 FFF7FEFF 		bl	HAL_RCC_GetPCLK2Freq
 3528 0064 C4E0     		b	.L464
 3529              	.L418:
 3530 0066 6B49     		ldr	r1, .L470+28
 3531 0068 8A42     		cmp	r2, r1
 3532 006a 17D1     		bne	.L421
 3533 006c 0C21     		movs	r1, #12
 3534 006e 674A     		ldr	r2, .L470+20
 3535 0070 D26C     		ldr	r2, [r2, #76]
 3536 0072 0A40     		ands	r2, r1
 3537 0074 6849     		ldr	r1, .L470+32
 3538              	.L463:
 3539 0076 885C     		ldrb	r0, [r1, r2]
 3540 0078 8022     		movs	r2, #128
 3541 007a 1202     		lsls	r2, r2, #8
 3542 007c 9342     		cmp	r3, r2
 3543 007e 00D0     		beq	.LCB2804
 3544 0080 83E0     		b	.L433	@long jump
 3545              	.LCB2804:
 3546 0082 0828     		cmp	r0, #8
 3547 0084 24D8     		bhi	.L465
 3548 0086 FFF7FEFF 		bl	__gnu_thumb1_case_shi
 3549              	.L435:
 3550 008a B100     		.2byte	(.L439-.L435)/2
 3551 008c EBFF     		.2byte	(.L438-.L435)/2
 3552 008e 5C00     		.2byte	(.L437-.L435)/2
 3553 0090 2300     		.2byte	(.L465-.L435)/2
 3554 0092 7D00     		.2byte	(.L436-.L435)/2
 3555 0094 2300     		.2byte	(.L465-.L435)/2
 3556 0096 2300     		.2byte	(.L465-.L435)/2
 3557 0098 2300     		.2byte	(.L465-.L435)/2
 3558 009a 6700     		.2byte	(.L434-.L435)/2
 3559              		.p2align 1
 3560              	.L421:
 3561 009c 5F49     		ldr	r1, .L470+36
 3562 009e 8A42     		cmp	r2, r1
 3563 00a0 00D1     		bne	.LCB2815
 3564 00a2 9FE0     		b	.L422	@long jump
 3565              	.LCB2815:
 3566 00a4 5E49     		ldr	r1, .L470+40
 3567 00a6 8A42     		cmp	r2, r1
 3568 00a8 00D1     		bne	.LCB2818
 3569 00aa 9BE0     		b	.L422	@long jump
 3570              	.LCB2818:
 3571 00ac AA42     		cmp	r2, r5
 3572 00ae 0FD1     		bne	.L465
 3573 00b0 C021     		movs	r1, #192
 3574 00b2 8020     		movs	r0, #128
 3575 00b4 554A     		ldr	r2, .L470+20
 3576 00b6 0901     		lsls	r1, r1, #4
ARM GAS  /tmp/cclRNoWa.s 			page 62


 3577 00b8 D36C     		ldr	r3, [r2, #76]
 3578 00ba 0001     		lsls	r0, r0, #4
 3579 00bc 0B40     		ands	r3, r1
 3580 00be 8342     		cmp	r3, r0
 3581 00c0 16D0     		beq	.L424
 3582 00c2 07D8     		bhi	.L425
 3583 00c4 002B     		cmp	r3, #0
 3584 00c6 0AD0     		beq	.L426
 3585 00c8 8022     		movs	r2, #128
 3586 00ca D200     		lsls	r2, r2, #3
 3587 00cc 9342     		cmp	r3, r2
 3588 00ce 35D0     		beq	.L427
 3589              	.L465:
 3590 00d0 0120     		movs	r0, #1
 3591 00d2 09E0     		b	.L428
 3592              	.L425:
 3593 00d4 8B42     		cmp	r3, r1
 3594 00d6 FBD1     		bne	.L465
 3595 00d8 8020     		movs	r0, #128
 3596 00da 0002     		lsls	r0, r0, #8
 3597 00dc 12E0     		b	.L429
 3598              	.L426:
 3599 00de FFF7FEFF 		bl	HAL_RCC_GetPCLK1Freq
 3600              	.L430:
 3601 00e2 0028     		cmp	r0, #0
 3602 00e4 0ED1     		bne	.L429
 3603              	.L466:
 3604 00e6 0020     		movs	r0, #0
 3605              	.L428:
 3606              		@ sp needed
 3607 00e8 0023     		movs	r3, #0
 3608 00ea 6366     		str	r3, [r4, #100]
 3609 00ec A366     		str	r3, [r4, #104]
 3610 00ee F8BD     		pop	{r3, r4, r5, r6, r7, pc}
 3611              	.L424:
 3612 00f0 1023     		movs	r3, #16
 3613 00f2 1068     		ldr	r0, [r2]
 3614 00f4 1840     		ands	r0, r3
 3615 00f6 4342     		rsbs	r3, r0, #0
 3616 00f8 5841     		adcs	r0, r0, r3
 3617 00fa 4A4B     		ldr	r3, .L470+44
 3618 00fc 4042     		rsbs	r0, r0, #0
 3619 00fe 1840     		ands	r0, r3
 3620 0100 494B     		ldr	r3, .L470+48
 3621 0102 C018     		adds	r0, r0, r3
 3622              	.L429:
 3623 0104 0322     		movs	r2, #3
 3624 0106 6368     		ldr	r3, [r4, #4]
 3625 0108 5A43     		muls	r2, r3
 3626 010a 9042     		cmp	r0, r2
 3627 010c E0D3     		bcc	.L465
 3628 010e 1A03     		lsls	r2, r3, #12
 3629 0110 9042     		cmp	r0, r2
 3630 0112 DDD8     		bhi	.L465
 3631 0114 0027     		movs	r7, #0
 3632 0116 020E     		lsrs	r2, r0, #24
 3633 0118 0102     		lsls	r1, r0, #8
ARM GAS  /tmp/cclRNoWa.s 			page 63


 3634 011a 5E08     		lsrs	r6, r3, #1
 3635 011c 8919     		adds	r1, r1, r6
 3636 011e 7A41     		adcs	r2, r2, r7
 3637 0120 0800     		movs	r0, r1
 3638 0122 1100     		movs	r1, r2
 3639 0124 1A00     		movs	r2, r3
 3640 0126 3B00     		movs	r3, r7
 3641 0128 FFF7FEFF 		bl	__aeabi_uldivmod
 3642 012c 3F4B     		ldr	r3, .L470+52
 3643 012e C218     		adds	r2, r0, r3
 3644 0130 3F4B     		ldr	r3, .L470+56
 3645              	.L469:
 3646 0132 9A42     		cmp	r2, r3
 3647 0134 CCD8     		bhi	.L465
 3648 0136 2368     		ldr	r3, [r4]
 3649 0138 D860     		str	r0, [r3, #12]
 3650 013a D4E7     		b	.L466
 3651              	.L427:
 3652 013c FFF7FEFF 		bl	HAL_RCC_GetSysClockFreq
 3653 0140 CFE7     		b	.L430
 3654              	.L437:
 3655 0142 324B     		ldr	r3, .L470+20
 3656 0144 384A     		ldr	r2, .L470+48
 3657 0146 1868     		ldr	r0, [r3]
 3658 0148 1023     		movs	r3, #16
 3659 014a 1840     		ands	r0, r3
 3660 014c 4342     		rsbs	r3, r0, #0
 3661 014e 5841     		adcs	r0, r0, r3
 3662 0150 344B     		ldr	r3, .L470+44
 3663 0152 4042     		rsbs	r0, r0, #0
 3664 0154 0340     		ands	r3, r0
 3665 0156 9B18     		adds	r3, r3, r2
 3666              	.L434:
 3667 0158 5800     		lsls	r0, r3, #1
 3668 015a 6368     		ldr	r3, [r4, #4]
 3669 015c 6168     		ldr	r1, [r4, #4]
 3670 015e 5B08     		lsrs	r3, r3, #1
 3671 0160 C018     		adds	r0, r0, r3
 3672 0162 FFF7FEFF 		bl	__aeabi_uidiv
 3673 0166 3349     		ldr	r1, .L470+60
 3674 0168 82B2     		uxth	r2, r0
 3675 016a 103A     		subs	r2, r2, #16
 3676 016c 0304     		lsls	r3, r0, #16
 3677 016e 8A42     		cmp	r2, r1
 3678 0170 AED8     		bhi	.L465
 3679 0172 0F22     		movs	r2, #15
 3680 0174 1B03     		lsls	r3, r3, #12
 3681 0176 9043     		bics	r0, r2
 3682 0178 80B2     		uxth	r0, r0
 3683 017a 2268     		ldr	r2, [r4]
 3684 017c 5B0F     		lsrs	r3, r3, #29
 3685 017e 1843     		orrs	r0, r3
 3686 0180 D060     		str	r0, [r2, #12]
 3687 0182 B0E7     		b	.L466
 3688              	.L436:
 3689 0184 FFF7FEFF 		bl	HAL_RCC_GetSysClockFreq
 3690 0188 32E0     		b	.L464
ARM GAS  /tmp/cclRNoWa.s 			page 64


 3691              	.L433:
 3692 018a 0828     		cmp	r0, #8
 3693 018c A0D8     		bhi	.L465
 3694 018e FFF7FEFF 		bl	__gnu_thumb1_case_sqi
 3695              	.L443:
 3696 0192 05       		.byte	(.L447-.L443)/2
 3697 0193 0A       		.byte	(.L446-.L443)/2
 3698 0194 0D       		.byte	(.L445-.L443)/2
 3699 0195 9F       		.byte	(.L465-.L443)/2
 3700 0196 23       		.byte	(.L444-.L443)/2
 3701 0197 9F       		.byte	(.L465-.L443)/2
 3702 0198 9F       		.byte	(.L465-.L443)/2
 3703 0199 9F       		.byte	(.L465-.L443)/2
 3704 019a 26       		.byte	(.L454-.L443)/2
 3705 019b 00       		.p2align 1
 3706              	.L447:
 3707 019c FFF7FEFF 		bl	HAL_RCC_GetPCLK1Freq
 3708              	.L448:
 3709 01a0 0028     		cmp	r0, #0
 3710 01a2 A0D0     		beq	.L466
 3711 01a4 0DE0     		b	.L442
 3712              	.L446:
 3713 01a6 FFF7FEFF 		bl	HAL_RCC_GetPCLK2Freq
 3714 01aa F9E7     		b	.L448
 3715              	.L445:
 3716 01ac 174B     		ldr	r3, .L470+20
 3717 01ae 1868     		ldr	r0, [r3]
 3718 01b0 1023     		movs	r3, #16
 3719 01b2 1840     		ands	r0, r3
 3720 01b4 4342     		rsbs	r3, r0, #0
 3721 01b6 5841     		adcs	r0, r0, r3
 3722 01b8 1A4B     		ldr	r3, .L470+44
 3723 01ba 4042     		rsbs	r0, r0, #0
 3724 01bc 1840     		ands	r0, r3
 3725 01be 1A4B     		ldr	r3, .L470+48
 3726 01c0 C018     		adds	r0, r0, r3
 3727              	.L442:
 3728 01c2 6368     		ldr	r3, [r4, #4]
 3729 01c4 6168     		ldr	r1, [r4, #4]
 3730 01c6 5B08     		lsrs	r3, r3, #1
 3731 01c8 1818     		adds	r0, r3, r0
 3732 01ca FFF7FEFF 		bl	__aeabi_uidiv
 3733 01ce 80B2     		uxth	r0, r0
 3734 01d0 0200     		movs	r2, r0
 3735 01d2 184B     		ldr	r3, .L470+60
 3736 01d4 103A     		subs	r2, r2, #16
 3737 01d6 ACE7     		b	.L469
 3738              	.L444:
 3739 01d8 FFF7FEFF 		bl	HAL_RCC_GetSysClockFreq
 3740 01dc E0E7     		b	.L448
 3741              	.L454:
 3742 01de 8020     		movs	r0, #128
 3743 01e0 0002     		lsls	r0, r0, #8
 3744 01e2 EEE7     		b	.L442
 3745              	.L422:
 3746 01e4 8022     		movs	r2, #128
 3747 01e6 1202     		lsls	r2, r2, #8
ARM GAS  /tmp/cclRNoWa.s 			page 65


 3748 01e8 9342     		cmp	r3, r2
 3749 01ea D7D1     		bne	.L447
 3750              	.L439:
 3751 01ec FFF7FEFF 		bl	HAL_RCC_GetPCLK1Freq
 3752              	.L464:
 3753 01f0 031E     		subs	r3, r0, #0
 3754 01f2 00D1     		bne	.LCB3040
 3755 01f4 77E7     		b	.L466	@long jump
 3756              	.LCB3040:
 3757 01f6 AFE7     		b	.L434
 3758              	.L471:
 3759              		.align	2
 3760              	.L470:
 3761 01f8 F369FFEF 		.word	-268473869
 3762 01fc FFCFFFFF 		.word	-12289
 3763 0200 00480040 		.word	1073760256
 3764 0204 FFF4FFFF 		.word	-2817
 3765 0208 00380140 		.word	1073821696
 3766 020c 00100240 		.word	1073876992
 3767 0210 00000000 		.word	.LANCHOR0
 3768 0214 00440040 		.word	1073759232
 3769 0218 00000000 		.word	.LANCHOR1
 3770 021c 004C0040 		.word	1073761280
 3771 0220 00500040 		.word	1073762304
 3772 0224 001BB700 		.word	12000000
 3773 0228 00093D00 		.word	4000000
 3774 022c 00FDFFFF 		.word	-768
 3775 0230 FFFC0F00 		.word	1047807
 3776 0234 EFFF0000 		.word	65519
 3778              		.section	.text.UART_AdvFeatureConfig,"ax",%progbits
 3779              		.align	1
 3780              		.global	UART_AdvFeatureConfig
 3781              		.syntax unified
 3782              		.code	16
 3783              		.thumb_func
 3784              		.fpu softvfp
 3786              	UART_AdvFeatureConfig:
 3787              		@ args = 0, pretend = 0, frame = 0
 3788              		@ frame_needed = 0, uses_anonymous_args = 0
 3789 0000 436A     		ldr	r3, [r0, #36]
 3790 0002 30B5     		push	{r4, r5, lr}
 3791 0004 DA07     		lsls	r2, r3, #31
 3792 0006 06D5     		bpl	.L473
 3793 0008 0168     		ldr	r1, [r0]
 3794 000a 284C     		ldr	r4, .L504
 3795 000c 4A68     		ldr	r2, [r1, #4]
 3796 000e 2240     		ands	r2, r4
 3797 0010 846A     		ldr	r4, [r0, #40]
 3798 0012 2243     		orrs	r2, r4
 3799 0014 4A60     		str	r2, [r1, #4]
 3800              	.L473:
 3801 0016 9A07     		lsls	r2, r3, #30
 3802 0018 06D5     		bpl	.L474
 3803 001a 0168     		ldr	r1, [r0]
 3804 001c 244C     		ldr	r4, .L504+4
 3805 001e 4A68     		ldr	r2, [r1, #4]
 3806 0020 2240     		ands	r2, r4
ARM GAS  /tmp/cclRNoWa.s 			page 66


 3807 0022 C46A     		ldr	r4, [r0, #44]
 3808 0024 2243     		orrs	r2, r4
 3809 0026 4A60     		str	r2, [r1, #4]
 3810              	.L474:
 3811 0028 5A07     		lsls	r2, r3, #29
 3812 002a 06D5     		bpl	.L475
 3813 002c 0168     		ldr	r1, [r0]
 3814 002e 214C     		ldr	r4, .L504+8
 3815 0030 4A68     		ldr	r2, [r1, #4]
 3816 0032 2240     		ands	r2, r4
 3817 0034 046B     		ldr	r4, [r0, #48]
 3818 0036 2243     		orrs	r2, r4
 3819 0038 4A60     		str	r2, [r1, #4]
 3820              	.L475:
 3821 003a 1A07     		lsls	r2, r3, #28
 3822 003c 06D5     		bpl	.L476
 3823 003e 0168     		ldr	r1, [r0]
 3824 0040 1D4C     		ldr	r4, .L504+12
 3825 0042 4A68     		ldr	r2, [r1, #4]
 3826 0044 2240     		ands	r2, r4
 3827 0046 446B     		ldr	r4, [r0, #52]
 3828 0048 2243     		orrs	r2, r4
 3829 004a 4A60     		str	r2, [r1, #4]
 3830              	.L476:
 3831 004c DA06     		lsls	r2, r3, #27
 3832 004e 06D5     		bpl	.L477
 3833 0050 0168     		ldr	r1, [r0]
 3834 0052 1A4C     		ldr	r4, .L504+16
 3835 0054 8A68     		ldr	r2, [r1, #8]
 3836 0056 2240     		ands	r2, r4
 3837 0058 846B     		ldr	r4, [r0, #56]
 3838 005a 2243     		orrs	r2, r4
 3839 005c 8A60     		str	r2, [r1, #8]
 3840              	.L477:
 3841 005e 9A06     		lsls	r2, r3, #26
 3842 0060 06D5     		bpl	.L478
 3843 0062 0168     		ldr	r1, [r0]
 3844 0064 164C     		ldr	r4, .L504+20
 3845 0066 8A68     		ldr	r2, [r1, #8]
 3846 0068 2240     		ands	r2, r4
 3847 006a C46B     		ldr	r4, [r0, #60]
 3848 006c 2243     		orrs	r2, r4
 3849 006e 8A60     		str	r2, [r1, #8]
 3850              	.L478:
 3851 0070 5A06     		lsls	r2, r3, #25
 3852 0072 10D5     		bpl	.L480
 3853 0074 0168     		ldr	r1, [r0]
 3854 0076 134D     		ldr	r5, .L504+24
 3855 0078 4A68     		ldr	r2, [r1, #4]
 3856 007a 046C     		ldr	r4, [r0, #64]
 3857 007c 2A40     		ands	r2, r5
 3858 007e 2243     		orrs	r2, r4
 3859 0080 4A60     		str	r2, [r1, #4]
 3860 0082 8022     		movs	r2, #128
 3861 0084 5203     		lsls	r2, r2, #13
 3862 0086 9442     		cmp	r4, r2
 3863 0088 05D1     		bne	.L480
ARM GAS  /tmp/cclRNoWa.s 			page 67


 3864 008a 4A68     		ldr	r2, [r1, #4]
 3865 008c 0E4C     		ldr	r4, .L504+28
 3866 008e 2240     		ands	r2, r4
 3867 0090 446C     		ldr	r4, [r0, #68]
 3868 0092 2243     		orrs	r2, r4
 3869 0094 4A60     		str	r2, [r1, #4]
 3870              	.L480:
 3871 0096 1B06     		lsls	r3, r3, #24
 3872 0098 06D5     		bpl	.L472
 3873 009a 0268     		ldr	r2, [r0]
 3874 009c 0B49     		ldr	r1, .L504+32
 3875 009e 5368     		ldr	r3, [r2, #4]
 3876 00a0 0B40     		ands	r3, r1
 3877 00a2 816C     		ldr	r1, [r0, #72]
 3878 00a4 0B43     		orrs	r3, r1
 3879 00a6 5360     		str	r3, [r2, #4]
 3880              	.L472:
 3881              		@ sp needed
 3882 00a8 30BD     		pop	{r4, r5, pc}
 3883              	.L505:
 3884 00aa C046     		.align	2
 3885              	.L504:
 3886 00ac FFFFFDFF 		.word	-131073
 3887 00b0 FFFFFEFF 		.word	-65537
 3888 00b4 FFFFFBFF 		.word	-262145
 3889 00b8 FF7FFFFF 		.word	-32769
 3890 00bc FFEFFFFF 		.word	-4097
 3891 00c0 FFDFFFFF 		.word	-8193
 3892 00c4 FFFFEFFF 		.word	-1048577
 3893 00c8 FFFF9FFF 		.word	-6291457
 3894 00cc FFFFF7FF 		.word	-524289
 3896              		.section	.text.UART_WaitOnFlagUntilTimeout,"ax",%progbits
 3897              		.align	1
 3898              		.global	UART_WaitOnFlagUntilTimeout
 3899              		.syntax unified
 3900              		.code	16
 3901              		.thumb_func
 3902              		.fpu softvfp
 3904              	UART_WaitOnFlagUntilTimeout:
 3905              		@ args = 4, pretend = 0, frame = 8
 3906              		@ frame_needed = 0, uses_anonymous_args = 0
 3907 0000 F7B5     		push	{r0, r1, r2, r4, r5, r6, r7, lr}
 3908 0002 8027     		movs	r7, #128
 3909 0004 0400     		movs	r4, r0
 3910 0006 0D00     		movs	r5, r1
 3911 0008 1600     		movs	r6, r2
 3912 000a 0193     		str	r3, [sp, #4]
 3913 000c 3F01     		lsls	r7, r7, #4
 3914              	.L516:
 3915 000e 2268     		ldr	r2, [r4]
 3916              	.L508:
 3917 0010 D369     		ldr	r3, [r2, #28]
 3918 0012 2B40     		ands	r3, r5
 3919 0014 5B1B     		subs	r3, r3, r5
 3920 0016 5942     		rsbs	r1, r3, #0
 3921 0018 4B41     		adcs	r3, r3, r1
 3922 001a B342     		cmp	r3, r6
ARM GAS  /tmp/cclRNoWa.s 			page 68


 3923 001c 01D0     		beq	.L512
 3924 001e 0020     		movs	r0, #0
 3925 0020 28E0     		b	.L511
 3926              	.L512:
 3927 0022 089B     		ldr	r3, [sp, #32]
 3928 0024 0133     		adds	r3, r3, #1
 3929 0026 F3D0     		beq	.L508
 3930 0028 FFF7FEFF 		bl	HAL_GetTick
 3931 002c 019B     		ldr	r3, [sp, #4]
 3932 002e C01A     		subs	r0, r0, r3
 3933 0030 089B     		ldr	r3, [sp, #32]
 3934 0032 9842     		cmp	r0, r3
 3935 0034 01D8     		bhi	.L509
 3936 0036 002B     		cmp	r3, #0
 3937 0038 1DD1     		bne	.L510
 3938              	.L509:
 3939              		.syntax divided
 3940              	@ 453 "bsp_l0/mcu_drivers/cmsis/Core/Include/cmsis_gcc.h" 1
 3941 003a EFF31080 		MRS r0, primask
 3942              	@ 0 "" 2
 3943              		.thumb
 3944              		.syntax unified
 3945 003e 0122     		movs	r2, #1
 3946              		.syntax divided
 3947              	@ 481 "bsp_l0/mcu_drivers/cmsis/Core/Include/cmsis_gcc.h" 1
 3948 0040 82F31088 		MSR primask, r2
 3949              	@ 0 "" 2
 3950              		.thumb
 3951              		.syntax unified
 3952 0044 2168     		ldr	r1, [r4]
 3953 0046 1E4D     		ldr	r5, .L521
 3954 0048 0B68     		ldr	r3, [r1]
 3955 004a 2B40     		ands	r3, r5
 3956 004c 0B60     		str	r3, [r1]
 3957              		.syntax divided
 3958              	@ 481 "bsp_l0/mcu_drivers/cmsis/Core/Include/cmsis_gcc.h" 1
 3959 004e 80F31088 		MSR primask, r0
 3960              	@ 0 "" 2
 3961              	@ 453 "bsp_l0/mcu_drivers/cmsis/Core/Include/cmsis_gcc.h" 1
 3962 0052 EFF31080 		MRS r0, primask
 3963              	@ 0 "" 2
 3964              	@ 481 "bsp_l0/mcu_drivers/cmsis/Core/Include/cmsis_gcc.h" 1
 3965 0056 82F31088 		MSR primask, r2
 3966              	@ 0 "" 2
 3967              		.thumb
 3968              		.syntax unified
 3969 005a 2168     		ldr	r1, [r4]
 3970 005c 8B68     		ldr	r3, [r1, #8]
 3971 005e 9343     		bics	r3, r2
 3972 0060 8B60     		str	r3, [r1, #8]
 3973              		.syntax divided
 3974              	@ 481 "bsp_l0/mcu_drivers/cmsis/Core/Include/cmsis_gcc.h" 1
 3975 0062 80F31088 		MSR primask, r0
 3976              	@ 0 "" 2
 3977              		.thumb
 3978              		.syntax unified
 3979 0066 2023     		movs	r3, #32
ARM GAS  /tmp/cclRNoWa.s 			page 69


 3980 0068 A367     		str	r3, [r4, #120]
 3981 006a E367     		str	r3, [r4, #124]
 3982              	.L520:
 3983 006c 0023     		movs	r3, #0
 3984 006e 0320     		movs	r0, #3
 3985 0070 7434     		adds	r4, r4, #116
 3986 0072 2370     		strb	r3, [r4]
 3987              	.L511:
 3988              		@ sp needed
 3989 0074 FEBD     		pop	{r1, r2, r3, r4, r5, r6, r7, pc}
 3990              	.L510:
 3991 0076 0421     		movs	r1, #4
 3992 0078 2368     		ldr	r3, [r4]
 3993 007a 1A68     		ldr	r2, [r3]
 3994 007c 0A42     		tst	r2, r1
 3995 007e C6D0     		beq	.L516
 3996 0080 DA69     		ldr	r2, [r3, #28]
 3997 0082 3A42     		tst	r2, r7
 3998 0084 C3D0     		beq	.L516
 3999 0086 1F62     		str	r7, [r3, #32]
 4000              		.syntax divided
 4001              	@ 453 "bsp_l0/mcu_drivers/cmsis/Core/Include/cmsis_gcc.h" 1
 4002 0088 EFF31080 		MRS r0, primask
 4003              	@ 0 "" 2
 4004              		.thumb
 4005              		.syntax unified
 4006 008c 0122     		movs	r2, #1
 4007              		.syntax divided
 4008              	@ 481 "bsp_l0/mcu_drivers/cmsis/Core/Include/cmsis_gcc.h" 1
 4009 008e 82F31088 		MSR primask, r2
 4010              	@ 0 "" 2
 4011              		.thumb
 4012              		.syntax unified
 4013 0092 2168     		ldr	r1, [r4]
 4014 0094 0A4D     		ldr	r5, .L521
 4015 0096 0B68     		ldr	r3, [r1]
 4016 0098 2B40     		ands	r3, r5
 4017 009a 0B60     		str	r3, [r1]
 4018              		.syntax divided
 4019              	@ 481 "bsp_l0/mcu_drivers/cmsis/Core/Include/cmsis_gcc.h" 1
 4020 009c 80F31088 		MSR primask, r0
 4021              	@ 0 "" 2
 4022              	@ 453 "bsp_l0/mcu_drivers/cmsis/Core/Include/cmsis_gcc.h" 1
 4023 00a0 EFF31080 		MRS r0, primask
 4024              	@ 0 "" 2
 4025              	@ 481 "bsp_l0/mcu_drivers/cmsis/Core/Include/cmsis_gcc.h" 1
 4026 00a4 82F31088 		MSR primask, r2
 4027              	@ 0 "" 2
 4028              		.thumb
 4029              		.syntax unified
 4030 00a8 2168     		ldr	r1, [r4]
 4031 00aa 8B68     		ldr	r3, [r1, #8]
 4032 00ac 9343     		bics	r3, r2
 4033 00ae 8B60     		str	r3, [r1, #8]
 4034              		.syntax divided
 4035              	@ 481 "bsp_l0/mcu_drivers/cmsis/Core/Include/cmsis_gcc.h" 1
 4036 00b0 80F31088 		MSR primask, r0
ARM GAS  /tmp/cclRNoWa.s 			page 70


 4037              	@ 0 "" 2
 4038              		.thumb
 4039              		.syntax unified
 4040 00b4 2023     		movs	r3, #32
 4041 00b6 221D     		adds	r2, r4, #4
 4042 00b8 A367     		str	r3, [r4, #120]
 4043 00ba E367     		str	r3, [r4, #124]
 4044 00bc D367     		str	r3, [r2, #124]
 4045 00be D5E7     		b	.L520
 4046              	.L522:
 4047              		.align	2
 4048              	.L521:
 4049 00c0 5FFEFFFF 		.word	-417
 4051              		.section	.text.HAL_UART_Transmit,"ax",%progbits
 4052              		.align	1
 4053              		.global	HAL_UART_Transmit
 4054              		.syntax unified
 4055              		.code	16
 4056              		.thumb_func
 4057              		.fpu softvfp
 4059              	HAL_UART_Transmit:
 4060              		@ args = 0, pretend = 0, frame = 16
 4061              		@ frame_needed = 0, uses_anonymous_args = 0
 4062 0000 F0B5     		push	{r4, r5, r6, r7, lr}
 4063 0002 87B0     		sub	sp, sp, #28
 4064 0004 0593     		str	r3, [sp, #20]
 4065 0006 836F     		ldr	r3, [r0, #120]
 4066 0008 0400     		movs	r4, r0
 4067 000a 0D00     		movs	r5, r1
 4068 000c 1600     		movs	r6, r2
 4069 000e 0220     		movs	r0, #2
 4070 0010 202B     		cmp	r3, #32
 4071 0012 51D1     		bne	.L524
 4072 0014 0138     		subs	r0, r0, #1
 4073 0016 0029     		cmp	r1, #0
 4074 0018 4ED0     		beq	.L524
 4075 001a 002A     		cmp	r2, #0
 4076 001c 4CD0     		beq	.L524
 4077 001e 8023     		movs	r3, #128
 4078 0020 A268     		ldr	r2, [r4, #8]
 4079 0022 5B01     		lsls	r3, r3, #5
 4080 0024 9A42     		cmp	r2, r3
 4081 0026 04D1     		bne	.L525
 4082 0028 2369     		ldr	r3, [r4, #16]
 4083 002a 002B     		cmp	r3, #0
 4084 002c 01D1     		bne	.L525
 4085 002e 0142     		tst	r1, r0
 4086 0030 42D1     		bne	.L524
 4087              	.L525:
 4088 0032 2300     		movs	r3, r4
 4089 0034 7433     		adds	r3, r3, #116
 4090 0036 0393     		str	r3, [sp, #12]
 4091 0038 1B78     		ldrb	r3, [r3]
 4092 003a 0220     		movs	r0, #2
 4093 003c 012B     		cmp	r3, #1
 4094 003e 3BD0     		beq	.L524
 4095 0040 0123     		movs	r3, #1
ARM GAS  /tmp/cclRNoWa.s 			page 71


 4096 0042 039A     		ldr	r2, [sp, #12]
 4097 0044 1370     		strb	r3, [r2]
 4098 0046 0022     		movs	r2, #0
 4099 0048 231D     		adds	r3, r4, #4
 4100 004a DA67     		str	r2, [r3, #124]
 4101 004c 2123     		movs	r3, #33
 4102 004e A367     		str	r3, [r4, #120]
 4103 0050 FFF7FEFF 		bl	HAL_GetTick
 4104 0054 2300     		movs	r3, r4
 4105 0056 5033     		adds	r3, r3, #80
 4106 0058 1E80     		strh	r6, [r3]
 4107 005a 0233     		adds	r3, r3, #2
 4108 005c 1E80     		strh	r6, [r3]
 4109 005e 0493     		str	r3, [sp, #16]
 4110 0060 8023     		movs	r3, #128
 4111 0062 A268     		ldr	r2, [r4, #8]
 4112 0064 0700     		movs	r7, r0
 4113 0066 0026     		movs	r6, #0
 4114 0068 5B01     		lsls	r3, r3, #5
 4115 006a 9A42     		cmp	r2, r3
 4116 006c 04D1     		bne	.L526
 4117 006e 2369     		ldr	r3, [r4, #16]
 4118 0070 B342     		cmp	r3, r6
 4119 0072 01D1     		bne	.L526
 4120 0074 2E00     		movs	r6, r5
 4121 0076 1D00     		movs	r5, r3
 4122              	.L526:
 4123 0078 0023     		movs	r3, #0
 4124 007a 039A     		ldr	r2, [sp, #12]
 4125 007c 1370     		strb	r3, [r2]
 4126              	.L527:
 4127 007e 2300     		movs	r3, r4
 4128 0080 5233     		adds	r3, r3, #82
 4129 0082 1B88     		ldrh	r3, [r3]
 4130 0084 9AB2     		uxth	r2, r3
 4131 0086 002B     		cmp	r3, #0
 4132 0088 0BD1     		bne	.L531
 4133 008a 059B     		ldr	r3, [sp, #20]
 4134 008c 4021     		movs	r1, #64
 4135 008e 0093     		str	r3, [sp]
 4136 0090 2000     		movs	r0, r4
 4137 0092 3B00     		movs	r3, r7
 4138 0094 FFF7FEFF 		bl	UART_WaitOnFlagUntilTimeout
 4139 0098 0028     		cmp	r0, #0
 4140 009a 0CD1     		bne	.L532
 4141 009c 2023     		movs	r3, #32
 4142 009e A367     		str	r3, [r4, #120]
 4143 00a0 0AE0     		b	.L524
 4144              	.L531:
 4145 00a2 059B     		ldr	r3, [sp, #20]
 4146 00a4 0022     		movs	r2, #0
 4147 00a6 0093     		str	r3, [sp]
 4148 00a8 8021     		movs	r1, #128
 4149 00aa 3B00     		movs	r3, r7
 4150 00ac 2000     		movs	r0, r4
 4151 00ae FFF7FEFF 		bl	UART_WaitOnFlagUntilTimeout
 4152 00b2 0028     		cmp	r0, #0
ARM GAS  /tmp/cclRNoWa.s 			page 72


 4153 00b4 02D0     		beq	.L528
 4154              	.L532:
 4155 00b6 0320     		movs	r0, #3
 4156              	.L524:
 4157 00b8 07B0     		add	sp, sp, #28
 4158              		@ sp needed
 4159 00ba F0BD     		pop	{r4, r5, r6, r7, pc}
 4160              	.L528:
 4161 00bc 2268     		ldr	r2, [r4]
 4162 00be 002D     		cmp	r5, #0
 4163 00c0 0BD1     		bne	.L529
 4164 00c2 3388     		ldrh	r3, [r6]
 4165 00c4 0236     		adds	r6, r6, #2
 4166 00c6 DB05     		lsls	r3, r3, #23
 4167 00c8 DB0D     		lsrs	r3, r3, #23
 4168 00ca 9362     		str	r3, [r2, #40]
 4169              	.L530:
 4170 00cc 049B     		ldr	r3, [sp, #16]
 4171 00ce 049A     		ldr	r2, [sp, #16]
 4172 00d0 1B88     		ldrh	r3, [r3]
 4173 00d2 013B     		subs	r3, r3, #1
 4174 00d4 9BB2     		uxth	r3, r3
 4175 00d6 1380     		strh	r3, [r2]
 4176 00d8 D1E7     		b	.L527
 4177              	.L529:
 4178 00da 2B78     		ldrb	r3, [r5]
 4179 00dc 0135     		adds	r5, r5, #1
 4180 00de 9362     		str	r3, [r2, #40]
 4181 00e0 F4E7     		b	.L530
 4183              		.section	.text.HAL_UART_Receive,"ax",%progbits
 4184              		.align	1
 4185              		.global	HAL_UART_Receive
 4186              		.syntax unified
 4187              		.code	16
 4188              		.thumb_func
 4189              		.fpu softvfp
 4191              	HAL_UART_Receive:
 4192              		@ args = 0, pretend = 0, frame = 16
 4193              		@ frame_needed = 0, uses_anonymous_args = 0
 4194 0000 F0B5     		push	{r4, r5, r6, r7, lr}
 4195 0002 87B0     		sub	sp, sp, #28
 4196 0004 0593     		str	r3, [sp, #20]
 4197 0006 C36F     		ldr	r3, [r0, #124]
 4198 0008 0400     		movs	r4, r0
 4199 000a 0F00     		movs	r7, r1
 4200 000c 1500     		movs	r5, r2
 4201 000e 0220     		movs	r0, #2
 4202 0010 202B     		cmp	r3, #32
 4203 0012 44D1     		bne	.L541
 4204 0014 0138     		subs	r0, r0, #1
 4205 0016 0029     		cmp	r1, #0
 4206 0018 41D0     		beq	.L541
 4207 001a 002A     		cmp	r2, #0
 4208 001c 3FD0     		beq	.L541
 4209 001e 8023     		movs	r3, #128
 4210 0020 A268     		ldr	r2, [r4, #8]
 4211 0022 5B01     		lsls	r3, r3, #5
ARM GAS  /tmp/cclRNoWa.s 			page 73


 4212 0024 9A42     		cmp	r2, r3
 4213 0026 04D1     		bne	.L542
 4214 0028 2369     		ldr	r3, [r4, #16]
 4215 002a 002B     		cmp	r3, #0
 4216 002c 01D1     		bne	.L542
 4217 002e 0142     		tst	r1, r0
 4218 0030 35D1     		bne	.L541
 4219              	.L542:
 4220 0032 2600     		movs	r6, r4
 4221 0034 7436     		adds	r6, r6, #116
 4222 0036 3378     		ldrb	r3, [r6]
 4223 0038 0220     		movs	r0, #2
 4224 003a 012B     		cmp	r3, #1
 4225 003c 2FD0     		beq	.L541
 4226 003e 0123     		movs	r3, #1
 4227 0040 0022     		movs	r2, #0
 4228 0042 3370     		strb	r3, [r6]
 4229 0044 231D     		adds	r3, r4, #4
 4230 0046 DA67     		str	r2, [r3, #124]
 4231 0048 2223     		movs	r3, #34
 4232 004a E367     		str	r3, [r4, #124]
 4233 004c 2266     		str	r2, [r4, #96]
 4234 004e FFF7FEFF 		bl	HAL_GetTick
 4235 0052 2300     		movs	r3, r4
 4236 0054 8021     		movs	r1, #128
 4237 0056 A268     		ldr	r2, [r4, #8]
 4238 0058 5833     		adds	r3, r3, #88
 4239 005a 1D80     		strh	r5, [r3]
 4240 005c 5D80     		strh	r5, [r3, #2]
 4241 005e 0490     		str	r0, [sp, #16]
 4242 0060 4901     		lsls	r1, r1, #5
 4243 0062 0433     		adds	r3, r3, #4
 4244 0064 8A42     		cmp	r2, r1
 4245 0066 1ED1     		bne	.L543
 4246 0068 2169     		ldr	r1, [r4, #16]
 4247 006a 0029     		cmp	r1, #0
 4248 006c 19D1     		bne	.L544
 4249 006e 2549     		ldr	r1, .L569
 4250              	.L568:
 4251 0070 1980     		strh	r1, [r3]
 4252 0072 1B88     		ldrh	r3, [r3]
 4253 0074 0025     		movs	r5, #0
 4254 0076 0393     		str	r3, [sp, #12]
 4255 0078 8023     		movs	r3, #128
 4256 007a 5B01     		lsls	r3, r3, #5
 4257 007c 9A42     		cmp	r2, r3
 4258 007e 04D1     		bne	.L549
 4259 0080 2369     		ldr	r3, [r4, #16]
 4260 0082 AB42     		cmp	r3, r5
 4261 0084 01D1     		bne	.L549
 4262 0086 3D00     		movs	r5, r7
 4263 0088 1F00     		movs	r7, r3
 4264              	.L549:
 4265 008a 0023     		movs	r3, #0
 4266 008c 3370     		strb	r3, [r6]
 4267              	.L550:
 4268 008e 2600     		movs	r6, r4
ARM GAS  /tmp/cclRNoWa.s 			page 74


 4269 0090 5A36     		adds	r6, r6, #90
 4270 0092 3388     		ldrh	r3, [r6]
 4271 0094 98B2     		uxth	r0, r3
 4272 0096 002B     		cmp	r3, #0
 4273 0098 17D1     		bne	.L553
 4274 009a 2033     		adds	r3, r3, #32
 4275 009c E367     		str	r3, [r4, #124]
 4276              	.L541:
 4277 009e 07B0     		add	sp, sp, #28
 4278              		@ sp needed
 4279 00a0 F0BD     		pop	{r4, r5, r6, r7, pc}
 4280              	.L544:
 4281 00a2 FF21     		movs	r1, #255
 4282 00a4 E4E7     		b	.L568
 4283              	.L543:
 4284 00a6 002A     		cmp	r2, #0
 4285 00a8 04D1     		bne	.L546
 4286 00aa 2169     		ldr	r1, [r4, #16]
 4287 00ac 0029     		cmp	r1, #0
 4288 00ae F8D0     		beq	.L544
 4289              	.L548:
 4290 00b0 7F21     		movs	r1, #127
 4291 00b2 DDE7     		b	.L568
 4292              	.L546:
 4293 00b4 8021     		movs	r1, #128
 4294 00b6 4905     		lsls	r1, r1, #21
 4295 00b8 8A42     		cmp	r2, r1
 4296 00ba 04D1     		bne	.L547
 4297 00bc 2169     		ldr	r1, [r4, #16]
 4298 00be 0029     		cmp	r1, #0
 4299 00c0 F6D0     		beq	.L548
 4300 00c2 3F21     		movs	r1, #63
 4301 00c4 D4E7     		b	.L568
 4302              	.L547:
 4303 00c6 0021     		movs	r1, #0
 4304 00c8 D2E7     		b	.L568
 4305              	.L553:
 4306 00ca 059B     		ldr	r3, [sp, #20]
 4307 00cc 0022     		movs	r2, #0
 4308 00ce 0093     		str	r3, [sp]
 4309 00d0 2021     		movs	r1, #32
 4310 00d2 2000     		movs	r0, r4
 4311 00d4 049B     		ldr	r3, [sp, #16]
 4312 00d6 FFF7FEFF 		bl	UART_WaitOnFlagUntilTimeout
 4313 00da 0028     		cmp	r0, #0
 4314 00dc 0FD1     		bne	.L561
 4315 00de 2368     		ldr	r3, [r4]
 4316 00e0 039A     		ldr	r2, [sp, #12]
 4317 00e2 5B6A     		ldr	r3, [r3, #36]
 4318 00e4 1340     		ands	r3, r2
 4319 00e6 002F     		cmp	r7, #0
 4320 00e8 06D1     		bne	.L551
 4321 00ea 2B80     		strh	r3, [r5]
 4322 00ec 0235     		adds	r5, r5, #2
 4323              	.L552:
 4324 00ee 3388     		ldrh	r3, [r6]
 4325 00f0 013B     		subs	r3, r3, #1
ARM GAS  /tmp/cclRNoWa.s 			page 75


 4326 00f2 9BB2     		uxth	r3, r3
 4327 00f4 3380     		strh	r3, [r6]
 4328 00f6 CAE7     		b	.L550
 4329              	.L551:
 4330 00f8 3B70     		strb	r3, [r7]
 4331 00fa 0137     		adds	r7, r7, #1
 4332 00fc F7E7     		b	.L552
 4333              	.L561:
 4334 00fe 0320     		movs	r0, #3
 4335 0100 CDE7     		b	.L541
 4336              	.L570:
 4337 0102 C046     		.align	2
 4338              	.L569:
 4339 0104 FF010000 		.word	511
 4341              		.section	.text.UART_CheckIdleState,"ax",%progbits
 4342              		.align	1
 4343              		.global	UART_CheckIdleState
 4344              		.syntax unified
 4345              		.code	16
 4346              		.thumb_func
 4347              		.fpu softvfp
 4349              	UART_CheckIdleState:
 4350              		@ args = 0, pretend = 0, frame = 0
 4351              		@ frame_needed = 0, uses_anonymous_args = 0
 4352 0000 73B5     		push	{r0, r1, r4, r5, r6, lr}
 4353 0002 0026     		movs	r6, #0
 4354 0004 0400     		movs	r4, r0
 4355 0006 031D     		adds	r3, r0, #4
 4356 0008 DE67     		str	r6, [r3, #124]
 4357 000a FFF7FEFF 		bl	HAL_GetTick
 4358 000e 2368     		ldr	r3, [r4]
 4359 0010 0500     		movs	r5, r0
 4360 0012 1B68     		ldr	r3, [r3]
 4361 0014 1B07     		lsls	r3, r3, #28
 4362 0016 16D4     		bmi	.L572
 4363              	.L575:
 4364 0018 2368     		ldr	r3, [r4]
 4365 001a 1B68     		ldr	r3, [r3]
 4366 001c 5B07     		lsls	r3, r3, #29
 4367 001e 0AD5     		bpl	.L574
 4368 0020 8021     		movs	r1, #128
 4369 0022 0F4B     		ldr	r3, .L581
 4370 0024 0022     		movs	r2, #0
 4371 0026 0093     		str	r3, [sp]
 4372 0028 2000     		movs	r0, r4
 4373 002a 2B00     		movs	r3, r5
 4374 002c C903     		lsls	r1, r1, #15
 4375 002e FFF7FEFF 		bl	UART_WaitOnFlagUntilTimeout
 4376 0032 0028     		cmp	r0, #0
 4377 0034 12D1     		bne	.L577
 4378              	.L574:
 4379 0036 2023     		movs	r3, #32
 4380 0038 0020     		movs	r0, #0
 4381 003a A367     		str	r3, [r4, #120]
 4382 003c E367     		str	r3, [r4, #124]
 4383 003e 2066     		str	r0, [r4, #96]
 4384 0040 7434     		adds	r4, r4, #116
ARM GAS  /tmp/cclRNoWa.s 			page 76


 4385 0042 2070     		strb	r0, [r4]
 4386 0044 0BE0     		b	.L576
 4387              	.L572:
 4388 0046 8021     		movs	r1, #128
 4389 0048 054B     		ldr	r3, .L581
 4390 004a 3200     		movs	r2, r6
 4391 004c 0093     		str	r3, [sp]
 4392 004e 8903     		lsls	r1, r1, #14
 4393 0050 0300     		movs	r3, r0
 4394 0052 2000     		movs	r0, r4
 4395 0054 FFF7FEFF 		bl	UART_WaitOnFlagUntilTimeout
 4396 0058 0028     		cmp	r0, #0
 4397 005a DDD0     		beq	.L575
 4398              	.L577:
 4399 005c 0320     		movs	r0, #3
 4400              	.L576:
 4401              		@ sp needed
 4402 005e 76BD     		pop	{r1, r2, r4, r5, r6, pc}
 4403              	.L582:
 4404              		.align	2
 4405              	.L581:
 4406 0060 FFFFFF01 		.word	33554431
 4408              		.section	.text.HAL_UART_Init,"ax",%progbits
 4409              		.align	1
 4410              		.global	HAL_UART_Init
 4411              		.syntax unified
 4412              		.code	16
 4413              		.thumb_func
 4414              		.fpu softvfp
 4416              	HAL_UART_Init:
 4417              		@ args = 0, pretend = 0, frame = 0
 4418              		@ frame_needed = 0, uses_anonymous_args = 0
 4419 0000 10B5     		push	{r4, lr}
 4420 0002 041E     		subs	r4, r0, #0
 4421 0004 01D1     		bne	.L584
 4422              	.L587:
 4423 0006 0120     		movs	r0, #1
 4424              	.L585:
 4425              		@ sp needed
 4426 0008 10BD     		pop	{r4, pc}
 4427              	.L584:
 4428 000a 836F     		ldr	r3, [r0, #120]
 4429 000c 002B     		cmp	r3, #0
 4430 000e 04D1     		bne	.L586
 4431 0010 0200     		movs	r2, r0
 4432 0012 7432     		adds	r2, r2, #116
 4433 0014 1370     		strb	r3, [r2]
 4434 0016 FFF7FEFF 		bl	HAL_UART_MspInit
 4435              	.L586:
 4436 001a 2423     		movs	r3, #36
 4437 001c 0121     		movs	r1, #1
 4438 001e 2268     		ldr	r2, [r4]
 4439 0020 A367     		str	r3, [r4, #120]
 4440 0022 1368     		ldr	r3, [r2]
 4441 0024 2000     		movs	r0, r4
 4442 0026 8B43     		bics	r3, r1
 4443 0028 1360     		str	r3, [r2]
ARM GAS  /tmp/cclRNoWa.s 			page 77


 4444 002a FFF7FEFF 		bl	UART_SetConfig
 4445 002e 0128     		cmp	r0, #1
 4446 0030 E9D0     		beq	.L587
 4447 0032 636A     		ldr	r3, [r4, #36]
 4448 0034 002B     		cmp	r3, #0
 4449 0036 02D0     		beq	.L588
 4450 0038 2000     		movs	r0, r4
 4451 003a FFF7FEFF 		bl	UART_AdvFeatureConfig
 4452              	.L588:
 4453 003e 2368     		ldr	r3, [r4]
 4454 0040 0749     		ldr	r1, .L595
 4455 0042 5A68     		ldr	r2, [r3, #4]
 4456 0044 2000     		movs	r0, r4
 4457 0046 0A40     		ands	r2, r1
 4458 0048 2A21     		movs	r1, #42
 4459 004a 5A60     		str	r2, [r3, #4]
 4460 004c 9A68     		ldr	r2, [r3, #8]
 4461 004e 8A43     		bics	r2, r1
 4462 0050 9A60     		str	r2, [r3, #8]
 4463 0052 0122     		movs	r2, #1
 4464 0054 1968     		ldr	r1, [r3]
 4465 0056 0A43     		orrs	r2, r1
 4466 0058 1A60     		str	r2, [r3]
 4467 005a FFF7FEFF 		bl	UART_CheckIdleState
 4468 005e D3E7     		b	.L585
 4469              	.L596:
 4470              		.align	2
 4471              	.L595:
 4472 0060 FFB7FFFF 		.word	-18433
 4474              		.section	.text.HAL_HalfDuplex_Init,"ax",%progbits
 4475              		.align	1
 4476              		.global	HAL_HalfDuplex_Init
 4477              		.syntax unified
 4478              		.code	16
 4479              		.thumb_func
 4480              		.fpu softvfp
 4482              	HAL_HalfDuplex_Init:
 4483              		@ args = 0, pretend = 0, frame = 0
 4484              		@ frame_needed = 0, uses_anonymous_args = 0
 4485 0000 10B5     		push	{r4, lr}
 4486 0002 041E     		subs	r4, r0, #0
 4487 0004 01D1     		bne	.L598
 4488              	.L601:
 4489 0006 0120     		movs	r0, #1
 4490              	.L599:
 4491              		@ sp needed
 4492 0008 10BD     		pop	{r4, pc}
 4493              	.L598:
 4494 000a 836F     		ldr	r3, [r0, #120]
 4495 000c 002B     		cmp	r3, #0
 4496 000e 04D1     		bne	.L600
 4497 0010 0200     		movs	r2, r0
 4498 0012 7432     		adds	r2, r2, #116
 4499 0014 1370     		strb	r3, [r2]
 4500 0016 FFF7FEFF 		bl	HAL_UART_MspInit
 4501              	.L600:
 4502 001a 2423     		movs	r3, #36
ARM GAS  /tmp/cclRNoWa.s 			page 78


 4503 001c 0121     		movs	r1, #1
 4504 001e 2268     		ldr	r2, [r4]
 4505 0020 A367     		str	r3, [r4, #120]
 4506 0022 1368     		ldr	r3, [r2]
 4507 0024 2000     		movs	r0, r4
 4508 0026 8B43     		bics	r3, r1
 4509 0028 1360     		str	r3, [r2]
 4510 002a FFF7FEFF 		bl	UART_SetConfig
 4511 002e 0128     		cmp	r0, #1
 4512 0030 E9D0     		beq	.L601
 4513 0032 636A     		ldr	r3, [r4, #36]
 4514 0034 002B     		cmp	r3, #0
 4515 0036 02D0     		beq	.L602
 4516 0038 2000     		movs	r0, r4
 4517 003a FFF7FEFF 		bl	UART_AdvFeatureConfig
 4518              	.L602:
 4519 003e 2368     		ldr	r3, [r4]
 4520 0040 0949     		ldr	r1, .L609
 4521 0042 5A68     		ldr	r2, [r3, #4]
 4522 0044 2000     		movs	r0, r4
 4523 0046 0A40     		ands	r2, r1
 4524 0048 2221     		movs	r1, #34
 4525 004a 5A60     		str	r2, [r3, #4]
 4526 004c 9A68     		ldr	r2, [r3, #8]
 4527 004e 8A43     		bics	r2, r1
 4528 0050 9A60     		str	r2, [r3, #8]
 4529 0052 0822     		movs	r2, #8
 4530 0054 9968     		ldr	r1, [r3, #8]
 4531 0056 0A43     		orrs	r2, r1
 4532 0058 9A60     		str	r2, [r3, #8]
 4533 005a 0122     		movs	r2, #1
 4534 005c 1968     		ldr	r1, [r3]
 4535 005e 0A43     		orrs	r2, r1
 4536 0060 1A60     		str	r2, [r3]
 4537 0062 FFF7FEFF 		bl	UART_CheckIdleState
 4538 0066 CFE7     		b	.L599
 4539              	.L610:
 4540              		.align	2
 4541              	.L609:
 4542 0068 FFB7FFFF 		.word	-18433
 4544              		.section	.text.HAL_LIN_Init,"ax",%progbits
 4545              		.align	1
 4546              		.global	HAL_LIN_Init
 4547              		.syntax unified
 4548              		.code	16
 4549              		.thumb_func
 4550              		.fpu softvfp
 4552              	HAL_LIN_Init:
 4553              		@ args = 0, pretend = 0, frame = 0
 4554              		@ frame_needed = 0, uses_anonymous_args = 0
 4555 0000 70B5     		push	{r4, r5, r6, lr}
 4556 0002 0400     		movs	r4, r0
 4557 0004 0D00     		movs	r5, r1
 4558 0006 0028     		cmp	r0, #0
 4559 0008 01D1     		bne	.L612
 4560              	.L614:
 4561 000a 0120     		movs	r0, #1
ARM GAS  /tmp/cclRNoWa.s 			page 79


 4562              	.L613:
 4563              		@ sp needed
 4564 000c 70BD     		pop	{r4, r5, r6, pc}
 4565              	.L612:
 4566 000e 8023     		movs	r3, #128
 4567 0010 C269     		ldr	r2, [r0, #28]
 4568 0012 1B02     		lsls	r3, r3, #8
 4569 0014 9A42     		cmp	r2, r3
 4570 0016 F8D0     		beq	.L614
 4571 0018 8368     		ldr	r3, [r0, #8]
 4572 001a 002B     		cmp	r3, #0
 4573 001c F5D1     		bne	.L614
 4574 001e 836F     		ldr	r3, [r0, #120]
 4575 0020 002B     		cmp	r3, #0
 4576 0022 04D1     		bne	.L615
 4577 0024 0200     		movs	r2, r0
 4578 0026 7432     		adds	r2, r2, #116
 4579 0028 1370     		strb	r3, [r2]
 4580 002a FFF7FEFF 		bl	HAL_UART_MspInit
 4581              	.L615:
 4582 002e 2423     		movs	r3, #36
 4583 0030 0121     		movs	r1, #1
 4584 0032 2268     		ldr	r2, [r4]
 4585 0034 A367     		str	r3, [r4, #120]
 4586 0036 1368     		ldr	r3, [r2]
 4587 0038 2000     		movs	r0, r4
 4588 003a 8B43     		bics	r3, r1
 4589 003c 1360     		str	r3, [r2]
 4590 003e FFF7FEFF 		bl	UART_SetConfig
 4591 0042 0128     		cmp	r0, #1
 4592 0044 E1D0     		beq	.L614
 4593 0046 636A     		ldr	r3, [r4, #36]
 4594 0048 002B     		cmp	r3, #0
 4595 004a 02D0     		beq	.L616
 4596 004c 2000     		movs	r0, r4
 4597 004e FFF7FEFF 		bl	UART_AdvFeatureConfig
 4598              	.L616:
 4599 0052 2368     		ldr	r3, [r4]
 4600 0054 0C49     		ldr	r1, .L623
 4601 0056 5A68     		ldr	r2, [r3, #4]
 4602 0058 2000     		movs	r0, r4
 4603 005a 0A40     		ands	r2, r1
 4604 005c 2A21     		movs	r1, #42
 4605 005e 5A60     		str	r2, [r3, #4]
 4606 0060 9A68     		ldr	r2, [r3, #8]
 4607 0062 8A43     		bics	r2, r1
 4608 0064 9A60     		str	r2, [r3, #8]
 4609 0066 8022     		movs	r2, #128
 4610 0068 5968     		ldr	r1, [r3, #4]
 4611 006a D201     		lsls	r2, r2, #7
 4612 006c 0A43     		orrs	r2, r1
 4613 006e 5A60     		str	r2, [r3, #4]
 4614 0070 2022     		movs	r2, #32
 4615 0072 5968     		ldr	r1, [r3, #4]
 4616 0074 9143     		bics	r1, r2
 4617 0076 2943     		orrs	r1, r5
 4618 0078 5960     		str	r1, [r3, #4]
ARM GAS  /tmp/cclRNoWa.s 			page 80


 4619 007a 1968     		ldr	r1, [r3]
 4620 007c 1F3A     		subs	r2, r2, #31
 4621 007e 0A43     		orrs	r2, r1
 4622 0080 1A60     		str	r2, [r3]
 4623 0082 FFF7FEFF 		bl	UART_CheckIdleState
 4624 0086 C1E7     		b	.L613
 4625              	.L624:
 4626              		.align	2
 4627              	.L623:
 4628 0088 FFF7FFFF 		.word	-2049
 4630              		.section	.text.HAL_MultiProcessor_Init,"ax",%progbits
 4631              		.align	1
 4632              		.global	HAL_MultiProcessor_Init
 4633              		.syntax unified
 4634              		.code	16
 4635              		.thumb_func
 4636              		.fpu softvfp
 4638              	HAL_MultiProcessor_Init:
 4639              		@ args = 0, pretend = 0, frame = 0
 4640              		@ frame_needed = 0, uses_anonymous_args = 0
 4641 0000 70B5     		push	{r4, r5, r6, lr}
 4642 0002 0400     		movs	r4, r0
 4643 0004 0E00     		movs	r6, r1
 4644 0006 1500     		movs	r5, r2
 4645 0008 0028     		cmp	r0, #0
 4646 000a 01D1     		bne	.L626
 4647              	.L629:
 4648 000c 0120     		movs	r0, #1
 4649              	.L627:
 4650              		@ sp needed
 4651 000e 70BD     		pop	{r4, r5, r6, pc}
 4652              	.L626:
 4653 0010 836F     		ldr	r3, [r0, #120]
 4654 0012 002B     		cmp	r3, #0
 4655 0014 04D1     		bne	.L628
 4656 0016 0200     		movs	r2, r0
 4657 0018 7432     		adds	r2, r2, #116
 4658 001a 1370     		strb	r3, [r2]
 4659 001c FFF7FEFF 		bl	HAL_UART_MspInit
 4660              	.L628:
 4661 0020 2423     		movs	r3, #36
 4662 0022 0121     		movs	r1, #1
 4663 0024 2268     		ldr	r2, [r4]
 4664 0026 A367     		str	r3, [r4, #120]
 4665 0028 1368     		ldr	r3, [r2]
 4666 002a 2000     		movs	r0, r4
 4667 002c 8B43     		bics	r3, r1
 4668 002e 1360     		str	r3, [r2]
 4669 0030 FFF7FEFF 		bl	UART_SetConfig
 4670 0034 0128     		cmp	r0, #1
 4671 0036 E9D0     		beq	.L629
 4672 0038 636A     		ldr	r3, [r4, #36]
 4673 003a 002B     		cmp	r3, #0
 4674 003c 02D0     		beq	.L630
 4675 003e 2000     		movs	r0, r4
 4676 0040 FFF7FEFF 		bl	UART_AdvFeatureConfig
 4677              	.L630:
ARM GAS  /tmp/cclRNoWa.s 			page 81


 4678 0044 2368     		ldr	r3, [r4]
 4679 0046 0F49     		ldr	r1, .L638
 4680 0048 5A68     		ldr	r2, [r3, #4]
 4681 004a 0A40     		ands	r2, r1
 4682 004c 2A21     		movs	r1, #42
 4683 004e 5A60     		str	r2, [r3, #4]
 4684 0050 9A68     		ldr	r2, [r3, #8]
 4685 0052 8A43     		bics	r2, r1
 4686 0054 9A60     		str	r2, [r3, #8]
 4687 0056 8022     		movs	r2, #128
 4688 0058 1201     		lsls	r2, r2, #4
 4689 005a 9542     		cmp	r5, r2
 4690 005c 05D1     		bne	.L631
 4691 005e 5968     		ldr	r1, [r3, #4]
 4692 0060 3606     		lsls	r6, r6, #24
 4693 0062 0902     		lsls	r1, r1, #8
 4694 0064 090A     		lsrs	r1, r1, #8
 4695 0066 3143     		orrs	r1, r6
 4696 0068 5960     		str	r1, [r3, #4]
 4697              	.L631:
 4698 006a 1A68     		ldr	r2, [r3]
 4699 006c 0649     		ldr	r1, .L638+4
 4700 006e 2000     		movs	r0, r4
 4701 0070 0A40     		ands	r2, r1
 4702 0072 1543     		orrs	r5, r2
 4703 0074 0122     		movs	r2, #1
 4704 0076 1D60     		str	r5, [r3]
 4705 0078 1968     		ldr	r1, [r3]
 4706 007a 0A43     		orrs	r2, r1
 4707 007c 1A60     		str	r2, [r3]
 4708 007e FFF7FEFF 		bl	UART_CheckIdleState
 4709 0082 C4E7     		b	.L627
 4710              	.L639:
 4711              		.align	2
 4712              	.L638:
 4713 0084 FFB7FFFF 		.word	-18433
 4714 0088 FFF7FFFF 		.word	-2049
 4716              		.section	.text.HAL_MultiProcessor_EnableMuteMode,"ax",%progbits
 4717              		.align	1
 4718              		.global	HAL_MultiProcessor_EnableMuteMode
 4719              		.syntax unified
 4720              		.code	16
 4721              		.thumb_func
 4722              		.fpu softvfp
 4724              	HAL_MultiProcessor_EnableMuteMode:
 4725              		@ args = 0, pretend = 0, frame = 0
 4726              		@ frame_needed = 0, uses_anonymous_args = 0
 4727 0000 0200     		movs	r2, r0
 4728 0002 10B5     		push	{r4, lr}
 4729 0004 7432     		adds	r2, r2, #116
 4730 0006 1178     		ldrb	r1, [r2]
 4731 0008 0223     		movs	r3, #2
 4732 000a 0129     		cmp	r1, #1
 4733 000c 14D0     		beq	.L641
 4734 000e 013B     		subs	r3, r3, #1
 4735 0010 1370     		strb	r3, [r2]
 4736 0012 2422     		movs	r2, #36
ARM GAS  /tmp/cclRNoWa.s 			page 82


 4737 0014 8267     		str	r2, [r0, #120]
 4738              		.syntax divided
 4739              	@ 453 "bsp_l0/mcu_drivers/cmsis/Core/Include/cmsis_gcc.h" 1
 4740 0016 EFF31081 		MRS r1, primask
 4741              	@ 0 "" 2
 4742              	@ 481 "bsp_l0/mcu_drivers/cmsis/Core/Include/cmsis_gcc.h" 1
 4743 001a 83F31088 		MSR primask, r3
 4744              	@ 0 "" 2
 4745              		.thumb
 4746              		.syntax unified
 4747 001e 8023     		movs	r3, #128
 4748 0020 0268     		ldr	r2, [r0]
 4749 0022 9B01     		lsls	r3, r3, #6
 4750 0024 1468     		ldr	r4, [r2]
 4751 0026 2343     		orrs	r3, r4
 4752 0028 1360     		str	r3, [r2]
 4753              		.syntax divided
 4754              	@ 481 "bsp_l0/mcu_drivers/cmsis/Core/Include/cmsis_gcc.h" 1
 4755 002a 81F31088 		MSR primask, r1
 4756              	@ 0 "" 2
 4757              		.thumb
 4758              		.syntax unified
 4759 002e 2023     		movs	r3, #32
 4760 0030 8367     		str	r3, [r0, #120]
 4761 0032 FFF7FEFF 		bl	UART_CheckIdleState
 4762 0036 0300     		movs	r3, r0
 4763              	.L641:
 4764              		@ sp needed
 4765 0038 1800     		movs	r0, r3
 4766 003a 10BD     		pop	{r4, pc}
 4768              		.section	.text.HAL_MultiProcessor_DisableMuteMode,"ax",%progbits
 4769              		.align	1
 4770              		.global	HAL_MultiProcessor_DisableMuteMode
 4771              		.syntax unified
 4772              		.code	16
 4773              		.thumb_func
 4774              		.fpu softvfp
 4776              	HAL_MultiProcessor_DisableMuteMode:
 4777              		@ args = 0, pretend = 0, frame = 0
 4778              		@ frame_needed = 0, uses_anonymous_args = 0
 4779 0000 0200     		movs	r2, r0
 4780 0002 10B5     		push	{r4, lr}
 4781 0004 7432     		adds	r2, r2, #116
 4782 0006 1178     		ldrb	r1, [r2]
 4783 0008 0223     		movs	r3, #2
 4784 000a 0129     		cmp	r1, #1
 4785 000c 13D0     		beq	.L644
 4786 000e 013B     		subs	r3, r3, #1
 4787 0010 1370     		strb	r3, [r2]
 4788 0012 2422     		movs	r2, #36
 4789 0014 8267     		str	r2, [r0, #120]
 4790              		.syntax divided
 4791              	@ 453 "bsp_l0/mcu_drivers/cmsis/Core/Include/cmsis_gcc.h" 1
 4792 0016 EFF31081 		MRS r1, primask
 4793              	@ 0 "" 2
 4794              	@ 481 "bsp_l0/mcu_drivers/cmsis/Core/Include/cmsis_gcc.h" 1
 4795 001a 83F31088 		MSR primask, r3
ARM GAS  /tmp/cclRNoWa.s 			page 83


 4796              	@ 0 "" 2
 4797              		.thumb
 4798              		.syntax unified
 4799 001e 0268     		ldr	r2, [r0]
 4800 0020 064C     		ldr	r4, .L646
 4801 0022 1368     		ldr	r3, [r2]
 4802 0024 2340     		ands	r3, r4
 4803 0026 1360     		str	r3, [r2]
 4804              		.syntax divided
 4805              	@ 481 "bsp_l0/mcu_drivers/cmsis/Core/Include/cmsis_gcc.h" 1
 4806 0028 81F31088 		MSR primask, r1
 4807              	@ 0 "" 2
 4808              		.thumb
 4809              		.syntax unified
 4810 002c 2023     		movs	r3, #32
 4811 002e 8367     		str	r3, [r0, #120]
 4812 0030 FFF7FEFF 		bl	UART_CheckIdleState
 4813 0034 0300     		movs	r3, r0
 4814              	.L644:
 4815              		@ sp needed
 4816 0036 1800     		movs	r0, r3
 4817 0038 10BD     		pop	{r4, pc}
 4818              	.L647:
 4819 003a C046     		.align	2
 4820              	.L646:
 4821 003c FFDFFFFF 		.word	-8193
 4823              		.section	.text.UART_Start_Receive_IT,"ax",%progbits
 4824              		.align	1
 4825              		.global	UART_Start_Receive_IT
 4826              		.syntax unified
 4827              		.code	16
 4828              		.thumb_func
 4829              		.fpu softvfp
 4831              	UART_Start_Receive_IT:
 4832              		@ args = 0, pretend = 0, frame = 0
 4833              		@ frame_needed = 0, uses_anonymous_args = 0
 4834 0000 10B5     		push	{r4, lr}
 4835 0002 4165     		str	r1, [r0, #84]
 4836 0004 0100     		movs	r1, r0
 4837 0006 0300     		movs	r3, r0
 4838 0008 5831     		adds	r1, r1, #88
 4839 000a 0A80     		strh	r2, [r1]
 4840 000c 4A80     		strh	r2, [r1, #2]
 4841 000e 0020     		movs	r0, #0
 4842 0010 8024     		movs	r4, #128
 4843 0012 1A00     		movs	r2, r3
 4844 0014 9968     		ldr	r1, [r3, #8]
 4845 0016 5866     		str	r0, [r3, #100]
 4846 0018 6401     		lsls	r4, r4, #5
 4847 001a 5C32     		adds	r2, r2, #92
 4848 001c A142     		cmp	r1, r4
 4849 001e 33D1     		bne	.L649
 4850 0020 1969     		ldr	r1, [r3, #16]
 4851 0022 8142     		cmp	r1, r0
 4852 0024 2ED1     		bne	.L650
 4853 0026 2149     		ldr	r1, .L665
 4854              	.L664:
ARM GAS  /tmp/cclRNoWa.s 			page 84


 4855 0028 1180     		strh	r1, [r2]
 4856              	.L651:
 4857 002a 0021     		movs	r1, #0
 4858 002c 1A1D     		adds	r2, r3, #4
 4859 002e D167     		str	r1, [r2, #124]
 4860 0030 2222     		movs	r2, #34
 4861 0032 DA67     		str	r2, [r3, #124]
 4862              		.syntax divided
 4863              	@ 453 "bsp_l0/mcu_drivers/cmsis/Core/Include/cmsis_gcc.h" 1
 4864 0034 EFF31080 		MRS r0, primask
 4865              	@ 0 "" 2
 4866              		.thumb
 4867              		.syntax unified
 4868 0038 213A     		subs	r2, r2, #33
 4869              		.syntax divided
 4870              	@ 481 "bsp_l0/mcu_drivers/cmsis/Core/Include/cmsis_gcc.h" 1
 4871 003a 82F31088 		MSR primask, r2
 4872              	@ 0 "" 2
 4873              		.thumb
 4874              		.syntax unified
 4875 003e 1968     		ldr	r1, [r3]
 4876 0040 8C68     		ldr	r4, [r1, #8]
 4877 0042 2243     		orrs	r2, r4
 4878 0044 8A60     		str	r2, [r1, #8]
 4879              		.syntax divided
 4880              	@ 481 "bsp_l0/mcu_drivers/cmsis/Core/Include/cmsis_gcc.h" 1
 4881 0046 80F31088 		MSR primask, r0
 4882              	@ 0 "" 2
 4883              		.thumb
 4884              		.syntax unified
 4885 004a 8021     		movs	r1, #128
 4886 004c 9868     		ldr	r0, [r3, #8]
 4887 004e 184A     		ldr	r2, .L665+4
 4888 0050 4901     		lsls	r1, r1, #5
 4889 0052 8842     		cmp	r0, r1
 4890 0054 03D1     		bne	.L655
 4891 0056 1969     		ldr	r1, [r3, #16]
 4892 0058 0029     		cmp	r1, #0
 4893 005a 00D1     		bne	.L655
 4894 005c 154A     		ldr	r2, .L665+8
 4895              	.L655:
 4896 005e 5A66     		str	r2, [r3, #100]
 4897 0060 1A00     		movs	r2, r3
 4898 0062 0020     		movs	r0, #0
 4899 0064 7432     		adds	r2, r2, #116
 4900 0066 1070     		strb	r0, [r2]
 4901              		.syntax divided
 4902              	@ 453 "bsp_l0/mcu_drivers/cmsis/Core/Include/cmsis_gcc.h" 1
 4903 0068 EFF31081 		MRS r1, primask
 4904              	@ 0 "" 2
 4905              		.thumb
 4906              		.syntax unified
 4907 006c 0122     		movs	r2, #1
 4908              		.syntax divided
 4909              	@ 481 "bsp_l0/mcu_drivers/cmsis/Core/Include/cmsis_gcc.h" 1
 4910 006e 82F31088 		MSR primask, r2
 4911              	@ 0 "" 2
ARM GAS  /tmp/cclRNoWa.s 			page 85


 4912              		.thumb
 4913              		.syntax unified
 4914 0072 1A68     		ldr	r2, [r3]
 4915 0074 9023     		movs	r3, #144
 4916 0076 1468     		ldr	r4, [r2]
 4917 0078 5B00     		lsls	r3, r3, #1
 4918 007a 2343     		orrs	r3, r4
 4919 007c 1360     		str	r3, [r2]
 4920              		.syntax divided
 4921              	@ 481 "bsp_l0/mcu_drivers/cmsis/Core/Include/cmsis_gcc.h" 1
 4922 007e 81F31088 		MSR primask, r1
 4923              	@ 0 "" 2
 4924              		.thumb
 4925              		.syntax unified
 4926              		@ sp needed
 4927 0082 10BD     		pop	{r4, pc}
 4928              	.L650:
 4929 0084 FF21     		movs	r1, #255
 4930 0086 CFE7     		b	.L664
 4931              	.L649:
 4932 0088 0029     		cmp	r1, #0
 4933 008a 04D1     		bne	.L652
 4934 008c 1969     		ldr	r1, [r3, #16]
 4935 008e 0029     		cmp	r1, #0
 4936 0090 F8D0     		beq	.L650
 4937              	.L654:
 4938 0092 7F21     		movs	r1, #127
 4939 0094 C8E7     		b	.L664
 4940              	.L652:
 4941 0096 8024     		movs	r4, #128
 4942 0098 6405     		lsls	r4, r4, #21
 4943 009a A142     		cmp	r1, r4
 4944 009c 04D1     		bne	.L653
 4945 009e 1969     		ldr	r1, [r3, #16]
 4946 00a0 0029     		cmp	r1, #0
 4947 00a2 F6D0     		beq	.L654
 4948 00a4 3F21     		movs	r1, #63
 4949 00a6 BFE7     		b	.L664
 4950              	.L653:
 4951 00a8 1080     		strh	r0, [r2]
 4952 00aa BEE7     		b	.L651
 4953              	.L666:
 4954              		.align	2
 4955              	.L665:
 4956 00ac FF010000 		.word	511
 4957 00b0 00000000 		.word	UART_RxISR_8BIT
 4958 00b4 00000000 		.word	UART_RxISR_16BIT
 4960              		.section	.text.HAL_UART_Receive_IT,"ax",%progbits
 4961              		.align	1
 4962              		.global	HAL_UART_Receive_IT
 4963              		.syntax unified
 4964              		.code	16
 4965              		.thumb_func
 4966              		.fpu softvfp
 4968              	HAL_UART_Receive_IT:
 4969              		@ args = 0, pretend = 0, frame = 0
 4970              		@ frame_needed = 0, uses_anonymous_args = 0
ARM GAS  /tmp/cclRNoWa.s 			page 86


 4971 0000 70B5     		push	{r4, r5, r6, lr}
 4972 0002 C46F     		ldr	r4, [r0, #124]
 4973 0004 0223     		movs	r3, #2
 4974 0006 202C     		cmp	r4, #32
 4975 0008 30D1     		bne	.L668
 4976 000a 013B     		subs	r3, r3, #1
 4977 000c 0029     		cmp	r1, #0
 4978 000e 2DD0     		beq	.L668
 4979 0010 002A     		cmp	r2, #0
 4980 0012 2BD0     		beq	.L668
 4981 0014 8023     		movs	r3, #128
 4982 0016 8468     		ldr	r4, [r0, #8]
 4983 0018 5B01     		lsls	r3, r3, #5
 4984 001a 9C42     		cmp	r4, r3
 4985 001c 06D1     		bne	.L669
 4986 001e 0369     		ldr	r3, [r0, #16]
 4987 0020 002B     		cmp	r3, #0
 4988 0022 03D1     		bne	.L669
 4989 0024 0124     		movs	r4, #1
 4990 0026 2300     		movs	r3, r4
 4991 0028 2142     		tst	r1, r4
 4992 002a 1FD1     		bne	.L668
 4993              	.L669:
 4994 002c 0400     		movs	r4, r0
 4995 002e 7434     		adds	r4, r4, #116
 4996 0030 2578     		ldrb	r5, [r4]
 4997 0032 0223     		movs	r3, #2
 4998 0034 012D     		cmp	r5, #1
 4999 0036 19D0     		beq	.L668
 5000 0038 013B     		subs	r3, r3, #1
 5001 003a 2370     		strb	r3, [r4]
 5002 003c 0024     		movs	r4, #0
 5003 003e 0C4D     		ldr	r5, .L679
 5004 0040 0466     		str	r4, [r0, #96]
 5005 0042 0468     		ldr	r4, [r0]
 5006 0044 AC42     		cmp	r4, r5
 5007 0046 0ED0     		beq	.L670
 5008 0048 6468     		ldr	r4, [r4, #4]
 5009 004a 2402     		lsls	r4, r4, #8
 5010 004c 0BD5     		bpl	.L670
 5011              		.syntax divided
 5012              	@ 453 "bsp_l0/mcu_drivers/cmsis/Core/Include/cmsis_gcc.h" 1
 5013 004e EFF31085 		MRS r5, primask
 5014              	@ 0 "" 2
 5015              	@ 481 "bsp_l0/mcu_drivers/cmsis/Core/Include/cmsis_gcc.h" 1
 5016 0052 83F31088 		MSR primask, r3
 5017              	@ 0 "" 2
 5018              		.thumb
 5019              		.syntax unified
 5020 0056 8023     		movs	r3, #128
 5021 0058 0468     		ldr	r4, [r0]
 5022 005a DB04     		lsls	r3, r3, #19
 5023 005c 2668     		ldr	r6, [r4]
 5024 005e 3343     		orrs	r3, r6
 5025 0060 2360     		str	r3, [r4]
 5026              		.syntax divided
 5027              	@ 481 "bsp_l0/mcu_drivers/cmsis/Core/Include/cmsis_gcc.h" 1
ARM GAS  /tmp/cclRNoWa.s 			page 87


 5028 0062 85F31088 		MSR primask, r5
 5029              	@ 0 "" 2
 5030              		.thumb
 5031              		.syntax unified
 5032              	.L670:
 5033 0066 FFF7FEFF 		bl	UART_Start_Receive_IT
 5034 006a 0300     		movs	r3, r0
 5035              	.L668:
 5036              		@ sp needed
 5037 006c 1800     		movs	r0, r3
 5038 006e 70BD     		pop	{r4, r5, r6, pc}
 5039              	.L680:
 5040              		.align	2
 5041              	.L679:
 5042 0070 00480040 		.word	1073760256
 5044              		.section	.text.UART_Start_Receive_DMA,"ax",%progbits
 5045              		.align	1
 5046              		.global	UART_Start_Receive_DMA
 5047              		.syntax unified
 5048              		.code	16
 5049              		.thumb_func
 5050              		.fpu softvfp
 5052              	UART_Start_Receive_DMA:
 5053              		@ args = 0, pretend = 0, frame = 0
 5054              		@ frame_needed = 0, uses_anonymous_args = 0
 5055 0000 F8B5     		push	{r3, r4, r5, r6, r7, lr}
 5056 0002 1300     		movs	r3, r2
 5057 0004 0200     		movs	r2, r0
 5058 0006 0400     		movs	r4, r0
 5059 0008 5832     		adds	r2, r2, #88
 5060 000a 4165     		str	r1, [r0, #84]
 5061 000c 0025     		movs	r5, #0
 5062 000e 1380     		strh	r3, [r2]
 5063 0010 2222     		movs	r2, #34
 5064 0012 2600     		movs	r6, r4
 5065 0014 071D     		adds	r7, r0, #4
 5066 0016 FD67     		str	r5, [r7, #124]
 5067 0018 C267     		str	r2, [r0, #124]
 5068 001a 006F     		ldr	r0, [r0, #112]
 5069 001c 7436     		adds	r6, r6, #116
 5070 001e A842     		cmp	r0, r5
 5071 0020 16D0     		beq	.L682
 5072 0022 1E4A     		ldr	r2, .L690
 5073 0024 8563     		str	r5, [r0, #56]
 5074 0026 C262     		str	r2, [r0, #44]
 5075 0028 1D4A     		ldr	r2, .L690+4
 5076 002a 0263     		str	r2, [r0, #48]
 5077 002c 1D4A     		ldr	r2, .L690+8
 5078 002e 4263     		str	r2, [r0, #52]
 5079 0030 2268     		ldr	r2, [r4]
 5080 0032 2432     		adds	r2, r2, #36
 5081 0034 9446     		mov	ip, r2
 5082 0036 0A00     		movs	r2, r1
 5083 0038 6146     		mov	r1, ip
 5084 003a FFF7FEFF 		bl	HAL_DMA_Start_IT
 5085 003e A842     		cmp	r0, r5
 5086 0040 06D0     		beq	.L682
ARM GAS  /tmp/cclRNoWa.s 			page 88


 5087 0042 1023     		movs	r3, #16
 5088 0044 0120     		movs	r0, #1
 5089 0046 FB67     		str	r3, [r7, #124]
 5090 0048 DB18     		adds	r3, r3, r3
 5091 004a 3570     		strb	r5, [r6]
 5092 004c E367     		str	r3, [r4, #124]
 5093              	.L683:
 5094              		@ sp needed
 5095 004e F8BD     		pop	{r3, r4, r5, r6, r7, pc}
 5096              	.L682:
 5097 0050 0020     		movs	r0, #0
 5098 0052 3070     		strb	r0, [r6]
 5099              		.syntax divided
 5100              	@ 453 "bsp_l0/mcu_drivers/cmsis/Core/Include/cmsis_gcc.h" 1
 5101 0054 EFF31085 		MRS r5, primask
 5102              	@ 0 "" 2
 5103              		.thumb
 5104              		.syntax unified
 5105 0058 0123     		movs	r3, #1
 5106              		.syntax divided
 5107              	@ 481 "bsp_l0/mcu_drivers/cmsis/Core/Include/cmsis_gcc.h" 1
 5108 005a 83F31088 		MSR primask, r3
 5109              	@ 0 "" 2
 5110              		.thumb
 5111              		.syntax unified
 5112 005e 8022     		movs	r2, #128
 5113 0060 2168     		ldr	r1, [r4]
 5114 0062 5200     		lsls	r2, r2, #1
 5115 0064 0E68     		ldr	r6, [r1]
 5116 0066 3243     		orrs	r2, r6
 5117 0068 0A60     		str	r2, [r1]
 5118              		.syntax divided
 5119              	@ 481 "bsp_l0/mcu_drivers/cmsis/Core/Include/cmsis_gcc.h" 1
 5120 006a 85F31088 		MSR primask, r5
 5121              	@ 0 "" 2
 5122              	@ 453 "bsp_l0/mcu_drivers/cmsis/Core/Include/cmsis_gcc.h" 1
 5123 006e EFF31085 		MRS r5, primask
 5124              	@ 0 "" 2
 5125              	@ 481 "bsp_l0/mcu_drivers/cmsis/Core/Include/cmsis_gcc.h" 1
 5126 0072 83F31088 		MSR primask, r3
 5127              	@ 0 "" 2
 5128              		.thumb
 5129              		.syntax unified
 5130 0076 2168     		ldr	r1, [r4]
 5131 0078 8A68     		ldr	r2, [r1, #8]
 5132 007a 1A43     		orrs	r2, r3
 5133 007c 8A60     		str	r2, [r1, #8]
 5134              		.syntax divided
 5135              	@ 481 "bsp_l0/mcu_drivers/cmsis/Core/Include/cmsis_gcc.h" 1
 5136 007e 85F31088 		MSR primask, r5
 5137              	@ 0 "" 2
 5138              	@ 453 "bsp_l0/mcu_drivers/cmsis/Core/Include/cmsis_gcc.h" 1
 5139 0082 EFF31081 		MRS r1, primask
 5140              	@ 0 "" 2
 5141              	@ 481 "bsp_l0/mcu_drivers/cmsis/Core/Include/cmsis_gcc.h" 1
 5142 0086 83F31088 		MSR primask, r3
 5143              	@ 0 "" 2
ARM GAS  /tmp/cclRNoWa.s 			page 89


 5144              		.thumb
 5145              		.syntax unified
 5146 008a 2268     		ldr	r2, [r4]
 5147 008c 3F33     		adds	r3, r3, #63
 5148 008e 9468     		ldr	r4, [r2, #8]
 5149 0090 2343     		orrs	r3, r4
 5150 0092 9360     		str	r3, [r2, #8]
 5151              		.syntax divided
 5152              	@ 481 "bsp_l0/mcu_drivers/cmsis/Core/Include/cmsis_gcc.h" 1
 5153 0094 81F31088 		MSR primask, r1
 5154              	@ 0 "" 2
 5155              		.thumb
 5156              		.syntax unified
 5157 0098 D9E7     		b	.L683
 5158              	.L691:
 5159 009a C046     		.align	2
 5160              	.L690:
 5161 009c 00000000 		.word	UART_DMAReceiveCplt
 5162 00a0 00000000 		.word	UART_DMARxHalfCplt
 5163 00a4 00000000 		.word	UART_DMAError
 5165              		.section	.text.HAL_UART_Receive_DMA,"ax",%progbits
 5166              		.align	1
 5167              		.global	HAL_UART_Receive_DMA
 5168              		.syntax unified
 5169              		.code	16
 5170              		.thumb_func
 5171              		.fpu softvfp
 5173              	HAL_UART_Receive_DMA:
 5174              		@ args = 0, pretend = 0, frame = 0
 5175              		@ frame_needed = 0, uses_anonymous_args = 0
 5176 0000 70B5     		push	{r4, r5, r6, lr}
 5177 0002 C46F     		ldr	r4, [r0, #124]
 5178 0004 0223     		movs	r3, #2
 5179 0006 202C     		cmp	r4, #32
 5180 0008 30D1     		bne	.L693
 5181 000a 013B     		subs	r3, r3, #1
 5182 000c 0029     		cmp	r1, #0
 5183 000e 2DD0     		beq	.L693
 5184 0010 002A     		cmp	r2, #0
 5185 0012 2BD0     		beq	.L693
 5186 0014 8023     		movs	r3, #128
 5187 0016 8468     		ldr	r4, [r0, #8]
 5188 0018 5B01     		lsls	r3, r3, #5
 5189 001a 9C42     		cmp	r4, r3
 5190 001c 06D1     		bne	.L694
 5191 001e 0369     		ldr	r3, [r0, #16]
 5192 0020 002B     		cmp	r3, #0
 5193 0022 03D1     		bne	.L694
 5194 0024 0124     		movs	r4, #1
 5195 0026 2300     		movs	r3, r4
 5196 0028 2142     		tst	r1, r4
 5197 002a 1FD1     		bne	.L693
 5198              	.L694:
 5199 002c 0400     		movs	r4, r0
 5200 002e 7434     		adds	r4, r4, #116
 5201 0030 2578     		ldrb	r5, [r4]
 5202 0032 0223     		movs	r3, #2
ARM GAS  /tmp/cclRNoWa.s 			page 90


 5203 0034 012D     		cmp	r5, #1
 5204 0036 19D0     		beq	.L693
 5205 0038 013B     		subs	r3, r3, #1
 5206 003a 2370     		strb	r3, [r4]
 5207 003c 0024     		movs	r4, #0
 5208 003e 0C4D     		ldr	r5, .L704
 5209 0040 0466     		str	r4, [r0, #96]
 5210 0042 0468     		ldr	r4, [r0]
 5211 0044 AC42     		cmp	r4, r5
 5212 0046 0ED0     		beq	.L695
 5213 0048 6468     		ldr	r4, [r4, #4]
 5214 004a 2402     		lsls	r4, r4, #8
 5215 004c 0BD5     		bpl	.L695
 5216              		.syntax divided
 5217              	@ 453 "bsp_l0/mcu_drivers/cmsis/Core/Include/cmsis_gcc.h" 1
 5218 004e EFF31085 		MRS r5, primask
 5219              	@ 0 "" 2
 5220              	@ 481 "bsp_l0/mcu_drivers/cmsis/Core/Include/cmsis_gcc.h" 1
 5221 0052 83F31088 		MSR primask, r3
 5222              	@ 0 "" 2
 5223              		.thumb
 5224              		.syntax unified
 5225 0056 8023     		movs	r3, #128
 5226 0058 0468     		ldr	r4, [r0]
 5227 005a DB04     		lsls	r3, r3, #19
 5228 005c 2668     		ldr	r6, [r4]
 5229 005e 3343     		orrs	r3, r6
 5230 0060 2360     		str	r3, [r4]
 5231              		.syntax divided
 5232              	@ 481 "bsp_l0/mcu_drivers/cmsis/Core/Include/cmsis_gcc.h" 1
 5233 0062 85F31088 		MSR primask, r5
 5234              	@ 0 "" 2
 5235              		.thumb
 5236              		.syntax unified
 5237              	.L695:
 5238 0066 FFF7FEFF 		bl	UART_Start_Receive_DMA
 5239 006a 0300     		movs	r3, r0
 5240              	.L693:
 5241              		@ sp needed
 5242 006c 1800     		movs	r0, r3
 5243 006e 70BD     		pop	{r4, r5, r6, pc}
 5244              	.L705:
 5245              		.align	2
 5246              	.L704:
 5247 0070 00480040 		.word	1073760256
 5249              		.section	.rodata.CSWTCH.59,"a"
 5250              		.set	.LANCHOR0,. + 0
 5253              	CSWTCH.59:
 5254 0000 04       		.byte	4
 5255 0001 02       		.byte	2
 5256 0002 08       		.byte	8
 5257              		.section	.rodata.CSWTCH.60,"a"
 5258              		.set	.LANCHOR1,. + 0
 5261              	CSWTCH.60:
 5262 0000 00       		.byte	0
 5263 0001 10       		.byte	16
 5264 0002 10       		.byte	16
ARM GAS  /tmp/cclRNoWa.s 			page 91


 5265 0003 10       		.byte	16
 5266 0004 04       		.byte	4
 5267 0005 10       		.byte	16
 5268 0006 10       		.byte	16
 5269 0007 10       		.byte	16
 5270 0008 02       		.byte	2
 5271 0009 10       		.byte	16
 5272 000a 10       		.byte	16
 5273 000b 10       		.byte	16
 5274 000c 08       		.byte	8
 5275              		.ident	"GCC: (15:10.3-2021.07-4) 10.3.1 20210621 (release)"
ARM GAS  /tmp/cclRNoWa.s 			page 92

