ARM GAS  /tmp/ccW8hGJb.s 			page 1


   1              		.cpu cortex-m0
   2              		.eabi_attribute 23, 1
   3              		.eabi_attribute 24, 1
   4              		.eabi_attribute 25, 1
   5              		.eabi_attribute 26, 1
   6              		.eabi_attribute 30, 4
   7              		.eabi_attribute 34, 0
   8              		.eabi_attribute 18, 4
   9              		.file	"stm32l0xx_hal_i2c_ex.c"
  10              		.text
  11              		.section	.text.HAL_I2CEx_ConfigAnalogFilter,"ax",%progbits
  12              		.align	1
  13              		.global	HAL_I2CEx_ConfigAnalogFilter
  14              		.arch armv6s-m
  15              		.syntax unified
  16              		.code	16
  17              		.thumb_func
  18              		.fpu softvfp
  20              	HAL_I2CEx_ConfigAnalogFilter:
  21              		@ args = 0, pretend = 0, frame = 0
  22              		@ frame_needed = 0, uses_anonymous_args = 0
  23 0000 F0B5     		push	{r4, r5, r6, r7, lr}
  24 0002 0400     		movs	r4, r0
  25 0004 4134     		adds	r4, r4, #65
  26 0006 2278     		ldrb	r2, [r4]
  27 0008 0300     		movs	r3, r0
  28 000a 0F00     		movs	r7, r1
  29 000c 0220     		movs	r0, #2
  30 000e D6B2     		uxtb	r6, r2
  31 0010 202A     		cmp	r2, #32
  32 0012 18D1     		bne	.L2
  33 0014 1D00     		movs	r5, r3
  34 0016 4035     		adds	r5, r5, #64
  35 0018 2A78     		ldrb	r2, [r5]
  36 001a 012A     		cmp	r2, #1
  37 001c 13D0     		beq	.L2
  38 001e 2422     		movs	r2, #36
  39 0020 2270     		strb	r2, [r4]
  40 0022 1B68     		ldr	r3, [r3]
  41 0024 233A     		subs	r2, r2, #35
  42 0026 1968     		ldr	r1, [r3]
  43 0028 0748     		ldr	r0, .L5
  44 002a 9143     		bics	r1, r2
  45 002c 1960     		str	r1, [r3]
  46 002e 1968     		ldr	r1, [r3]
  47 0030 0140     		ands	r1, r0
  48 0032 0020     		movs	r0, #0
  49 0034 1960     		str	r1, [r3]
  50 0036 1968     		ldr	r1, [r3]
  51 0038 3943     		orrs	r1, r7
  52 003a 1960     		str	r1, [r3]
  53 003c 1968     		ldr	r1, [r3]
  54 003e 0A43     		orrs	r2, r1
  55 0040 1A60     		str	r2, [r3]
  56 0042 2670     		strb	r6, [r4]
  57 0044 2870     		strb	r0, [r5]
  58              	.L2:
ARM GAS  /tmp/ccW8hGJb.s 			page 2


  59              		@ sp needed
  60 0046 F0BD     		pop	{r4, r5, r6, r7, pc}
  61              	.L6:
  62              		.align	2
  63              	.L5:
  64 0048 FFEFFFFF 		.word	-4097
  66              		.section	.text.HAL_I2CEx_ConfigDigitalFilter,"ax",%progbits
  67              		.align	1
  68              		.global	HAL_I2CEx_ConfigDigitalFilter
  69              		.syntax unified
  70              		.code	16
  71              		.thumb_func
  72              		.fpu softvfp
  74              	HAL_I2CEx_ConfigDigitalFilter:
  75              		@ args = 0, pretend = 0, frame = 0
  76              		@ frame_needed = 0, uses_anonymous_args = 0
  77 0000 0200     		movs	r2, r0
  78 0002 F0B5     		push	{r4, r5, r6, r7, lr}
  79 0004 4132     		adds	r2, r2, #65
  80 0006 1478     		ldrb	r4, [r2]
  81 0008 0300     		movs	r3, r0
  82 000a E5B2     		uxtb	r5, r4
  83 000c 0220     		movs	r0, #2
  84 000e 202C     		cmp	r4, #32
  85 0010 17D1     		bne	.L8
  86 0012 1C00     		movs	r4, r3
  87 0014 4034     		adds	r4, r4, #64
  88 0016 2678     		ldrb	r6, [r4]
  89 0018 012E     		cmp	r6, #1
  90 001a 12D0     		beq	.L8
  91 001c 2230     		adds	r0, r0, #34
  92 001e 1070     		strb	r0, [r2]
  93 0020 1B68     		ldr	r3, [r3]
  94 0022 2338     		subs	r0, r0, #35
  95 0024 1E68     		ldr	r6, [r3]
  96 0026 074F     		ldr	r7, .L11
  97 0028 8643     		bics	r6, r0
  98 002a 1E60     		str	r6, [r3]
  99 002c 1E68     		ldr	r6, [r3]
 100 002e 0902     		lsls	r1, r1, #8
 101 0030 3E40     		ands	r6, r7
 102 0032 3143     		orrs	r1, r6
 103 0034 1960     		str	r1, [r3]
 104 0036 1968     		ldr	r1, [r3]
 105 0038 0843     		orrs	r0, r1
 106 003a 1860     		str	r0, [r3]
 107 003c 0020     		movs	r0, #0
 108 003e 1570     		strb	r5, [r2]
 109 0040 2070     		strb	r0, [r4]
 110              	.L8:
 111              		@ sp needed
 112 0042 F0BD     		pop	{r4, r5, r6, r7, pc}
 113              	.L12:
 114              		.align	2
 115              	.L11:
 116 0044 FFF0FFFF 		.word	-3841
 118              		.section	.text.HAL_I2CEx_EnableWakeUp,"ax",%progbits
ARM GAS  /tmp/ccW8hGJb.s 			page 3


 119              		.align	1
 120              		.global	HAL_I2CEx_EnableWakeUp
 121              		.syntax unified
 122              		.code	16
 123              		.thumb_func
 124              		.fpu softvfp
 126              	HAL_I2CEx_EnableWakeUp:
 127              		@ args = 0, pretend = 0, frame = 0
 128              		@ frame_needed = 0, uses_anonymous_args = 0
 129 0000 0100     		movs	r1, r0
 130 0002 70B5     		push	{r4, r5, r6, lr}
 131 0004 4131     		adds	r1, r1, #65
 132 0006 0A78     		ldrb	r2, [r1]
 133 0008 0300     		movs	r3, r0
 134 000a D5B2     		uxtb	r5, r2
 135 000c 0220     		movs	r0, #2
 136 000e 202A     		cmp	r2, #32
 137 0010 16D1     		bne	.L14
 138 0012 1C00     		movs	r4, r3
 139 0014 4034     		adds	r4, r4, #64
 140 0016 2278     		ldrb	r2, [r4]
 141 0018 012A     		cmp	r2, #1
 142 001a 11D0     		beq	.L14
 143 001c 2422     		movs	r2, #36
 144 001e 0A70     		strb	r2, [r1]
 145 0020 1B68     		ldr	r3, [r3]
 146 0022 233A     		subs	r2, r2, #35
 147 0024 1868     		ldr	r0, [r3]
 148 0026 9043     		bics	r0, r2
 149 0028 1860     		str	r0, [r3]
 150 002a 8020     		movs	r0, #128
 151 002c 1E68     		ldr	r6, [r3]
 152 002e C002     		lsls	r0, r0, #11
 153 0030 3043     		orrs	r0, r6
 154 0032 1860     		str	r0, [r3]
 155 0034 1868     		ldr	r0, [r3]
 156 0036 0243     		orrs	r2, r0
 157 0038 0020     		movs	r0, #0
 158 003a 1A60     		str	r2, [r3]
 159 003c 0D70     		strb	r5, [r1]
 160 003e 2070     		strb	r0, [r4]
 161              	.L14:
 162              		@ sp needed
 163 0040 70BD     		pop	{r4, r5, r6, pc}
 165              		.section	.text.HAL_I2CEx_DisableWakeUp,"ax",%progbits
 166              		.align	1
 167              		.global	HAL_I2CEx_DisableWakeUp
 168              		.syntax unified
 169              		.code	16
 170              		.thumb_func
 171              		.fpu softvfp
 173              	HAL_I2CEx_DisableWakeUp:
 174              		@ args = 0, pretend = 0, frame = 0
 175              		@ frame_needed = 0, uses_anonymous_args = 0
 176 0000 0100     		movs	r1, r0
 177 0002 70B5     		push	{r4, r5, r6, lr}
 178 0004 4131     		adds	r1, r1, #65
ARM GAS  /tmp/ccW8hGJb.s 			page 4


 179 0006 0A78     		ldrb	r2, [r1]
 180 0008 0300     		movs	r3, r0
 181 000a D5B2     		uxtb	r5, r2
 182 000c 0220     		movs	r0, #2
 183 000e 202A     		cmp	r2, #32
 184 0010 15D1     		bne	.L18
 185 0012 1C00     		movs	r4, r3
 186 0014 4034     		adds	r4, r4, #64
 187 0016 2278     		ldrb	r2, [r4]
 188 0018 012A     		cmp	r2, #1
 189 001a 10D0     		beq	.L18
 190 001c 2422     		movs	r2, #36
 191 001e 0A70     		strb	r2, [r1]
 192 0020 1B68     		ldr	r3, [r3]
 193 0022 233A     		subs	r2, r2, #35
 194 0024 1868     		ldr	r0, [r3]
 195 0026 064E     		ldr	r6, .L21
 196 0028 9043     		bics	r0, r2
 197 002a 1860     		str	r0, [r3]
 198 002c 1868     		ldr	r0, [r3]
 199 002e 3040     		ands	r0, r6
 200 0030 1860     		str	r0, [r3]
 201 0032 1868     		ldr	r0, [r3]
 202 0034 0243     		orrs	r2, r0
 203 0036 0020     		movs	r0, #0
 204 0038 1A60     		str	r2, [r3]
 205 003a 0D70     		strb	r5, [r1]
 206 003c 2070     		strb	r0, [r4]
 207              	.L18:
 208              		@ sp needed
 209 003e 70BD     		pop	{r4, r5, r6, pc}
 210              	.L22:
 211              		.align	2
 212              	.L21:
 213 0040 FFFFFBFF 		.word	-262145
 215              		.section	.text.HAL_I2CEx_EnableFastModePlus,"ax",%progbits
 216              		.align	1
 217              		.global	HAL_I2CEx_EnableFastModePlus
 218              		.syntax unified
 219              		.code	16
 220              		.thumb_func
 221              		.fpu softvfp
 223              	HAL_I2CEx_EnableFastModePlus:
 224              		@ args = 0, pretend = 0, frame = 0
 225              		@ frame_needed = 0, uses_anonymous_args = 0
 226              		@ link register save eliminated.
 227 0000 0122     		movs	r2, #1
 228              		@ sp needed
 229 0002 0449     		ldr	r1, .L24
 230 0004 4B6B     		ldr	r3, [r1, #52]
 231 0006 1A43     		orrs	r2, r3
 232 0008 4A63     		str	r2, [r1, #52]
 233 000a 034A     		ldr	r2, .L24+4
 234 000c 5368     		ldr	r3, [r2, #4]
 235 000e 0343     		orrs	r3, r0
 236 0010 5360     		str	r3, [r2, #4]
 237 0012 7047     		bx	lr
ARM GAS  /tmp/ccW8hGJb.s 			page 5


 238              	.L25:
 239              		.align	2
 240              	.L24:
 241 0014 00100240 		.word	1073876992
 242 0018 00000140 		.word	1073807360
 244              		.section	.text.HAL_I2CEx_DisableFastModePlus,"ax",%progbits
 245              		.align	1
 246              		.global	HAL_I2CEx_DisableFastModePlus
 247              		.syntax unified
 248              		.code	16
 249              		.thumb_func
 250              		.fpu softvfp
 252              	HAL_I2CEx_DisableFastModePlus:
 253              		@ args = 0, pretend = 0, frame = 0
 254              		@ frame_needed = 0, uses_anonymous_args = 0
 255              		@ link register save eliminated.
 256 0000 0123     		movs	r3, #1
 257              		@ sp needed
 258 0002 044A     		ldr	r2, .L27
 259 0004 516B     		ldr	r1, [r2, #52]
 260 0006 0B43     		orrs	r3, r1
 261 0008 5363     		str	r3, [r2, #52]
 262 000a 034A     		ldr	r2, .L27+4
 263 000c 5368     		ldr	r3, [r2, #4]
 264 000e 8343     		bics	r3, r0
 265 0010 5360     		str	r3, [r2, #4]
 266 0012 7047     		bx	lr
 267              	.L28:
 268              		.align	2
 269              	.L27:
 270 0014 00100240 		.word	1073876992
 271 0018 00000140 		.word	1073807360
 273              		.ident	"GCC: (15:10.3-2021.07-4) 10.3.1 20210621 (release)"
ARM GAS  /tmp/ccW8hGJb.s 			page 6

