ARM GAS  /tmp/ccdcCb4o.s 			page 1


   1              		.cpu cortex-m0
   2              		.eabi_attribute 23, 1
   3              		.eabi_attribute 24, 1
   4              		.eabi_attribute 25, 1
   5              		.eabi_attribute 26, 1
   6              		.eabi_attribute 30, 4
   7              		.eabi_attribute 34, 0
   8              		.eabi_attribute 18, 4
   9              		.file	"stm32l0xx_hal_i2c.c"
  10              		.text
  11              		.section	.text.I2C_Flush_TXDR,"ax",%progbits
  12              		.align	1
  13              		.arch armv6s-m
  14              		.syntax unified
  15              		.code	16
  16              		.thumb_func
  17              		.fpu softvfp
  19              	I2C_Flush_TXDR:
  20              		@ args = 0, pretend = 0, frame = 0
  21              		@ frame_needed = 0, uses_anonymous_args = 0
  22              		@ link register save eliminated.
  23 0000 0368     		ldr	r3, [r0]
  24 0002 9A69     		ldr	r2, [r3, #24]
  25 0004 9207     		lsls	r2, r2, #30
  26 0006 01D5     		bpl	.L2
  27 0008 0022     		movs	r2, #0
  28 000a 9A62     		str	r2, [r3, #40]
  29              	.L2:
  30 000c 0122     		movs	r2, #1
  31 000e 9969     		ldr	r1, [r3, #24]
  32 0010 1142     		tst	r1, r2
  33 0012 02D1     		bne	.L1
  34 0014 9969     		ldr	r1, [r3, #24]
  35 0016 0A43     		orrs	r2, r1
  36 0018 9A61     		str	r2, [r3, #24]
  37              	.L1:
  38              		@ sp needed
  39 001a 7047     		bx	lr
  41              		.section	.text.I2C_TransferConfig,"ax",%progbits
  42              		.align	1
  43              		.syntax unified
  44              		.code	16
  45              		.thumb_func
  46              		.fpu softvfp
  48              	I2C_TransferConfig:
  49              		@ args = 4, pretend = 0, frame = 0
  50              		@ frame_needed = 0, uses_anonymous_args = 0
  51 0000 30B5     		push	{r4, r5, lr}
  52 0002 039C     		ldr	r4, [sp, #12]
  53 0004 1204     		lsls	r2, r2, #16
  54 0006 0068     		ldr	r0, [r0]
  55 0008 2243     		orrs	r2, r4
  56 000a 1A43     		orrs	r2, r3
  57 000c 054B     		ldr	r3, .L8
  58 000e 4568     		ldr	r5, [r0, #4]
  59 0010 8905     		lsls	r1, r1, #22
  60 0012 640D     		lsrs	r4, r4, #21
ARM GAS  /tmp/ccdcCb4o.s 			page 2


  61 0014 890D     		lsrs	r1, r1, #22
  62 0016 1C43     		orrs	r4, r3
  63 0018 A543     		bics	r5, r4
  64 001a 0A43     		orrs	r2, r1
  65 001c 2A43     		orrs	r2, r5
  66 001e 4260     		str	r2, [r0, #4]
  67              		@ sp needed
  68 0020 30BD     		pop	{r4, r5, pc}
  69              	.L9:
  70 0022 C046     		.align	2
  71              	.L8:
  72 0024 FF63FF03 		.word	67068927
  74              		.section	.text.I2C_Enable_IRQ,"ax",%progbits
  75              		.align	1
  76              		.syntax unified
  77              		.code	16
  78              		.thumb_func
  79              		.fpu softvfp
  81              	I2C_Enable_IRQ:
  82              		@ args = 0, pretend = 0, frame = 0
  83              		@ frame_needed = 0, uses_anonymous_args = 0
  84 0000 10B5     		push	{r4, lr}
  85 0002 436B     		ldr	r3, [r0, #52]
  86 0004 144C     		ldr	r4, .L31
  87 0006 0AB2     		sxth	r2, r1
  88 0008 A342     		cmp	r3, r4
  89 000a 02D0     		beq	.L11
  90 000c 134C     		ldr	r4, .L31+4
  91 000e A342     		cmp	r3, r4
  92 0010 0ED1     		bne	.L12
  93              	.L11:
  94 0012 002A     		cmp	r2, #0
  95 0014 0ADB     		blt	.L18
  96 0016 9023     		movs	r3, #144
  97 0018 1029     		cmp	r1, #16
  98 001a 17D0     		beq	.L14
  99 001c 303B     		subs	r3, r3, #48
 100 001e 2029     		cmp	r1, #32
 101 0020 14D0     		beq	.L14
 102 0022 0023     		movs	r3, #0
 103              	.L13:
 104 0024 4029     		cmp	r1, #64
 105 0026 11D1     		bne	.L14
 106              	.L30:
 107 0028 0B43     		orrs	r3, r1
 108 002a 0FE0     		b	.L14
 109              	.L18:
 110 002c B823     		movs	r3, #184
 111 002e F9E7     		b	.L13
 112              	.L12:
 113 0030 0023     		movs	r3, #0
 114 0032 9A42     		cmp	r2, r3
 115 0034 00DA     		bge	.L15
 116 0036 B833     		adds	r3, r3, #184
 117              	.L15:
 118 0038 CA07     		lsls	r2, r1, #31
 119 003a 01D5     		bpl	.L16
ARM GAS  /tmp/ccdcCb4o.s 			page 3


 120 003c F222     		movs	r2, #242
 121 003e 1343     		orrs	r3, r2
 122              	.L16:
 123 0040 8A07     		lsls	r2, r1, #30
 124 0042 01D5     		bpl	.L17
 125 0044 F422     		movs	r2, #244
 126 0046 1343     		orrs	r3, r2
 127              	.L17:
 128 0048 2029     		cmp	r1, #32
 129 004a EDD0     		beq	.L30
 130              	.L14:
 131              		@ sp needed
 132 004c 0168     		ldr	r1, [r0]
 133 004e 0A68     		ldr	r2, [r1]
 134 0050 1343     		orrs	r3, r2
 135 0052 0B60     		str	r3, [r1]
 136 0054 10BD     		pop	{r4, pc}
 137              	.L32:
 138 0056 C046     		.align	2
 139              	.L31:
 140 0058 00000000 		.word	I2C_Master_ISR_DMA
 141 005c 00000000 		.word	I2C_Slave_ISR_DMA
 143              		.section	.text.I2C_Disable_IRQ,"ax",%progbits
 144              		.align	1
 145              		.syntax unified
 146              		.code	16
 147              		.thumb_func
 148              		.fpu softvfp
 150              	I2C_Disable_IRQ:
 151              		@ args = 0, pretend = 0, frame = 0
 152              		@ frame_needed = 0, uses_anonymous_args = 0
 153 0000 0023     		movs	r3, #0
 154 0002 10B5     		push	{r4, lr}
 155 0004 CA07     		lsls	r2, r1, #31
 156 0006 08D5     		bpl	.L34
 157 0008 0300     		movs	r3, r0
 158 000a 4133     		adds	r3, r3, #65
 159 000c 1A78     		ldrb	r2, [r3]
 160 000e 2823     		movs	r3, #40
 161 0010 1A40     		ands	r2, r3
 162 0012 1A33     		adds	r3, r3, #26
 163 0014 282A     		cmp	r2, #40
 164 0016 00D0     		beq	.L34
 165 0018 B033     		adds	r3, r3, #176
 166              	.L34:
 167 001a 8A07     		lsls	r2, r1, #30
 168 001c 08D5     		bpl	.L35
 169 001e 0200     		movs	r2, r0
 170 0020 2824     		movs	r4, #40
 171 0022 4132     		adds	r2, r2, #65
 172 0024 1278     		ldrb	r2, [r2]
 173 0026 2240     		ands	r2, r4
 174 0028 A242     		cmp	r2, r4
 175 002a 0BD1     		bne	.L36
 176 002c 4422     		movs	r2, #68
 177              	.L44:
 178 002e 1343     		orrs	r3, r2
ARM GAS  /tmp/ccdcCb4o.s 			page 4


 179              	.L35:
 180 0030 09B2     		sxth	r1, r1
 181 0032 0029     		cmp	r1, #0
 182 0034 01DA     		bge	.L37
 183 0036 B822     		movs	r2, #184
 184 0038 1343     		orrs	r3, r2
 185              	.L37:
 186 003a 0168     		ldr	r1, [r0]
 187              		@ sp needed
 188 003c 0A68     		ldr	r2, [r1]
 189 003e 9A43     		bics	r2, r3
 190 0040 0A60     		str	r2, [r1]
 191 0042 10BD     		pop	{r4, pc}
 192              	.L36:
 193 0044 F422     		movs	r2, #244
 194 0046 F2E7     		b	.L44
 196              		.section	.text.I2C_ConvertOtherXferOptions,"ax",%progbits
 197              		.align	1
 198              		.syntax unified
 199              		.code	16
 200              		.thumb_func
 201              		.fpu softvfp
 203              	I2C_ConvertOtherXferOptions:
 204              		@ args = 0, pretend = 0, frame = 0
 205              		@ frame_needed = 0, uses_anonymous_args = 0
 206              		@ link register save eliminated.
 207 0000 C36A     		ldr	r3, [r0, #44]
 208 0002 AA2B     		cmp	r3, #170
 209 0004 02D1     		bne	.L46
 210 0006 0023     		movs	r3, #0
 211              	.L48:
 212 0008 C362     		str	r3, [r0, #44]
 213              	.L45:
 214              		@ sp needed
 215 000a 7047     		bx	lr
 216              	.L46:
 217 000c AA23     		movs	r3, #170
 218 000e C26A     		ldr	r2, [r0, #44]
 219 0010 1B02     		lsls	r3, r3, #8
 220 0012 9A42     		cmp	r2, r3
 221 0014 F9D1     		bne	.L45
 222 0016 8023     		movs	r3, #128
 223 0018 9B04     		lsls	r3, r3, #18
 224 001a F5E7     		b	.L48
 226              		.section	.text.I2C_IsAcknowledgeFailed,"ax",%progbits
 227              		.align	1
 228              		.syntax unified
 229              		.code	16
 230              		.thumb_func
 231              		.fpu softvfp
 233              	I2C_IsAcknowledgeFailed:
 234              		@ args = 0, pretend = 0, frame = 0
 235              		@ frame_needed = 0, uses_anonymous_args = 0
 236 0000 F8B5     		push	{r3, r4, r5, r6, r7, lr}
 237 0002 0368     		ldr	r3, [r0]
 238 0004 1600     		movs	r6, r2
 239 0006 9A69     		ldr	r2, [r3, #24]
ARM GAS  /tmp/ccdcCb4o.s 			page 5


 240 0008 0400     		movs	r4, r0
 241 000a 0D00     		movs	r5, r1
 242 000c 0020     		movs	r0, #0
 243 000e D206     		lsls	r2, r2, #27
 244 0010 36D5     		bpl	.L50
 245 0012 5A68     		ldr	r2, [r3, #4]
 246 0014 9201     		lsls	r2, r2, #6
 247 0016 04D4     		bmi	.L51
 248 0018 8022     		movs	r2, #128
 249 001a 5968     		ldr	r1, [r3, #4]
 250 001c D201     		lsls	r2, r2, #7
 251 001e 0A43     		orrs	r2, r1
 252 0020 5A60     		str	r2, [r3, #4]
 253              	.L51:
 254 0022 2027     		movs	r7, #32
 255              	.L54:
 256 0024 2368     		ldr	r3, [r4]
 257              	.L52:
 258 0026 9A69     		ldr	r2, [r3, #24]
 259 0028 3A42     		tst	r2, r7
 260 002a 12D0     		beq	.L55
 261 002c 1022     		movs	r2, #16
 262 002e 2000     		movs	r0, r4
 263 0030 DA61     		str	r2, [r3, #28]
 264 0032 DF61     		str	r7, [r3, #28]
 265 0034 FFF7FEFF 		bl	I2C_Flush_TXDR
 266 0038 2268     		ldr	r2, [r4]
 267 003a 1249     		ldr	r1, .L62
 268 003c 5368     		ldr	r3, [r2, #4]
 269 003e 0B40     		ands	r3, r1
 270 0040 5360     		str	r3, [r2, #4]
 271 0042 0423     		movs	r3, #4
 272 0044 626C     		ldr	r2, [r4, #68]
 273 0046 1343     		orrs	r3, r2
 274 0048 6364     		str	r3, [r4, #68]
 275 004a 2300     		movs	r3, r4
 276 004c 4133     		adds	r3, r3, #65
 277 004e 1F70     		strb	r7, [r3]
 278 0050 0FE0     		b	.L61
 279              	.L55:
 280 0052 6A1C     		adds	r2, r5, #1
 281 0054 E7D0     		beq	.L52
 282 0056 FFF7FEFF 		bl	HAL_GetTick
 283 005a 801B     		subs	r0, r0, r6
 284 005c 8542     		cmp	r5, r0
 285 005e 01D3     		bcc	.L53
 286 0060 002D     		cmp	r5, #0
 287 0062 DFD1     		bne	.L54
 288              	.L53:
 289 0064 2022     		movs	r2, #32
 290 0066 636C     		ldr	r3, [r4, #68]
 291 0068 1343     		orrs	r3, r2
 292 006a 6364     		str	r3, [r4, #68]
 293 006c 2300     		movs	r3, r4
 294 006e 4133     		adds	r3, r3, #65
 295 0070 1A70     		strb	r2, [r3]
 296              	.L61:
ARM GAS  /tmp/ccdcCb4o.s 			page 6


 297 0072 2200     		movs	r2, r4
 298 0074 0023     		movs	r3, #0
 299 0076 0120     		movs	r0, #1
 300 0078 4232     		adds	r2, r2, #66
 301 007a 4034     		adds	r4, r4, #64
 302 007c 1370     		strb	r3, [r2]
 303 007e 2370     		strb	r3, [r4]
 304              	.L50:
 305              		@ sp needed
 306 0080 F8BD     		pop	{r3, r4, r5, r6, r7, pc}
 307              	.L63:
 308 0082 C046     		.align	2
 309              	.L62:
 310 0084 00E800FE 		.word	-33495040
 312              		.section	.text.I2C_WaitOnTXISFlagUntilTimeout,"ax",%progbits
 313              		.align	1
 314              		.syntax unified
 315              		.code	16
 316              		.thumb_func
 317              		.fpu softvfp
 319              	I2C_WaitOnTXISFlagUntilTimeout:
 320              		@ args = 0, pretend = 0, frame = 0
 321              		@ frame_needed = 0, uses_anonymous_args = 0
 322 0000 F8B5     		push	{r3, r4, r5, r6, r7, lr}
 323 0002 0400     		movs	r4, r0
 324 0004 0D00     		movs	r5, r1
 325 0006 1600     		movs	r6, r2
 326 0008 0227     		movs	r7, #2
 327              	.L67:
 328 000a 2368     		ldr	r3, [r4]
 329 000c 9B69     		ldr	r3, [r3, #24]
 330 000e 3B42     		tst	r3, r7
 331 0010 01D0     		beq	.L69
 332 0012 0020     		movs	r0, #0
 333              	.L66:
 334              		@ sp needed
 335 0014 F8BD     		pop	{r3, r4, r5, r6, r7, pc}
 336              	.L69:
 337 0016 3200     		movs	r2, r6
 338 0018 2900     		movs	r1, r5
 339 001a 2000     		movs	r0, r4
 340 001c FFF7FEFF 		bl	I2C_IsAcknowledgeFailed
 341 0020 0028     		cmp	r0, #0
 342 0022 15D1     		bne	.L70
 343 0024 6B1C     		adds	r3, r5, #1
 344 0026 F0D0     		beq	.L67
 345 0028 FFF7FEFF 		bl	HAL_GetTick
 346 002c 801B     		subs	r0, r0, r6
 347 002e A842     		cmp	r0, r5
 348 0030 01D8     		bhi	.L68
 349 0032 002D     		cmp	r5, #0
 350 0034 E9D1     		bne	.L67
 351              	.L68:
 352 0036 2022     		movs	r2, #32
 353 0038 636C     		ldr	r3, [r4, #68]
 354 003a 1343     		orrs	r3, r2
 355 003c 6364     		str	r3, [r4, #68]
ARM GAS  /tmp/ccdcCb4o.s 			page 7


 356 003e 2300     		movs	r3, r4
 357 0040 4133     		adds	r3, r3, #65
 358 0042 1A70     		strb	r2, [r3]
 359 0044 2200     		movs	r2, r4
 360 0046 0023     		movs	r3, #0
 361 0048 4232     		adds	r2, r2, #66
 362 004a 4034     		adds	r4, r4, #64
 363 004c 1370     		strb	r3, [r2]
 364 004e 2370     		strb	r3, [r4]
 365              	.L70:
 366 0050 0120     		movs	r0, #1
 367 0052 DFE7     		b	.L66
 369              		.section	.text.I2C_WaitOnRXNEFlagUntilTimeout,"ax",%progbits
 370              		.align	1
 371              		.syntax unified
 372              		.code	16
 373              		.thumb_func
 374              		.fpu softvfp
 376              	I2C_WaitOnRXNEFlagUntilTimeout:
 377              		@ args = 0, pretend = 0, frame = 0
 378              		@ frame_needed = 0, uses_anonymous_args = 0
 379 0000 F8B5     		push	{r3, r4, r5, r6, r7, lr}
 380 0002 0400     		movs	r4, r0
 381 0004 0D00     		movs	r5, r1
 382 0006 1600     		movs	r6, r2
 383 0008 2027     		movs	r7, #32
 384              	.L75:
 385 000a 0422     		movs	r2, #4
 386 000c 2368     		ldr	r3, [r4]
 387 000e 9B69     		ldr	r3, [r3, #24]
 388 0010 1342     		tst	r3, r2
 389 0012 11D1     		bne	.L81
 390 0014 3200     		movs	r2, r6
 391 0016 2900     		movs	r1, r5
 392 0018 2000     		movs	r0, r4
 393 001a FFF7FEFF 		bl	I2C_IsAcknowledgeFailed
 394 001e 0028     		cmp	r0, #0
 395 0020 19D1     		bne	.L82
 396 0022 2368     		ldr	r3, [r4]
 397 0024 9A69     		ldr	r2, [r3, #24]
 398 0026 3A42     		tst	r2, r7
 399 0028 17D0     		beq	.L77
 400 002a 0421     		movs	r1, #4
 401 002c 9A69     		ldr	r2, [r3, #24]
 402 002e 0A42     		tst	r2, r1
 403 0030 04D0     		beq	.L78
 404 0032 228D     		ldrh	r2, [r4, #40]
 405 0034 002A     		cmp	r2, #0
 406 0036 01D0     		beq	.L78
 407              	.L81:
 408 0038 0020     		movs	r0, #0
 409              	.L76:
 410              		@ sp needed
 411 003a F8BD     		pop	{r3, r4, r5, r6, r7, pc}
 412              	.L78:
 413 003c DF61     		str	r7, [r3, #28]
 414 003e 5A68     		ldr	r2, [r3, #4]
ARM GAS  /tmp/ccdcCb4o.s 			page 8


 415 0040 0E49     		ldr	r1, .L91
 416 0042 0A40     		ands	r2, r1
 417 0044 5A60     		str	r2, [r3, #4]
 418 0046 2200     		movs	r2, r4
 419 0048 0023     		movs	r3, #0
 420 004a 4132     		adds	r2, r2, #65
 421 004c 6364     		str	r3, [r4, #68]
 422 004e 1770     		strb	r7, [r2]
 423 0050 4034     		adds	r4, r4, #64
 424 0052 5370     		strb	r3, [r2, #1]
 425              	.L90:
 426 0054 2370     		strb	r3, [r4]
 427              	.L82:
 428 0056 0120     		movs	r0, #1
 429 0058 EFE7     		b	.L76
 430              	.L77:
 431 005a FFF7FEFF 		bl	HAL_GetTick
 432 005e 801B     		subs	r0, r0, r6
 433 0060 A842     		cmp	r0, r5
 434 0062 01D8     		bhi	.L79
 435 0064 002D     		cmp	r5, #0
 436 0066 D0D1     		bne	.L75
 437              	.L79:
 438 0068 2022     		movs	r2, #32
 439 006a 636C     		ldr	r3, [r4, #68]
 440 006c 1343     		orrs	r3, r2
 441 006e 6364     		str	r3, [r4, #68]
 442 0070 2300     		movs	r3, r4
 443 0072 4133     		adds	r3, r3, #65
 444 0074 1A70     		strb	r2, [r3]
 445 0076 4034     		adds	r4, r4, #64
 446 0078 0023     		movs	r3, #0
 447 007a EBE7     		b	.L90
 448              	.L92:
 449              		.align	2
 450              	.L91:
 451 007c 00E800FE 		.word	-33495040
 453              		.section	.text.I2C_WaitOnFlagUntilTimeout,"ax",%progbits
 454              		.align	1
 455              		.syntax unified
 456              		.code	16
 457              		.thumb_func
 458              		.fpu softvfp
 460              	I2C_WaitOnFlagUntilTimeout:
 461              		@ args = 4, pretend = 0, frame = 0
 462              		@ frame_needed = 0, uses_anonymous_args = 0
 463 0000 F8B5     		push	{r3, r4, r5, r6, r7, lr}
 464 0002 0400     		movs	r4, r0
 465 0004 0E00     		movs	r6, r1
 466 0006 1700     		movs	r7, r2
 467 0008 1D00     		movs	r5, r3
 468              	.L94:
 469 000a 2268     		ldr	r2, [r4]
 470              	.L95:
 471 000c 9369     		ldr	r3, [r2, #24]
 472 000e 3340     		ands	r3, r6
 473 0010 9B1B     		subs	r3, r3, r6
ARM GAS  /tmp/ccdcCb4o.s 			page 9


 474 0012 5942     		rsbs	r1, r3, #0
 475 0014 4B41     		adcs	r3, r3, r1
 476 0016 BB42     		cmp	r3, r7
 477 0018 01D0     		beq	.L98
 478 001a 0020     		movs	r0, #0
 479 001c 17E0     		b	.L97
 480              	.L98:
 481 001e 6B1C     		adds	r3, r5, #1
 482 0020 F4D0     		beq	.L95
 483 0022 FFF7FEFF 		bl	HAL_GetTick
 484 0026 069B     		ldr	r3, [sp, #24]
 485 0028 C01A     		subs	r0, r0, r3
 486 002a A842     		cmp	r0, r5
 487 002c 01D8     		bhi	.L96
 488 002e 002D     		cmp	r5, #0
 489 0030 EBD1     		bne	.L94
 490              	.L96:
 491 0032 2022     		movs	r2, #32
 492 0034 636C     		ldr	r3, [r4, #68]
 493 0036 0120     		movs	r0, #1
 494 0038 1343     		orrs	r3, r2
 495 003a 6364     		str	r3, [r4, #68]
 496 003c 2300     		movs	r3, r4
 497 003e 4133     		adds	r3, r3, #65
 498 0040 1A70     		strb	r2, [r3]
 499 0042 2200     		movs	r2, r4
 500 0044 0023     		movs	r3, #0
 501 0046 4232     		adds	r2, r2, #66
 502 0048 4034     		adds	r4, r4, #64
 503 004a 1370     		strb	r3, [r2]
 504 004c 2370     		strb	r3, [r4]
 505              	.L97:
 506              		@ sp needed
 507 004e F8BD     		pop	{r3, r4, r5, r6, r7, pc}
 509              		.section	.text.I2C_RequestMemoryWrite,"ax",%progbits
 510              		.align	1
 511              		.syntax unified
 512              		.code	16
 513              		.thumb_func
 514              		.fpu softvfp
 516              	I2C_RequestMemoryWrite:
 517              		@ args = 8, pretend = 0, frame = 0
 518              		@ frame_needed = 0, uses_anonymous_args = 0
 519 0000 F7B5     		push	{r0, r1, r2, r4, r5, r6, r7, lr}
 520 0002 1400     		movs	r4, r2
 521 0004 1E00     		movs	r6, r3
 522 0006 DAB2     		uxtb	r2, r3
 523 0008 164B     		ldr	r3, .L109
 524 000a 0500     		movs	r5, r0
 525 000c 0093     		str	r3, [sp]
 526 000e 8023     		movs	r3, #128
 527 0010 089F     		ldr	r7, [sp, #32]
 528 0012 5B04     		lsls	r3, r3, #17
 529 0014 FFF7FEFF 		bl	I2C_TransferConfig
 530 0018 3900     		movs	r1, r7
 531 001a 2800     		movs	r0, r5
 532 001c 099A     		ldr	r2, [sp, #36]
ARM GAS  /tmp/ccdcCb4o.s 			page 10


 533 001e FFF7FEFF 		bl	I2C_WaitOnTXISFlagUntilTimeout
 534 0022 0028     		cmp	r0, #0
 535 0024 01D0     		beq	.L103
 536              	.L107:
 537 0026 0120     		movs	r0, #1
 538              	.L104:
 539              		@ sp needed
 540 0028 FEBD     		pop	{r1, r2, r3, r4, r5, r6, r7, pc}
 541              	.L103:
 542 002a 2B68     		ldr	r3, [r5]
 543 002c 012E     		cmp	r6, #1
 544 002e 0DD1     		bne	.L105
 545              	.L108:
 546 0030 E4B2     		uxtb	r4, r4
 547 0032 9C62     		str	r4, [r3, #40]
 548 0034 099B     		ldr	r3, [sp, #36]
 549 0036 0022     		movs	r2, #0
 550 0038 0093     		str	r3, [sp]
 551 003a 8021     		movs	r1, #128
 552 003c 3B00     		movs	r3, r7
 553 003e 2800     		movs	r0, r5
 554 0040 FFF7FEFF 		bl	I2C_WaitOnFlagUntilTimeout
 555 0044 431E     		subs	r3, r0, #1
 556 0046 9841     		sbcs	r0, r0, r3
 557 0048 C0B2     		uxtb	r0, r0
 558 004a EDE7     		b	.L104
 559              	.L105:
 560 004c 220A     		lsrs	r2, r4, #8
 561 004e 9A62     		str	r2, [r3, #40]
 562 0050 3900     		movs	r1, r7
 563 0052 2800     		movs	r0, r5
 564 0054 099A     		ldr	r2, [sp, #36]
 565 0056 FFF7FEFF 		bl	I2C_WaitOnTXISFlagUntilTimeout
 566 005a 0028     		cmp	r0, #0
 567 005c E3D1     		bne	.L107
 568 005e 2B68     		ldr	r3, [r5]
 569 0060 E6E7     		b	.L108
 570              	.L110:
 571 0062 C046     		.align	2
 572              	.L109:
 573 0064 00200080 		.word	-2147475456
 575              		.section	.text.I2C_RequestMemoryRead,"ax",%progbits
 576              		.align	1
 577              		.syntax unified
 578              		.code	16
 579              		.thumb_func
 580              		.fpu softvfp
 582              	I2C_RequestMemoryRead:
 583              		@ args = 8, pretend = 0, frame = 0
 584              		@ frame_needed = 0, uses_anonymous_args = 0
 585 0000 F7B5     		push	{r0, r1, r2, r4, r5, r6, r7, lr}
 586 0002 0500     		movs	r5, r0
 587 0004 1400     		movs	r4, r2
 588 0006 1E00     		movs	r6, r3
 589 0008 DAB2     		uxtb	r2, r3
 590 000a 154B     		ldr	r3, .L118
 591 000c 089F     		ldr	r7, [sp, #32]
ARM GAS  /tmp/ccdcCb4o.s 			page 11


 592 000e 0093     		str	r3, [sp]
 593 0010 0023     		movs	r3, #0
 594 0012 FFF7FEFF 		bl	I2C_TransferConfig
 595 0016 3900     		movs	r1, r7
 596 0018 2800     		movs	r0, r5
 597 001a 099A     		ldr	r2, [sp, #36]
 598 001c FFF7FEFF 		bl	I2C_WaitOnTXISFlagUntilTimeout
 599 0020 0028     		cmp	r0, #0
 600 0022 01D0     		beq	.L112
 601              	.L116:
 602 0024 0120     		movs	r0, #1
 603              	.L113:
 604              		@ sp needed
 605 0026 FEBD     		pop	{r1, r2, r3, r4, r5, r6, r7, pc}
 606              	.L112:
 607 0028 2B68     		ldr	r3, [r5]
 608 002a 012E     		cmp	r6, #1
 609 002c 0DD1     		bne	.L114
 610              	.L117:
 611 002e E4B2     		uxtb	r4, r4
 612 0030 9C62     		str	r4, [r3, #40]
 613 0032 099B     		ldr	r3, [sp, #36]
 614 0034 0022     		movs	r2, #0
 615 0036 0093     		str	r3, [sp]
 616 0038 4021     		movs	r1, #64
 617 003a 3B00     		movs	r3, r7
 618 003c 2800     		movs	r0, r5
 619 003e FFF7FEFF 		bl	I2C_WaitOnFlagUntilTimeout
 620 0042 431E     		subs	r3, r0, #1
 621 0044 9841     		sbcs	r0, r0, r3
 622 0046 C0B2     		uxtb	r0, r0
 623 0048 EDE7     		b	.L113
 624              	.L114:
 625 004a 220A     		lsrs	r2, r4, #8
 626 004c 9A62     		str	r2, [r3, #40]
 627 004e 3900     		movs	r1, r7
 628 0050 2800     		movs	r0, r5
 629 0052 099A     		ldr	r2, [sp, #36]
 630 0054 FFF7FEFF 		bl	I2C_WaitOnTXISFlagUntilTimeout
 631 0058 0028     		cmp	r0, #0
 632 005a E3D1     		bne	.L116
 633 005c 2B68     		ldr	r3, [r5]
 634 005e E6E7     		b	.L117
 635              	.L119:
 636              		.align	2
 637              	.L118:
 638 0060 00200080 		.word	-2147475456
 640              		.section	.text.I2C_WaitOnSTOPFlagUntilTimeout,"ax",%progbits
 641              		.align	1
 642              		.syntax unified
 643              		.code	16
 644              		.thumb_func
 645              		.fpu softvfp
 647              	I2C_WaitOnSTOPFlagUntilTimeout:
 648              		@ args = 0, pretend = 0, frame = 0
 649              		@ frame_needed = 0, uses_anonymous_args = 0
 650 0000 F8B5     		push	{r3, r4, r5, r6, r7, lr}
ARM GAS  /tmp/ccdcCb4o.s 			page 12


 651 0002 0400     		movs	r4, r0
 652 0004 0D00     		movs	r5, r1
 653 0006 1600     		movs	r6, r2
 654 0008 2027     		movs	r7, #32
 655              	.L121:
 656 000a 2368     		ldr	r3, [r4]
 657 000c 9B69     		ldr	r3, [r3, #24]
 658 000e 3B42     		tst	r3, r7
 659 0010 01D0     		beq	.L124
 660 0012 0020     		movs	r0, #0
 661              	.L122:
 662              		@ sp needed
 663 0014 F8BD     		pop	{r3, r4, r5, r6, r7, pc}
 664              	.L124:
 665 0016 3200     		movs	r2, r6
 666 0018 2900     		movs	r1, r5
 667 001a 2000     		movs	r0, r4
 668 001c FFF7FEFF 		bl	I2C_IsAcknowledgeFailed
 669 0020 0028     		cmp	r0, #0
 670 0022 13D1     		bne	.L125
 671 0024 FFF7FEFF 		bl	HAL_GetTick
 672 0028 801B     		subs	r0, r0, r6
 673 002a A842     		cmp	r0, r5
 674 002c 01D8     		bhi	.L123
 675 002e 002D     		cmp	r5, #0
 676 0030 EBD1     		bne	.L121
 677              	.L123:
 678 0032 2022     		movs	r2, #32
 679 0034 636C     		ldr	r3, [r4, #68]
 680 0036 1343     		orrs	r3, r2
 681 0038 6364     		str	r3, [r4, #68]
 682 003a 2300     		movs	r3, r4
 683 003c 4133     		adds	r3, r3, #65
 684 003e 1A70     		strb	r2, [r3]
 685 0040 2200     		movs	r2, r4
 686 0042 0023     		movs	r3, #0
 687 0044 4232     		adds	r2, r2, #66
 688 0046 4034     		adds	r4, r4, #64
 689 0048 1370     		strb	r3, [r2]
 690 004a 2370     		strb	r3, [r4]
 691              	.L125:
 692 004c 0120     		movs	r0, #1
 693 004e E1E7     		b	.L122
 695              		.section	.text.HAL_I2C_MspInit,"ax",%progbits
 696              		.align	1
 697              		.weak	HAL_I2C_MspInit
 698              		.syntax unified
 699              		.code	16
 700              		.thumb_func
 701              		.fpu softvfp
 703              	HAL_I2C_MspInit:
 704              		@ args = 0, pretend = 0, frame = 0
 705              		@ frame_needed = 0, uses_anonymous_args = 0
 706              		@ link register save eliminated.
 707              		@ sp needed
 708 0000 7047     		bx	lr
 710              		.section	.text.HAL_I2C_Init,"ax",%progbits
ARM GAS  /tmp/ccdcCb4o.s 			page 13


 711              		.align	1
 712              		.global	HAL_I2C_Init
 713              		.syntax unified
 714              		.code	16
 715              		.thumb_func
 716              		.fpu softvfp
 718              	HAL_I2C_Init:
 719              		@ args = 0, pretend = 0, frame = 0
 720              		@ frame_needed = 0, uses_anonymous_args = 0
 721 0000 70B5     		push	{r4, r5, r6, lr}
 722 0002 0400     		movs	r4, r0
 723 0004 0120     		movs	r0, #1
 724 0006 002C     		cmp	r4, #0
 725 0008 3FD0     		beq	.L129
 726 000a 2500     		movs	r5, r4
 727 000c 4135     		adds	r5, r5, #65
 728 000e 2B78     		ldrb	r3, [r5]
 729 0010 DAB2     		uxtb	r2, r3
 730 0012 002B     		cmp	r3, #0
 731 0014 05D1     		bne	.L130
 732 0016 2300     		movs	r3, r4
 733 0018 4033     		adds	r3, r3, #64
 734 001a 2000     		movs	r0, r4
 735 001c 1A70     		strb	r2, [r3]
 736 001e FFF7FEFF 		bl	HAL_I2C_MspInit
 737              	.L130:
 738 0022 2423     		movs	r3, #36
 739 0024 0121     		movs	r1, #1
 740 0026 2B70     		strb	r3, [r5]
 741 0028 2368     		ldr	r3, [r4]
 742 002a 1D48     		ldr	r0, .L134
 743 002c 1A68     		ldr	r2, [r3]
 744 002e A668     		ldr	r6, [r4, #8]
 745 0030 8A43     		bics	r2, r1
 746 0032 1A60     		str	r2, [r3]
 747 0034 6168     		ldr	r1, [r4, #4]
 748 0036 1B4A     		ldr	r2, .L134+4
 749 0038 0A40     		ands	r2, r1
 750 003a 1A61     		str	r2, [r3, #16]
 751 003c 9A68     		ldr	r2, [r3, #8]
 752 003e 0240     		ands	r2, r0
 753 0040 9A60     		str	r2, [r3, #8]
 754 0042 E268     		ldr	r2, [r4, #12]
 755 0044 012A     		cmp	r2, #1
 756 0046 21D1     		bne	.L131
 757 0048 8021     		movs	r1, #128
 758 004a 0902     		lsls	r1, r1, #8
 759 004c 3143     		orrs	r1, r6
 760 004e 9960     		str	r1, [r3, #8]
 761              	.L132:
 762 0050 5A68     		ldr	r2, [r3, #4]
 763 0052 1549     		ldr	r1, .L134+8
 764 0054 1143     		orrs	r1, r2
 765 0056 5960     		str	r1, [r3, #4]
 766 0058 DA68     		ldr	r2, [r3, #12]
 767 005a 6169     		ldr	r1, [r4, #20]
 768 005c 0240     		ands	r2, r0
ARM GAS  /tmp/ccdcCb4o.s 			page 14


 769 005e DA60     		str	r2, [r3, #12]
 770 0060 2269     		ldr	r2, [r4, #16]
 771 0062 0020     		movs	r0, #0
 772 0064 0A43     		orrs	r2, r1
 773 0066 A169     		ldr	r1, [r4, #24]
 774 0068 0902     		lsls	r1, r1, #8
 775 006a 0A43     		orrs	r2, r1
 776 006c DA60     		str	r2, [r3, #12]
 777 006e 216A     		ldr	r1, [r4, #32]
 778 0070 E269     		ldr	r2, [r4, #28]
 779 0072 0A43     		orrs	r2, r1
 780 0074 1A60     		str	r2, [r3]
 781 0076 0122     		movs	r2, #1
 782 0078 1968     		ldr	r1, [r3]
 783 007a 0A43     		orrs	r2, r1
 784 007c 1A60     		str	r2, [r3]
 785 007e 2023     		movs	r3, #32
 786 0080 6064     		str	r0, [r4, #68]
 787 0082 2B70     		strb	r3, [r5]
 788 0084 2063     		str	r0, [r4, #48]
 789 0086 4234     		adds	r4, r4, #66
 790 0088 2070     		strb	r0, [r4]
 791              	.L129:
 792              		@ sp needed
 793 008a 70BD     		pop	{r4, r5, r6, pc}
 794              	.L131:
 795 008c 8421     		movs	r1, #132
 796 008e 0902     		lsls	r1, r1, #8
 797 0090 3143     		orrs	r1, r6
 798 0092 9960     		str	r1, [r3, #8]
 799 0094 022A     		cmp	r2, #2
 800 0096 DBD1     		bne	.L132
 801 0098 8022     		movs	r2, #128
 802 009a 1201     		lsls	r2, r2, #4
 803 009c 5A60     		str	r2, [r3, #4]
 804 009e D7E7     		b	.L132
 805              	.L135:
 806              		.align	2
 807              	.L134:
 808 00a0 FF7FFFFF 		.word	-32769
 809 00a4 FFFFFFF0 		.word	-251658241
 810 00a8 00800002 		.word	33587200
 812              		.section	.text.HAL_I2C_MspDeInit,"ax",%progbits
 813              		.align	1
 814              		.weak	HAL_I2C_MspDeInit
 815              		.syntax unified
 816              		.code	16
 817              		.thumb_func
 818              		.fpu softvfp
 820              	HAL_I2C_MspDeInit:
 821              		@ args = 0, pretend = 0, frame = 0
 822              		@ frame_needed = 0, uses_anonymous_args = 0
 823              		@ link register save eliminated.
 824              		@ sp needed
 825 0000 7047     		bx	lr
 827              		.section	.text.HAL_I2C_DeInit,"ax",%progbits
 828              		.align	1
ARM GAS  /tmp/ccdcCb4o.s 			page 15


 829              		.global	HAL_I2C_DeInit
 830              		.syntax unified
 831              		.code	16
 832              		.thumb_func
 833              		.fpu softvfp
 835              	HAL_I2C_DeInit:
 836              		@ args = 0, pretend = 0, frame = 0
 837              		@ frame_needed = 0, uses_anonymous_args = 0
 838 0000 70B5     		push	{r4, r5, r6, lr}
 839 0002 0400     		movs	r4, r0
 840 0004 0120     		movs	r0, #1
 841 0006 002C     		cmp	r4, #0
 842 0008 13D0     		beq	.L138
 843 000a 2500     		movs	r5, r4
 844 000c 2423     		movs	r3, #36
 845 000e 4135     		adds	r5, r5, #65
 846 0010 2B70     		strb	r3, [r5]
 847 0012 2268     		ldr	r2, [r4]
 848 0014 1368     		ldr	r3, [r2]
 849 0016 8343     		bics	r3, r0
 850 0018 1360     		str	r3, [r2]
 851 001a 2000     		movs	r0, r4
 852 001c FFF7FEFF 		bl	HAL_I2C_MspDeInit
 853 0020 0020     		movs	r0, #0
 854 0022 2300     		movs	r3, r4
 855 0024 6064     		str	r0, [r4, #68]
 856 0026 4233     		adds	r3, r3, #66
 857 0028 2870     		strb	r0, [r5]
 858 002a 2063     		str	r0, [r4, #48]
 859 002c 4034     		adds	r4, r4, #64
 860 002e 1870     		strb	r0, [r3]
 861 0030 2070     		strb	r0, [r4]
 862              	.L138:
 863              		@ sp needed
 864 0032 70BD     		pop	{r4, r5, r6, pc}
 866              		.section	.text.HAL_I2C_Master_Transmit,"ax",%progbits
 867              		.align	1
 868              		.global	HAL_I2C_Master_Transmit
 869              		.syntax unified
 870              		.code	16
 871              		.thumb_func
 872              		.fpu softvfp
 874              	HAL_I2C_Master_Transmit:
 875              		@ args = 4, pretend = 0, frame = 16
 876              		@ frame_needed = 0, uses_anonymous_args = 0
 877 0000 F0B5     		push	{r4, r5, r6, r7, lr}
 878 0002 87B0     		sub	sp, sp, #28
 879 0004 0593     		str	r3, [sp, #20]
 880 0006 0300     		movs	r3, r0
 881 0008 4133     		adds	r3, r3, #65
 882 000a 0492     		str	r2, [sp, #16]
 883 000c 0393     		str	r3, [sp, #12]
 884 000e 1B78     		ldrb	r3, [r3]
 885 0010 0400     		movs	r4, r0
 886 0012 0F00     		movs	r7, r1
 887 0014 0220     		movs	r0, #2
 888 0016 202B     		cmp	r3, #32
ARM GAS  /tmp/ccdcCb4o.s 			page 16


 889 0018 14D1     		bne	.L141
 890 001a 2300     		movs	r3, r4
 891 001c 4033     		adds	r3, r3, #64
 892 001e 1A78     		ldrb	r2, [r3]
 893 0020 012A     		cmp	r2, #1
 894 0022 0FD0     		beq	.L141
 895 0024 0126     		movs	r6, #1
 896 0026 1E70     		strb	r6, [r3]
 897 0028 FFF7FEFF 		bl	HAL_GetTick
 898 002c 8021     		movs	r1, #128
 899 002e 0500     		movs	r5, r0
 900 0030 0090     		str	r0, [sp]
 901 0032 1923     		movs	r3, #25
 902 0034 3200     		movs	r2, r6
 903 0036 2000     		movs	r0, r4
 904 0038 0902     		lsls	r1, r1, #8
 905 003a FFF7FEFF 		bl	I2C_WaitOnFlagUntilTimeout
 906 003e 0028     		cmp	r0, #0
 907 0040 02D0     		beq	.L142
 908              	.L146:
 909 0042 0120     		movs	r0, #1
 910              	.L141:
 911 0044 07B0     		add	sp, sp, #28
 912              		@ sp needed
 913 0046 F0BD     		pop	{r4, r5, r6, r7, pc}
 914              	.L142:
 915 0048 2123     		movs	r3, #33
 916 004a 2600     		movs	r6, r4
 917 004c 039A     		ldr	r2, [sp, #12]
 918 004e 4236     		adds	r6, r6, #66
 919 0050 1370     		strb	r3, [r2]
 920 0052 113B     		subs	r3, r3, #17
 921 0054 3370     		strb	r3, [r6]
 922 0056 049B     		ldr	r3, [sp, #16]
 923 0058 6064     		str	r0, [r4, #68]
 924 005a 6362     		str	r3, [r4, #36]
 925 005c 059B     		ldr	r3, [sp, #20]
 926 005e 6063     		str	r0, [r4, #52]
 927 0060 6385     		strh	r3, [r4, #42]
 928 0062 628D     		ldrh	r2, [r4, #42]
 929 0064 2D4B     		ldr	r3, .L157
 930 0066 FF2A     		cmp	r2, #255
 931 0068 20D9     		bls	.L143
 932 006a FF22     		movs	r2, #255
 933 006c 2285     		strh	r2, [r4, #40]
 934 006e 0093     		str	r3, [sp]
 935 0070 8023     		movs	r3, #128
 936 0072 5B04     		lsls	r3, r3, #17
 937              	.L156:
 938 0074 3900     		movs	r1, r7
 939 0076 2000     		movs	r0, r4
 940 0078 FFF7FEFF 		bl	I2C_TransferConfig
 941              	.L145:
 942 007c 638D     		ldrh	r3, [r4, #42]
 943 007e 2A00     		movs	r2, r5
 944 0080 2000     		movs	r0, r4
 945 0082 0C99     		ldr	r1, [sp, #48]
ARM GAS  /tmp/ccdcCb4o.s 			page 17


 946 0084 002B     		cmp	r3, #0
 947 0086 19D1     		bne	.L149
 948 0088 FFF7FEFF 		bl	I2C_WaitOnSTOPFlagUntilTimeout
 949 008c 0028     		cmp	r0, #0
 950 008e D8D1     		bne	.L146
 951 0090 2021     		movs	r1, #32
 952 0092 2368     		ldr	r3, [r4]
 953 0094 224D     		ldr	r5, .L157+4
 954 0096 D961     		str	r1, [r3, #28]
 955 0098 5A68     		ldr	r2, [r3, #4]
 956 009a 2A40     		ands	r2, r5
 957 009c 5A60     		str	r2, [r3, #4]
 958 009e 2300     		movs	r3, r4
 959 00a0 4034     		adds	r4, r4, #64
 960 00a2 4133     		adds	r3, r3, #65
 961 00a4 1970     		strb	r1, [r3]
 962 00a6 3070     		strb	r0, [r6]
 963 00a8 2070     		strb	r0, [r4]
 964 00aa CBE7     		b	.L141
 965              	.L143:
 966 00ac 628D     		ldrh	r2, [r4, #42]
 967 00ae 92B2     		uxth	r2, r2
 968 00b0 2285     		strh	r2, [r4, #40]
 969 00b2 D2B2     		uxtb	r2, r2
 970 00b4 0093     		str	r3, [sp]
 971              	.L155:
 972 00b6 8023     		movs	r3, #128
 973 00b8 9B04     		lsls	r3, r3, #18
 974 00ba DBE7     		b	.L156
 975              	.L149:
 976 00bc FFF7FEFF 		bl	I2C_WaitOnTXISFlagUntilTimeout
 977 00c0 0028     		cmp	r0, #0
 978 00c2 BED1     		bne	.L146
 979 00c4 636A     		ldr	r3, [r4, #36]
 980 00c6 2268     		ldr	r2, [r4]
 981 00c8 1978     		ldrb	r1, [r3]
 982 00ca 0133     		adds	r3, r3, #1
 983 00cc 9162     		str	r1, [r2, #40]
 984 00ce 6362     		str	r3, [r4, #36]
 985 00d0 638D     		ldrh	r3, [r4, #42]
 986 00d2 228D     		ldrh	r2, [r4, #40]
 987 00d4 013B     		subs	r3, r3, #1
 988 00d6 9BB2     		uxth	r3, r3
 989 00d8 6385     		strh	r3, [r4, #42]
 990 00da 013A     		subs	r2, r2, #1
 991 00dc 638D     		ldrh	r3, [r4, #42]
 992 00de 92B2     		uxth	r2, r2
 993 00e0 2285     		strh	r2, [r4, #40]
 994 00e2 002B     		cmp	r3, #0
 995 00e4 CAD0     		beq	.L145
 996 00e6 002A     		cmp	r2, #0
 997 00e8 C8D1     		bne	.L145
 998 00ea 8021     		movs	r1, #128
 999 00ec 2000     		movs	r0, r4
 1000 00ee 0C9B     		ldr	r3, [sp, #48]
 1001 00f0 0095     		str	r5, [sp]
 1002 00f2 FFF7FEFF 		bl	I2C_WaitOnFlagUntilTimeout
ARM GAS  /tmp/ccdcCb4o.s 			page 18


 1003 00f6 0028     		cmp	r0, #0
 1004 00f8 A3D1     		bne	.L146
 1005 00fa 638D     		ldrh	r3, [r4, #42]
 1006 00fc FF2B     		cmp	r3, #255
 1007 00fe 06D9     		bls	.L148
 1008 0100 FF23     		movs	r3, #255
 1009 0102 2385     		strh	r3, [r4, #40]
 1010 0104 8023     		movs	r3, #128
 1011 0106 FF22     		movs	r2, #255
 1012 0108 0090     		str	r0, [sp]
 1013 010a 5B04     		lsls	r3, r3, #17
 1014 010c B2E7     		b	.L156
 1015              	.L148:
 1016 010e 628D     		ldrh	r2, [r4, #42]
 1017 0110 92B2     		uxth	r2, r2
 1018 0112 2285     		strh	r2, [r4, #40]
 1019 0114 D2B2     		uxtb	r2, r2
 1020 0116 0090     		str	r0, [sp]
 1021 0118 CDE7     		b	.L155
 1022              	.L158:
 1023 011a C046     		.align	2
 1024              	.L157:
 1025 011c 00200080 		.word	-2147475456
 1026 0120 00E800FE 		.word	-33495040
 1028              		.section	.text.HAL_I2C_Master_Receive,"ax",%progbits
 1029              		.align	1
 1030              		.global	HAL_I2C_Master_Receive
 1031              		.syntax unified
 1032              		.code	16
 1033              		.thumb_func
 1034              		.fpu softvfp
 1036              	HAL_I2C_Master_Receive:
 1037              		@ args = 4, pretend = 0, frame = 16
 1038              		@ frame_needed = 0, uses_anonymous_args = 0
 1039 0000 F0B5     		push	{r4, r5, r6, r7, lr}
 1040 0002 87B0     		sub	sp, sp, #28
 1041 0004 0593     		str	r3, [sp, #20]
 1042 0006 0300     		movs	r3, r0
 1043 0008 4133     		adds	r3, r3, #65
 1044 000a 0492     		str	r2, [sp, #16]
 1045 000c 0393     		str	r3, [sp, #12]
 1046 000e 1B78     		ldrb	r3, [r3]
 1047 0010 0400     		movs	r4, r0
 1048 0012 0F00     		movs	r7, r1
 1049 0014 0220     		movs	r0, #2
 1050 0016 202B     		cmp	r3, #32
 1051 0018 14D1     		bne	.L160
 1052 001a 2300     		movs	r3, r4
 1053 001c 4033     		adds	r3, r3, #64
 1054 001e 1A78     		ldrb	r2, [r3]
 1055 0020 012A     		cmp	r2, #1
 1056 0022 0FD0     		beq	.L160
 1057 0024 0126     		movs	r6, #1
 1058 0026 1E70     		strb	r6, [r3]
 1059 0028 FFF7FEFF 		bl	HAL_GetTick
 1060 002c 8021     		movs	r1, #128
 1061 002e 0500     		movs	r5, r0
ARM GAS  /tmp/ccdcCb4o.s 			page 19


 1062 0030 0090     		str	r0, [sp]
 1063 0032 1923     		movs	r3, #25
 1064 0034 3200     		movs	r2, r6
 1065 0036 2000     		movs	r0, r4
 1066 0038 0902     		lsls	r1, r1, #8
 1067 003a FFF7FEFF 		bl	I2C_WaitOnFlagUntilTimeout
 1068 003e 0028     		cmp	r0, #0
 1069 0040 02D0     		beq	.L161
 1070              	.L165:
 1071 0042 0120     		movs	r0, #1
 1072              	.L160:
 1073 0044 07B0     		add	sp, sp, #28
 1074              		@ sp needed
 1075 0046 F0BD     		pop	{r4, r5, r6, r7, pc}
 1076              	.L161:
 1077 0048 2223     		movs	r3, #34
 1078 004a 2600     		movs	r6, r4
 1079 004c 039A     		ldr	r2, [sp, #12]
 1080 004e 4236     		adds	r6, r6, #66
 1081 0050 1370     		strb	r3, [r2]
 1082 0052 123B     		subs	r3, r3, #18
 1083 0054 3370     		strb	r3, [r6]
 1084 0056 049B     		ldr	r3, [sp, #16]
 1085 0058 6064     		str	r0, [r4, #68]
 1086 005a 6362     		str	r3, [r4, #36]
 1087 005c 059B     		ldr	r3, [sp, #20]
 1088 005e 6063     		str	r0, [r4, #52]
 1089 0060 6385     		strh	r3, [r4, #42]
 1090 0062 628D     		ldrh	r2, [r4, #42]
 1091 0064 2D4B     		ldr	r3, .L176
 1092 0066 FF2A     		cmp	r2, #255
 1093 0068 20D9     		bls	.L162
 1094 006a FF22     		movs	r2, #255
 1095 006c 2285     		strh	r2, [r4, #40]
 1096 006e 0093     		str	r3, [sp]
 1097 0070 8023     		movs	r3, #128
 1098 0072 5B04     		lsls	r3, r3, #17
 1099              	.L175:
 1100 0074 3900     		movs	r1, r7
 1101 0076 2000     		movs	r0, r4
 1102 0078 FFF7FEFF 		bl	I2C_TransferConfig
 1103              	.L164:
 1104 007c 638D     		ldrh	r3, [r4, #42]
 1105 007e 2A00     		movs	r2, r5
 1106 0080 2000     		movs	r0, r4
 1107 0082 0C99     		ldr	r1, [sp, #48]
 1108 0084 002B     		cmp	r3, #0
 1109 0086 19D1     		bne	.L168
 1110 0088 FFF7FEFF 		bl	I2C_WaitOnSTOPFlagUntilTimeout
 1111 008c 0028     		cmp	r0, #0
 1112 008e D8D1     		bne	.L165
 1113 0090 2021     		movs	r1, #32
 1114 0092 2368     		ldr	r3, [r4]
 1115 0094 224D     		ldr	r5, .L176+4
 1116 0096 D961     		str	r1, [r3, #28]
 1117 0098 5A68     		ldr	r2, [r3, #4]
 1118 009a 2A40     		ands	r2, r5
ARM GAS  /tmp/ccdcCb4o.s 			page 20


 1119 009c 5A60     		str	r2, [r3, #4]
 1120 009e 2300     		movs	r3, r4
 1121 00a0 4034     		adds	r4, r4, #64
 1122 00a2 4133     		adds	r3, r3, #65
 1123 00a4 1970     		strb	r1, [r3]
 1124 00a6 3070     		strb	r0, [r6]
 1125 00a8 2070     		strb	r0, [r4]
 1126 00aa CBE7     		b	.L160
 1127              	.L162:
 1128 00ac 628D     		ldrh	r2, [r4, #42]
 1129 00ae 92B2     		uxth	r2, r2
 1130 00b0 2285     		strh	r2, [r4, #40]
 1131 00b2 D2B2     		uxtb	r2, r2
 1132 00b4 0093     		str	r3, [sp]
 1133              	.L174:
 1134 00b6 8023     		movs	r3, #128
 1135 00b8 9B04     		lsls	r3, r3, #18
 1136 00ba DBE7     		b	.L175
 1137              	.L168:
 1138 00bc FFF7FEFF 		bl	I2C_WaitOnRXNEFlagUntilTimeout
 1139 00c0 0028     		cmp	r0, #0
 1140 00c2 BED1     		bne	.L165
 1141 00c4 2368     		ldr	r3, [r4]
 1142 00c6 626A     		ldr	r2, [r4, #36]
 1143 00c8 5B6A     		ldr	r3, [r3, #36]
 1144 00ca 1370     		strb	r3, [r2]
 1145 00cc 636A     		ldr	r3, [r4, #36]
 1146 00ce 228D     		ldrh	r2, [r4, #40]
 1147 00d0 0133     		adds	r3, r3, #1
 1148 00d2 6362     		str	r3, [r4, #36]
 1149 00d4 638D     		ldrh	r3, [r4, #42]
 1150 00d6 013A     		subs	r2, r2, #1
 1151 00d8 013B     		subs	r3, r3, #1
 1152 00da 9BB2     		uxth	r3, r3
 1153 00dc 6385     		strh	r3, [r4, #42]
 1154 00de 638D     		ldrh	r3, [r4, #42]
 1155 00e0 92B2     		uxth	r2, r2
 1156 00e2 2285     		strh	r2, [r4, #40]
 1157 00e4 002B     		cmp	r3, #0
 1158 00e6 C9D0     		beq	.L164
 1159 00e8 002A     		cmp	r2, #0
 1160 00ea C7D1     		bne	.L164
 1161 00ec 8021     		movs	r1, #128
 1162 00ee 2000     		movs	r0, r4
 1163 00f0 0C9B     		ldr	r3, [sp, #48]
 1164 00f2 0095     		str	r5, [sp]
 1165 00f4 FFF7FEFF 		bl	I2C_WaitOnFlagUntilTimeout
 1166 00f8 0028     		cmp	r0, #0
 1167 00fa A2D1     		bne	.L165
 1168 00fc 638D     		ldrh	r3, [r4, #42]
 1169 00fe FF2B     		cmp	r3, #255
 1170 0100 06D9     		bls	.L167
 1171 0102 FF23     		movs	r3, #255
 1172 0104 2385     		strh	r3, [r4, #40]
 1173 0106 8023     		movs	r3, #128
 1174 0108 FF22     		movs	r2, #255
 1175 010a 0090     		str	r0, [sp]
ARM GAS  /tmp/ccdcCb4o.s 			page 21


 1176 010c 5B04     		lsls	r3, r3, #17
 1177 010e B1E7     		b	.L175
 1178              	.L167:
 1179 0110 628D     		ldrh	r2, [r4, #42]
 1180 0112 92B2     		uxth	r2, r2
 1181 0114 2285     		strh	r2, [r4, #40]
 1182 0116 D2B2     		uxtb	r2, r2
 1183 0118 0090     		str	r0, [sp]
 1184 011a CCE7     		b	.L174
 1185              	.L177:
 1186              		.align	2
 1187              	.L176:
 1188 011c 00240080 		.word	-2147474432
 1189 0120 00E800FE 		.word	-33495040
 1191              		.section	.text.HAL_I2C_Slave_Transmit,"ax",%progbits
 1192              		.align	1
 1193              		.global	HAL_I2C_Slave_Transmit
 1194              		.syntax unified
 1195              		.code	16
 1196              		.thumb_func
 1197              		.fpu softvfp
 1199              	HAL_I2C_Slave_Transmit:
 1200              		@ args = 0, pretend = 0, frame = 16
 1201              		@ frame_needed = 0, uses_anonymous_args = 0
 1202 0000 F0B5     		push	{r4, r5, r6, r7, lr}
 1203 0002 1D00     		movs	r5, r3
 1204 0004 0300     		movs	r3, r0
 1205 0006 87B0     		sub	sp, sp, #28
 1206 0008 4133     		adds	r3, r3, #65
 1207 000a 0491     		str	r1, [sp, #16]
 1208 000c 0393     		str	r3, [sp, #12]
 1209 000e 1B78     		ldrb	r3, [r3]
 1210 0010 1600     		movs	r6, r2
 1211 0012 DAB2     		uxtb	r2, r3
 1212 0014 0400     		movs	r4, r0
 1213 0016 0592     		str	r2, [sp, #20]
 1214 0018 0220     		movs	r0, #2
 1215 001a 202B     		cmp	r3, #32
 1216 001c 07D1     		bne	.L179
 1217 001e 0029     		cmp	r1, #0
 1218 0020 01D0     		beq	.L180
 1219 0022 002E     		cmp	r6, #0
 1220 0024 05D1     		bne	.L181
 1221              	.L180:
 1222 0026 8023     		movs	r3, #128
 1223 0028 9B00     		lsls	r3, r3, #2
 1224 002a 6364     		str	r3, [r4, #68]
 1225              	.L202:
 1226 002c 0120     		movs	r0, #1
 1227              	.L179:
 1228 002e 07B0     		add	sp, sp, #28
 1229              		@ sp needed
 1230 0030 F0BD     		pop	{r4, r5, r6, r7, pc}
 1231              	.L181:
 1232 0032 2300     		movs	r3, r4
 1233 0034 4033     		adds	r3, r3, #64
 1234 0036 1A78     		ldrb	r2, [r3]
ARM GAS  /tmp/ccdcCb4o.s 			page 22


 1235 0038 0220     		movs	r0, #2
 1236 003a 012A     		cmp	r2, #1
 1237 003c F7D0     		beq	.L179
 1238 003e 0122     		movs	r2, #1
 1239 0040 1A70     		strb	r2, [r3]
 1240 0042 FFF7FEFF 		bl	HAL_GetTick
 1241 0046 2123     		movs	r3, #33
 1242 0048 039A     		ldr	r2, [sp, #12]
 1243 004a 0700     		movs	r7, r0
 1244 004c 1370     		strb	r3, [r2]
 1245 004e 2300     		movs	r3, r4
 1246 0050 059A     		ldr	r2, [sp, #20]
 1247 0052 4233     		adds	r3, r3, #66
 1248 0054 1A70     		strb	r2, [r3]
 1249 0056 0022     		movs	r2, #0
 1250 0058 2168     		ldr	r1, [r4]
 1251 005a 049B     		ldr	r3, [sp, #16]
 1252 005c 6264     		str	r2, [r4, #68]
 1253 005e 6685     		strh	r6, [r4, #42]
 1254 0060 6362     		str	r3, [r4, #36]
 1255 0062 3A48     		ldr	r0, .L205
 1256 0064 4B68     		ldr	r3, [r1, #4]
 1257 0066 6263     		str	r2, [r4, #52]
 1258 0068 0340     		ands	r3, r0
 1259 006a 4B60     		str	r3, [r1, #4]
 1260 006c 2000     		movs	r0, r4
 1261 006e 2B00     		movs	r3, r5
 1262 0070 0821     		movs	r1, #8
 1263 0072 0097     		str	r7, [sp]
 1264 0074 FFF7FEFF 		bl	I2C_WaitOnFlagUntilTimeout
 1265 0078 2368     		ldr	r3, [r4]
 1266 007a 021E     		subs	r2, r0, #0
 1267 007c 05D0     		beq	.L182
 1268              	.L203:
 1269 007e 8022     		movs	r2, #128
 1270 0080 5968     		ldr	r1, [r3, #4]
 1271 0082 1202     		lsls	r2, r2, #8
 1272 0084 0A43     		orrs	r2, r1
 1273 0086 5A60     		str	r2, [r3, #4]
 1274 0088 D0E7     		b	.L202
 1275              	.L182:
 1276 008a 0826     		movs	r6, #8
 1277 008c DE61     		str	r6, [r3, #28]
 1278 008e E368     		ldr	r3, [r4, #12]
 1279 0090 022B     		cmp	r3, #2
 1280 0092 09D1     		bne	.L183
 1281 0094 2B00     		movs	r3, r5
 1282 0096 3100     		movs	r1, r6
 1283 0098 2000     		movs	r0, r4
 1284 009a 0097     		str	r7, [sp]
 1285 009c FFF7FEFF 		bl	I2C_WaitOnFlagUntilTimeout
 1286 00a0 2368     		ldr	r3, [r4]
 1287 00a2 0028     		cmp	r0, #0
 1288 00a4 EBD1     		bne	.L203
 1289 00a6 DE61     		str	r6, [r3, #28]
 1290              	.L183:
 1291 00a8 8021     		movs	r1, #128
ARM GAS  /tmp/ccdcCb4o.s 			page 23


 1292 00aa 2B00     		movs	r3, r5
 1293 00ac 0022     		movs	r2, #0
 1294 00ae 2000     		movs	r0, r4
 1295 00b0 0097     		str	r7, [sp]
 1296 00b2 4902     		lsls	r1, r1, #9
 1297 00b4 FFF7FEFF 		bl	I2C_WaitOnFlagUntilTimeout
 1298 00b8 0028     		cmp	r0, #0
 1299 00ba 14D0     		beq	.L185
 1300 00bc 2268     		ldr	r2, [r4]
 1301              	.L204:
 1302 00be 8023     		movs	r3, #128
 1303 00c0 5168     		ldr	r1, [r2, #4]
 1304 00c2 1B02     		lsls	r3, r3, #8
 1305 00c4 0B43     		orrs	r3, r1
 1306 00c6 5360     		str	r3, [r2, #4]
 1307 00c8 B0E7     		b	.L202
 1308              	.L187:
 1309 00ca FFF7FEFF 		bl	I2C_WaitOnTXISFlagUntilTimeout
 1310 00ce 2268     		ldr	r2, [r4]
 1311 00d0 0028     		cmp	r0, #0
 1312 00d2 F4D1     		bne	.L204
 1313 00d4 636A     		ldr	r3, [r4, #36]
 1314 00d6 1978     		ldrb	r1, [r3]
 1315 00d8 0133     		adds	r3, r3, #1
 1316 00da 9162     		str	r1, [r2, #40]
 1317 00dc 6362     		str	r3, [r4, #36]
 1318 00de 638D     		ldrh	r3, [r4, #42]
 1319 00e0 013B     		subs	r3, r3, #1
 1320 00e2 9BB2     		uxth	r3, r3
 1321 00e4 6385     		strh	r3, [r4, #42]
 1322              	.L185:
 1323 00e6 638D     		ldrh	r3, [r4, #42]
 1324 00e8 3A00     		movs	r2, r7
 1325 00ea 2900     		movs	r1, r5
 1326 00ec 2000     		movs	r0, r4
 1327 00ee 9EB2     		uxth	r6, r3
 1328 00f0 002B     		cmp	r3, #0
 1329 00f2 EAD1     		bne	.L187
 1330 00f4 FFF7FEFF 		bl	I2C_WaitOnSTOPFlagUntilTimeout
 1331 00f8 2368     		ldr	r3, [r4]
 1332 00fa 0028     		cmp	r0, #0
 1333 00fc 0AD0     		beq	.L188
 1334 00fe 8022     		movs	r2, #128
 1335 0100 5968     		ldr	r1, [r3, #4]
 1336 0102 1202     		lsls	r2, r2, #8
 1337 0104 0A43     		orrs	r2, r1
 1338 0106 5A60     		str	r2, [r3, #4]
 1339 0108 626C     		ldr	r2, [r4, #68]
 1340 010a 0120     		movs	r0, #1
 1341 010c 042A     		cmp	r2, #4
 1342 010e 00D0     		beq	.LCB1518
 1343 0110 8DE7     		b	.L179	@long jump
 1344              	.LCB1518:
 1345 0112 6664     		str	r6, [r4, #68]
 1346              	.L188:
 1347 0114 8026     		movs	r6, #128
 1348 0116 2022     		movs	r2, #32
ARM GAS  /tmp/ccdcCb4o.s 			page 24


 1349 0118 3602     		lsls	r6, r6, #8
 1350 011a DA61     		str	r2, [r3, #28]
 1351 011c 3100     		movs	r1, r6
 1352 011e 2B00     		movs	r3, r5
 1353 0120 1F3A     		subs	r2, r2, #31
 1354 0122 2000     		movs	r0, r4
 1355 0124 0097     		str	r7, [sp]
 1356 0126 FFF7FEFF 		bl	I2C_WaitOnFlagUntilTimeout
 1357 012a 2368     		ldr	r3, [r4]
 1358 012c 5A68     		ldr	r2, [r3, #4]
 1359 012e 1643     		orrs	r6, r2
 1360 0130 5E60     		str	r6, [r3, #4]
 1361 0132 0028     		cmp	r0, #0
 1362 0134 00D0     		beq	.LCB1538
 1363 0136 79E7     		b	.L202	@long jump
 1364              	.LCB1538:
 1365 0138 2022     		movs	r2, #32
 1366 013a 039B     		ldr	r3, [sp, #12]
 1367 013c 1A70     		strb	r2, [r3]
 1368 013e 2300     		movs	r3, r4
 1369 0140 4034     		adds	r4, r4, #64
 1370 0142 4233     		adds	r3, r3, #66
 1371 0144 1870     		strb	r0, [r3]
 1372 0146 2070     		strb	r0, [r4]
 1373 0148 71E7     		b	.L179
 1374              	.L206:
 1375 014a C046     		.align	2
 1376              	.L205:
 1377 014c FF7FFFFF 		.word	-32769
 1379              		.section	.text.HAL_I2C_Slave_Receive,"ax",%progbits
 1380              		.align	1
 1381              		.global	HAL_I2C_Slave_Receive
 1382              		.syntax unified
 1383              		.code	16
 1384              		.thumb_func
 1385              		.fpu softvfp
 1387              	HAL_I2C_Slave_Receive:
 1388              		@ args = 0, pretend = 0, frame = 24
 1389              		@ frame_needed = 0, uses_anonymous_args = 0
 1390 0000 F0B5     		push	{r4, r5, r6, r7, lr}
 1391 0002 1F00     		movs	r7, r3
 1392 0004 0300     		movs	r3, r0
 1393 0006 89B0     		sub	sp, sp, #36
 1394 0008 4133     		adds	r3, r3, #65
 1395 000a 0592     		str	r2, [sp, #20]
 1396 000c 0491     		str	r1, [sp, #16]
 1397 000e 0393     		str	r3, [sp, #12]
 1398 0010 1B78     		ldrb	r3, [r3]
 1399 0012 0400     		movs	r4, r0
 1400 0014 DAB2     		uxtb	r2, r3
 1401 0016 0220     		movs	r0, #2
 1402 0018 0792     		str	r2, [sp, #28]
 1403 001a 202B     		cmp	r3, #32
 1404 001c 08D1     		bne	.L208
 1405 001e 0029     		cmp	r1, #0
 1406 0020 02D0     		beq	.L209
 1407 0022 059B     		ldr	r3, [sp, #20]
ARM GAS  /tmp/ccdcCb4o.s 			page 25


 1408 0024 002B     		cmp	r3, #0
 1409 0026 05D1     		bne	.L210
 1410              	.L209:
 1411 0028 8023     		movs	r3, #128
 1412 002a 9B00     		lsls	r3, r3, #2
 1413 002c 6364     		str	r3, [r4, #68]
 1414              	.L227:
 1415 002e 0120     		movs	r0, #1
 1416              	.L208:
 1417 0030 09B0     		add	sp, sp, #36
 1418              		@ sp needed
 1419 0032 F0BD     		pop	{r4, r5, r6, r7, pc}
 1420              	.L210:
 1421 0034 2300     		movs	r3, r4
 1422 0036 4033     		adds	r3, r3, #64
 1423 0038 1A78     		ldrb	r2, [r3]
 1424 003a 0220     		movs	r0, #2
 1425 003c 012A     		cmp	r2, #1
 1426 003e F7D0     		beq	.L208
 1427 0040 0125     		movs	r5, #1
 1428 0042 1D70     		strb	r5, [r3]
 1429 0044 FFF7FEFF 		bl	HAL_GetTick
 1430 0048 2223     		movs	r3, #34
 1431 004a 039A     		ldr	r2, [sp, #12]
 1432 004c 0600     		movs	r6, r0
 1433 004e 1370     		strb	r3, [r2]
 1434 0050 2300     		movs	r3, r4
 1435 0052 079A     		ldr	r2, [sp, #28]
 1436 0054 4233     		adds	r3, r3, #66
 1437 0056 1A70     		strb	r2, [r3]
 1438 0058 0022     		movs	r2, #0
 1439 005a 0693     		str	r3, [sp, #24]
 1440 005c 049B     		ldr	r3, [sp, #16]
 1441 005e 2168     		ldr	r1, [r4]
 1442 0060 6362     		str	r3, [r4, #36]
 1443 0062 059B     		ldr	r3, [sp, #20]
 1444 0064 6264     		str	r2, [r4, #68]
 1445 0066 6385     		strh	r3, [r4, #42]
 1446 0068 4B68     		ldr	r3, [r1, #4]
 1447 006a 3948     		ldr	r0, .L228
 1448 006c 6263     		str	r2, [r4, #52]
 1449 006e 0340     		ands	r3, r0
 1450 0070 4B60     		str	r3, [r1, #4]
 1451 0072 2000     		movs	r0, r4
 1452 0074 3B00     		movs	r3, r7
 1453 0076 0821     		movs	r1, #8
 1454 0078 0096     		str	r6, [sp]
 1455 007a FFF7FEFF 		bl	I2C_WaitOnFlagUntilTimeout
 1456 007e 2368     		ldr	r3, [r4]
 1457 0080 0028     		cmp	r0, #0
 1458 0082 05D0     		beq	.L211
 1459 0084 8022     		movs	r2, #128
 1460 0086 5968     		ldr	r1, [r3, #4]
 1461 0088 1202     		lsls	r2, r2, #8
 1462 008a 0A43     		orrs	r2, r1
 1463 008c 5A60     		str	r2, [r3, #4]
 1464 008e CEE7     		b	.L227
ARM GAS  /tmp/ccdcCb4o.s 			page 26


 1465              	.L211:
 1466 0090 0822     		movs	r2, #8
 1467 0092 8021     		movs	r1, #128
 1468 0094 DA61     		str	r2, [r3, #28]
 1469 0096 2000     		movs	r0, r4
 1470 0098 3B00     		movs	r3, r7
 1471 009a 2A00     		movs	r2, r5
 1472 009c 0096     		str	r6, [sp]
 1473 009e 4902     		lsls	r1, r1, #9
 1474 00a0 FFF7FEFF 		bl	I2C_WaitOnFlagUntilTimeout
 1475 00a4 0028     		cmp	r0, #0
 1476 00a6 29D0     		beq	.L212
 1477 00a8 8023     		movs	r3, #128
 1478 00aa 2268     		ldr	r2, [r4]
 1479 00ac 1B02     		lsls	r3, r3, #8
 1480 00ae 5168     		ldr	r1, [r2, #4]
 1481 00b0 0B43     		orrs	r3, r1
 1482 00b2 5360     		str	r3, [r2, #4]
 1483 00b4 BBE7     		b	.L227
 1484              	.L214:
 1485 00b6 FFF7FEFF 		bl	I2C_WaitOnRXNEFlagUntilTimeout
 1486 00ba 2368     		ldr	r3, [r4]
 1487 00bc 0028     		cmp	r0, #0
 1488 00be 13D0     		beq	.L213
 1489 00c0 8022     		movs	r2, #128
 1490 00c2 5968     		ldr	r1, [r3, #4]
 1491 00c4 1202     		lsls	r2, r2, #8
 1492 00c6 0A43     		orrs	r2, r1
 1493 00c8 5A60     		str	r2, [r3, #4]
 1494 00ca 9A69     		ldr	r2, [r3, #24]
 1495 00cc 0120     		movs	r0, #1
 1496 00ce 5207     		lsls	r2, r2, #29
 1497 00d0 AED5     		bpl	.L208
 1498 00d2 5B6A     		ldr	r3, [r3, #36]
 1499 00d4 626A     		ldr	r2, [r4, #36]
 1500 00d6 1370     		strb	r3, [r2]
 1501 00d8 636A     		ldr	r3, [r4, #36]
 1502 00da 1B18     		adds	r3, r3, r0
 1503 00dc 6362     		str	r3, [r4, #36]
 1504 00de 638D     		ldrh	r3, [r4, #42]
 1505 00e0 013B     		subs	r3, r3, #1
 1506 00e2 9BB2     		uxth	r3, r3
 1507 00e4 6385     		strh	r3, [r4, #42]
 1508 00e6 A3E7     		b	.L208
 1509              	.L213:
 1510 00e8 5B6A     		ldr	r3, [r3, #36]
 1511 00ea 626A     		ldr	r2, [r4, #36]
 1512 00ec 1370     		strb	r3, [r2]
 1513 00ee 636A     		ldr	r3, [r4, #36]
 1514 00f0 0133     		adds	r3, r3, #1
 1515 00f2 6362     		str	r3, [r4, #36]
 1516 00f4 638D     		ldrh	r3, [r4, #42]
 1517 00f6 013B     		subs	r3, r3, #1
 1518 00f8 9BB2     		uxth	r3, r3
 1519 00fa 6385     		strh	r3, [r4, #42]
 1520              	.L212:
 1521 00fc 638D     		ldrh	r3, [r4, #42]
ARM GAS  /tmp/ccdcCb4o.s 			page 27


 1522 00fe 3200     		movs	r2, r6
 1523 0100 3900     		movs	r1, r7
 1524 0102 2000     		movs	r0, r4
 1525 0104 002B     		cmp	r3, #0
 1526 0106 D6D1     		bne	.L214
 1527 0108 FFF7FEFF 		bl	I2C_WaitOnSTOPFlagUntilTimeout
 1528 010c 8025     		movs	r5, #128
 1529 010e 2368     		ldr	r3, [r4]
 1530 0110 2D02     		lsls	r5, r5, #8
 1531 0112 0028     		cmp	r0, #0
 1532 0114 03D0     		beq	.L215
 1533 0116 5A68     		ldr	r2, [r3, #4]
 1534 0118 1543     		orrs	r5, r2
 1535 011a 5D60     		str	r5, [r3, #4]
 1536 011c 87E7     		b	.L227
 1537              	.L215:
 1538 011e 2022     		movs	r2, #32
 1539 0120 2900     		movs	r1, r5
 1540 0122 DA61     		str	r2, [r3, #28]
 1541 0124 2000     		movs	r0, r4
 1542 0126 3B00     		movs	r3, r7
 1543 0128 1F3A     		subs	r2, r2, #31
 1544 012a 0096     		str	r6, [sp]
 1545 012c FFF7FEFF 		bl	I2C_WaitOnFlagUntilTimeout
 1546 0130 2368     		ldr	r3, [r4]
 1547 0132 5A68     		ldr	r2, [r3, #4]
 1548 0134 1543     		orrs	r5, r2
 1549 0136 5D60     		str	r5, [r3, #4]
 1550 0138 0028     		cmp	r0, #0
 1551 013a 00D0     		beq	.LCB1755
 1552 013c 77E7     		b	.L227	@long jump
 1553              	.LCB1755:
 1554 013e 2022     		movs	r2, #32
 1555 0140 039B     		ldr	r3, [sp, #12]
 1556 0142 4034     		adds	r4, r4, #64
 1557 0144 1A70     		strb	r2, [r3]
 1558 0146 069B     		ldr	r3, [sp, #24]
 1559 0148 1870     		strb	r0, [r3]
 1560 014a 2070     		strb	r0, [r4]
 1561 014c 70E7     		b	.L208
 1562              	.L229:
 1563 014e C046     		.align	2
 1564              	.L228:
 1565 0150 FF7FFFFF 		.word	-32769
 1567              		.section	.text.HAL_I2C_Master_Transmit_IT,"ax",%progbits
 1568              		.align	1
 1569              		.global	HAL_I2C_Master_Transmit_IT
 1570              		.syntax unified
 1571              		.code	16
 1572              		.thumb_func
 1573              		.fpu softvfp
 1575              	HAL_I2C_Master_Transmit_IT:
 1576              		@ args = 0, pretend = 0, frame = 8
 1577              		@ frame_needed = 0, uses_anonymous_args = 0
 1578 0000 F0B5     		push	{r4, r5, r6, r7, lr}
 1579 0002 0600     		movs	r6, r0
 1580 0004 85B0     		sub	sp, sp, #20
ARM GAS  /tmp/ccdcCb4o.s 			page 28


 1581 0006 0393     		str	r3, [sp, #12]
 1582 0008 4136     		adds	r6, r6, #65
 1583 000a 3578     		ldrb	r5, [r6]
 1584 000c 0400     		movs	r4, r0
 1585 000e 0220     		movs	r0, #2
 1586 0010 202D     		cmp	r5, #32
 1587 0012 34D1     		bne	.L231
 1588 0014 2068     		ldr	r0, [r4]
 1589 0016 8025     		movs	r5, #128
 1590 0018 8069     		ldr	r0, [r0, #24]
 1591 001a 2D02     		lsls	r5, r5, #8
 1592 001c 8446     		mov	ip, r0
 1593 001e 0700     		movs	r7, r0
 1594 0020 6346     		mov	r3, ip
 1595 0022 0220     		movs	r0, #2
 1596 0024 2F40     		ands	r7, r5
 1597 0026 2B42     		tst	r3, r5
 1598 0028 29D1     		bne	.L231
 1599 002a 2500     		movs	r5, r4
 1600 002c 4035     		adds	r5, r5, #64
 1601 002e 2B78     		ldrb	r3, [r5]
 1602 0030 012B     		cmp	r3, #1
 1603 0032 24D0     		beq	.L231
 1604 0034 0138     		subs	r0, r0, #1
 1605 0036 2870     		strb	r0, [r5]
 1606 0038 2030     		adds	r0, r0, #32
 1607 003a 3070     		strb	r0, [r6]
 1608 003c 2000     		movs	r0, r4
 1609 003e 1026     		movs	r6, #16
 1610 0040 039B     		ldr	r3, [sp, #12]
 1611 0042 4230     		adds	r0, r0, #66
 1612 0044 0670     		strb	r6, [r0]
 1613 0046 6764     		str	r7, [r4, #68]
 1614 0048 6385     		strh	r3, [r4, #42]
 1615 004a 104B     		ldr	r3, .L237
 1616 004c 6262     		str	r2, [r4, #36]
 1617 004e E362     		str	r3, [r4, #44]
 1618 0050 0F4B     		ldr	r3, .L237+4
 1619 0052 6363     		str	r3, [r4, #52]
 1620 0054 638D     		ldrh	r3, [r4, #42]
 1621 0056 FF2B     		cmp	r3, #255
 1622 0058 13D8     		bhi	.L236
 1623 005a 8023     		movs	r3, #128
 1624 005c 628D     		ldrh	r2, [r4, #42]
 1625 005e 9B04     		lsls	r3, r3, #18
 1626 0060 92B2     		uxth	r2, r2
 1627              	.L232:
 1628 0062 0026     		movs	r6, #0
 1629 0064 0B48     		ldr	r0, .L237+8
 1630 0066 2285     		strh	r2, [r4, #40]
 1631 0068 0090     		str	r0, [sp]
 1632 006a D2B2     		uxtb	r2, r2
 1633 006c 2000     		movs	r0, r4
 1634 006e FFF7FEFF 		bl	I2C_TransferConfig
 1635 0072 2000     		movs	r0, r4
 1636 0074 0121     		movs	r1, #1
 1637 0076 2E70     		strb	r6, [r5]
ARM GAS  /tmp/ccdcCb4o.s 			page 29


 1638 0078 FFF7FEFF 		bl	I2C_Enable_IRQ
 1639 007c 3000     		movs	r0, r6
 1640              	.L231:
 1641 007e 05B0     		add	sp, sp, #20
 1642              		@ sp needed
 1643 0080 F0BD     		pop	{r4, r5, r6, r7, pc}
 1644              	.L236:
 1645 0082 8023     		movs	r3, #128
 1646 0084 FF22     		movs	r2, #255
 1647 0086 5B04     		lsls	r3, r3, #17
 1648 0088 EBE7     		b	.L232
 1649              	.L238:
 1650 008a C046     		.align	2
 1651              	.L237:
 1652 008c 0000FFFF 		.word	-65536
 1653 0090 00000000 		.word	I2C_Master_ISR_IT
 1654 0094 00200080 		.word	-2147475456
 1656              		.section	.text.HAL_I2C_Master_Receive_IT,"ax",%progbits
 1657              		.align	1
 1658              		.global	HAL_I2C_Master_Receive_IT
 1659              		.syntax unified
 1660              		.code	16
 1661              		.thumb_func
 1662              		.fpu softvfp
 1664              	HAL_I2C_Master_Receive_IT:
 1665              		@ args = 0, pretend = 0, frame = 8
 1666              		@ frame_needed = 0, uses_anonymous_args = 0
 1667 0000 F0B5     		push	{r4, r5, r6, r7, lr}
 1668 0002 0600     		movs	r6, r0
 1669 0004 85B0     		sub	sp, sp, #20
 1670 0006 0393     		str	r3, [sp, #12]
 1671 0008 4136     		adds	r6, r6, #65
 1672 000a 3578     		ldrb	r5, [r6]
 1673 000c 0400     		movs	r4, r0
 1674 000e 0220     		movs	r0, #2
 1675 0010 202D     		cmp	r5, #32
 1676 0012 34D1     		bne	.L240
 1677 0014 2068     		ldr	r0, [r4]
 1678 0016 8025     		movs	r5, #128
 1679 0018 8069     		ldr	r0, [r0, #24]
 1680 001a 2D02     		lsls	r5, r5, #8
 1681 001c 8446     		mov	ip, r0
 1682 001e 0700     		movs	r7, r0
 1683 0020 6346     		mov	r3, ip
 1684 0022 0220     		movs	r0, #2
 1685 0024 2F40     		ands	r7, r5
 1686 0026 2B42     		tst	r3, r5
 1687 0028 29D1     		bne	.L240
 1688 002a 2500     		movs	r5, r4
 1689 002c 4035     		adds	r5, r5, #64
 1690 002e 2B78     		ldrb	r3, [r5]
 1691 0030 012B     		cmp	r3, #1
 1692 0032 24D0     		beq	.L240
 1693 0034 0138     		subs	r0, r0, #1
 1694 0036 2870     		strb	r0, [r5]
 1695 0038 2130     		adds	r0, r0, #33
 1696 003a 3070     		strb	r0, [r6]
ARM GAS  /tmp/ccdcCb4o.s 			page 30


 1697 003c 2000     		movs	r0, r4
 1698 003e 1026     		movs	r6, #16
 1699 0040 039B     		ldr	r3, [sp, #12]
 1700 0042 4230     		adds	r0, r0, #66
 1701 0044 0670     		strb	r6, [r0]
 1702 0046 6764     		str	r7, [r4, #68]
 1703 0048 6385     		strh	r3, [r4, #42]
 1704 004a 104B     		ldr	r3, .L246
 1705 004c 6262     		str	r2, [r4, #36]
 1706 004e E362     		str	r3, [r4, #44]
 1707 0050 0F4B     		ldr	r3, .L246+4
 1708 0052 6363     		str	r3, [r4, #52]
 1709 0054 638D     		ldrh	r3, [r4, #42]
 1710 0056 FF2B     		cmp	r3, #255
 1711 0058 13D8     		bhi	.L245
 1712 005a 8023     		movs	r3, #128
 1713 005c 628D     		ldrh	r2, [r4, #42]
 1714 005e 9B04     		lsls	r3, r3, #18
 1715 0060 92B2     		uxth	r2, r2
 1716              	.L241:
 1717 0062 0026     		movs	r6, #0
 1718 0064 0B48     		ldr	r0, .L246+8
 1719 0066 2285     		strh	r2, [r4, #40]
 1720 0068 0090     		str	r0, [sp]
 1721 006a D2B2     		uxtb	r2, r2
 1722 006c 2000     		movs	r0, r4
 1723 006e FFF7FEFF 		bl	I2C_TransferConfig
 1724 0072 2000     		movs	r0, r4
 1725 0074 0221     		movs	r1, #2
 1726 0076 2E70     		strb	r6, [r5]
 1727 0078 FFF7FEFF 		bl	I2C_Enable_IRQ
 1728 007c 3000     		movs	r0, r6
 1729              	.L240:
 1730 007e 05B0     		add	sp, sp, #20
 1731              		@ sp needed
 1732 0080 F0BD     		pop	{r4, r5, r6, r7, pc}
 1733              	.L245:
 1734 0082 8023     		movs	r3, #128
 1735 0084 FF22     		movs	r2, #255
 1736 0086 5B04     		lsls	r3, r3, #17
 1737 0088 EBE7     		b	.L241
 1738              	.L247:
 1739 008a C046     		.align	2
 1740              	.L246:
 1741 008c 0000FFFF 		.word	-65536
 1742 0090 00000000 		.word	I2C_Master_ISR_IT
 1743 0094 00240080 		.word	-2147474432
 1745              		.section	.text.HAL_I2C_Slave_Transmit_IT,"ax",%progbits
 1746              		.align	1
 1747              		.global	HAL_I2C_Slave_Transmit_IT
 1748              		.syntax unified
 1749              		.code	16
 1750              		.thumb_func
 1751              		.fpu softvfp
 1753              	HAL_I2C_Slave_Transmit_IT:
 1754              		@ args = 0, pretend = 0, frame = 0
 1755              		@ frame_needed = 0, uses_anonymous_args = 0
ARM GAS  /tmp/ccdcCb4o.s 			page 31


 1756 0000 F8B5     		push	{r3, r4, r5, r6, r7, lr}
 1757 0002 0300     		movs	r3, r0
 1758 0004 4133     		adds	r3, r3, #65
 1759 0006 1D78     		ldrb	r5, [r3]
 1760 0008 0224     		movs	r4, #2
 1761 000a EEB2     		uxtb	r6, r5
 1762 000c 202D     		cmp	r5, #32
 1763 000e 1AD1     		bne	.L249
 1764 0010 0500     		movs	r5, r0
 1765 0012 4035     		adds	r5, r5, #64
 1766 0014 2F78     		ldrb	r7, [r5]
 1767 0016 012F     		cmp	r7, #1
 1768 0018 15D0     		beq	.L249
 1769 001a 1F34     		adds	r4, r4, #31
 1770 001c 1C70     		strb	r4, [r3]
 1771 001e 0024     		movs	r4, #0
 1772 0020 5E70     		strb	r6, [r3, #1]
 1773 0022 0668     		ldr	r6, [r0]
 1774 0024 4464     		str	r4, [r0, #68]
 1775 0026 7368     		ldr	r3, [r6, #4]
 1776 0028 084F     		ldr	r7, .L252
 1777 002a 3B40     		ands	r3, r7
 1778 002c 7360     		str	r3, [r6, #4]
 1779 002e 4285     		strh	r2, [r0, #42]
 1780 0030 438D     		ldrh	r3, [r0, #42]
 1781 0032 4162     		str	r1, [r0, #36]
 1782 0034 0385     		strh	r3, [r0, #40]
 1783 0036 064B     		ldr	r3, .L252+4
 1784 0038 0649     		ldr	r1, .L252+8
 1785 003a C362     		str	r3, [r0, #44]
 1786 003c 064B     		ldr	r3, .L252+12
 1787 003e 4363     		str	r3, [r0, #52]
 1788 0040 2C70     		strb	r4, [r5]
 1789 0042 FFF7FEFF 		bl	I2C_Enable_IRQ
 1790              	.L249:
 1791              		@ sp needed
 1792 0046 2000     		movs	r0, r4
 1793 0048 F8BD     		pop	{r3, r4, r5, r6, r7, pc}
 1794              	.L253:
 1795 004a C046     		.align	2
 1796              	.L252:
 1797 004c FF7FFFFF 		.word	-32769
 1798 0050 0000FFFF 		.word	-65536
 1799 0054 01800000 		.word	32769
 1800 0058 00000000 		.word	I2C_Slave_ISR_IT
 1802              		.section	.text.HAL_I2C_Slave_Receive_IT,"ax",%progbits
 1803              		.align	1
 1804              		.global	HAL_I2C_Slave_Receive_IT
 1805              		.syntax unified
 1806              		.code	16
 1807              		.thumb_func
 1808              		.fpu softvfp
 1810              	HAL_I2C_Slave_Receive_IT:
 1811              		@ args = 0, pretend = 0, frame = 0
 1812              		@ frame_needed = 0, uses_anonymous_args = 0
 1813 0000 F8B5     		push	{r3, r4, r5, r6, r7, lr}
 1814 0002 0300     		movs	r3, r0
ARM GAS  /tmp/ccdcCb4o.s 			page 32


 1815 0004 4133     		adds	r3, r3, #65
 1816 0006 1D78     		ldrb	r5, [r3]
 1817 0008 0224     		movs	r4, #2
 1818 000a EEB2     		uxtb	r6, r5
 1819 000c 202D     		cmp	r5, #32
 1820 000e 1AD1     		bne	.L255
 1821 0010 0500     		movs	r5, r0
 1822 0012 4035     		adds	r5, r5, #64
 1823 0014 2F78     		ldrb	r7, [r5]
 1824 0016 012F     		cmp	r7, #1
 1825 0018 15D0     		beq	.L255
 1826 001a 2034     		adds	r4, r4, #32
 1827 001c 1C70     		strb	r4, [r3]
 1828 001e 0024     		movs	r4, #0
 1829 0020 5E70     		strb	r6, [r3, #1]
 1830 0022 0668     		ldr	r6, [r0]
 1831 0024 4464     		str	r4, [r0, #68]
 1832 0026 7368     		ldr	r3, [r6, #4]
 1833 0028 084F     		ldr	r7, .L258
 1834 002a 3B40     		ands	r3, r7
 1835 002c 7360     		str	r3, [r6, #4]
 1836 002e 4285     		strh	r2, [r0, #42]
 1837 0030 438D     		ldrh	r3, [r0, #42]
 1838 0032 4162     		str	r1, [r0, #36]
 1839 0034 0385     		strh	r3, [r0, #40]
 1840 0036 064B     		ldr	r3, .L258+4
 1841 0038 0649     		ldr	r1, .L258+8
 1842 003a C362     		str	r3, [r0, #44]
 1843 003c 064B     		ldr	r3, .L258+12
 1844 003e 4363     		str	r3, [r0, #52]
 1845 0040 2C70     		strb	r4, [r5]
 1846 0042 FFF7FEFF 		bl	I2C_Enable_IRQ
 1847              	.L255:
 1848              		@ sp needed
 1849 0046 2000     		movs	r0, r4
 1850 0048 F8BD     		pop	{r3, r4, r5, r6, r7, pc}
 1851              	.L259:
 1852 004a C046     		.align	2
 1853              	.L258:
 1854 004c FF7FFFFF 		.word	-32769
 1855 0050 0000FFFF 		.word	-65536
 1856 0054 02800000 		.word	32770
 1857 0058 00000000 		.word	I2C_Slave_ISR_IT
 1859              		.section	.text.HAL_I2C_Master_Transmit_DMA,"ax",%progbits
 1860              		.align	1
 1861              		.global	HAL_I2C_Master_Transmit_DMA
 1862              		.syntax unified
 1863              		.code	16
 1864              		.thumb_func
 1865              		.fpu softvfp
 1867              	HAL_I2C_Master_Transmit_DMA:
 1868              		@ args = 0, pretend = 0, frame = 16
 1869              		@ frame_needed = 0, uses_anonymous_args = 0
 1870 0000 F0B5     		push	{r4, r5, r6, r7, lr}
 1871 0002 87B0     		sub	sp, sp, #28
 1872 0004 0591     		str	r1, [sp, #20]
 1873 0006 0100     		movs	r1, r0
ARM GAS  /tmp/ccdcCb4o.s 			page 33


 1874 0008 4131     		adds	r1, r1, #65
 1875 000a 9446     		mov	ip, r2
 1876 000c 0A78     		ldrb	r2, [r1]
 1877 000e 0400     		movs	r4, r0
 1878 0010 0225     		movs	r5, #2
 1879 0012 202A     		cmp	r2, #32
 1880 0014 55D1     		bne	.L261
 1881 0016 0268     		ldr	r2, [r0]
 1882 0018 8020     		movs	r0, #128
 1883 001a 9669     		ldr	r6, [r2, #24]
 1884 001c 0002     		lsls	r0, r0, #8
 1885 001e 3700     		movs	r7, r6
 1886 0020 0740     		ands	r7, r0
 1887 0022 0642     		tst	r6, r0
 1888 0024 4DD1     		bne	.L261
 1889 0026 2000     		movs	r0, r4
 1890 0028 4030     		adds	r0, r0, #64
 1891 002a 0678     		ldrb	r6, [r0]
 1892 002c 012E     		cmp	r6, #1
 1893 002e 48D0     		beq	.L261
 1894 0030 013D     		subs	r5, r5, #1
 1895 0032 0570     		strb	r5, [r0]
 1896 0034 2120     		movs	r0, #33
 1897 0036 0870     		strb	r0, [r1]
 1898 0038 0131     		adds	r1, r1, #1
 1899 003a 0391     		str	r1, [sp, #12]
 1900 003c 1021     		movs	r1, #16
 1901 003e 0398     		ldr	r0, [sp, #12]
 1902 0040 0170     		strb	r1, [r0]
 1903 0042 6146     		mov	r1, ip
 1904 0044 6764     		str	r7, [r4, #68]
 1905 0046 6385     		strh	r3, [r4, #42]
 1906 0048 364B     		ldr	r3, .L274
 1907 004a 6162     		str	r1, [r4, #36]
 1908 004c E362     		str	r3, [r4, #44]
 1909 004e 364B     		ldr	r3, .L274+4
 1910 0050 6363     		str	r3, [r4, #52]
 1911 0052 638D     		ldrh	r3, [r4, #42]
 1912 0054 FF2B     		cmp	r3, #255
 1913 0056 37D8     		bhi	.L270
 1914 0058 8023     		movs	r3, #128
 1915 005a 658D     		ldrh	r5, [r4, #42]
 1916 005c 9B04     		lsls	r3, r3, #18
 1917 005e ADB2     		uxth	r5, r5
 1918              	.L272:
 1919 0060 2600     		movs	r6, r4
 1920 0062 0493     		str	r3, [sp, #16]
 1921 0064 2585     		strh	r5, [r4, #40]
 1922 0066 4036     		adds	r6, r6, #64
 1923 0068 002D     		cmp	r5, #0
 1924 006a 4AD0     		beq	.L263
 1925 006c A06B     		ldr	r0, [r4, #56]
 1926 006e 0028     		cmp	r0, #0
 1927 0070 2ED0     		beq	.L264
 1928 0072 0027     		movs	r7, #0
 1929 0074 2D4B     		ldr	r3, .L274+8
 1930 0076 6146     		mov	r1, ip
ARM GAS  /tmp/ccdcCb4o.s 			page 34


 1931 0078 C362     		str	r3, [r0, #44]
 1932 007a 2D4B     		ldr	r3, .L274+12
 1933 007c 0763     		str	r7, [r0, #48]
 1934 007e 4363     		str	r3, [r0, #52]
 1935 0080 8763     		str	r7, [r0, #56]
 1936 0082 2B00     		movs	r3, r5
 1937 0084 2832     		adds	r2, r2, #40
 1938 0086 FFF7FEFF 		bl	HAL_DMA_Start_IT
 1939 008a 0500     		movs	r5, r0
 1940 008c B842     		cmp	r0, r7
 1941 008e 2CD1     		bne	.L271
 1942 0090 228D     		ldrh	r2, [r4, #40]
 1943 0092 284B     		ldr	r3, .L274+16
 1944 0094 2000     		movs	r0, r4
 1945 0096 0599     		ldr	r1, [sp, #20]
 1946 0098 D2B2     		uxtb	r2, r2
 1947 009a 0093     		str	r3, [sp]
 1948 009c 049B     		ldr	r3, [sp, #16]
 1949 009e FFF7FEFF 		bl	I2C_TransferConfig
 1950 00a2 638D     		ldrh	r3, [r4, #42]
 1951 00a4 228D     		ldrh	r2, [r4, #40]
 1952 00a6 1021     		movs	r1, #16
 1953 00a8 9B1A     		subs	r3, r3, r2
 1954 00aa 9BB2     		uxth	r3, r3
 1955 00ac 6385     		strh	r3, [r4, #42]
 1956 00ae 2000     		movs	r0, r4
 1957 00b0 3570     		strb	r5, [r6]
 1958 00b2 FFF7FEFF 		bl	I2C_Enable_IRQ
 1959 00b6 8023     		movs	r3, #128
 1960 00b8 2268     		ldr	r2, [r4]
 1961 00ba DB01     		lsls	r3, r3, #7
 1962 00bc 1168     		ldr	r1, [r2]
 1963 00be 0B43     		orrs	r3, r1
 1964 00c0 1360     		str	r3, [r2]
 1965              	.L261:
 1966 00c2 2800     		movs	r0, r5
 1967 00c4 07B0     		add	sp, sp, #28
 1968              		@ sp needed
 1969 00c6 F0BD     		pop	{r4, r5, r6, r7, pc}
 1970              	.L270:
 1971 00c8 8023     		movs	r3, #128
 1972 00ca FF25     		movs	r5, #255
 1973 00cc 5B04     		lsls	r3, r3, #17
 1974 00ce C7E7     		b	.L272
 1975              	.L264:
 1976 00d0 2300     		movs	r3, r4
 1977 00d2 2022     		movs	r2, #32
 1978 00d4 4133     		adds	r3, r3, #65
 1979 00d6 1A70     		strb	r2, [r3]
 1980 00d8 039B     		ldr	r3, [sp, #12]
 1981 00da 1870     		strb	r0, [r3]
 1982 00dc 8023     		movs	r3, #128
 1983 00de 626C     		ldr	r2, [r4, #68]
 1984 00e0 1343     		orrs	r3, r2
 1985 00e2 6364     		str	r3, [r4, #68]
 1986 00e4 3070     		strb	r0, [r6]
 1987              	.L273:
ARM GAS  /tmp/ccdcCb4o.s 			page 35


 1988 00e6 0125     		movs	r5, #1
 1989 00e8 EBE7     		b	.L261
 1990              	.L271:
 1991 00ea 2300     		movs	r3, r4
 1992 00ec 2022     		movs	r2, #32
 1993 00ee 4133     		adds	r3, r3, #65
 1994 00f0 1A70     		strb	r2, [r3]
 1995 00f2 039B     		ldr	r3, [sp, #12]
 1996 00f4 1F70     		strb	r7, [r3]
 1997 00f6 1023     		movs	r3, #16
 1998 00f8 626C     		ldr	r2, [r4, #68]
 1999 00fa 1343     		orrs	r3, r2
 2000 00fc 6364     		str	r3, [r4, #68]
 2001 00fe 3770     		strb	r7, [r6]
 2002 0100 F1E7     		b	.L273
 2003              	.L263:
 2004 0102 0D4B     		ldr	r3, .L274+20
 2005 0104 2000     		movs	r0, r4
 2006 0106 6363     		str	r3, [r4, #52]
 2007 0108 0A4B     		ldr	r3, .L274+16
 2008 010a 0599     		ldr	r1, [sp, #20]
 2009 010c 0093     		str	r3, [sp]
 2010 010e 8023     		movs	r3, #128
 2011 0110 2A00     		movs	r2, r5
 2012 0112 9B04     		lsls	r3, r3, #18
 2013 0114 FFF7FEFF 		bl	I2C_TransferConfig
 2014 0118 0121     		movs	r1, #1
 2015 011a 2000     		movs	r0, r4
 2016 011c 3570     		strb	r5, [r6]
 2017 011e FFF7FEFF 		bl	I2C_Enable_IRQ
 2018 0122 CEE7     		b	.L261
 2019              	.L275:
 2020              		.align	2
 2021              	.L274:
 2022 0124 0000FFFF 		.word	-65536
 2023 0128 00000000 		.word	I2C_Master_ISR_DMA
 2024 012c 00000000 		.word	I2C_DMAMasterTransmitCplt
 2025 0130 00000000 		.word	I2C_DMAError
 2026 0134 00200080 		.word	-2147475456
 2027 0138 00000000 		.word	I2C_Master_ISR_IT
 2029              		.section	.text.HAL_I2C_Master_Receive_DMA,"ax",%progbits
 2030              		.align	1
 2031              		.global	HAL_I2C_Master_Receive_DMA
 2032              		.syntax unified
 2033              		.code	16
 2034              		.thumb_func
 2035              		.fpu softvfp
 2037              	HAL_I2C_Master_Receive_DMA:
 2038              		@ args = 0, pretend = 0, frame = 16
 2039              		@ frame_needed = 0, uses_anonymous_args = 0
 2040 0000 9446     		mov	ip, r2
 2041 0002 0200     		movs	r2, r0
 2042 0004 F0B5     		push	{r4, r5, r6, r7, lr}
 2043 0006 87B0     		sub	sp, sp, #28
 2044 0008 0591     		str	r1, [sp, #20]
 2045 000a 4132     		adds	r2, r2, #65
 2046 000c 1178     		ldrb	r1, [r2]
ARM GAS  /tmp/ccdcCb4o.s 			page 36


 2047 000e 0400     		movs	r4, r0
 2048 0010 0225     		movs	r5, #2
 2049 0012 2029     		cmp	r1, #32
 2050 0014 55D1     		bne	.L277
 2051 0016 0168     		ldr	r1, [r0]
 2052 0018 8020     		movs	r0, #128
 2053 001a 8E69     		ldr	r6, [r1, #24]
 2054 001c 0002     		lsls	r0, r0, #8
 2055 001e 3700     		movs	r7, r6
 2056 0020 0740     		ands	r7, r0
 2057 0022 0642     		tst	r6, r0
 2058 0024 4DD1     		bne	.L277
 2059 0026 2000     		movs	r0, r4
 2060 0028 4030     		adds	r0, r0, #64
 2061 002a 0678     		ldrb	r6, [r0]
 2062 002c 012E     		cmp	r6, #1
 2063 002e 48D0     		beq	.L277
 2064 0030 013D     		subs	r5, r5, #1
 2065 0032 0570     		strb	r5, [r0]
 2066 0034 2220     		movs	r0, #34
 2067 0036 1070     		strb	r0, [r2]
 2068 0038 0132     		adds	r2, r2, #1
 2069 003a 0392     		str	r2, [sp, #12]
 2070 003c 1022     		movs	r2, #16
 2071 003e 0398     		ldr	r0, [sp, #12]
 2072 0040 0270     		strb	r2, [r0]
 2073 0042 6246     		mov	r2, ip
 2074 0044 6764     		str	r7, [r4, #68]
 2075 0046 6385     		strh	r3, [r4, #42]
 2076 0048 364B     		ldr	r3, .L290
 2077 004a 6262     		str	r2, [r4, #36]
 2078 004c E362     		str	r3, [r4, #44]
 2079 004e 364B     		ldr	r3, .L290+4
 2080 0050 6363     		str	r3, [r4, #52]
 2081 0052 638D     		ldrh	r3, [r4, #42]
 2082 0054 FF2B     		cmp	r3, #255
 2083 0056 37D8     		bhi	.L286
 2084 0058 8023     		movs	r3, #128
 2085 005a 658D     		ldrh	r5, [r4, #42]
 2086 005c 9B04     		lsls	r3, r3, #18
 2087 005e ADB2     		uxth	r5, r5
 2088              	.L288:
 2089 0060 2600     		movs	r6, r4
 2090 0062 0493     		str	r3, [sp, #16]
 2091 0064 2585     		strh	r5, [r4, #40]
 2092 0066 4036     		adds	r6, r6, #64
 2093 0068 002D     		cmp	r5, #0
 2094 006a 4AD0     		beq	.L279
 2095 006c E06B     		ldr	r0, [r4, #60]
 2096 006e 0028     		cmp	r0, #0
 2097 0070 2ED0     		beq	.L280
 2098 0072 0027     		movs	r7, #0
 2099 0074 2D4B     		ldr	r3, .L290+8
 2100 0076 6246     		mov	r2, ip
 2101 0078 C362     		str	r3, [r0, #44]
 2102 007a 2D4B     		ldr	r3, .L290+12
 2103 007c 0763     		str	r7, [r0, #48]
ARM GAS  /tmp/ccdcCb4o.s 			page 37


 2104 007e 4363     		str	r3, [r0, #52]
 2105 0080 8763     		str	r7, [r0, #56]
 2106 0082 2B00     		movs	r3, r5
 2107 0084 2431     		adds	r1, r1, #36
 2108 0086 FFF7FEFF 		bl	HAL_DMA_Start_IT
 2109 008a 0500     		movs	r5, r0
 2110 008c B842     		cmp	r0, r7
 2111 008e 2CD1     		bne	.L287
 2112 0090 228D     		ldrh	r2, [r4, #40]
 2113 0092 284B     		ldr	r3, .L290+16
 2114 0094 2000     		movs	r0, r4
 2115 0096 0599     		ldr	r1, [sp, #20]
 2116 0098 D2B2     		uxtb	r2, r2
 2117 009a 0093     		str	r3, [sp]
 2118 009c 049B     		ldr	r3, [sp, #16]
 2119 009e FFF7FEFF 		bl	I2C_TransferConfig
 2120 00a2 638D     		ldrh	r3, [r4, #42]
 2121 00a4 228D     		ldrh	r2, [r4, #40]
 2122 00a6 1021     		movs	r1, #16
 2123 00a8 9B1A     		subs	r3, r3, r2
 2124 00aa 9BB2     		uxth	r3, r3
 2125 00ac 6385     		strh	r3, [r4, #42]
 2126 00ae 2000     		movs	r0, r4
 2127 00b0 3570     		strb	r5, [r6]
 2128 00b2 FFF7FEFF 		bl	I2C_Enable_IRQ
 2129 00b6 8023     		movs	r3, #128
 2130 00b8 2268     		ldr	r2, [r4]
 2131 00ba 1B02     		lsls	r3, r3, #8
 2132 00bc 1168     		ldr	r1, [r2]
 2133 00be 0B43     		orrs	r3, r1
 2134 00c0 1360     		str	r3, [r2]
 2135              	.L277:
 2136 00c2 2800     		movs	r0, r5
 2137 00c4 07B0     		add	sp, sp, #28
 2138              		@ sp needed
 2139 00c6 F0BD     		pop	{r4, r5, r6, r7, pc}
 2140              	.L286:
 2141 00c8 8023     		movs	r3, #128
 2142 00ca FF25     		movs	r5, #255
 2143 00cc 5B04     		lsls	r3, r3, #17
 2144 00ce C7E7     		b	.L288
 2145              	.L280:
 2146 00d0 2300     		movs	r3, r4
 2147 00d2 2022     		movs	r2, #32
 2148 00d4 4133     		adds	r3, r3, #65
 2149 00d6 1A70     		strb	r2, [r3]
 2150 00d8 039B     		ldr	r3, [sp, #12]
 2151 00da 1870     		strb	r0, [r3]
 2152 00dc 8023     		movs	r3, #128
 2153 00de 626C     		ldr	r2, [r4, #68]
 2154 00e0 1343     		orrs	r3, r2
 2155 00e2 6364     		str	r3, [r4, #68]
 2156 00e4 3070     		strb	r0, [r6]
 2157              	.L289:
 2158 00e6 0125     		movs	r5, #1
 2159 00e8 EBE7     		b	.L277
 2160              	.L287:
ARM GAS  /tmp/ccdcCb4o.s 			page 38


 2161 00ea 2300     		movs	r3, r4
 2162 00ec 2022     		movs	r2, #32
 2163 00ee 4133     		adds	r3, r3, #65
 2164 00f0 1A70     		strb	r2, [r3]
 2165 00f2 039B     		ldr	r3, [sp, #12]
 2166 00f4 1F70     		strb	r7, [r3]
 2167 00f6 1023     		movs	r3, #16
 2168 00f8 626C     		ldr	r2, [r4, #68]
 2169 00fa 1343     		orrs	r3, r2
 2170 00fc 6364     		str	r3, [r4, #68]
 2171 00fe 3770     		strb	r7, [r6]
 2172 0100 F1E7     		b	.L289
 2173              	.L279:
 2174 0102 0D4B     		ldr	r3, .L290+20
 2175 0104 2000     		movs	r0, r4
 2176 0106 6363     		str	r3, [r4, #52]
 2177 0108 0A4B     		ldr	r3, .L290+16
 2178 010a 0599     		ldr	r1, [sp, #20]
 2179 010c 0093     		str	r3, [sp]
 2180 010e 8023     		movs	r3, #128
 2181 0110 2A00     		movs	r2, r5
 2182 0112 9B04     		lsls	r3, r3, #18
 2183 0114 FFF7FEFF 		bl	I2C_TransferConfig
 2184 0118 0121     		movs	r1, #1
 2185 011a 2000     		movs	r0, r4
 2186 011c 3570     		strb	r5, [r6]
 2187 011e FFF7FEFF 		bl	I2C_Enable_IRQ
 2188 0122 CEE7     		b	.L277
 2189              	.L291:
 2190              		.align	2
 2191              	.L290:
 2192 0124 0000FFFF 		.word	-65536
 2193 0128 00000000 		.word	I2C_Master_ISR_DMA
 2194 012c 00000000 		.word	I2C_DMAMasterReceiveCplt
 2195 0130 00000000 		.word	I2C_DMAError
 2196 0134 00240080 		.word	-2147474432
 2197 0138 00000000 		.word	I2C_Master_ISR_IT
 2199              		.section	.text.HAL_I2C_Slave_Transmit_DMA,"ax",%progbits
 2200              		.align	1
 2201              		.global	HAL_I2C_Slave_Transmit_DMA
 2202              		.syntax unified
 2203              		.code	16
 2204              		.thumb_func
 2205              		.fpu softvfp
 2207              	HAL_I2C_Slave_Transmit_DMA:
 2208              		@ args = 0, pretend = 0, frame = 8
 2209              		@ frame_needed = 0, uses_anonymous_args = 0
 2210 0000 0300     		movs	r3, r0
 2211 0002 F7B5     		push	{r0, r1, r2, r4, r5, r6, r7, lr}
 2212 0004 4133     		adds	r3, r3, #65
 2213 0006 0093     		str	r3, [sp]
 2214 0008 1B78     		ldrb	r3, [r3]
 2215 000a 0400     		movs	r4, r0
 2216 000c 0225     		movs	r5, #2
 2217 000e D8B2     		uxtb	r0, r3
 2218 0010 202B     		cmp	r3, #32
 2219 0012 43D1     		bne	.L293
ARM GAS  /tmp/ccdcCb4o.s 			page 39


 2220 0014 0029     		cmp	r1, #0
 2221 0016 01D0     		beq	.L294
 2222 0018 002A     		cmp	r2, #0
 2223 001a 04D1     		bne	.L295
 2224              	.L294:
 2225 001c 8023     		movs	r3, #128
 2226 001e 9B00     		lsls	r3, r3, #2
 2227 0020 6364     		str	r3, [r4, #68]
 2228              	.L305:
 2229 0022 0125     		movs	r5, #1
 2230 0024 3AE0     		b	.L293
 2231              	.L295:
 2232 0026 2600     		movs	r6, r4
 2233 0028 4036     		adds	r6, r6, #64
 2234 002a 3378     		ldrb	r3, [r6]
 2235 002c 0225     		movs	r5, #2
 2236 002e 012B     		cmp	r3, #1
 2237 0030 34D0     		beq	.L293
 2238 0032 0123     		movs	r3, #1
 2239 0034 009D     		ldr	r5, [sp]
 2240 0036 3370     		strb	r3, [r6]
 2241 0038 2033     		adds	r3, r3, #32
 2242 003a 2B70     		strb	r3, [r5]
 2243 003c 2300     		movs	r3, r4
 2244 003e 0027     		movs	r7, #0
 2245 0040 4233     		adds	r3, r3, #66
 2246 0042 1870     		strb	r0, [r3]
 2247 0044 6764     		str	r7, [r4, #68]
 2248 0046 6285     		strh	r2, [r4, #42]
 2249 0048 204A     		ldr	r2, .L306
 2250 004a 0193     		str	r3, [sp, #4]
 2251 004c 638D     		ldrh	r3, [r4, #42]
 2252 004e A06B     		ldr	r0, [r4, #56]
 2253 0050 E262     		str	r2, [r4, #44]
 2254 0052 1F4A     		ldr	r2, .L306+4
 2255 0054 9BB2     		uxth	r3, r3
 2256 0056 6162     		str	r1, [r4, #36]
 2257 0058 2385     		strh	r3, [r4, #40]
 2258 005a 6263     		str	r2, [r4, #52]
 2259 005c B842     		cmp	r0, r7
 2260 005e 1FD0     		beq	.L296
 2261 0060 1C4A     		ldr	r2, .L306+8
 2262 0062 0763     		str	r7, [r0, #48]
 2263 0064 C262     		str	r2, [r0, #44]
 2264 0066 1C4A     		ldr	r2, .L306+12
 2265 0068 8763     		str	r7, [r0, #56]
 2266 006a 4263     		str	r2, [r0, #52]
 2267 006c 2268     		ldr	r2, [r4]
 2268 006e 2832     		adds	r2, r2, #40
 2269 0070 FFF7FEFF 		bl	HAL_DMA_Start_IT
 2270 0074 0500     		movs	r5, r0
 2271 0076 B842     		cmp	r0, r7
 2272 0078 1DD1     		bne	.L304
 2273 007a 2268     		ldr	r2, [r4]
 2274 007c 1749     		ldr	r1, .L306+16
 2275 007e 5368     		ldr	r3, [r2, #4]
 2276 0080 0B40     		ands	r3, r1
ARM GAS  /tmp/ccdcCb4o.s 			page 40


 2277 0082 8021     		movs	r1, #128
 2278 0084 5360     		str	r3, [r2, #4]
 2279 0086 0902     		lsls	r1, r1, #8
 2280 0088 3070     		strb	r0, [r6]
 2281 008a 2000     		movs	r0, r4
 2282 008c FFF7FEFF 		bl	I2C_Enable_IRQ
 2283 0090 8023     		movs	r3, #128
 2284 0092 2268     		ldr	r2, [r4]
 2285 0094 DB01     		lsls	r3, r3, #7
 2286 0096 1168     		ldr	r1, [r2]
 2287 0098 0B43     		orrs	r3, r1
 2288 009a 1360     		str	r3, [r2]
 2289              	.L293:
 2290 009c 2800     		movs	r0, r5
 2291              		@ sp needed
 2292 009e FEBD     		pop	{r1, r2, r3, r4, r5, r6, r7, pc}
 2293              	.L296:
 2294 00a0 2823     		movs	r3, #40
 2295 00a2 009A     		ldr	r2, [sp]
 2296 00a4 1370     		strb	r3, [r2]
 2297 00a6 019B     		ldr	r3, [sp, #4]
 2298 00a8 1870     		strb	r0, [r3]
 2299 00aa 8023     		movs	r3, #128
 2300 00ac 626C     		ldr	r2, [r4, #68]
 2301 00ae 1343     		orrs	r3, r2
 2302 00b0 6364     		str	r3, [r4, #68]
 2303 00b2 3070     		strb	r0, [r6]
 2304 00b4 B5E7     		b	.L305
 2305              	.L304:
 2306 00b6 2823     		movs	r3, #40
 2307 00b8 009A     		ldr	r2, [sp]
 2308 00ba 1370     		strb	r3, [r2]
 2309 00bc 019B     		ldr	r3, [sp, #4]
 2310 00be 1F70     		strb	r7, [r3]
 2311 00c0 1023     		movs	r3, #16
 2312 00c2 626C     		ldr	r2, [r4, #68]
 2313 00c4 1343     		orrs	r3, r2
 2314 00c6 6364     		str	r3, [r4, #68]
 2315 00c8 3770     		strb	r7, [r6]
 2316 00ca AAE7     		b	.L305
 2317              	.L307:
 2318              		.align	2
 2319              	.L306:
 2320 00cc 0000FFFF 		.word	-65536
 2321 00d0 00000000 		.word	I2C_Slave_ISR_DMA
 2322 00d4 00000000 		.word	I2C_DMASlaveTransmitCplt
 2323 00d8 00000000 		.word	I2C_DMAError
 2324 00dc FF7FFFFF 		.word	-32769
 2326              		.section	.text.HAL_I2C_Slave_Receive_DMA,"ax",%progbits
 2327              		.align	1
 2328              		.global	HAL_I2C_Slave_Receive_DMA
 2329              		.syntax unified
 2330              		.code	16
 2331              		.thumb_func
 2332              		.fpu softvfp
 2334              	HAL_I2C_Slave_Receive_DMA:
 2335              		@ args = 0, pretend = 0, frame = 8
ARM GAS  /tmp/ccdcCb4o.s 			page 41


 2336              		@ frame_needed = 0, uses_anonymous_args = 0
 2337 0000 0300     		movs	r3, r0
 2338 0002 F7B5     		push	{r0, r1, r2, r4, r5, r6, r7, lr}
 2339 0004 4133     		adds	r3, r3, #65
 2340 0006 0093     		str	r3, [sp]
 2341 0008 1B78     		ldrb	r3, [r3]
 2342 000a 0400     		movs	r4, r0
 2343 000c 0225     		movs	r5, #2
 2344 000e D8B2     		uxtb	r0, r3
 2345 0010 202B     		cmp	r3, #32
 2346 0012 44D1     		bne	.L309
 2347 0014 0029     		cmp	r1, #0
 2348 0016 01D0     		beq	.L310
 2349 0018 002A     		cmp	r2, #0
 2350 001a 04D1     		bne	.L311
 2351              	.L310:
 2352 001c 8023     		movs	r3, #128
 2353 001e 9B00     		lsls	r3, r3, #2
 2354 0020 6364     		str	r3, [r4, #68]
 2355              	.L321:
 2356 0022 0125     		movs	r5, #1
 2357 0024 3BE0     		b	.L309
 2358              	.L311:
 2359 0026 2600     		movs	r6, r4
 2360 0028 4036     		adds	r6, r6, #64
 2361 002a 3378     		ldrb	r3, [r6]
 2362 002c 0225     		movs	r5, #2
 2363 002e 012B     		cmp	r3, #1
 2364 0030 35D0     		beq	.L309
 2365 0032 0123     		movs	r3, #1
 2366 0034 009D     		ldr	r5, [sp]
 2367 0036 3370     		strb	r3, [r6]
 2368 0038 2133     		adds	r3, r3, #33
 2369 003a 2B70     		strb	r3, [r5]
 2370 003c 2300     		movs	r3, r4
 2371 003e 0027     		movs	r7, #0
 2372 0040 4233     		adds	r3, r3, #66
 2373 0042 1870     		strb	r0, [r3]
 2374 0044 6764     		str	r7, [r4, #68]
 2375 0046 6285     		strh	r2, [r4, #42]
 2376 0048 214A     		ldr	r2, .L322
 2377 004a 0193     		str	r3, [sp, #4]
 2378 004c 638D     		ldrh	r3, [r4, #42]
 2379 004e E06B     		ldr	r0, [r4, #60]
 2380 0050 E262     		str	r2, [r4, #44]
 2381 0052 204A     		ldr	r2, .L322+4
 2382 0054 9BB2     		uxth	r3, r3
 2383 0056 6162     		str	r1, [r4, #36]
 2384 0058 2385     		strh	r3, [r4, #40]
 2385 005a 6263     		str	r2, [r4, #52]
 2386 005c B842     		cmp	r0, r7
 2387 005e 20D0     		beq	.L312
 2388 0060 1D4A     		ldr	r2, .L322+8
 2389 0062 2568     		ldr	r5, [r4]
 2390 0064 C262     		str	r2, [r0, #44]
 2391 0066 1D4A     		ldr	r2, .L322+12
 2392 0068 2435     		adds	r5, r5, #36
ARM GAS  /tmp/ccdcCb4o.s 			page 42


 2393 006a 4263     		str	r2, [r0, #52]
 2394 006c 0763     		str	r7, [r0, #48]
 2395 006e 0A00     		movs	r2, r1
 2396 0070 8763     		str	r7, [r0, #56]
 2397 0072 2900     		movs	r1, r5
 2398 0074 FFF7FEFF 		bl	HAL_DMA_Start_IT
 2399 0078 0500     		movs	r5, r0
 2400 007a B842     		cmp	r0, r7
 2401 007c 1CD1     		bne	.L320
 2402 007e 2268     		ldr	r2, [r4]
 2403 0080 1749     		ldr	r1, .L322+16
 2404 0082 5368     		ldr	r3, [r2, #4]
 2405 0084 0B40     		ands	r3, r1
 2406 0086 5360     		str	r3, [r2, #4]
 2407 0088 3070     		strb	r0, [r6]
 2408 008a 8026     		movs	r6, #128
 2409 008c 3602     		lsls	r6, r6, #8
 2410 008e 3100     		movs	r1, r6
 2411 0090 2000     		movs	r0, r4
 2412 0092 FFF7FEFF 		bl	I2C_Enable_IRQ
 2413 0096 2368     		ldr	r3, [r4]
 2414 0098 1A68     		ldr	r2, [r3]
 2415 009a 1643     		orrs	r6, r2
 2416 009c 1E60     		str	r6, [r3]
 2417              	.L309:
 2418 009e 2800     		movs	r0, r5
 2419              		@ sp needed
 2420 00a0 FEBD     		pop	{r1, r2, r3, r4, r5, r6, r7, pc}
 2421              	.L312:
 2422 00a2 2823     		movs	r3, #40
 2423 00a4 009A     		ldr	r2, [sp]
 2424 00a6 1370     		strb	r3, [r2]
 2425 00a8 019B     		ldr	r3, [sp, #4]
 2426 00aa 1870     		strb	r0, [r3]
 2427 00ac 8023     		movs	r3, #128
 2428 00ae 626C     		ldr	r2, [r4, #68]
 2429 00b0 1343     		orrs	r3, r2
 2430 00b2 6364     		str	r3, [r4, #68]
 2431 00b4 3070     		strb	r0, [r6]
 2432 00b6 B4E7     		b	.L321
 2433              	.L320:
 2434 00b8 2823     		movs	r3, #40
 2435 00ba 009A     		ldr	r2, [sp]
 2436 00bc 1370     		strb	r3, [r2]
 2437 00be 019B     		ldr	r3, [sp, #4]
 2438 00c0 1F70     		strb	r7, [r3]
 2439 00c2 1023     		movs	r3, #16
 2440 00c4 626C     		ldr	r2, [r4, #68]
 2441 00c6 1343     		orrs	r3, r2
 2442 00c8 6364     		str	r3, [r4, #68]
 2443 00ca 3770     		strb	r7, [r6]
 2444 00cc A9E7     		b	.L321
 2445              	.L323:
 2446 00ce C046     		.align	2
 2447              	.L322:
 2448 00d0 0000FFFF 		.word	-65536
 2449 00d4 00000000 		.word	I2C_Slave_ISR_DMA
ARM GAS  /tmp/ccdcCb4o.s 			page 43


 2450 00d8 00000000 		.word	I2C_DMASlaveReceiveCplt
 2451 00dc 00000000 		.word	I2C_DMAError
 2452 00e0 FF7FFFFF 		.word	-32769
 2454              		.section	.text.HAL_I2C_Mem_Write,"ax",%progbits
 2455              		.align	1
 2456              		.global	HAL_I2C_Mem_Write
 2457              		.syntax unified
 2458              		.code	16
 2459              		.thumb_func
 2460              		.fpu softvfp
 2462              	HAL_I2C_Mem_Write:
 2463              		@ args = 12, pretend = 0, frame = 24
 2464              		@ frame_needed = 0, uses_anonymous_args = 0
 2465 0000 F0B5     		push	{r4, r5, r6, r7, lr}
 2466 0002 89B0     		sub	sp, sp, #36
 2467 0004 0793     		str	r3, [sp, #28]
 2468 0006 0EAB     		add	r3, sp, #56
 2469 0008 0692     		str	r2, [sp, #24]
 2470 000a 04CB     		ldmia	r3!, {r2}
 2471 000c 0400     		movs	r4, r0
 2472 000e 1B88     		ldrh	r3, [r3]
 2473 0010 0392     		str	r2, [sp, #12]
 2474 0012 0493     		str	r3, [sp, #16]
 2475 0014 0300     		movs	r3, r0
 2476 0016 4133     		adds	r3, r3, #65
 2477 0018 0593     		str	r3, [sp, #20]
 2478 001a 1B78     		ldrb	r3, [r3]
 2479 001c 0F00     		movs	r7, r1
 2480 001e 0220     		movs	r0, #2
 2481 0020 202B     		cmp	r3, #32
 2482 0022 08D1     		bne	.L325
 2483 0024 002A     		cmp	r2, #0
 2484 0026 02D0     		beq	.L326
 2485 0028 049B     		ldr	r3, [sp, #16]
 2486 002a 002B     		cmp	r3, #0
 2487 002c 05D1     		bne	.L327
 2488              	.L326:
 2489 002e 8023     		movs	r3, #128
 2490 0030 9B00     		lsls	r3, r3, #2
 2491 0032 6364     		str	r3, [r4, #68]
 2492              	.L347:
 2493 0034 0120     		movs	r0, #1
 2494              	.L325:
 2495 0036 09B0     		add	sp, sp, #36
 2496              		@ sp needed
 2497 0038 F0BD     		pop	{r4, r5, r6, r7, pc}
 2498              	.L327:
 2499 003a 2300     		movs	r3, r4
 2500 003c 4033     		adds	r3, r3, #64
 2501 003e 0293     		str	r3, [sp, #8]
 2502 0040 1B78     		ldrb	r3, [r3]
 2503 0042 0220     		movs	r0, #2
 2504 0044 012B     		cmp	r3, #1
 2505 0046 F6D0     		beq	.L325
 2506 0048 0122     		movs	r2, #1
 2507 004a 029B     		ldr	r3, [sp, #8]
 2508 004c 1A70     		strb	r2, [r3]
ARM GAS  /tmp/ccdcCb4o.s 			page 44


 2509 004e FFF7FEFF 		bl	HAL_GetTick
 2510 0052 8021     		movs	r1, #128
 2511 0054 0090     		str	r0, [sp]
 2512 0056 0500     		movs	r5, r0
 2513 0058 1923     		movs	r3, #25
 2514 005a 0122     		movs	r2, #1
 2515 005c 2000     		movs	r0, r4
 2516 005e 0902     		lsls	r1, r1, #8
 2517 0060 FFF7FEFF 		bl	I2C_WaitOnFlagUntilTimeout
 2518 0064 061E     		subs	r6, r0, #0
 2519 0066 E5D1     		bne	.L347
 2520 0068 2123     		movs	r3, #33
 2521 006a 059A     		ldr	r2, [sp, #20]
 2522 006c 3900     		movs	r1, r7
 2523 006e 1370     		strb	r3, [r2]
 2524 0070 2300     		movs	r3, r4
 2525 0072 4233     		adds	r3, r3, #66
 2526 0074 0593     		str	r3, [sp, #20]
 2527 0076 4023     		movs	r3, #64
 2528 0078 059A     		ldr	r2, [sp, #20]
 2529 007a 1370     		strb	r3, [r2]
 2530 007c 039B     		ldr	r3, [sp, #12]
 2531 007e 6064     		str	r0, [r4, #68]
 2532 0080 6362     		str	r3, [r4, #36]
 2533 0082 049B     		ldr	r3, [sp, #16]
 2534 0084 6063     		str	r0, [r4, #52]
 2535 0086 6385     		strh	r3, [r4, #42]
 2536 0088 109B     		ldr	r3, [sp, #64]
 2537 008a 2000     		movs	r0, r4
 2538 008c 0093     		str	r3, [sp]
 2539 008e 069A     		ldr	r2, [sp, #24]
 2540 0090 079B     		ldr	r3, [sp, #28]
 2541 0092 0195     		str	r5, [sp, #4]
 2542 0094 FFF7FEFF 		bl	I2C_RequestMemoryWrite
 2543 0098 0028     		cmp	r0, #0
 2544 009a 02D0     		beq	.L329
 2545 009c 029B     		ldr	r3, [sp, #8]
 2546 009e 1E70     		strb	r6, [r3]
 2547 00a0 C8E7     		b	.L347
 2548              	.L329:
 2549 00a2 638D     		ldrh	r3, [r4, #42]
 2550 00a4 FF2B     		cmp	r3, #255
 2551 00a6 54D9     		bls	.L330
 2552 00a8 FF22     		movs	r2, #255
 2553 00aa 8023     		movs	r3, #128
 2554 00ac 2285     		strh	r2, [r4, #40]
 2555 00ae 5B04     		lsls	r3, r3, #17
 2556 00b0 0090     		str	r0, [sp]
 2557              	.L345:
 2558 00b2 3900     		movs	r1, r7
 2559 00b4 2000     		movs	r0, r4
 2560 00b6 8026     		movs	r6, #128
 2561 00b8 FFF7FEFF 		bl	I2C_TransferConfig
 2562 00bc B604     		lsls	r6, r6, #18
 2563              	.L331:
 2564 00be 2A00     		movs	r2, r5
 2565 00c0 2000     		movs	r0, r4
ARM GAS  /tmp/ccdcCb4o.s 			page 45


 2566 00c2 1099     		ldr	r1, [sp, #64]
 2567 00c4 FFF7FEFF 		bl	I2C_WaitOnTXISFlagUntilTimeout
 2568 00c8 0028     		cmp	r0, #0
 2569 00ca B3D1     		bne	.L347
 2570 00cc 636A     		ldr	r3, [r4, #36]
 2571 00ce 2268     		ldr	r2, [r4]
 2572 00d0 1978     		ldrb	r1, [r3]
 2573 00d2 0133     		adds	r3, r3, #1
 2574 00d4 9162     		str	r1, [r2, #40]
 2575 00d6 6362     		str	r3, [r4, #36]
 2576 00d8 638D     		ldrh	r3, [r4, #42]
 2577 00da 228D     		ldrh	r2, [r4, #40]
 2578 00dc 013B     		subs	r3, r3, #1
 2579 00de 9BB2     		uxth	r3, r3
 2580 00e0 6385     		strh	r3, [r4, #42]
 2581 00e2 013A     		subs	r2, r2, #1
 2582 00e4 638D     		ldrh	r3, [r4, #42]
 2583 00e6 92B2     		uxth	r2, r2
 2584 00e8 2285     		strh	r2, [r4, #40]
 2585 00ea 002B     		cmp	r3, #0
 2586 00ec 17D0     		beq	.L334
 2587 00ee 002A     		cmp	r2, #0
 2588 00f0 15D1     		bne	.L334
 2589 00f2 8021     		movs	r1, #128
 2590 00f4 2000     		movs	r0, r4
 2591 00f6 109B     		ldr	r3, [sp, #64]
 2592 00f8 0095     		str	r5, [sp]
 2593 00fa FFF7FEFF 		bl	I2C_WaitOnFlagUntilTimeout
 2594 00fe 0028     		cmp	r0, #0
 2595 0100 00D0     		beq	.LCB2901
 2596 0102 97E7     		b	.L347	@long jump
 2597              	.LCB2901:
 2598 0104 638D     		ldrh	r3, [r4, #42]
 2599 0106 FF2B     		cmp	r3, #255
 2600 0108 2BD9     		bls	.L335
 2601 010a FF23     		movs	r3, #255
 2602 010c 2385     		strh	r3, [r4, #40]
 2603 010e 8023     		movs	r3, #128
 2604 0110 FF22     		movs	r2, #255
 2605 0112 0090     		str	r0, [sp]
 2606 0114 5B04     		lsls	r3, r3, #17
 2607              	.L346:
 2608 0116 3900     		movs	r1, r7
 2609 0118 2000     		movs	r0, r4
 2610 011a FFF7FEFF 		bl	I2C_TransferConfig
 2611              	.L334:
 2612 011e 638D     		ldrh	r3, [r4, #42]
 2613 0120 002B     		cmp	r3, #0
 2614 0122 CCD1     		bne	.L331
 2615 0124 2A00     		movs	r2, r5
 2616 0126 2000     		movs	r0, r4
 2617 0128 1099     		ldr	r1, [sp, #64]
 2618 012a FFF7FEFF 		bl	I2C_WaitOnSTOPFlagUntilTimeout
 2619 012e 0028     		cmp	r0, #0
 2620 0130 00D0     		beq	.LCB2928
 2621 0132 7FE7     		b	.L347	@long jump
 2622              	.LCB2928:
ARM GAS  /tmp/ccdcCb4o.s 			page 46


 2623 0134 2021     		movs	r1, #32
 2624 0136 2368     		ldr	r3, [r4]
 2625 0138 0D4D     		ldr	r5, .L348
 2626 013a D961     		str	r1, [r3, #28]
 2627 013c 5A68     		ldr	r2, [r3, #4]
 2628 013e 2A40     		ands	r2, r5
 2629 0140 5A60     		str	r2, [r3, #4]
 2630 0142 2300     		movs	r3, r4
 2631 0144 4133     		adds	r3, r3, #65
 2632 0146 1970     		strb	r1, [r3]
 2633 0148 059B     		ldr	r3, [sp, #20]
 2634 014a 4034     		adds	r4, r4, #64
 2635 014c 1870     		strb	r0, [r3]
 2636 014e 2070     		strb	r0, [r4]
 2637 0150 71E7     		b	.L325
 2638              	.L330:
 2639 0152 8023     		movs	r3, #128
 2640 0154 628D     		ldrh	r2, [r4, #42]
 2641 0156 9B04     		lsls	r3, r3, #18
 2642 0158 92B2     		uxth	r2, r2
 2643 015a 2285     		strh	r2, [r4, #40]
 2644 015c D2B2     		uxtb	r2, r2
 2645 015e 0090     		str	r0, [sp]
 2646 0160 A7E7     		b	.L345
 2647              	.L335:
 2648 0162 628D     		ldrh	r2, [r4, #42]
 2649 0164 3300     		movs	r3, r6
 2650 0166 92B2     		uxth	r2, r2
 2651 0168 2285     		strh	r2, [r4, #40]
 2652 016a D2B2     		uxtb	r2, r2
 2653 016c 0090     		str	r0, [sp]
 2654 016e D2E7     		b	.L346
 2655              	.L349:
 2656              		.align	2
 2657              	.L348:
 2658 0170 00E800FE 		.word	-33495040
 2660              		.section	.text.HAL_I2C_Mem_Read,"ax",%progbits
 2661              		.align	1
 2662              		.global	HAL_I2C_Mem_Read
 2663              		.syntax unified
 2664              		.code	16
 2665              		.thumb_func
 2666              		.fpu softvfp
 2668              	HAL_I2C_Mem_Read:
 2669              		@ args = 12, pretend = 0, frame = 32
 2670              		@ frame_needed = 0, uses_anonymous_args = 0
 2671 0000 F0B5     		push	{r4, r5, r6, r7, lr}
 2672 0002 8BB0     		sub	sp, sp, #44
 2673 0004 0993     		str	r3, [sp, #36]
 2674 0006 10AB     		add	r3, sp, #64
 2675 0008 0892     		str	r2, [sp, #32]
 2676 000a 04CB     		ldmia	r3!, {r2}
 2677 000c 0400     		movs	r4, r0
 2678 000e 1B88     		ldrh	r3, [r3]
 2679 0010 0592     		str	r2, [sp, #20]
 2680 0012 0693     		str	r3, [sp, #24]
 2681 0014 0300     		movs	r3, r0
ARM GAS  /tmp/ccdcCb4o.s 			page 47


 2682 0016 4133     		adds	r3, r3, #65
 2683 0018 0793     		str	r3, [sp, #28]
 2684 001a 1B78     		ldrb	r3, [r3]
 2685 001c 0D00     		movs	r5, r1
 2686 001e 0220     		movs	r0, #2
 2687 0020 202B     		cmp	r3, #32
 2688 0022 08D1     		bne	.L351
 2689 0024 002A     		cmp	r2, #0
 2690 0026 02D0     		beq	.L352
 2691 0028 069B     		ldr	r3, [sp, #24]
 2692 002a 002B     		cmp	r3, #0
 2693 002c 05D1     		bne	.L353
 2694              	.L352:
 2695 002e 8023     		movs	r3, #128
 2696 0030 9B00     		lsls	r3, r3, #2
 2697 0032 6364     		str	r3, [r4, #68]
 2698              	.L359:
 2699 0034 0120     		movs	r0, #1
 2700              	.L351:
 2701 0036 0BB0     		add	sp, sp, #44
 2702              		@ sp needed
 2703 0038 F0BD     		pop	{r4, r5, r6, r7, pc}
 2704              	.L353:
 2705 003a 2300     		movs	r3, r4
 2706 003c 4033     		adds	r3, r3, #64
 2707 003e 0493     		str	r3, [sp, #16]
 2708 0040 1B78     		ldrb	r3, [r3]
 2709 0042 0220     		movs	r0, #2
 2710 0044 012B     		cmp	r3, #1
 2711 0046 F6D0     		beq	.L351
 2712 0048 0127     		movs	r7, #1
 2713 004a 049B     		ldr	r3, [sp, #16]
 2714 004c 1F70     		strb	r7, [r3]
 2715 004e FFF7FEFF 		bl	HAL_GetTick
 2716 0052 8021     		movs	r1, #128
 2717 0054 0390     		str	r0, [sp, #12]
 2718 0056 0090     		str	r0, [sp]
 2719 0058 1923     		movs	r3, #25
 2720 005a 3A00     		movs	r2, r7
 2721 005c 2000     		movs	r0, r4
 2722 005e 0902     		lsls	r1, r1, #8
 2723 0060 FFF7FEFF 		bl	I2C_WaitOnFlagUntilTimeout
 2724 0064 061E     		subs	r6, r0, #0
 2725 0066 E5D1     		bne	.L359
 2726 0068 2223     		movs	r3, #34
 2727 006a 079A     		ldr	r2, [sp, #28]
 2728 006c 2900     		movs	r1, r5
 2729 006e 1370     		strb	r3, [r2]
 2730 0070 2300     		movs	r3, r4
 2731 0072 4233     		adds	r3, r3, #66
 2732 0074 0793     		str	r3, [sp, #28]
 2733 0076 4023     		movs	r3, #64
 2734 0078 079A     		ldr	r2, [sp, #28]
 2735 007a 1370     		strb	r3, [r2]
 2736 007c 059B     		ldr	r3, [sp, #20]
 2737 007e 6064     		str	r0, [r4, #68]
 2738 0080 6362     		str	r3, [r4, #36]
ARM GAS  /tmp/ccdcCb4o.s 			page 48


 2739 0082 069B     		ldr	r3, [sp, #24]
 2740 0084 6063     		str	r0, [r4, #52]
 2741 0086 6385     		strh	r3, [r4, #42]
 2742 0088 039B     		ldr	r3, [sp, #12]
 2743 008a 2000     		movs	r0, r4
 2744 008c 0193     		str	r3, [sp, #4]
 2745 008e 129B     		ldr	r3, [sp, #72]
 2746 0090 089A     		ldr	r2, [sp, #32]
 2747 0092 0093     		str	r3, [sp]
 2748 0094 099B     		ldr	r3, [sp, #36]
 2749 0096 FFF7FEFF 		bl	I2C_RequestMemoryRead
 2750 009a 0028     		cmp	r0, #0
 2751 009c 02D0     		beq	.L355
 2752 009e 049B     		ldr	r3, [sp, #16]
 2753 00a0 1E70     		strb	r6, [r3]
 2754 00a2 C7E7     		b	.L359
 2755              	.L355:
 2756 00a4 628D     		ldrh	r2, [r4, #42]
 2757 00a6 364B     		ldr	r3, .L373
 2758 00a8 FF2A     		cmp	r2, #255
 2759 00aa 59D9     		bls	.L356
 2760 00ac FF22     		movs	r2, #255
 2761 00ae 2285     		strh	r2, [r4, #40]
 2762 00b0 0093     		str	r3, [sp]
 2763 00b2 8023     		movs	r3, #128
 2764 00b4 5B04     		lsls	r3, r3, #17
 2765              	.L371:
 2766 00b6 2900     		movs	r1, r5
 2767 00b8 2000     		movs	r0, r4
 2768 00ba 8026     		movs	r6, #128
 2769 00bc FFF7FEFF 		bl	I2C_TransferConfig
 2770 00c0 FF27     		movs	r7, #255
 2771 00c2 B604     		lsls	r6, r6, #18
 2772              	.L357:
 2773 00c4 039B     		ldr	r3, [sp, #12]
 2774 00c6 0022     		movs	r2, #0
 2775 00c8 0093     		str	r3, [sp]
 2776 00ca 0421     		movs	r1, #4
 2777 00cc 2000     		movs	r0, r4
 2778 00ce 129B     		ldr	r3, [sp, #72]
 2779 00d0 FFF7FEFF 		bl	I2C_WaitOnFlagUntilTimeout
 2780 00d4 0028     		cmp	r0, #0
 2781 00d6 ADD1     		bne	.L359
 2782 00d8 2368     		ldr	r3, [r4]
 2783 00da 626A     		ldr	r2, [r4, #36]
 2784 00dc 5B6A     		ldr	r3, [r3, #36]
 2785 00de 1370     		strb	r3, [r2]
 2786 00e0 636A     		ldr	r3, [r4, #36]
 2787 00e2 228D     		ldrh	r2, [r4, #40]
 2788 00e4 0133     		adds	r3, r3, #1
 2789 00e6 6362     		str	r3, [r4, #36]
 2790 00e8 638D     		ldrh	r3, [r4, #42]
 2791 00ea 013A     		subs	r2, r2, #1
 2792 00ec 013B     		subs	r3, r3, #1
 2793 00ee 9BB2     		uxth	r3, r3
 2794 00f0 6385     		strh	r3, [r4, #42]
 2795 00f2 638D     		ldrh	r3, [r4, #42]
ARM GAS  /tmp/ccdcCb4o.s 			page 49


 2796 00f4 92B2     		uxth	r2, r2
 2797 00f6 2285     		strh	r2, [r4, #40]
 2798 00f8 002B     		cmp	r3, #0
 2799 00fa 17D0     		beq	.L360
 2800 00fc 002A     		cmp	r2, #0
 2801 00fe 15D1     		bne	.L360
 2802 0100 039B     		ldr	r3, [sp, #12]
 2803 0102 8021     		movs	r1, #128
 2804 0104 0093     		str	r3, [sp]
 2805 0106 2000     		movs	r0, r4
 2806 0108 129B     		ldr	r3, [sp, #72]
 2807 010a FFF7FEFF 		bl	I2C_WaitOnFlagUntilTimeout
 2808 010e 0028     		cmp	r0, #0
 2809 0110 00D0     		beq	.LCB3140
 2810 0112 8FE7     		b	.L359	@long jump
 2811              	.LCB3140:
 2812 0114 638D     		ldrh	r3, [r4, #42]
 2813 0116 FF2B     		cmp	r3, #255
 2814 0118 2AD9     		bls	.L361
 2815 011a 8023     		movs	r3, #128
 2816 011c FF22     		movs	r2, #255
 2817 011e 2785     		strh	r7, [r4, #40]
 2818 0120 5B04     		lsls	r3, r3, #17
 2819 0122 0090     		str	r0, [sp]
 2820              	.L372:
 2821 0124 2900     		movs	r1, r5
 2822 0126 2000     		movs	r0, r4
 2823 0128 FFF7FEFF 		bl	I2C_TransferConfig
 2824              	.L360:
 2825 012c 638D     		ldrh	r3, [r4, #42]
 2826 012e 002B     		cmp	r3, #0
 2827 0130 C8D1     		bne	.L357
 2828 0132 2000     		movs	r0, r4
 2829 0134 039A     		ldr	r2, [sp, #12]
 2830 0136 1299     		ldr	r1, [sp, #72]
 2831 0138 FFF7FEFF 		bl	I2C_WaitOnSTOPFlagUntilTimeout
 2832 013c 0028     		cmp	r0, #0
 2833 013e 00D0     		beq	.LCB3166
 2834 0140 78E7     		b	.L359	@long jump
 2835              	.LCB3166:
 2836 0142 2021     		movs	r1, #32
 2837 0144 2368     		ldr	r3, [r4]
 2838 0146 0F4D     		ldr	r5, .L373+4
 2839 0148 D961     		str	r1, [r3, #28]
 2840 014a 5A68     		ldr	r2, [r3, #4]
 2841 014c 2A40     		ands	r2, r5
 2842 014e 5A60     		str	r2, [r3, #4]
 2843 0150 2300     		movs	r3, r4
 2844 0152 4133     		adds	r3, r3, #65
 2845 0154 1970     		strb	r1, [r3]
 2846 0156 079B     		ldr	r3, [sp, #28]
 2847 0158 4034     		adds	r4, r4, #64
 2848 015a 1870     		strb	r0, [r3]
 2849 015c 2070     		strb	r0, [r4]
 2850 015e 6AE7     		b	.L351
 2851              	.L356:
 2852 0160 628D     		ldrh	r2, [r4, #42]
ARM GAS  /tmp/ccdcCb4o.s 			page 50


 2853 0162 92B2     		uxth	r2, r2
 2854 0164 2285     		strh	r2, [r4, #40]
 2855 0166 0093     		str	r3, [sp]
 2856 0168 8023     		movs	r3, #128
 2857 016a D2B2     		uxtb	r2, r2
 2858 016c 9B04     		lsls	r3, r3, #18
 2859 016e A2E7     		b	.L371
 2860              	.L361:
 2861 0170 628D     		ldrh	r2, [r4, #42]
 2862 0172 3300     		movs	r3, r6
 2863 0174 92B2     		uxth	r2, r2
 2864 0176 2285     		strh	r2, [r4, #40]
 2865 0178 D2B2     		uxtb	r2, r2
 2866 017a 0090     		str	r0, [sp]
 2867 017c D2E7     		b	.L372
 2868              	.L374:
 2869 017e C046     		.align	2
 2870              	.L373:
 2871 0180 00240080 		.word	-2147474432
 2872 0184 00E800FE 		.word	-33495040
 2874              		.section	.text.HAL_I2C_Mem_Write_IT,"ax",%progbits
 2875              		.align	1
 2876              		.global	HAL_I2C_Mem_Write_IT
 2877              		.syntax unified
 2878              		.code	16
 2879              		.thumb_func
 2880              		.fpu softvfp
 2882              	HAL_I2C_Mem_Write_IT:
 2883              		@ args = 8, pretend = 0, frame = 24
 2884              		@ frame_needed = 0, uses_anonymous_args = 0
 2885 0000 F0B5     		push	{r4, r5, r6, r7, lr}
 2886 0002 0600     		movs	r6, r0
 2887 0004 89B0     		sub	sp, sp, #36
 2888 0006 0693     		str	r3, [sp, #24]
 2889 0008 0EAB     		add	r3, sp, #56
 2890 000a 80CB     		ldmia	r3!, {r7}
 2891 000c 0391     		str	r1, [sp, #12]
 2892 000e 1B88     		ldrh	r3, [r3]
 2893 0010 0592     		str	r2, [sp, #20]
 2894 0012 0493     		str	r3, [sp, #16]
 2895 0014 4136     		adds	r6, r6, #65
 2896 0016 3378     		ldrb	r3, [r6]
 2897 0018 0400     		movs	r4, r0
 2898 001a 0225     		movs	r5, #2
 2899 001c 202B     		cmp	r3, #32
 2900 001e 08D1     		bne	.L376
 2901 0020 002F     		cmp	r7, #0
 2902 0022 02D0     		beq	.L377
 2903 0024 049B     		ldr	r3, [sp, #16]
 2904 0026 002B     		cmp	r3, #0
 2905 0028 06D1     		bne	.L378
 2906              	.L377:
 2907 002a 8023     		movs	r3, #128
 2908 002c 9B00     		lsls	r3, r3, #2
 2909 002e 6364     		str	r3, [r4, #68]
 2910              	.L388:
 2911 0030 0125     		movs	r5, #1
ARM GAS  /tmp/ccdcCb4o.s 			page 51


 2912              	.L376:
 2913 0032 2800     		movs	r0, r5
 2914 0034 09B0     		add	sp, sp, #36
 2915              		@ sp needed
 2916 0036 F0BD     		pop	{r4, r5, r6, r7, pc}
 2917              	.L378:
 2918 0038 0368     		ldr	r3, [r0]
 2919 003a 0225     		movs	r5, #2
 2920 003c 9A69     		ldr	r2, [r3, #24]
 2921 003e 8023     		movs	r3, #128
 2922 0040 1100     		movs	r1, r2
 2923 0042 1B02     		lsls	r3, r3, #8
 2924 0044 1940     		ands	r1, r3
 2925 0046 0791     		str	r1, [sp, #28]
 2926 0048 1A42     		tst	r2, r3
 2927 004a F2D1     		bne	.L376
 2928 004c 0300     		movs	r3, r0
 2929 004e 4033     		adds	r3, r3, #64
 2930 0050 1A78     		ldrb	r2, [r3]
 2931 0052 012A     		cmp	r2, #1
 2932 0054 EDD0     		beq	.L376
 2933 0056 0122     		movs	r2, #1
 2934 0058 1A70     		strb	r2, [r3]
 2935 005a FFF7FEFF 		bl	HAL_GetTick
 2936 005e 2123     		movs	r3, #33
 2937 0060 3370     		strb	r3, [r6]
 2938 0062 2300     		movs	r3, r4
 2939 0064 4022     		movs	r2, #64
 2940 0066 4233     		adds	r3, r3, #66
 2941 0068 1A70     		strb	r2, [r3]
 2942 006a 079B     		ldr	r3, [sp, #28]
 2943 006c 6762     		str	r7, [r4, #36]
 2944 006e 6364     		str	r3, [r4, #68]
 2945 0070 049B     		ldr	r3, [sp, #16]
 2946 0072 6385     		strh	r3, [r4, #42]
 2947 0074 174B     		ldr	r3, .L389
 2948 0076 E362     		str	r3, [r4, #44]
 2949 0078 174B     		ldr	r3, .L389+4
 2950 007a 6363     		str	r3, [r4, #52]
 2951 007c 638D     		ldrh	r3, [r4, #42]
 2952 007e FF2B     		cmp	r3, #255
 2953 0080 15D8     		bhi	.L384
 2954 0082 8027     		movs	r7, #128
 2955 0084 638D     		ldrh	r3, [r4, #42]
 2956 0086 BF04     		lsls	r7, r7, #18
 2957 0088 9BB2     		uxth	r3, r3
 2958              	.L379:
 2959 008a 2385     		strh	r3, [r4, #40]
 2960 008c 1923     		movs	r3, #25
 2961 008e 0190     		str	r0, [sp, #4]
 2962 0090 0093     		str	r3, [sp]
 2963 0092 2000     		movs	r0, r4
 2964 0094 069B     		ldr	r3, [sp, #24]
 2965 0096 059A     		ldr	r2, [sp, #20]
 2966 0098 0399     		ldr	r1, [sp, #12]
 2967 009a FFF7FEFF 		bl	I2C_RequestMemoryWrite
 2968 009e 2600     		movs	r6, r4
ARM GAS  /tmp/ccdcCb4o.s 			page 52


 2969 00a0 0500     		movs	r5, r0
 2970 00a2 4036     		adds	r6, r6, #64
 2971 00a4 0028     		cmp	r0, #0
 2972 00a6 06D0     		beq	.L380
 2973 00a8 0023     		movs	r3, #0
 2974 00aa 3370     		strb	r3, [r6]
 2975 00ac C0E7     		b	.L388
 2976              	.L384:
 2977 00ae 8027     		movs	r7, #128
 2978 00b0 FF23     		movs	r3, #255
 2979 00b2 7F04     		lsls	r7, r7, #17
 2980 00b4 E9E7     		b	.L379
 2981              	.L380:
 2982 00b6 228D     		ldrh	r2, [r4, #40]
 2983 00b8 0399     		ldr	r1, [sp, #12]
 2984 00ba 0090     		str	r0, [sp]
 2985 00bc 3B00     		movs	r3, r7
 2986 00be 2000     		movs	r0, r4
 2987 00c0 D2B2     		uxtb	r2, r2
 2988 00c2 FFF7FEFF 		bl	I2C_TransferConfig
 2989 00c6 0121     		movs	r1, #1
 2990 00c8 2000     		movs	r0, r4
 2991 00ca 3570     		strb	r5, [r6]
 2992 00cc FFF7FEFF 		bl	I2C_Enable_IRQ
 2993 00d0 AFE7     		b	.L376
 2994              	.L390:
 2995 00d2 C046     		.align	2
 2996              	.L389:
 2997 00d4 0000FFFF 		.word	-65536
 2998 00d8 00000000 		.word	I2C_Master_ISR_IT
 3000              		.section	.text.HAL_I2C_Mem_Read_IT,"ax",%progbits
 3001              		.align	1
 3002              		.global	HAL_I2C_Mem_Read_IT
 3003              		.syntax unified
 3004              		.code	16
 3005              		.thumb_func
 3006              		.fpu softvfp
 3008              	HAL_I2C_Mem_Read_IT:
 3009              		@ args = 8, pretend = 0, frame = 24
 3010              		@ frame_needed = 0, uses_anonymous_args = 0
 3011 0000 F0B5     		push	{r4, r5, r6, r7, lr}
 3012 0002 0600     		movs	r6, r0
 3013 0004 89B0     		sub	sp, sp, #36
 3014 0006 0693     		str	r3, [sp, #24]
 3015 0008 0EAB     		add	r3, sp, #56
 3016 000a 80CB     		ldmia	r3!, {r7}
 3017 000c 0391     		str	r1, [sp, #12]
 3018 000e 1B88     		ldrh	r3, [r3]
 3019 0010 0592     		str	r2, [sp, #20]
 3020 0012 0493     		str	r3, [sp, #16]
 3021 0014 4136     		adds	r6, r6, #65
 3022 0016 3378     		ldrb	r3, [r6]
 3023 0018 0400     		movs	r4, r0
 3024 001a 0225     		movs	r5, #2
 3025 001c 202B     		cmp	r3, #32
 3026 001e 08D1     		bne	.L392
 3027 0020 002F     		cmp	r7, #0
ARM GAS  /tmp/ccdcCb4o.s 			page 53


 3028 0022 02D0     		beq	.L393
 3029 0024 049B     		ldr	r3, [sp, #16]
 3030 0026 002B     		cmp	r3, #0
 3031 0028 06D1     		bne	.L394
 3032              	.L393:
 3033 002a 8023     		movs	r3, #128
 3034 002c 9B00     		lsls	r3, r3, #2
 3035 002e 6364     		str	r3, [r4, #68]
 3036              	.L404:
 3037 0030 0125     		movs	r5, #1
 3038              	.L392:
 3039 0032 2800     		movs	r0, r5
 3040 0034 09B0     		add	sp, sp, #36
 3041              		@ sp needed
 3042 0036 F0BD     		pop	{r4, r5, r6, r7, pc}
 3043              	.L394:
 3044 0038 0368     		ldr	r3, [r0]
 3045 003a 0225     		movs	r5, #2
 3046 003c 9A69     		ldr	r2, [r3, #24]
 3047 003e 8023     		movs	r3, #128
 3048 0040 1100     		movs	r1, r2
 3049 0042 1B02     		lsls	r3, r3, #8
 3050 0044 1940     		ands	r1, r3
 3051 0046 0791     		str	r1, [sp, #28]
 3052 0048 1A42     		tst	r2, r3
 3053 004a F2D1     		bne	.L392
 3054 004c 0300     		movs	r3, r0
 3055 004e 4033     		adds	r3, r3, #64
 3056 0050 1A78     		ldrb	r2, [r3]
 3057 0052 012A     		cmp	r2, #1
 3058 0054 EDD0     		beq	.L392
 3059 0056 0122     		movs	r2, #1
 3060 0058 1A70     		strb	r2, [r3]
 3061 005a FFF7FEFF 		bl	HAL_GetTick
 3062 005e 2223     		movs	r3, #34
 3063 0060 3370     		strb	r3, [r6]
 3064 0062 2300     		movs	r3, r4
 3065 0064 4022     		movs	r2, #64
 3066 0066 4233     		adds	r3, r3, #66
 3067 0068 1A70     		strb	r2, [r3]
 3068 006a 079B     		ldr	r3, [sp, #28]
 3069 006c 6762     		str	r7, [r4, #36]
 3070 006e 6364     		str	r3, [r4, #68]
 3071 0070 049B     		ldr	r3, [sp, #16]
 3072 0072 6385     		strh	r3, [r4, #42]
 3073 0074 174B     		ldr	r3, .L405
 3074 0076 E362     		str	r3, [r4, #44]
 3075 0078 174B     		ldr	r3, .L405+4
 3076 007a 6363     		str	r3, [r4, #52]
 3077 007c 638D     		ldrh	r3, [r4, #42]
 3078 007e FF2B     		cmp	r3, #255
 3079 0080 15D8     		bhi	.L400
 3080 0082 8027     		movs	r7, #128
 3081 0084 638D     		ldrh	r3, [r4, #42]
 3082 0086 BF04     		lsls	r7, r7, #18
 3083 0088 9BB2     		uxth	r3, r3
 3084              	.L395:
ARM GAS  /tmp/ccdcCb4o.s 			page 54


 3085 008a 2385     		strh	r3, [r4, #40]
 3086 008c 1923     		movs	r3, #25
 3087 008e 0190     		str	r0, [sp, #4]
 3088 0090 0093     		str	r3, [sp]
 3089 0092 2000     		movs	r0, r4
 3090 0094 069B     		ldr	r3, [sp, #24]
 3091 0096 059A     		ldr	r2, [sp, #20]
 3092 0098 0399     		ldr	r1, [sp, #12]
 3093 009a FFF7FEFF 		bl	I2C_RequestMemoryRead
 3094 009e 2600     		movs	r6, r4
 3095 00a0 0500     		movs	r5, r0
 3096 00a2 4036     		adds	r6, r6, #64
 3097 00a4 0028     		cmp	r0, #0
 3098 00a6 06D0     		beq	.L396
 3099 00a8 0023     		movs	r3, #0
 3100 00aa 3370     		strb	r3, [r6]
 3101 00ac C0E7     		b	.L404
 3102              	.L400:
 3103 00ae 8027     		movs	r7, #128
 3104 00b0 FF23     		movs	r3, #255
 3105 00b2 7F04     		lsls	r7, r7, #17
 3106 00b4 E9E7     		b	.L395
 3107              	.L396:
 3108 00b6 228D     		ldrh	r2, [r4, #40]
 3109 00b8 084B     		ldr	r3, .L405+8
 3110 00ba 2000     		movs	r0, r4
 3111 00bc 0399     		ldr	r1, [sp, #12]
 3112 00be 0093     		str	r3, [sp]
 3113 00c0 D2B2     		uxtb	r2, r2
 3114 00c2 3B00     		movs	r3, r7
 3115 00c4 FFF7FEFF 		bl	I2C_TransferConfig
 3116 00c8 0221     		movs	r1, #2
 3117 00ca 2000     		movs	r0, r4
 3118 00cc 3570     		strb	r5, [r6]
 3119 00ce FFF7FEFF 		bl	I2C_Enable_IRQ
 3120 00d2 AEE7     		b	.L392
 3121              	.L406:
 3122              		.align	2
 3123              	.L405:
 3124 00d4 0000FFFF 		.word	-65536
 3125 00d8 00000000 		.word	I2C_Master_ISR_IT
 3126 00dc 00240080 		.word	-2147474432
 3128              		.section	.text.HAL_I2C_Mem_Write_DMA,"ax",%progbits
 3129              		.align	1
 3130              		.global	HAL_I2C_Mem_Write_DMA
 3131              		.syntax unified
 3132              		.code	16
 3133              		.thumb_func
 3134              		.fpu softvfp
 3136              	HAL_I2C_Mem_Write_DMA:
 3137              		@ args = 8, pretend = 0, frame = 24
 3138              		@ frame_needed = 0, uses_anonymous_args = 0
 3139 0000 F0B5     		push	{r4, r5, r6, r7, lr}
 3140 0002 0600     		movs	r6, r0
 3141 0004 89B0     		sub	sp, sp, #36
 3142 0006 0793     		str	r3, [sp, #28]
 3143 0008 0EAB     		add	r3, sp, #56
ARM GAS  /tmp/ccdcCb4o.s 			page 55


 3144 000a 0692     		str	r2, [sp, #24]
 3145 000c 04CB     		ldmia	r3!, {r2}
 3146 000e 0591     		str	r1, [sp, #20]
 3147 0010 0292     		str	r2, [sp, #8]
 3148 0012 4136     		adds	r6, r6, #65
 3149 0014 1F88     		ldrh	r7, [r3]
 3150 0016 3378     		ldrb	r3, [r6]
 3151 0018 0400     		movs	r4, r0
 3152 001a 0225     		movs	r5, #2
 3153 001c 202B     		cmp	r3, #32
 3154 001e 73D1     		bne	.L408
 3155 0020 002A     		cmp	r2, #0
 3156 0022 01D0     		beq	.L409
 3157 0024 002F     		cmp	r7, #0
 3158 0026 04D1     		bne	.L410
 3159              	.L409:
 3160 0028 8023     		movs	r3, #128
 3161 002a 9B00     		lsls	r3, r3, #2
 3162 002c 6364     		str	r3, [r4, #68]
 3163              	.L425:
 3164 002e 0125     		movs	r5, #1
 3165 0030 6AE0     		b	.L408
 3166              	.L410:
 3167 0032 0368     		ldr	r3, [r0]
 3168 0034 0225     		movs	r5, #2
 3169 0036 9A69     		ldr	r2, [r3, #24]
 3170 0038 8023     		movs	r3, #128
 3171 003a 1100     		movs	r1, r2
 3172 003c 1B02     		lsls	r3, r3, #8
 3173 003e 1940     		ands	r1, r3
 3174 0040 0491     		str	r1, [sp, #16]
 3175 0042 1A42     		tst	r2, r3
 3176 0044 60D1     		bne	.L408
 3177 0046 0300     		movs	r3, r0
 3178 0048 4033     		adds	r3, r3, #64
 3179 004a 1A78     		ldrb	r2, [r3]
 3180 004c 012A     		cmp	r2, #1
 3181 004e 5BD0     		beq	.L408
 3182 0050 0122     		movs	r2, #1
 3183 0052 1A70     		strb	r2, [r3]
 3184 0054 FFF7FEFF 		bl	HAL_GetTick
 3185 0058 2123     		movs	r3, #33
 3186 005a 3370     		strb	r3, [r6]
 3187 005c 2300     		movs	r3, r4
 3188 005e 4233     		adds	r3, r3, #66
 3189 0060 0393     		str	r3, [sp, #12]
 3190 0062 4023     		movs	r3, #64
 3191 0064 039A     		ldr	r2, [sp, #12]
 3192 0066 1370     		strb	r3, [r2]
 3193 0068 049B     		ldr	r3, [sp, #16]
 3194 006a 6364     		str	r3, [r4, #68]
 3195 006c 029B     		ldr	r3, [sp, #8]
 3196 006e 6785     		strh	r7, [r4, #42]
 3197 0070 6362     		str	r3, [r4, #36]
 3198 0072 334B     		ldr	r3, .L426
 3199 0074 E362     		str	r3, [r4, #44]
 3200 0076 334B     		ldr	r3, .L426+4
ARM GAS  /tmp/ccdcCb4o.s 			page 56


 3201 0078 6363     		str	r3, [r4, #52]
 3202 007a 638D     		ldrh	r3, [r4, #42]
 3203 007c FF2B     		cmp	r3, #255
 3204 007e 16D8     		bhi	.L419
 3205 0080 8022     		movs	r2, #128
 3206 0082 638D     		ldrh	r3, [r4, #42]
 3207 0084 9204     		lsls	r2, r2, #18
 3208 0086 9BB2     		uxth	r3, r3
 3209              	.L424:
 3210 0088 2385     		strh	r3, [r4, #40]
 3211 008a 1923     		movs	r3, #25
 3212 008c 0492     		str	r2, [sp, #16]
 3213 008e 0190     		str	r0, [sp, #4]
 3214 0090 0093     		str	r3, [sp]
 3215 0092 2000     		movs	r0, r4
 3216 0094 079B     		ldr	r3, [sp, #28]
 3217 0096 069A     		ldr	r2, [sp, #24]
 3218 0098 0599     		ldr	r1, [sp, #20]
 3219 009a FFF7FEFF 		bl	I2C_RequestMemoryWrite
 3220 009e 2700     		movs	r7, r4
 3221 00a0 0600     		movs	r6, r0
 3222 00a2 4037     		adds	r7, r7, #64
 3223 00a4 0028     		cmp	r0, #0
 3224 00a6 06D0     		beq	.L412
 3225 00a8 0023     		movs	r3, #0
 3226 00aa 3B70     		strb	r3, [r7]
 3227 00ac BFE7     		b	.L425
 3228              	.L419:
 3229 00ae 8022     		movs	r2, #128
 3230 00b0 FF23     		movs	r3, #255
 3231 00b2 5204     		lsls	r2, r2, #17
 3232 00b4 E8E7     		b	.L424
 3233              	.L412:
 3234 00b6 A06B     		ldr	r0, [r4, #56]
 3235 00b8 0028     		cmp	r0, #0
 3236 00ba 28D0     		beq	.L413
 3237 00bc 224B     		ldr	r3, .L426+8
 3238 00be 2268     		ldr	r2, [r4]
 3239 00c0 C362     		str	r3, [r0, #44]
 3240 00c2 224B     		ldr	r3, .L426+12
 3241 00c4 0663     		str	r6, [r0, #48]
 3242 00c6 4363     		str	r3, [r0, #52]
 3243 00c8 8663     		str	r6, [r0, #56]
 3244 00ca 238D     		ldrh	r3, [r4, #40]
 3245 00cc 0299     		ldr	r1, [sp, #8]
 3246 00ce 2832     		adds	r2, r2, #40
 3247 00d0 FFF7FEFF 		bl	HAL_DMA_Start_IT
 3248 00d4 051E     		subs	r5, r0, #0
 3249 00d6 26D1     		bne	.L423
 3250 00d8 228D     		ldrh	r2, [r4, #40]
 3251 00da 049B     		ldr	r3, [sp, #16]
 3252 00dc 0599     		ldr	r1, [sp, #20]
 3253 00de D2B2     		uxtb	r2, r2
 3254 00e0 0090     		str	r0, [sp]
 3255 00e2 2000     		movs	r0, r4
 3256 00e4 FFF7FEFF 		bl	I2C_TransferConfig
 3257 00e8 638D     		ldrh	r3, [r4, #42]
ARM GAS  /tmp/ccdcCb4o.s 			page 57


 3258 00ea 228D     		ldrh	r2, [r4, #40]
 3259 00ec 1021     		movs	r1, #16
 3260 00ee 9B1A     		subs	r3, r3, r2
 3261 00f0 9BB2     		uxth	r3, r3
 3262 00f2 6385     		strh	r3, [r4, #42]
 3263 00f4 2000     		movs	r0, r4
 3264 00f6 3D70     		strb	r5, [r7]
 3265 00f8 FFF7FEFF 		bl	I2C_Enable_IRQ
 3266 00fc 8023     		movs	r3, #128
 3267 00fe 2268     		ldr	r2, [r4]
 3268 0100 DB01     		lsls	r3, r3, #7
 3269 0102 1168     		ldr	r1, [r2]
 3270 0104 0B43     		orrs	r3, r1
 3271 0106 1360     		str	r3, [r2]
 3272              	.L408:
 3273 0108 2800     		movs	r0, r5
 3274 010a 09B0     		add	sp, sp, #36
 3275              		@ sp needed
 3276 010c F0BD     		pop	{r4, r5, r6, r7, pc}
 3277              	.L413:
 3278 010e 2300     		movs	r3, r4
 3279 0110 2022     		movs	r2, #32
 3280 0112 4133     		adds	r3, r3, #65
 3281 0114 1A70     		strb	r2, [r3]
 3282 0116 039B     		ldr	r3, [sp, #12]
 3283 0118 1870     		strb	r0, [r3]
 3284 011a 8023     		movs	r3, #128
 3285 011c 626C     		ldr	r2, [r4, #68]
 3286 011e 1343     		orrs	r3, r2
 3287 0120 6364     		str	r3, [r4, #68]
 3288 0122 3870     		strb	r0, [r7]
 3289 0124 83E7     		b	.L425
 3290              	.L423:
 3291 0126 2300     		movs	r3, r4
 3292 0128 2022     		movs	r2, #32
 3293 012a 4133     		adds	r3, r3, #65
 3294 012c 1A70     		strb	r2, [r3]
 3295 012e 039B     		ldr	r3, [sp, #12]
 3296 0130 1E70     		strb	r6, [r3]
 3297 0132 1023     		movs	r3, #16
 3298 0134 626C     		ldr	r2, [r4, #68]
 3299 0136 1343     		orrs	r3, r2
 3300 0138 6364     		str	r3, [r4, #68]
 3301 013a 3E70     		strb	r6, [r7]
 3302 013c 77E7     		b	.L425
 3303              	.L427:
 3304 013e C046     		.align	2
 3305              	.L426:
 3306 0140 0000FFFF 		.word	-65536
 3307 0144 00000000 		.word	I2C_Master_ISR_DMA
 3308 0148 00000000 		.word	I2C_DMAMasterTransmitCplt
 3309 014c 00000000 		.word	I2C_DMAError
 3311              		.section	.text.HAL_I2C_Mem_Read_DMA,"ax",%progbits
 3312              		.align	1
 3313              		.global	HAL_I2C_Mem_Read_DMA
 3314              		.syntax unified
 3315              		.code	16
ARM GAS  /tmp/ccdcCb4o.s 			page 58


 3316              		.thumb_func
 3317              		.fpu softvfp
 3319              	HAL_I2C_Mem_Read_DMA:
 3320              		@ args = 8, pretend = 0, frame = 24
 3321              		@ frame_needed = 0, uses_anonymous_args = 0
 3322 0000 F0B5     		push	{r4, r5, r6, r7, lr}
 3323 0002 0600     		movs	r6, r0
 3324 0004 89B0     		sub	sp, sp, #36
 3325 0006 0793     		str	r3, [sp, #28]
 3326 0008 0EAB     		add	r3, sp, #56
 3327 000a 0692     		str	r2, [sp, #24]
 3328 000c 04CB     		ldmia	r3!, {r2}
 3329 000e 0591     		str	r1, [sp, #20]
 3330 0010 0292     		str	r2, [sp, #8]
 3331 0012 4136     		adds	r6, r6, #65
 3332 0014 1F88     		ldrh	r7, [r3]
 3333 0016 3378     		ldrb	r3, [r6]
 3334 0018 0400     		movs	r4, r0
 3335 001a 0225     		movs	r5, #2
 3336 001c 202B     		cmp	r3, #32
 3337 001e 74D1     		bne	.L429
 3338 0020 002A     		cmp	r2, #0
 3339 0022 01D0     		beq	.L430
 3340 0024 002F     		cmp	r7, #0
 3341 0026 04D1     		bne	.L431
 3342              	.L430:
 3343 0028 8023     		movs	r3, #128
 3344 002a 9B00     		lsls	r3, r3, #2
 3345 002c 6364     		str	r3, [r4, #68]
 3346              	.L446:
 3347 002e 0125     		movs	r5, #1
 3348 0030 6BE0     		b	.L429
 3349              	.L431:
 3350 0032 0368     		ldr	r3, [r0]
 3351 0034 0225     		movs	r5, #2
 3352 0036 9A69     		ldr	r2, [r3, #24]
 3353 0038 8023     		movs	r3, #128
 3354 003a 1100     		movs	r1, r2
 3355 003c 1B02     		lsls	r3, r3, #8
 3356 003e 1940     		ands	r1, r3
 3357 0040 0491     		str	r1, [sp, #16]
 3358 0042 1A42     		tst	r2, r3
 3359 0044 61D1     		bne	.L429
 3360 0046 0300     		movs	r3, r0
 3361 0048 4033     		adds	r3, r3, #64
 3362 004a 1A78     		ldrb	r2, [r3]
 3363 004c 012A     		cmp	r2, #1
 3364 004e 5CD0     		beq	.L429
 3365 0050 0122     		movs	r2, #1
 3366 0052 1A70     		strb	r2, [r3]
 3367 0054 FFF7FEFF 		bl	HAL_GetTick
 3368 0058 2223     		movs	r3, #34
 3369 005a 3370     		strb	r3, [r6]
 3370 005c 2300     		movs	r3, r4
 3371 005e 4233     		adds	r3, r3, #66
 3372 0060 0393     		str	r3, [sp, #12]
 3373 0062 4023     		movs	r3, #64
ARM GAS  /tmp/ccdcCb4o.s 			page 59


 3374 0064 039A     		ldr	r2, [sp, #12]
 3375 0066 1370     		strb	r3, [r2]
 3376 0068 049B     		ldr	r3, [sp, #16]
 3377 006a 6364     		str	r3, [r4, #68]
 3378 006c 029B     		ldr	r3, [sp, #8]
 3379 006e 6785     		strh	r7, [r4, #42]
 3380 0070 6362     		str	r3, [r4, #36]
 3381 0072 334B     		ldr	r3, .L447
 3382 0074 E362     		str	r3, [r4, #44]
 3383 0076 334B     		ldr	r3, .L447+4
 3384 0078 6363     		str	r3, [r4, #52]
 3385 007a 638D     		ldrh	r3, [r4, #42]
 3386 007c FF2B     		cmp	r3, #255
 3387 007e 16D8     		bhi	.L440
 3388 0080 8022     		movs	r2, #128
 3389 0082 638D     		ldrh	r3, [r4, #42]
 3390 0084 9204     		lsls	r2, r2, #18
 3391 0086 9BB2     		uxth	r3, r3
 3392              	.L445:
 3393 0088 2385     		strh	r3, [r4, #40]
 3394 008a 1923     		movs	r3, #25
 3395 008c 0492     		str	r2, [sp, #16]
 3396 008e 0190     		str	r0, [sp, #4]
 3397 0090 0093     		str	r3, [sp]
 3398 0092 2000     		movs	r0, r4
 3399 0094 079B     		ldr	r3, [sp, #28]
 3400 0096 069A     		ldr	r2, [sp, #24]
 3401 0098 0599     		ldr	r1, [sp, #20]
 3402 009a FFF7FEFF 		bl	I2C_RequestMemoryRead
 3403 009e 2700     		movs	r7, r4
 3404 00a0 0600     		movs	r6, r0
 3405 00a2 4037     		adds	r7, r7, #64
 3406 00a4 0028     		cmp	r0, #0
 3407 00a6 06D0     		beq	.L433
 3408 00a8 0023     		movs	r3, #0
 3409 00aa 3B70     		strb	r3, [r7]
 3410 00ac BFE7     		b	.L446
 3411              	.L440:
 3412 00ae 8022     		movs	r2, #128
 3413 00b0 FF23     		movs	r3, #255
 3414 00b2 5204     		lsls	r2, r2, #17
 3415 00b4 E8E7     		b	.L445
 3416              	.L433:
 3417 00b6 E06B     		ldr	r0, [r4, #60]
 3418 00b8 0028     		cmp	r0, #0
 3419 00ba 29D0     		beq	.L434
 3420 00bc 224B     		ldr	r3, .L447+8
 3421 00be 2168     		ldr	r1, [r4]
 3422 00c0 C362     		str	r3, [r0, #44]
 3423 00c2 224B     		ldr	r3, .L447+12
 3424 00c4 0663     		str	r6, [r0, #48]
 3425 00c6 4363     		str	r3, [r0, #52]
 3426 00c8 8663     		str	r6, [r0, #56]
 3427 00ca 238D     		ldrh	r3, [r4, #40]
 3428 00cc 029A     		ldr	r2, [sp, #8]
 3429 00ce 2431     		adds	r1, r1, #36
 3430 00d0 FFF7FEFF 		bl	HAL_DMA_Start_IT
ARM GAS  /tmp/ccdcCb4o.s 			page 60


 3431 00d4 051E     		subs	r5, r0, #0
 3432 00d6 27D1     		bne	.L444
 3433 00d8 228D     		ldrh	r2, [r4, #40]
 3434 00da 1D4B     		ldr	r3, .L447+16
 3435 00dc 2000     		movs	r0, r4
 3436 00de 0599     		ldr	r1, [sp, #20]
 3437 00e0 D2B2     		uxtb	r2, r2
 3438 00e2 0093     		str	r3, [sp]
 3439 00e4 049B     		ldr	r3, [sp, #16]
 3440 00e6 FFF7FEFF 		bl	I2C_TransferConfig
 3441 00ea 638D     		ldrh	r3, [r4, #42]
 3442 00ec 228D     		ldrh	r2, [r4, #40]
 3443 00ee 1021     		movs	r1, #16
 3444 00f0 9B1A     		subs	r3, r3, r2
 3445 00f2 9BB2     		uxth	r3, r3
 3446 00f4 6385     		strh	r3, [r4, #42]
 3447 00f6 2000     		movs	r0, r4
 3448 00f8 3D70     		strb	r5, [r7]
 3449 00fa FFF7FEFF 		bl	I2C_Enable_IRQ
 3450 00fe 8023     		movs	r3, #128
 3451 0100 2268     		ldr	r2, [r4]
 3452 0102 1B02     		lsls	r3, r3, #8
 3453 0104 1168     		ldr	r1, [r2]
 3454 0106 0B43     		orrs	r3, r1
 3455 0108 1360     		str	r3, [r2]
 3456              	.L429:
 3457 010a 2800     		movs	r0, r5
 3458 010c 09B0     		add	sp, sp, #36
 3459              		@ sp needed
 3460 010e F0BD     		pop	{r4, r5, r6, r7, pc}
 3461              	.L434:
 3462 0110 2300     		movs	r3, r4
 3463 0112 2022     		movs	r2, #32
 3464 0114 4133     		adds	r3, r3, #65
 3465 0116 1A70     		strb	r2, [r3]
 3466 0118 039B     		ldr	r3, [sp, #12]
 3467 011a 1870     		strb	r0, [r3]
 3468 011c 8023     		movs	r3, #128
 3469 011e 626C     		ldr	r2, [r4, #68]
 3470 0120 1343     		orrs	r3, r2
 3471 0122 6364     		str	r3, [r4, #68]
 3472 0124 3870     		strb	r0, [r7]
 3473 0126 82E7     		b	.L446
 3474              	.L444:
 3475 0128 2300     		movs	r3, r4
 3476 012a 2022     		movs	r2, #32
 3477 012c 4133     		adds	r3, r3, #65
 3478 012e 1A70     		strb	r2, [r3]
 3479 0130 039B     		ldr	r3, [sp, #12]
 3480 0132 1E70     		strb	r6, [r3]
 3481 0134 1023     		movs	r3, #16
 3482 0136 626C     		ldr	r2, [r4, #68]
 3483 0138 1343     		orrs	r3, r2
 3484 013a 6364     		str	r3, [r4, #68]
 3485 013c 3E70     		strb	r6, [r7]
 3486 013e 76E7     		b	.L446
 3487              	.L448:
ARM GAS  /tmp/ccdcCb4o.s 			page 61


 3488              		.align	2
 3489              	.L447:
 3490 0140 0000FFFF 		.word	-65536
 3491 0144 00000000 		.word	I2C_Master_ISR_DMA
 3492 0148 00000000 		.word	I2C_DMAMasterReceiveCplt
 3493 014c 00000000 		.word	I2C_DMAError
 3494 0150 00240080 		.word	-2147474432
 3496              		.section	.text.HAL_I2C_IsDeviceReady,"ax",%progbits
 3497              		.align	1
 3498              		.global	HAL_I2C_IsDeviceReady
 3499              		.syntax unified
 3500              		.code	16
 3501              		.thumb_func
 3502              		.fpu softvfp
 3504              	HAL_I2C_IsDeviceReady:
 3505              		@ args = 0, pretend = 0, frame = 24
 3506              		@ frame_needed = 0, uses_anonymous_args = 0
 3507 0000 F0B5     		push	{r4, r5, r6, r7, lr}
 3508 0002 1E00     		movs	r6, r3
 3509 0004 0023     		movs	r3, #0
 3510 0006 89B0     		sub	sp, sp, #36
 3511 0008 0793     		str	r3, [sp, #28]
 3512 000a 0300     		movs	r3, r0
 3513 000c 0592     		str	r2, [sp, #20]
 3514 000e 4133     		adds	r3, r3, #65
 3515 0010 1A78     		ldrb	r2, [r3]
 3516 0012 0400     		movs	r4, r0
 3517 0014 0225     		movs	r5, #2
 3518 0016 202A     		cmp	r2, #32
 3519 0018 5BD1     		bne	.L450
 3520 001a 0268     		ldr	r2, [r0]
 3521 001c 9769     		ldr	r7, [r2, #24]
 3522 001e 8022     		movs	r2, #128
 3523 0020 3800     		movs	r0, r7
 3524 0022 1202     		lsls	r2, r2, #8
 3525 0024 1040     		ands	r0, r2
 3526 0026 1742     		tst	r7, r2
 3527 0028 53D1     		bne	.L450
 3528 002a 2200     		movs	r2, r4
 3529 002c 4032     		adds	r2, r2, #64
 3530 002e 1778     		ldrb	r7, [r2]
 3531 0030 012F     		cmp	r7, #1
 3532 0032 4ED0     		beq	.L450
 3533 0034 013D     		subs	r5, r5, #1
 3534 0036 1570     		strb	r5, [r2]
 3535 0038 2422     		movs	r2, #36
 3536 003a 8905     		lsls	r1, r1, #22
 3537 003c 1A70     		strb	r2, [r3]
 3538 003e 8B0D     		lsrs	r3, r1, #22
 3539 0040 6064     		str	r0, [r4, #68]
 3540 0042 0493     		str	r3, [sp, #16]
 3541              	.L461:
 3542 0044 E368     		ldr	r3, [r4, #12]
 3543 0046 012B     		cmp	r3, #1
 3544 0048 2BD1     		bne	.L451
 3545 004a 3E4B     		ldr	r3, .L470
 3546              	.L469:
ARM GAS  /tmp/ccdcCb4o.s 			page 62


 3547 004c 049A     		ldr	r2, [sp, #16]
 3548 004e 1343     		orrs	r3, r2
 3549 0050 2268     		ldr	r2, [r4]
 3550 0052 5360     		str	r3, [r2, #4]
 3551 0054 FFF7FEFF 		bl	HAL_GetTick
 3552 0058 0390     		str	r0, [sp, #12]
 3553              	.L454:
 3554 005a 0122     		movs	r2, #1
 3555 005c 2368     		ldr	r3, [r4]
 3556 005e 9D69     		ldr	r5, [r3, #24]
 3557 0060 9B69     		ldr	r3, [r3, #24]
 3558 0062 6D09     		lsrs	r5, r5, #5
 3559 0064 1B09     		lsrs	r3, r3, #4
 3560 0066 1540     		ands	r5, r2
 3561 0068 1340     		ands	r3, r2
 3562 006a 1D43     		orrs	r5, r3
 3563 006c 1CD0     		beq	.L456
 3564 006e 2368     		ldr	r3, [r4]
 3565 0070 1027     		movs	r7, #16
 3566 0072 9B69     		ldr	r3, [r3, #24]
 3567 0074 1A00     		movs	r2, r3
 3568 0076 3A40     		ands	r2, r7
 3569 0078 3B42     		tst	r3, r7
 3570 007a 2DD1     		bne	.L457
 3571 007c 039B     		ldr	r3, [sp, #12]
 3572 007e 2021     		movs	r1, #32
 3573 0080 0093     		str	r3, [sp]
 3574 0082 2000     		movs	r0, r4
 3575 0084 3300     		movs	r3, r6
 3576 0086 FFF7FEFF 		bl	I2C_WaitOnFlagUntilTimeout
 3577 008a 0028     		cmp	r0, #0
 3578 008c 21D1     		bne	.L450
 3579 008e 2023     		movs	r3, #32
 3580 0090 2268     		ldr	r2, [r4]
 3581 0092 0500     		movs	r5, r0
 3582 0094 D361     		str	r3, [r2, #28]
 3583 0096 2200     		movs	r2, r4
 3584 0098 4034     		adds	r4, r4, #64
 3585 009a 4132     		adds	r2, r2, #65
 3586 009c 1370     		strb	r3, [r2]
 3587 009e 2070     		strb	r0, [r4]
 3588 00a0 17E0     		b	.L450
 3589              	.L451:
 3590 00a2 A023     		movs	r3, #160
 3591 00a4 9B01     		lsls	r3, r3, #6
 3592 00a6 D1E7     		b	.L469
 3593              	.L456:
 3594 00a8 731C     		adds	r3, r6, #1
 3595 00aa D6D0     		beq	.L454
 3596 00ac FFF7FEFF 		bl	HAL_GetTick
 3597 00b0 039B     		ldr	r3, [sp, #12]
 3598 00b2 C01A     		subs	r0, r0, r3
 3599 00b4 B042     		cmp	r0, r6
 3600 00b6 01D8     		bhi	.L455
 3601 00b8 002E     		cmp	r6, #0
 3602 00ba CED1     		bne	.L454
 3603              	.L455:
ARM GAS  /tmp/ccdcCb4o.s 			page 63


 3604 00bc 2200     		movs	r2, r4
 3605 00be 2023     		movs	r3, #32
 3606 00c0 4132     		adds	r2, r2, #65
 3607 00c2 1370     		strb	r3, [r2]
 3608 00c4 626C     		ldr	r2, [r4, #68]
 3609 00c6 0125     		movs	r5, #1
 3610 00c8 1343     		orrs	r3, r2
 3611 00ca 6364     		str	r3, [r4, #68]
 3612 00cc 0023     		movs	r3, #0
 3613 00ce 4034     		adds	r4, r4, #64
 3614 00d0 2370     		strb	r3, [r4]
 3615              	.L450:
 3616 00d2 2800     		movs	r0, r5
 3617 00d4 09B0     		add	sp, sp, #36
 3618              		@ sp needed
 3619 00d6 F0BD     		pop	{r4, r5, r6, r7, pc}
 3620              	.L457:
 3621 00d8 039B     		ldr	r3, [sp, #12]
 3622 00da 0022     		movs	r2, #0
 3623 00dc 0093     		str	r3, [sp]
 3624 00de 2021     		movs	r1, #32
 3625 00e0 3300     		movs	r3, r6
 3626 00e2 2000     		movs	r0, r4
 3627 00e4 FFF7FEFF 		bl	I2C_WaitOnFlagUntilTimeout
 3628 00e8 021E     		subs	r2, r0, #0
 3629 00ea F2D1     		bne	.L450
 3630 00ec 2368     		ldr	r3, [r4]
 3631 00ee 0598     		ldr	r0, [sp, #20]
 3632 00f0 DF61     		str	r7, [r3, #28]
 3633 00f2 2027     		movs	r7, #32
 3634 00f4 DF61     		str	r7, [r3, #28]
 3635 00f6 0799     		ldr	r1, [sp, #28]
 3636 00f8 8142     		cmp	r1, r0
 3637 00fa 0FD1     		bne	.L460
 3638 00fc 8021     		movs	r1, #128
 3639 00fe 5868     		ldr	r0, [r3, #4]
 3640 0100 C901     		lsls	r1, r1, #7
 3641 0102 0143     		orrs	r1, r0
 3642 0104 5960     		str	r1, [r3, #4]
 3643 0106 039B     		ldr	r3, [sp, #12]
 3644 0108 3900     		movs	r1, r7
 3645 010a 0093     		str	r3, [sp]
 3646 010c 2000     		movs	r0, r4
 3647 010e 3300     		movs	r3, r6
 3648 0110 FFF7FEFF 		bl	I2C_WaitOnFlagUntilTimeout
 3649 0114 0028     		cmp	r0, #0
 3650 0116 DCD1     		bne	.L450
 3651 0118 2368     		ldr	r3, [r4]
 3652 011a DF61     		str	r7, [r3, #28]
 3653              	.L460:
 3654 011c 079B     		ldr	r3, [sp, #28]
 3655 011e 059A     		ldr	r2, [sp, #20]
 3656 0120 0133     		adds	r3, r3, #1
 3657 0122 0793     		str	r3, [sp, #28]
 3658 0124 079B     		ldr	r3, [sp, #28]
 3659 0126 9342     		cmp	r3, r2
 3660 0128 00D2     		bcs	.LCB4092
ARM GAS  /tmp/ccdcCb4o.s 			page 64


 3661 012a 8BE7     		b	.L461	@long jump
 3662              	.LCB4092:
 3663 012c 2200     		movs	r2, r4
 3664 012e 2023     		movs	r3, #32
 3665 0130 4132     		adds	r2, r2, #65
 3666 0132 1370     		strb	r3, [r2]
 3667 0134 626C     		ldr	r2, [r4, #68]
 3668 0136 4034     		adds	r4, r4, #64
 3669 0138 1343     		orrs	r3, r2
 3670 013a 6360     		str	r3, [r4, #4]
 3671 013c 0023     		movs	r3, #0
 3672 013e 2370     		strb	r3, [r4]
 3673 0140 C7E7     		b	.L450
 3674              	.L471:
 3675 0142 C046     		.align	2
 3676              	.L470:
 3677 0144 00200002 		.word	33562624
 3679              		.section	.text.HAL_I2C_Master_Seq_Transmit_IT,"ax",%progbits
 3680              		.align	1
 3681              		.global	HAL_I2C_Master_Seq_Transmit_IT
 3682              		.syntax unified
 3683              		.code	16
 3684              		.thumb_func
 3685              		.fpu softvfp
 3687              	HAL_I2C_Master_Seq_Transmit_IT:
 3688              		@ args = 4, pretend = 0, frame = 8
 3689              		@ frame_needed = 0, uses_anonymous_args = 0
 3690 0000 F0B5     		push	{r4, r5, r6, r7, lr}
 3691 0002 0700     		movs	r7, r0
 3692 0004 85B0     		sub	sp, sp, #20
 3693 0006 0393     		str	r3, [sp, #12]
 3694 0008 4137     		adds	r7, r7, #65
 3695 000a 3D78     		ldrb	r5, [r7]
 3696 000c 0400     		movs	r4, r0
 3697 000e 0E00     		movs	r6, r1
 3698 0010 0220     		movs	r0, #2
 3699 0012 0A99     		ldr	r1, [sp, #40]
 3700 0014 202D     		cmp	r5, #32
 3701 0016 3FD1     		bne	.L473
 3702 0018 2500     		movs	r5, r4
 3703 001a 4035     		adds	r5, r5, #64
 3704 001c 2878     		ldrb	r0, [r5]
 3705 001e 8446     		mov	ip, r0
 3706 0020 6346     		mov	r3, ip
 3707 0022 0220     		movs	r0, #2
 3708 0024 012B     		cmp	r3, #1
 3709 0026 37D0     		beq	.L473
 3710 0028 0138     		subs	r0, r0, #1
 3711 002a 2870     		strb	r0, [r5]
 3712 002c 2030     		adds	r0, r0, #32
 3713 002e 3870     		strb	r0, [r7]
 3714 0030 2000     		movs	r0, r4
 3715 0032 1027     		movs	r7, #16
 3716 0034 4230     		adds	r0, r0, #66
 3717 0036 0770     		strb	r7, [r0]
 3718 0038 0020     		movs	r0, #0
 3719 003a 039B     		ldr	r3, [sp, #12]
ARM GAS  /tmp/ccdcCb4o.s 			page 65


 3720 003c 6064     		str	r0, [r4, #68]
 3721 003e 6385     		strh	r3, [r4, #42]
 3722 0040 184B     		ldr	r3, .L485
 3723 0042 E162     		str	r1, [r4, #44]
 3724 0044 6363     		str	r3, [r4, #52]
 3725 0046 638D     		ldrh	r3, [r4, #42]
 3726 0048 6262     		str	r2, [r4, #36]
 3727 004a FF2B     		cmp	r3, #255
 3728 004c 26D8     		bhi	.L479
 3729 004e 638D     		ldrh	r3, [r4, #42]
 3730 0050 E76A     		ldr	r7, [r4, #44]
 3731 0052 9BB2     		uxth	r3, r3
 3732              	.L474:
 3733 0054 2385     		strh	r3, [r4, #40]
 3734 0056 236B     		ldr	r3, [r4, #48]
 3735 0058 112B     		cmp	r3, #17
 3736 005a 06D1     		bne	.L475
 3737 005c AA29     		cmp	r1, #170
 3738 005e 04D0     		beq	.L475
 3739 0060 AA22     		movs	r2, #170
 3740 0062 0023     		movs	r3, #0
 3741 0064 1202     		lsls	r2, r2, #8
 3742 0066 9142     		cmp	r1, r2
 3743 0068 07D1     		bne	.L476
 3744              	.L475:
 3745 006a 2000     		movs	r0, r4
 3746 006c FFF7FEFF 		bl	I2C_ConvertOtherXferOptions
 3747 0070 638D     		ldrh	r3, [r4, #42]
 3748 0072 FF2B     		cmp	r3, #255
 3749 0074 00D8     		bhi	.L481
 3750 0076 E76A     		ldr	r7, [r4, #44]
 3751              	.L481:
 3752 0078 0B4B     		ldr	r3, .L485+4
 3753              	.L476:
 3754 007a 3100     		movs	r1, r6
 3755 007c 0026     		movs	r6, #0
 3756 007e 228D     		ldrh	r2, [r4, #40]
 3757 0080 2000     		movs	r0, r4
 3758 0082 D2B2     		uxtb	r2, r2
 3759 0084 0093     		str	r3, [sp]
 3760 0086 3B00     		movs	r3, r7
 3761 0088 FFF7FEFF 		bl	I2C_TransferConfig
 3762 008c 2000     		movs	r0, r4
 3763 008e 0121     		movs	r1, #1
 3764 0090 2E70     		strb	r6, [r5]
 3765 0092 FFF7FEFF 		bl	I2C_Enable_IRQ
 3766 0096 3000     		movs	r0, r6
 3767              	.L473:
 3768 0098 05B0     		add	sp, sp, #20
 3769              		@ sp needed
 3770 009a F0BD     		pop	{r4, r5, r6, r7, pc}
 3771              	.L479:
 3772 009c 8027     		movs	r7, #128
 3773 009e FF23     		movs	r3, #255
 3774 00a0 7F04     		lsls	r7, r7, #17
 3775 00a2 D7E7     		b	.L474
 3776              	.L486:
ARM GAS  /tmp/ccdcCb4o.s 			page 66


 3777              		.align	2
 3778              	.L485:
 3779 00a4 00000000 		.word	I2C_Master_ISR_IT
 3780 00a8 00200080 		.word	-2147475456
 3782              		.section	.text.HAL_I2C_Master_Seq_Transmit_DMA,"ax",%progbits
 3783              		.align	1
 3784              		.global	HAL_I2C_Master_Seq_Transmit_DMA
 3785              		.syntax unified
 3786              		.code	16
 3787              		.thumb_func
 3788              		.fpu softvfp
 3790              	HAL_I2C_Master_Seq_Transmit_DMA:
 3791              		@ args = 4, pretend = 0, frame = 24
 3792              		@ frame_needed = 0, uses_anonymous_args = 0
 3793 0000 F0B5     		push	{r4, r5, r6, r7, lr}
 3794 0002 0600     		movs	r6, r0
 3795 0004 89B0     		sub	sp, sp, #36
 3796 0006 0692     		str	r2, [sp, #24]
 3797 0008 0591     		str	r1, [sp, #20]
 3798 000a 4136     		adds	r6, r6, #65
 3799 000c 3178     		ldrb	r1, [r6]
 3800 000e 0400     		movs	r4, r0
 3801 0010 0225     		movs	r5, #2
 3802 0012 0E9A     		ldr	r2, [sp, #56]
 3803 0014 2029     		cmp	r1, #32
 3804 0016 64D1     		bne	.L488
 3805 0018 0100     		movs	r1, r0
 3806 001a 4031     		adds	r1, r1, #64
 3807 001c 0878     		ldrb	r0, [r1]
 3808 001e 0128     		cmp	r0, #1
 3809 0020 5FD0     		beq	.L488
 3810 0022 0120     		movs	r0, #1
 3811 0024 0870     		strb	r0, [r1]
 3812 0026 2121     		movs	r1, #33
 3813 0028 3170     		strb	r1, [r6]
 3814 002a 2100     		movs	r1, r4
 3815 002c 4231     		adds	r1, r1, #66
 3816 002e 0791     		str	r1, [sp, #28]
 3817 0030 1021     		movs	r1, #16
 3818 0032 0798     		ldr	r0, [sp, #28]
 3819 0034 0170     		strb	r1, [r0]
 3820 0036 0021     		movs	r1, #0
 3821 0038 6164     		str	r1, [r4, #68]
 3822 003a 6385     		strh	r3, [r4, #42]
 3823 003c 404B     		ldr	r3, .L507
 3824 003e E262     		str	r2, [r4, #44]
 3825 0040 0699     		ldr	r1, [sp, #24]
 3826 0042 6363     		str	r3, [r4, #52]
 3827 0044 638D     		ldrh	r3, [r4, #42]
 3828 0046 6162     		str	r1, [r4, #36]
 3829 0048 FF2B     		cmp	r3, #255
 3830 004a 4DD8     		bhi	.L498
 3831 004c 638D     		ldrh	r3, [r4, #42]
 3832 004e E16A     		ldr	r1, [r4, #44]
 3833 0050 9BB2     		uxth	r3, r3
 3834              	.L505:
 3835 0052 2385     		strh	r3, [r4, #40]
ARM GAS  /tmp/ccdcCb4o.s 			page 67


 3836 0054 236B     		ldr	r3, [r4, #48]
 3837 0056 0391     		str	r1, [sp, #12]
 3838 0058 112B     		cmp	r3, #17
 3839 005a 07D1     		bne	.L490
 3840 005c AA2A     		cmp	r2, #170
 3841 005e 05D0     		beq	.L490
 3842 0060 AA23     		movs	r3, #170
 3843 0062 0021     		movs	r1, #0
 3844 0064 1B02     		lsls	r3, r3, #8
 3845 0066 0491     		str	r1, [sp, #16]
 3846 0068 9A42     		cmp	r2, r3
 3847 006a 09D1     		bne	.L491
 3848              	.L490:
 3849 006c 2000     		movs	r0, r4
 3850 006e FFF7FEFF 		bl	I2C_ConvertOtherXferOptions
 3851 0072 638D     		ldrh	r3, [r4, #42]
 3852 0074 FF2B     		cmp	r3, #255
 3853 0076 01D8     		bhi	.L500
 3854 0078 E36A     		ldr	r3, [r4, #44]
 3855 007a 0393     		str	r3, [sp, #12]
 3856              	.L500:
 3857 007c 314B     		ldr	r3, .L507+4
 3858 007e 0493     		str	r3, [sp, #16]
 3859              	.L491:
 3860 0080 2700     		movs	r7, r4
 3861 0082 258D     		ldrh	r5, [r4, #40]
 3862 0084 4037     		adds	r7, r7, #64
 3863 0086 002D     		cmp	r5, #0
 3864 0088 48D0     		beq	.L492
 3865 008a A06B     		ldr	r0, [r4, #56]
 3866 008c 0028     		cmp	r0, #0
 3867 008e 2FD0     		beq	.L493
 3868 0090 0026     		movs	r6, #0
 3869 0092 2D4B     		ldr	r3, .L507+8
 3870 0094 2268     		ldr	r2, [r4]
 3871 0096 C362     		str	r3, [r0, #44]
 3872 0098 2C4B     		ldr	r3, .L507+12
 3873 009a 0699     		ldr	r1, [sp, #24]
 3874 009c 4363     		str	r3, [r0, #52]
 3875 009e 0663     		str	r6, [r0, #48]
 3876 00a0 2B00     		movs	r3, r5
 3877 00a2 8663     		str	r6, [r0, #56]
 3878 00a4 2832     		adds	r2, r2, #40
 3879 00a6 FFF7FEFF 		bl	HAL_DMA_Start_IT
 3880 00aa 0500     		movs	r5, r0
 3881 00ac B042     		cmp	r0, r6
 3882 00ae 2AD1     		bne	.L504
 3883 00b0 049B     		ldr	r3, [sp, #16]
 3884 00b2 228D     		ldrh	r2, [r4, #40]
 3885 00b4 2000     		movs	r0, r4
 3886 00b6 0599     		ldr	r1, [sp, #20]
 3887 00b8 D2B2     		uxtb	r2, r2
 3888 00ba 0093     		str	r3, [sp]
 3889 00bc 039B     		ldr	r3, [sp, #12]
 3890 00be FFF7FEFF 		bl	I2C_TransferConfig
 3891 00c2 638D     		ldrh	r3, [r4, #42]
 3892 00c4 228D     		ldrh	r2, [r4, #40]
ARM GAS  /tmp/ccdcCb4o.s 			page 68


 3893 00c6 1021     		movs	r1, #16
 3894 00c8 9B1A     		subs	r3, r3, r2
 3895 00ca 9BB2     		uxth	r3, r3
 3896 00cc 6385     		strh	r3, [r4, #42]
 3897 00ce 2000     		movs	r0, r4
 3898 00d0 3D70     		strb	r5, [r7]
 3899 00d2 FFF7FEFF 		bl	I2C_Enable_IRQ
 3900 00d6 8023     		movs	r3, #128
 3901 00d8 2268     		ldr	r2, [r4]
 3902 00da DB01     		lsls	r3, r3, #7
 3903 00dc 1168     		ldr	r1, [r2]
 3904 00de 0B43     		orrs	r3, r1
 3905 00e0 1360     		str	r3, [r2]
 3906              	.L488:
 3907 00e2 2800     		movs	r0, r5
 3908 00e4 09B0     		add	sp, sp, #36
 3909              		@ sp needed
 3910 00e6 F0BD     		pop	{r4, r5, r6, r7, pc}
 3911              	.L498:
 3912 00e8 8021     		movs	r1, #128
 3913 00ea FF23     		movs	r3, #255
 3914 00ec 4904     		lsls	r1, r1, #17
 3915 00ee B0E7     		b	.L505
 3916              	.L493:
 3917 00f0 2023     		movs	r3, #32
 3918 00f2 3370     		strb	r3, [r6]
 3919 00f4 079B     		ldr	r3, [sp, #28]
 3920 00f6 1870     		strb	r0, [r3]
 3921 00f8 8023     		movs	r3, #128
 3922 00fa 626C     		ldr	r2, [r4, #68]
 3923 00fc 1343     		orrs	r3, r2
 3924 00fe 6364     		str	r3, [r4, #68]
 3925 0100 3870     		strb	r0, [r7]
 3926              	.L506:
 3927 0102 0125     		movs	r5, #1
 3928 0104 EDE7     		b	.L488
 3929              	.L504:
 3930 0106 2300     		movs	r3, r4
 3931 0108 2022     		movs	r2, #32
 3932 010a 4133     		adds	r3, r3, #65
 3933 010c 1A70     		strb	r2, [r3]
 3934 010e 5E70     		strb	r6, [r3, #1]
 3935 0110 1023     		movs	r3, #16
 3936 0112 626C     		ldr	r2, [r4, #68]
 3937 0114 1343     		orrs	r3, r2
 3938 0116 6364     		str	r3, [r4, #68]
 3939 0118 3E70     		strb	r6, [r7]
 3940 011a F2E7     		b	.L506
 3941              	.L492:
 3942 011c 0C4B     		ldr	r3, .L507+16
 3943 011e 2000     		movs	r0, r4
 3944 0120 6363     		str	r3, [r4, #52]
 3945 0122 084B     		ldr	r3, .L507+4
 3946 0124 0599     		ldr	r1, [sp, #20]
 3947 0126 0093     		str	r3, [sp]
 3948 0128 8023     		movs	r3, #128
 3949 012a 2A00     		movs	r2, r5
ARM GAS  /tmp/ccdcCb4o.s 			page 69


 3950 012c 9B04     		lsls	r3, r3, #18
 3951 012e FFF7FEFF 		bl	I2C_TransferConfig
 3952 0132 0121     		movs	r1, #1
 3953 0134 2000     		movs	r0, r4
 3954 0136 3D70     		strb	r5, [r7]
 3955 0138 FFF7FEFF 		bl	I2C_Enable_IRQ
 3956 013c D1E7     		b	.L488
 3957              	.L508:
 3958 013e C046     		.align	2
 3959              	.L507:
 3960 0140 00000000 		.word	I2C_Master_ISR_DMA
 3961 0144 00200080 		.word	-2147475456
 3962 0148 00000000 		.word	I2C_DMAMasterTransmitCplt
 3963 014c 00000000 		.word	I2C_DMAError
 3964 0150 00000000 		.word	I2C_Master_ISR_IT
 3966              		.section	.text.HAL_I2C_Master_Seq_Receive_IT,"ax",%progbits
 3967              		.align	1
 3968              		.global	HAL_I2C_Master_Seq_Receive_IT
 3969              		.syntax unified
 3970              		.code	16
 3971              		.thumb_func
 3972              		.fpu softvfp
 3974              	HAL_I2C_Master_Seq_Receive_IT:
 3975              		@ args = 4, pretend = 0, frame = 8
 3976              		@ frame_needed = 0, uses_anonymous_args = 0
 3977 0000 F0B5     		push	{r4, r5, r6, r7, lr}
 3978 0002 0700     		movs	r7, r0
 3979 0004 85B0     		sub	sp, sp, #20
 3980 0006 0393     		str	r3, [sp, #12]
 3981 0008 4137     		adds	r7, r7, #65
 3982 000a 3D78     		ldrb	r5, [r7]
 3983 000c 0400     		movs	r4, r0
 3984 000e 0E00     		movs	r6, r1
 3985 0010 0220     		movs	r0, #2
 3986 0012 0A99     		ldr	r1, [sp, #40]
 3987 0014 202D     		cmp	r5, #32
 3988 0016 3FD1     		bne	.L510
 3989 0018 2500     		movs	r5, r4
 3990 001a 4035     		adds	r5, r5, #64
 3991 001c 2878     		ldrb	r0, [r5]
 3992 001e 8446     		mov	ip, r0
 3993 0020 6346     		mov	r3, ip
 3994 0022 0220     		movs	r0, #2
 3995 0024 012B     		cmp	r3, #1
 3996 0026 37D0     		beq	.L510
 3997 0028 0138     		subs	r0, r0, #1
 3998 002a 2870     		strb	r0, [r5]
 3999 002c 2130     		adds	r0, r0, #33
 4000 002e 3870     		strb	r0, [r7]
 4001 0030 2000     		movs	r0, r4
 4002 0032 1027     		movs	r7, #16
 4003 0034 4230     		adds	r0, r0, #66
 4004 0036 0770     		strb	r7, [r0]
 4005 0038 0020     		movs	r0, #0
 4006 003a 039B     		ldr	r3, [sp, #12]
 4007 003c 6064     		str	r0, [r4, #68]
 4008 003e 6385     		strh	r3, [r4, #42]
ARM GAS  /tmp/ccdcCb4o.s 			page 70


 4009 0040 184B     		ldr	r3, .L522
 4010 0042 E162     		str	r1, [r4, #44]
 4011 0044 6363     		str	r3, [r4, #52]
 4012 0046 638D     		ldrh	r3, [r4, #42]
 4013 0048 6262     		str	r2, [r4, #36]
 4014 004a FF2B     		cmp	r3, #255
 4015 004c 26D8     		bhi	.L516
 4016 004e 638D     		ldrh	r3, [r4, #42]
 4017 0050 E76A     		ldr	r7, [r4, #44]
 4018 0052 9BB2     		uxth	r3, r3
 4019              	.L511:
 4020 0054 2385     		strh	r3, [r4, #40]
 4021 0056 236B     		ldr	r3, [r4, #48]
 4022 0058 122B     		cmp	r3, #18
 4023 005a 06D1     		bne	.L512
 4024 005c AA29     		cmp	r1, #170
 4025 005e 04D0     		beq	.L512
 4026 0060 AA22     		movs	r2, #170
 4027 0062 0023     		movs	r3, #0
 4028 0064 1202     		lsls	r2, r2, #8
 4029 0066 9142     		cmp	r1, r2
 4030 0068 07D1     		bne	.L513
 4031              	.L512:
 4032 006a 2000     		movs	r0, r4
 4033 006c FFF7FEFF 		bl	I2C_ConvertOtherXferOptions
 4034 0070 638D     		ldrh	r3, [r4, #42]
 4035 0072 FF2B     		cmp	r3, #255
 4036 0074 00D8     		bhi	.L518
 4037 0076 E76A     		ldr	r7, [r4, #44]
 4038              	.L518:
 4039 0078 0B4B     		ldr	r3, .L522+4
 4040              	.L513:
 4041 007a 3100     		movs	r1, r6
 4042 007c 0026     		movs	r6, #0
 4043 007e 228D     		ldrh	r2, [r4, #40]
 4044 0080 2000     		movs	r0, r4
 4045 0082 D2B2     		uxtb	r2, r2
 4046 0084 0093     		str	r3, [sp]
 4047 0086 3B00     		movs	r3, r7
 4048 0088 FFF7FEFF 		bl	I2C_TransferConfig
 4049 008c 2000     		movs	r0, r4
 4050 008e 0221     		movs	r1, #2
 4051 0090 2E70     		strb	r6, [r5]
 4052 0092 FFF7FEFF 		bl	I2C_Enable_IRQ
 4053 0096 3000     		movs	r0, r6
 4054              	.L510:
 4055 0098 05B0     		add	sp, sp, #20
 4056              		@ sp needed
 4057 009a F0BD     		pop	{r4, r5, r6, r7, pc}
 4058              	.L516:
 4059 009c 8027     		movs	r7, #128
 4060 009e FF23     		movs	r3, #255
 4061 00a0 7F04     		lsls	r7, r7, #17
 4062 00a2 D7E7     		b	.L511
 4063              	.L523:
 4064              		.align	2
 4065              	.L522:
ARM GAS  /tmp/ccdcCb4o.s 			page 71


 4066 00a4 00000000 		.word	I2C_Master_ISR_IT
 4067 00a8 00240080 		.word	-2147474432
 4069              		.section	.text.HAL_I2C_Master_Seq_Receive_DMA,"ax",%progbits
 4070              		.align	1
 4071              		.global	HAL_I2C_Master_Seq_Receive_DMA
 4072              		.syntax unified
 4073              		.code	16
 4074              		.thumb_func
 4075              		.fpu softvfp
 4077              	HAL_I2C_Master_Seq_Receive_DMA:
 4078              		@ args = 4, pretend = 0, frame = 24
 4079              		@ frame_needed = 0, uses_anonymous_args = 0
 4080 0000 F0B5     		push	{r4, r5, r6, r7, lr}
 4081 0002 0600     		movs	r6, r0
 4082 0004 89B0     		sub	sp, sp, #36
 4083 0006 0692     		str	r2, [sp, #24]
 4084 0008 0591     		str	r1, [sp, #20]
 4085 000a 4136     		adds	r6, r6, #65
 4086 000c 3178     		ldrb	r1, [r6]
 4087 000e 0400     		movs	r4, r0
 4088 0010 0225     		movs	r5, #2
 4089 0012 0E9A     		ldr	r2, [sp, #56]
 4090 0014 2029     		cmp	r1, #32
 4091 0016 64D1     		bne	.L525
 4092 0018 0100     		movs	r1, r0
 4093 001a 4031     		adds	r1, r1, #64
 4094 001c 0878     		ldrb	r0, [r1]
 4095 001e 0128     		cmp	r0, #1
 4096 0020 5FD0     		beq	.L525
 4097 0022 0120     		movs	r0, #1
 4098 0024 0870     		strb	r0, [r1]
 4099 0026 2221     		movs	r1, #34
 4100 0028 3170     		strb	r1, [r6]
 4101 002a 2100     		movs	r1, r4
 4102 002c 4231     		adds	r1, r1, #66
 4103 002e 0791     		str	r1, [sp, #28]
 4104 0030 1021     		movs	r1, #16
 4105 0032 0798     		ldr	r0, [sp, #28]
 4106 0034 0170     		strb	r1, [r0]
 4107 0036 0021     		movs	r1, #0
 4108 0038 6164     		str	r1, [r4, #68]
 4109 003a 6385     		strh	r3, [r4, #42]
 4110 003c 404B     		ldr	r3, .L544
 4111 003e E262     		str	r2, [r4, #44]
 4112 0040 0699     		ldr	r1, [sp, #24]
 4113 0042 6363     		str	r3, [r4, #52]
 4114 0044 638D     		ldrh	r3, [r4, #42]
 4115 0046 6162     		str	r1, [r4, #36]
 4116 0048 FF2B     		cmp	r3, #255
 4117 004a 4DD8     		bhi	.L535
 4118 004c 638D     		ldrh	r3, [r4, #42]
 4119 004e E16A     		ldr	r1, [r4, #44]
 4120 0050 9BB2     		uxth	r3, r3
 4121              	.L542:
 4122 0052 2385     		strh	r3, [r4, #40]
 4123 0054 236B     		ldr	r3, [r4, #48]
 4124 0056 0391     		str	r1, [sp, #12]
ARM GAS  /tmp/ccdcCb4o.s 			page 72


 4125 0058 122B     		cmp	r3, #18
 4126 005a 07D1     		bne	.L527
 4127 005c AA2A     		cmp	r2, #170
 4128 005e 05D0     		beq	.L527
 4129 0060 AA23     		movs	r3, #170
 4130 0062 0021     		movs	r1, #0
 4131 0064 1B02     		lsls	r3, r3, #8
 4132 0066 0491     		str	r1, [sp, #16]
 4133 0068 9A42     		cmp	r2, r3
 4134 006a 09D1     		bne	.L528
 4135              	.L527:
 4136 006c 2000     		movs	r0, r4
 4137 006e FFF7FEFF 		bl	I2C_ConvertOtherXferOptions
 4138 0072 638D     		ldrh	r3, [r4, #42]
 4139 0074 FF2B     		cmp	r3, #255
 4140 0076 01D8     		bhi	.L537
 4141 0078 E36A     		ldr	r3, [r4, #44]
 4142 007a 0393     		str	r3, [sp, #12]
 4143              	.L537:
 4144 007c 314B     		ldr	r3, .L544+4
 4145 007e 0493     		str	r3, [sp, #16]
 4146              	.L528:
 4147 0080 2700     		movs	r7, r4
 4148 0082 258D     		ldrh	r5, [r4, #40]
 4149 0084 4037     		adds	r7, r7, #64
 4150 0086 002D     		cmp	r5, #0
 4151 0088 48D0     		beq	.L529
 4152 008a E06B     		ldr	r0, [r4, #60]
 4153 008c 0028     		cmp	r0, #0
 4154 008e 2FD0     		beq	.L530
 4155 0090 0026     		movs	r6, #0
 4156 0092 2D4B     		ldr	r3, .L544+8
 4157 0094 2168     		ldr	r1, [r4]
 4158 0096 C362     		str	r3, [r0, #44]
 4159 0098 2C4B     		ldr	r3, .L544+12
 4160 009a 069A     		ldr	r2, [sp, #24]
 4161 009c 4363     		str	r3, [r0, #52]
 4162 009e 0663     		str	r6, [r0, #48]
 4163 00a0 2B00     		movs	r3, r5
 4164 00a2 8663     		str	r6, [r0, #56]
 4165 00a4 2431     		adds	r1, r1, #36
 4166 00a6 FFF7FEFF 		bl	HAL_DMA_Start_IT
 4167 00aa 0500     		movs	r5, r0
 4168 00ac B042     		cmp	r0, r6
 4169 00ae 2AD1     		bne	.L541
 4170 00b0 049B     		ldr	r3, [sp, #16]
 4171 00b2 228D     		ldrh	r2, [r4, #40]
 4172 00b4 2000     		movs	r0, r4
 4173 00b6 0599     		ldr	r1, [sp, #20]
 4174 00b8 D2B2     		uxtb	r2, r2
 4175 00ba 0093     		str	r3, [sp]
 4176 00bc 039B     		ldr	r3, [sp, #12]
 4177 00be FFF7FEFF 		bl	I2C_TransferConfig
 4178 00c2 638D     		ldrh	r3, [r4, #42]
 4179 00c4 228D     		ldrh	r2, [r4, #40]
 4180 00c6 1021     		movs	r1, #16
 4181 00c8 9B1A     		subs	r3, r3, r2
ARM GAS  /tmp/ccdcCb4o.s 			page 73


 4182 00ca 9BB2     		uxth	r3, r3
 4183 00cc 6385     		strh	r3, [r4, #42]
 4184 00ce 2000     		movs	r0, r4
 4185 00d0 3D70     		strb	r5, [r7]
 4186 00d2 FFF7FEFF 		bl	I2C_Enable_IRQ
 4187 00d6 8023     		movs	r3, #128
 4188 00d8 2268     		ldr	r2, [r4]
 4189 00da 1B02     		lsls	r3, r3, #8
 4190 00dc 1168     		ldr	r1, [r2]
 4191 00de 0B43     		orrs	r3, r1
 4192 00e0 1360     		str	r3, [r2]
 4193              	.L525:
 4194 00e2 2800     		movs	r0, r5
 4195 00e4 09B0     		add	sp, sp, #36
 4196              		@ sp needed
 4197 00e6 F0BD     		pop	{r4, r5, r6, r7, pc}
 4198              	.L535:
 4199 00e8 8021     		movs	r1, #128
 4200 00ea FF23     		movs	r3, #255
 4201 00ec 4904     		lsls	r1, r1, #17
 4202 00ee B0E7     		b	.L542
 4203              	.L530:
 4204 00f0 2023     		movs	r3, #32
 4205 00f2 3370     		strb	r3, [r6]
 4206 00f4 079B     		ldr	r3, [sp, #28]
 4207 00f6 1870     		strb	r0, [r3]
 4208 00f8 8023     		movs	r3, #128
 4209 00fa 626C     		ldr	r2, [r4, #68]
 4210 00fc 1343     		orrs	r3, r2
 4211 00fe 6364     		str	r3, [r4, #68]
 4212 0100 3870     		strb	r0, [r7]
 4213              	.L543:
 4214 0102 0125     		movs	r5, #1
 4215 0104 EDE7     		b	.L525
 4216              	.L541:
 4217 0106 2300     		movs	r3, r4
 4218 0108 2022     		movs	r2, #32
 4219 010a 4133     		adds	r3, r3, #65
 4220 010c 1A70     		strb	r2, [r3]
 4221 010e 5E70     		strb	r6, [r3, #1]
 4222 0110 1023     		movs	r3, #16
 4223 0112 626C     		ldr	r2, [r4, #68]
 4224 0114 1343     		orrs	r3, r2
 4225 0116 6364     		str	r3, [r4, #68]
 4226 0118 3E70     		strb	r6, [r7]
 4227 011a F2E7     		b	.L543
 4228              	.L529:
 4229 011c 0C4B     		ldr	r3, .L544+16
 4230 011e 2000     		movs	r0, r4
 4231 0120 6363     		str	r3, [r4, #52]
 4232 0122 084B     		ldr	r3, .L544+4
 4233 0124 0599     		ldr	r1, [sp, #20]
 4234 0126 0093     		str	r3, [sp]
 4235 0128 8023     		movs	r3, #128
 4236 012a 2A00     		movs	r2, r5
 4237 012c 9B04     		lsls	r3, r3, #18
 4238 012e FFF7FEFF 		bl	I2C_TransferConfig
ARM GAS  /tmp/ccdcCb4o.s 			page 74


 4239 0132 0121     		movs	r1, #1
 4240 0134 2000     		movs	r0, r4
 4241 0136 3D70     		strb	r5, [r7]
 4242 0138 FFF7FEFF 		bl	I2C_Enable_IRQ
 4243 013c D1E7     		b	.L525
 4244              	.L545:
 4245 013e C046     		.align	2
 4246              	.L544:
 4247 0140 00000000 		.word	I2C_Master_ISR_DMA
 4248 0144 00240080 		.word	-2147474432
 4249 0148 00000000 		.word	I2C_DMAMasterReceiveCplt
 4250 014c 00000000 		.word	I2C_DMAError
 4251 0150 00000000 		.word	I2C_Master_ISR_IT
 4253              		.section	.text.HAL_I2C_Slave_Seq_Transmit_IT,"ax",%progbits
 4254              		.align	1
 4255              		.global	HAL_I2C_Slave_Seq_Transmit_IT
 4256              		.syntax unified
 4257              		.code	16
 4258              		.thumb_func
 4259              		.fpu softvfp
 4261              	HAL_I2C_Slave_Seq_Transmit_IT:
 4262              		@ args = 0, pretend = 0, frame = 16
 4263              		@ frame_needed = 0, uses_anonymous_args = 0
 4264 0000 F0B5     		push	{r4, r5, r6, r7, lr}
 4265 0002 0700     		movs	r7, r0
 4266 0004 85B0     		sub	sp, sp, #20
 4267 0006 0292     		str	r2, [sp, #8]
 4268 0008 2822     		movs	r2, #40
 4269 000a 0191     		str	r1, [sp, #4]
 4270 000c 0393     		str	r3, [sp, #12]
 4271 000e 4137     		adds	r7, r7, #65
 4272 0010 3B78     		ldrb	r3, [r7]
 4273 0012 0400     		movs	r4, r0
 4274 0014 0125     		movs	r5, #1
 4275 0016 1340     		ands	r3, r2
 4276 0018 9342     		cmp	r3, r2
 4277 001a 08D1     		bne	.L547
 4278 001c 0029     		cmp	r1, #0
 4279 001e 02D0     		beq	.L548
 4280 0020 029B     		ldr	r3, [sp, #8]
 4281 0022 002B     		cmp	r3, #0
 4282 0024 06D1     		bne	.L549
 4283              	.L548:
 4284 0026 8023     		movs	r3, #128
 4285 0028 0125     		movs	r5, #1
 4286 002a 9B00     		lsls	r3, r3, #2
 4287 002c 6364     		str	r3, [r4, #68]
 4288              	.L547:
 4289 002e 2800     		movs	r0, r5
 4290 0030 05B0     		add	sp, sp, #20
 4291              		@ sp needed
 4292 0032 F0BD     		pop	{r4, r5, r6, r7, pc}
 4293              	.L549:
 4294 0034 2600     		movs	r6, r4
 4295 0036 2349     		ldr	r1, .L571
 4296 0038 4036     		adds	r6, r6, #64
 4297 003a FFF7FEFF 		bl	I2C_Disable_IRQ
ARM GAS  /tmp/ccdcCb4o.s 			page 75


 4298 003e 3378     		ldrb	r3, [r6]
 4299 0040 012B     		cmp	r3, #1
 4300 0042 3DD0     		beq	.L555
 4301 0044 3570     		strb	r5, [r6]
 4302 0046 3B78     		ldrb	r3, [r7]
 4303 0048 1F4D     		ldr	r5, .L571+4
 4304 004a 2A2B     		cmp	r3, #42
 4305 004c 16D1     		bne	.L551
 4306 004e 0221     		movs	r1, #2
 4307 0050 2000     		movs	r0, r4
 4308 0052 FFF7FEFF 		bl	I2C_Disable_IRQ
 4309 0056 2368     		ldr	r3, [r4]
 4310 0058 1A68     		ldr	r2, [r3]
 4311 005a 1204     		lsls	r2, r2, #16
 4312 005c 0ED5     		bpl	.L551
 4313 005e 1A68     		ldr	r2, [r3]
 4314 0060 E06B     		ldr	r0, [r4, #60]
 4315 0062 2A40     		ands	r2, r5
 4316 0064 1A60     		str	r2, [r3]
 4317 0066 0028     		cmp	r0, #0
 4318 0068 08D0     		beq	.L551
 4319 006a 184B     		ldr	r3, .L571+8
 4320 006c 8363     		str	r3, [r0, #56]
 4321 006e FFF7FEFF 		bl	HAL_DMA_Abort_IT
 4322 0072 0028     		cmp	r0, #0
 4323 0074 02D0     		beq	.L551
 4324 0076 E06B     		ldr	r0, [r4, #60]
 4325 0078 836B     		ldr	r3, [r0, #56]
 4326 007a 9847     		blx	r3
 4327              	.L551:
 4328 007c 2923     		movs	r3, #41
 4329 007e 3B70     		strb	r3, [r7]
 4330 0080 2300     		movs	r3, r4
 4331 0082 2022     		movs	r2, #32
 4332 0084 0021     		movs	r1, #0
 4333 0086 4233     		adds	r3, r3, #66
 4334 0088 1A70     		strb	r2, [r3]
 4335 008a 2368     		ldr	r3, [r4]
 4336 008c 6164     		str	r1, [r4, #68]
 4337 008e 5A68     		ldr	r2, [r3, #4]
 4338 0090 1540     		ands	r5, r2
 4339 0092 019A     		ldr	r2, [sp, #4]
 4340 0094 5D60     		str	r5, [r3, #4]
 4341 0096 6262     		str	r2, [r4, #36]
 4342 0098 029A     		ldr	r2, [sp, #8]
 4343 009a 6285     		strh	r2, [r4, #42]
 4344 009c 628D     		ldrh	r2, [r4, #42]
 4345 009e 2285     		strh	r2, [r4, #40]
 4346 00a0 039A     		ldr	r2, [sp, #12]
 4347 00a2 E262     		str	r2, [r4, #44]
 4348 00a4 0A4A     		ldr	r2, .L571+12
 4349 00a6 6263     		str	r2, [r4, #52]
 4350 00a8 9A69     		ldr	r2, [r3, #24]
 4351 00aa D203     		lsls	r2, r2, #15
 4352 00ac 01D5     		bpl	.L553
 4353 00ae 0822     		movs	r2, #8
 4354 00b0 DA61     		str	r2, [r3, #28]
ARM GAS  /tmp/ccdcCb4o.s 			page 76


 4355              	.L553:
 4356 00b2 3170     		strb	r1, [r6]
 4357 00b4 2000     		movs	r0, r4
 4358 00b6 0349     		ldr	r1, .L571
 4359 00b8 FFF7FEFF 		bl	I2C_Enable_IRQ
 4360 00bc 0025     		movs	r5, #0
 4361 00be B6E7     		b	.L547
 4362              	.L555:
 4363 00c0 0225     		movs	r5, #2
 4364 00c2 B4E7     		b	.L547
 4365              	.L572:
 4366              		.align	2
 4367              	.L571:
 4368 00c4 01800000 		.word	32769
 4369 00c8 FF7FFFFF 		.word	-32769
 4370 00cc 00000000 		.word	I2C_DMAAbort
 4371 00d0 00000000 		.word	I2C_Slave_ISR_IT
 4373              		.section	.text.HAL_I2C_Slave_Seq_Transmit_DMA,"ax",%progbits
 4374              		.align	1
 4375              		.global	HAL_I2C_Slave_Seq_Transmit_DMA
 4376              		.syntax unified
 4377              		.code	16
 4378              		.thumb_func
 4379              		.fpu softvfp
 4381              	HAL_I2C_Slave_Seq_Transmit_DMA:
 4382              		@ args = 0, pretend = 0, frame = 16
 4383              		@ frame_needed = 0, uses_anonymous_args = 0
 4384 0000 F0B5     		push	{r4, r5, r6, r7, lr}
 4385 0002 0600     		movs	r6, r0
 4386 0004 85B0     		sub	sp, sp, #20
 4387 0006 0292     		str	r2, [sp, #8]
 4388 0008 2822     		movs	r2, #40
 4389 000a 0091     		str	r1, [sp]
 4390 000c 0393     		str	r3, [sp, #12]
 4391 000e 4136     		adds	r6, r6, #65
 4392 0010 3378     		ldrb	r3, [r6]
 4393 0012 0400     		movs	r4, r0
 4394 0014 0125     		movs	r5, #1
 4395 0016 1340     		ands	r3, r2
 4396 0018 9342     		cmp	r3, r2
 4397 001a 08D1     		bne	.L574
 4398 001c 0029     		cmp	r1, #0
 4399 001e 02D0     		beq	.L575
 4400 0020 029B     		ldr	r3, [sp, #8]
 4401 0022 002B     		cmp	r3, #0
 4402 0024 06D1     		bne	.L576
 4403              	.L575:
 4404 0026 8023     		movs	r3, #128
 4405 0028 9B00     		lsls	r3, r3, #2
 4406 002a 6364     		str	r3, [r4, #68]
 4407              	.L608:
 4408 002c 0125     		movs	r5, #1
 4409              	.L574:
 4410 002e 2800     		movs	r0, r5
 4411 0030 05B0     		add	sp, sp, #20
 4412              		@ sp needed
 4413 0032 F0BD     		pop	{r4, r5, r6, r7, pc}
ARM GAS  /tmp/ccdcCb4o.s 			page 77


 4414              	.L576:
 4415 0034 0300     		movs	r3, r0
 4416 0036 4033     		adds	r3, r3, #64
 4417 0038 1A78     		ldrb	r2, [r3]
 4418 003a 012A     		cmp	r2, #1
 4419 003c 00D1     		bne	.LCB4945
 4420 003e 8FE0     		b	.L587	@long jump
 4421              	.LCB4945:
 4422 0040 1D70     		strb	r5, [r3]
 4423 0042 4849     		ldr	r1, .L609
 4424 0044 FFF7FEFF 		bl	I2C_Disable_IRQ
 4425 0048 3378     		ldrb	r3, [r6]
 4426 004a 474D     		ldr	r5, .L609+4
 4427 004c 2A2B     		cmp	r3, #42
 4428 004e 4BD1     		bne	.L577
 4429 0050 0221     		movs	r1, #2
 4430 0052 2000     		movs	r0, r4
 4431 0054 FFF7FEFF 		bl	I2C_Disable_IRQ
 4432 0058 2368     		ldr	r3, [r4]
 4433 005a 1A68     		ldr	r2, [r3]
 4434 005c 1204     		lsls	r2, r2, #16
 4435 005e 0ED5     		bpl	.L579
 4436 0060 E06B     		ldr	r0, [r4, #60]
 4437 0062 0028     		cmp	r0, #0
 4438 0064 0BD0     		beq	.L579
 4439 0066 1A68     		ldr	r2, [r3]
 4440 0068 2A40     		ands	r2, r5
 4441 006a 1A60     		str	r2, [r3]
 4442 006c 3F4B     		ldr	r3, .L609+8
 4443 006e 8363     		str	r3, [r0, #56]
 4444 0070 FFF7FEFF 		bl	HAL_DMA_Abort_IT
 4445 0074 0028     		cmp	r0, #0
 4446 0076 02D0     		beq	.L579
 4447 0078 E06B     		ldr	r0, [r4, #60]
 4448              	.L607:
 4449 007a 836B     		ldr	r3, [r0, #56]
 4450 007c 9847     		blx	r3
 4451              	.L579:
 4452 007e 2923     		movs	r3, #41
 4453 0080 3370     		strb	r3, [r6]
 4454 0082 2300     		movs	r3, r4
 4455 0084 4233     		adds	r3, r3, #66
 4456 0086 0193     		str	r3, [sp, #4]
 4457 0088 2023     		movs	r3, #32
 4458 008a 0027     		movs	r7, #0
 4459 008c 019A     		ldr	r2, [sp, #4]
 4460 008e 0399     		ldr	r1, [sp, #12]
 4461 0090 1370     		strb	r3, [r2]
 4462 0092 2268     		ldr	r2, [r4]
 4463 0094 6764     		str	r7, [r4, #68]
 4464 0096 5368     		ldr	r3, [r2, #4]
 4465 0098 A06B     		ldr	r0, [r4, #56]
 4466 009a 1D40     		ands	r5, r3
 4467 009c 009B     		ldr	r3, [sp]
 4468 009e 5560     		str	r5, [r2, #4]
 4469 00a0 6362     		str	r3, [r4, #36]
 4470 00a2 029B     		ldr	r3, [sp, #8]
ARM GAS  /tmp/ccdcCb4o.s 			page 78


 4471 00a4 6385     		strh	r3, [r4, #42]
 4472 00a6 638D     		ldrh	r3, [r4, #42]
 4473 00a8 E162     		str	r1, [r4, #44]
 4474 00aa 3149     		ldr	r1, .L609+12
 4475 00ac 9BB2     		uxth	r3, r3
 4476 00ae 2385     		strh	r3, [r4, #40]
 4477 00b0 6163     		str	r1, [r4, #52]
 4478 00b2 B842     		cmp	r0, r7
 4479 00b4 2ED0     		beq	.L581
 4480 00b6 2F49     		ldr	r1, .L609+16
 4481 00b8 2832     		adds	r2, r2, #40
 4482 00ba C162     		str	r1, [r0, #44]
 4483 00bc 2E49     		ldr	r1, .L609+20
 4484 00be 0763     		str	r7, [r0, #48]
 4485 00c0 4163     		str	r1, [r0, #52]
 4486 00c2 8763     		str	r7, [r0, #56]
 4487 00c4 0099     		ldr	r1, [sp]
 4488 00c6 FFF7FEFF 		bl	HAL_DMA_Start_IT
 4489 00ca 2200     		movs	r2, r4
 4490 00cc 0500     		movs	r5, r0
 4491 00ce 4032     		adds	r2, r2, #64
 4492 00d0 B842     		cmp	r0, r7
 4493 00d2 2AD0     		beq	.L582
 4494 00d4 2823     		movs	r3, #40
 4495 00d6 3370     		strb	r3, [r6]
 4496 00d8 019B     		ldr	r3, [sp, #4]
 4497 00da 1F70     		strb	r7, [r3]
 4498 00dc 1023     		movs	r3, #16
 4499 00de 616C     		ldr	r1, [r4, #68]
 4500 00e0 0B43     		orrs	r3, r1
 4501 00e2 6364     		str	r3, [r4, #68]
 4502 00e4 1770     		strb	r7, [r2]
 4503 00e6 A1E7     		b	.L608
 4504              	.L577:
 4505 00e8 3378     		ldrb	r3, [r6]
 4506 00ea 292B     		cmp	r3, #41
 4507 00ec C7D1     		bne	.L579
 4508 00ee 2368     		ldr	r3, [r4]
 4509 00f0 1A68     		ldr	r2, [r3]
 4510 00f2 5204     		lsls	r2, r2, #17
 4511 00f4 C3D5     		bpl	.L579
 4512 00f6 1A68     		ldr	r2, [r3]
 4513 00f8 2049     		ldr	r1, .L609+24
 4514 00fa A06B     		ldr	r0, [r4, #56]
 4515 00fc 0A40     		ands	r2, r1
 4516 00fe 1A60     		str	r2, [r3]
 4517 0100 0028     		cmp	r0, #0
 4518 0102 BCD0     		beq	.L579
 4519 0104 194B     		ldr	r3, .L609+8
 4520 0106 8363     		str	r3, [r0, #56]
 4521 0108 FFF7FEFF 		bl	HAL_DMA_Abort_IT
 4522 010c 0028     		cmp	r0, #0
 4523 010e B6D0     		beq	.L579
 4524 0110 A06B     		ldr	r0, [r4, #56]
 4525 0112 B2E7     		b	.L607
 4526              	.L581:
 4527 0114 2823     		movs	r3, #40
ARM GAS  /tmp/ccdcCb4o.s 			page 79


 4528 0116 3370     		strb	r3, [r6]
 4529 0118 019B     		ldr	r3, [sp, #4]
 4530 011a 4034     		adds	r4, r4, #64
 4531 011c 1870     		strb	r0, [r3]
 4532 011e 8023     		movs	r3, #128
 4533 0120 6268     		ldr	r2, [r4, #4]
 4534 0122 1343     		orrs	r3, r2
 4535 0124 6360     		str	r3, [r4, #4]
 4536 0126 2070     		strb	r0, [r4]
 4537 0128 80E7     		b	.L608
 4538              	.L582:
 4539 012a 638D     		ldrh	r3, [r4, #42]
 4540 012c 218D     		ldrh	r1, [r4, #40]
 4541 012e 2085     		strh	r0, [r4, #40]
 4542 0130 5B1A     		subs	r3, r3, r1
 4543 0132 9BB2     		uxth	r3, r3
 4544 0134 6385     		strh	r3, [r4, #42]
 4545 0136 2368     		ldr	r3, [r4]
 4546 0138 9969     		ldr	r1, [r3, #24]
 4547 013a C903     		lsls	r1, r1, #15
 4548 013c 0DD4     		bmi	.L584
 4549              	.L585:
 4550 013e 0023     		movs	r3, #0
 4551 0140 8021     		movs	r1, #128
 4552 0142 1370     		strb	r3, [r2]
 4553 0144 0902     		lsls	r1, r1, #8
 4554 0146 2000     		movs	r0, r4
 4555 0148 FFF7FEFF 		bl	I2C_Enable_IRQ
 4556 014c 8023     		movs	r3, #128
 4557 014e 2268     		ldr	r2, [r4]
 4558 0150 DB01     		lsls	r3, r3, #7
 4559 0152 1168     		ldr	r1, [r2]
 4560 0154 0B43     		orrs	r3, r1
 4561 0156 1360     		str	r3, [r2]
 4562 0158 69E7     		b	.L574
 4563              	.L584:
 4564 015a 0821     		movs	r1, #8
 4565 015c D961     		str	r1, [r3, #28]
 4566 015e EEE7     		b	.L585
 4567              	.L587:
 4568 0160 0225     		movs	r5, #2
 4569 0162 64E7     		b	.L574
 4570              	.L610:
 4571              		.align	2
 4572              	.L609:
 4573 0164 01800000 		.word	32769
 4574 0168 FF7FFFFF 		.word	-32769
 4575 016c 00000000 		.word	I2C_DMAAbort
 4576 0170 00000000 		.word	I2C_Slave_ISR_DMA
 4577 0174 00000000 		.word	I2C_DMASlaveTransmitCplt
 4578 0178 00000000 		.word	I2C_DMAError
 4579 017c FFBFFFFF 		.word	-16385
 4581              		.section	.text.HAL_I2C_Slave_Seq_Receive_IT,"ax",%progbits
 4582              		.align	1
 4583              		.global	HAL_I2C_Slave_Seq_Receive_IT
 4584              		.syntax unified
 4585              		.code	16
ARM GAS  /tmp/ccdcCb4o.s 			page 80


 4586              		.thumb_func
 4587              		.fpu softvfp
 4589              	HAL_I2C_Slave_Seq_Receive_IT:
 4590              		@ args = 0, pretend = 0, frame = 16
 4591              		@ frame_needed = 0, uses_anonymous_args = 0
 4592 0000 F0B5     		push	{r4, r5, r6, r7, lr}
 4593 0002 0700     		movs	r7, r0
 4594 0004 85B0     		sub	sp, sp, #20
 4595 0006 0292     		str	r2, [sp, #8]
 4596 0008 2822     		movs	r2, #40
 4597 000a 0191     		str	r1, [sp, #4]
 4598 000c 0393     		str	r3, [sp, #12]
 4599 000e 4137     		adds	r7, r7, #65
 4600 0010 3B78     		ldrb	r3, [r7]
 4601 0012 0400     		movs	r4, r0
 4602 0014 0125     		movs	r5, #1
 4603 0016 1340     		ands	r3, r2
 4604 0018 9342     		cmp	r3, r2
 4605 001a 08D1     		bne	.L612
 4606 001c 0029     		cmp	r1, #0
 4607 001e 02D0     		beq	.L613
 4608 0020 029B     		ldr	r3, [sp, #8]
 4609 0022 002B     		cmp	r3, #0
 4610 0024 06D1     		bne	.L614
 4611              	.L613:
 4612 0026 8023     		movs	r3, #128
 4613 0028 0125     		movs	r5, #1
 4614 002a 9B00     		lsls	r3, r3, #2
 4615 002c 6364     		str	r3, [r4, #68]
 4616              	.L612:
 4617 002e 2800     		movs	r0, r5
 4618 0030 05B0     		add	sp, sp, #20
 4619              		@ sp needed
 4620 0032 F0BD     		pop	{r4, r5, r6, r7, pc}
 4621              	.L614:
 4622 0034 2600     		movs	r6, r4
 4623 0036 2449     		ldr	r1, .L633
 4624 0038 4036     		adds	r6, r6, #64
 4625 003a FFF7FEFF 		bl	I2C_Disable_IRQ
 4626 003e 3378     		ldrb	r3, [r6]
 4627 0040 012B     		cmp	r3, #1
 4628 0042 3ED0     		beq	.L620
 4629 0044 3570     		strb	r5, [r6]
 4630 0046 3B78     		ldrb	r3, [r7]
 4631 0048 292B     		cmp	r3, #41
 4632 004a 17D1     		bne	.L616
 4633 004c 2900     		movs	r1, r5
 4634 004e 2000     		movs	r0, r4
 4635 0050 FFF7FEFF 		bl	I2C_Disable_IRQ
 4636 0054 2368     		ldr	r3, [r4]
 4637 0056 1A68     		ldr	r2, [r3]
 4638 0058 5204     		lsls	r2, r2, #17
 4639 005a 0FD5     		bpl	.L616
 4640 005c 1A68     		ldr	r2, [r3]
 4641 005e 1B49     		ldr	r1, .L633+4
 4642 0060 A06B     		ldr	r0, [r4, #56]
 4643 0062 0A40     		ands	r2, r1
ARM GAS  /tmp/ccdcCb4o.s 			page 81


 4644 0064 1A60     		str	r2, [r3]
 4645 0066 0028     		cmp	r0, #0
 4646 0068 08D0     		beq	.L616
 4647 006a 194B     		ldr	r3, .L633+8
 4648 006c 8363     		str	r3, [r0, #56]
 4649 006e FFF7FEFF 		bl	HAL_DMA_Abort_IT
 4650 0072 0028     		cmp	r0, #0
 4651 0074 02D0     		beq	.L616
 4652 0076 A06B     		ldr	r0, [r4, #56]
 4653 0078 836B     		ldr	r3, [r0, #56]
 4654 007a 9847     		blx	r3
 4655              	.L616:
 4656 007c 2A23     		movs	r3, #42
 4657 007e 3B70     		strb	r3, [r7]
 4658 0080 2300     		movs	r3, r4
 4659 0082 2022     		movs	r2, #32
 4660 0084 0021     		movs	r1, #0
 4661 0086 4233     		adds	r3, r3, #66
 4662 0088 1A70     		strb	r2, [r3]
 4663 008a 2368     		ldr	r3, [r4]
 4664 008c 6164     		str	r1, [r4, #68]
 4665 008e 5A68     		ldr	r2, [r3, #4]
 4666 0090 1048     		ldr	r0, .L633+12
 4667 0092 0240     		ands	r2, r0
 4668 0094 5A60     		str	r2, [r3, #4]
 4669 0096 019A     		ldr	r2, [sp, #4]
 4670 0098 6262     		str	r2, [r4, #36]
 4671 009a 029A     		ldr	r2, [sp, #8]
 4672 009c 6285     		strh	r2, [r4, #42]
 4673 009e 628D     		ldrh	r2, [r4, #42]
 4674 00a0 2285     		strh	r2, [r4, #40]
 4675 00a2 039A     		ldr	r2, [sp, #12]
 4676 00a4 E262     		str	r2, [r4, #44]
 4677 00a6 0C4A     		ldr	r2, .L633+16
 4678 00a8 6263     		str	r2, [r4, #52]
 4679 00aa 9A69     		ldr	r2, [r3, #24]
 4680 00ac D203     		lsls	r2, r2, #15
 4681 00ae 01D4     		bmi	.L618
 4682 00b0 0822     		movs	r2, #8
 4683 00b2 DA61     		str	r2, [r3, #28]
 4684              	.L618:
 4685 00b4 3170     		strb	r1, [r6]
 4686 00b6 2000     		movs	r0, r4
 4687 00b8 0349     		ldr	r1, .L633
 4688 00ba FFF7FEFF 		bl	I2C_Enable_IRQ
 4689 00be 0025     		movs	r5, #0
 4690 00c0 B5E7     		b	.L612
 4691              	.L620:
 4692 00c2 0225     		movs	r5, #2
 4693 00c4 B3E7     		b	.L612
 4694              	.L634:
 4695 00c6 C046     		.align	2
 4696              	.L633:
 4697 00c8 02800000 		.word	32770
 4698 00cc FFBFFFFF 		.word	-16385
 4699 00d0 00000000 		.word	I2C_DMAAbort
 4700 00d4 FF7FFFFF 		.word	-32769
ARM GAS  /tmp/ccdcCb4o.s 			page 82


 4701 00d8 00000000 		.word	I2C_Slave_ISR_IT
 4703              		.section	.text.HAL_I2C_Slave_Seq_Receive_DMA,"ax",%progbits
 4704              		.align	1
 4705              		.global	HAL_I2C_Slave_Seq_Receive_DMA
 4706              		.syntax unified
 4707              		.code	16
 4708              		.thumb_func
 4709              		.fpu softvfp
 4711              	HAL_I2C_Slave_Seq_Receive_DMA:
 4712              		@ args = 0, pretend = 0, frame = 24
 4713              		@ frame_needed = 0, uses_anonymous_args = 0
 4714 0000 F0B5     		push	{r4, r5, r6, r7, lr}
 4715 0002 0600     		movs	r6, r0
 4716 0004 87B0     		sub	sp, sp, #28
 4717 0006 0492     		str	r2, [sp, #16]
 4718 0008 2822     		movs	r2, #40
 4719 000a 0191     		str	r1, [sp, #4]
 4720 000c 0593     		str	r3, [sp, #20]
 4721 000e 4136     		adds	r6, r6, #65
 4722 0010 3378     		ldrb	r3, [r6]
 4723 0012 0400     		movs	r4, r0
 4724 0014 0125     		movs	r5, #1
 4725 0016 1340     		ands	r3, r2
 4726 0018 9342     		cmp	r3, r2
 4727 001a 08D1     		bne	.L636
 4728 001c 0029     		cmp	r1, #0
 4729 001e 02D0     		beq	.L637
 4730 0020 049B     		ldr	r3, [sp, #16]
 4731 0022 002B     		cmp	r3, #0
 4732 0024 06D1     		bne	.L638
 4733              	.L637:
 4734 0026 8023     		movs	r3, #128
 4735 0028 9B00     		lsls	r3, r3, #2
 4736 002a 6364     		str	r3, [r4, #68]
 4737              	.L670:
 4738 002c 0125     		movs	r5, #1
 4739              	.L636:
 4740 002e 2800     		movs	r0, r5
 4741 0030 07B0     		add	sp, sp, #28
 4742              		@ sp needed
 4743 0032 F0BD     		pop	{r4, r5, r6, r7, pc}
 4744              	.L638:
 4745 0034 4D49     		ldr	r1, .L671
 4746 0036 FFF7FEFF 		bl	I2C_Disable_IRQ
 4747 003a 2300     		movs	r3, r4
 4748 003c 4033     		adds	r3, r3, #64
 4749 003e 1A78     		ldrb	r2, [r3]
 4750 0040 012A     		cmp	r2, #1
 4751 0042 00D1     		bne	.LCB5330
 4752 0044 90E0     		b	.L649	@long jump
 4753              	.LCB5330:
 4754 0046 1D70     		strb	r5, [r3]
 4755 0048 3378     		ldrb	r3, [r6]
 4756 004a 494F     		ldr	r7, .L671+4
 4757 004c 292B     		cmp	r3, #41
 4758 004e 51D1     		bne	.L639
 4759 0050 2900     		movs	r1, r5
ARM GAS  /tmp/ccdcCb4o.s 			page 83


 4760 0052 2000     		movs	r0, r4
 4761 0054 FFF7FEFF 		bl	I2C_Disable_IRQ
 4762 0058 2368     		ldr	r3, [r4]
 4763 005a 1A68     		ldr	r2, [r3]
 4764 005c 5204     		lsls	r2, r2, #17
 4765 005e 0FD5     		bpl	.L641
 4766 0060 A06B     		ldr	r0, [r4, #56]
 4767 0062 0028     		cmp	r0, #0
 4768 0064 0CD0     		beq	.L641
 4769 0066 1A68     		ldr	r2, [r3]
 4770 0068 4249     		ldr	r1, .L671+8
 4771 006a 0A40     		ands	r2, r1
 4772 006c 1A60     		str	r2, [r3]
 4773 006e 424B     		ldr	r3, .L671+12
 4774 0070 8363     		str	r3, [r0, #56]
 4775 0072 FFF7FEFF 		bl	HAL_DMA_Abort_IT
 4776 0076 0028     		cmp	r0, #0
 4777 0078 02D0     		beq	.L641
 4778 007a A06B     		ldr	r0, [r4, #56]
 4779              	.L669:
 4780 007c 836B     		ldr	r3, [r0, #56]
 4781 007e 9847     		blx	r3
 4782              	.L641:
 4783 0080 2300     		movs	r3, r4
 4784 0082 4133     		adds	r3, r3, #65
 4785 0084 0293     		str	r3, [sp, #8]
 4786 0086 2A23     		movs	r3, #42
 4787 0088 029A     		ldr	r2, [sp, #8]
 4788 008a 0026     		movs	r6, #0
 4789 008c 1370     		strb	r3, [r2]
 4790 008e 2300     		movs	r3, r4
 4791 0090 4233     		adds	r3, r3, #66
 4792 0092 0393     		str	r3, [sp, #12]
 4793 0094 2023     		movs	r3, #32
 4794 0096 039A     		ldr	r2, [sp, #12]
 4795 0098 1370     		strb	r3, [r2]
 4796 009a 2168     		ldr	r1, [r4]
 4797 009c 6664     		str	r6, [r4, #68]
 4798 009e 4B68     		ldr	r3, [r1, #4]
 4799 00a0 059A     		ldr	r2, [sp, #20]
 4800 00a2 1F40     		ands	r7, r3
 4801 00a4 4F60     		str	r7, [r1, #4]
 4802 00a6 2700     		movs	r7, r4
 4803 00a8 019B     		ldr	r3, [sp, #4]
 4804 00aa E06B     		ldr	r0, [r4, #60]
 4805 00ac 6362     		str	r3, [r4, #36]
 4806 00ae 049B     		ldr	r3, [sp, #16]
 4807 00b0 4037     		adds	r7, r7, #64
 4808 00b2 6385     		strh	r3, [r4, #42]
 4809 00b4 638D     		ldrh	r3, [r4, #42]
 4810 00b6 E262     		str	r2, [r4, #44]
 4811 00b8 304A     		ldr	r2, .L671+16
 4812 00ba 9BB2     		uxth	r3, r3
 4813 00bc 2385     		strh	r3, [r4, #40]
 4814 00be 6263     		str	r2, [r4, #52]
 4815 00c0 B042     		cmp	r0, r6
 4816 00c2 2CD0     		beq	.L643
ARM GAS  /tmp/ccdcCb4o.s 			page 84


 4817 00c4 2E4A     		ldr	r2, .L671+20
 4818 00c6 0663     		str	r6, [r0, #48]
 4819 00c8 C262     		str	r2, [r0, #44]
 4820 00ca 2E4A     		ldr	r2, .L671+24
 4821 00cc 8663     		str	r6, [r0, #56]
 4822 00ce 4263     		str	r2, [r0, #52]
 4823 00d0 2431     		adds	r1, r1, #36
 4824 00d2 019A     		ldr	r2, [sp, #4]
 4825 00d4 FFF7FEFF 		bl	HAL_DMA_Start_IT
 4826 00d8 0500     		movs	r5, r0
 4827 00da B042     		cmp	r0, r6
 4828 00dc 2AD0     		beq	.L644
 4829 00de 2823     		movs	r3, #40
 4830 00e0 029A     		ldr	r2, [sp, #8]
 4831 00e2 1370     		strb	r3, [r2]
 4832 00e4 039B     		ldr	r3, [sp, #12]
 4833 00e6 1E70     		strb	r6, [r3]
 4834 00e8 1023     		movs	r3, #16
 4835 00ea 626C     		ldr	r2, [r4, #68]
 4836 00ec 1343     		orrs	r3, r2
 4837 00ee 6364     		str	r3, [r4, #68]
 4838 00f0 3E70     		strb	r6, [r7]
 4839 00f2 9BE7     		b	.L670
 4840              	.L639:
 4841 00f4 3378     		ldrb	r3, [r6]
 4842 00f6 2A2B     		cmp	r3, #42
 4843 00f8 C2D1     		bne	.L641
 4844 00fa 2368     		ldr	r3, [r4]
 4845 00fc 1A68     		ldr	r2, [r3]
 4846 00fe 1204     		lsls	r2, r2, #16
 4847 0100 BED5     		bpl	.L641
 4848 0102 1A68     		ldr	r2, [r3]
 4849 0104 E06B     		ldr	r0, [r4, #60]
 4850 0106 3A40     		ands	r2, r7
 4851 0108 1A60     		str	r2, [r3]
 4852 010a 0028     		cmp	r0, #0
 4853 010c B8D0     		beq	.L641
 4854 010e 1A4B     		ldr	r3, .L671+12
 4855 0110 8363     		str	r3, [r0, #56]
 4856 0112 FFF7FEFF 		bl	HAL_DMA_Abort_IT
 4857 0116 0028     		cmp	r0, #0
 4858 0118 B2D0     		beq	.L641
 4859 011a E06B     		ldr	r0, [r4, #60]
 4860 011c AEE7     		b	.L669
 4861              	.L643:
 4862 011e 2823     		movs	r3, #40
 4863 0120 029A     		ldr	r2, [sp, #8]
 4864 0122 1370     		strb	r3, [r2]
 4865 0124 039B     		ldr	r3, [sp, #12]
 4866 0126 1870     		strb	r0, [r3]
 4867 0128 8023     		movs	r3, #128
 4868 012a 626C     		ldr	r2, [r4, #68]
 4869 012c 1343     		orrs	r3, r2
 4870 012e 6364     		str	r3, [r4, #68]
 4871 0130 3870     		strb	r0, [r7]
 4872 0132 7BE7     		b	.L670
 4873              	.L644:
ARM GAS  /tmp/ccdcCb4o.s 			page 85


 4874 0134 638D     		ldrh	r3, [r4, #42]
 4875 0136 228D     		ldrh	r2, [r4, #40]
 4876 0138 2085     		strh	r0, [r4, #40]
 4877 013a 9B1A     		subs	r3, r3, r2
 4878 013c 9BB2     		uxth	r3, r3
 4879 013e 6385     		strh	r3, [r4, #42]
 4880 0140 2368     		ldr	r3, [r4]
 4881 0142 9A69     		ldr	r2, [r3, #24]
 4882 0144 D203     		lsls	r2, r2, #15
 4883 0146 0CD5     		bpl	.L646
 4884              	.L647:
 4885 0148 0023     		movs	r3, #0
 4886 014a 0849     		ldr	r1, .L671
 4887 014c 3B70     		strb	r3, [r7]
 4888 014e 2000     		movs	r0, r4
 4889 0150 FFF7FEFF 		bl	I2C_Enable_IRQ
 4890 0154 8023     		movs	r3, #128
 4891 0156 2268     		ldr	r2, [r4]
 4892 0158 1B02     		lsls	r3, r3, #8
 4893 015a 1168     		ldr	r1, [r2]
 4894 015c 0B43     		orrs	r3, r1
 4895 015e 1360     		str	r3, [r2]
 4896 0160 65E7     		b	.L636
 4897              	.L646:
 4898 0162 0822     		movs	r2, #8
 4899 0164 DA61     		str	r2, [r3, #28]
 4900 0166 EFE7     		b	.L647
 4901              	.L649:
 4902 0168 0225     		movs	r5, #2
 4903 016a 60E7     		b	.L636
 4904              	.L672:
 4905              		.align	2
 4906              	.L671:
 4907 016c 02800000 		.word	32770
 4908 0170 FF7FFFFF 		.word	-32769
 4909 0174 FFBFFFFF 		.word	-16385
 4910 0178 00000000 		.word	I2C_DMAAbort
 4911 017c 00000000 		.word	I2C_Slave_ISR_DMA
 4912 0180 00000000 		.word	I2C_DMASlaveReceiveCplt
 4913 0184 00000000 		.word	I2C_DMAError
 4915              		.section	.text.HAL_I2C_EnableListen_IT,"ax",%progbits
 4916              		.align	1
 4917              		.global	HAL_I2C_EnableListen_IT
 4918              		.syntax unified
 4919              		.code	16
 4920              		.thumb_func
 4921              		.fpu softvfp
 4923              	HAL_I2C_EnableListen_IT:
 4924              		@ args = 0, pretend = 0, frame = 0
 4925              		@ frame_needed = 0, uses_anonymous_args = 0
 4926 0000 0200     		movs	r2, r0
 4927 0002 10B5     		push	{r4, lr}
 4928 0004 4132     		adds	r2, r2, #65
 4929 0006 1178     		ldrb	r1, [r2]
 4930 0008 0223     		movs	r3, #2
 4931 000a 2029     		cmp	r1, #32
 4932 000c 08D1     		bne	.L674
ARM GAS  /tmp/ccdcCb4o.s 			page 86


 4933 000e 8021     		movs	r1, #128
 4934 0010 2633     		adds	r3, r3, #38
 4935 0012 1370     		strb	r3, [r2]
 4936 0014 034B     		ldr	r3, .L676
 4937 0016 0902     		lsls	r1, r1, #8
 4938 0018 4363     		str	r3, [r0, #52]
 4939 001a FFF7FEFF 		bl	I2C_Enable_IRQ
 4940 001e 0023     		movs	r3, #0
 4941              	.L674:
 4942              		@ sp needed
 4943 0020 1800     		movs	r0, r3
 4944 0022 10BD     		pop	{r4, pc}
 4945              	.L677:
 4946              		.align	2
 4947              	.L676:
 4948 0024 00000000 		.word	I2C_Slave_ISR_IT
 4950              		.section	.text.HAL_I2C_DisableListen_IT,"ax",%progbits
 4951              		.align	1
 4952              		.global	HAL_I2C_DisableListen_IT
 4953              		.syntax unified
 4954              		.code	16
 4955              		.thumb_func
 4956              		.fpu softvfp
 4958              	HAL_I2C_DisableListen_IT:
 4959              		@ args = 0, pretend = 0, frame = 0
 4960              		@ frame_needed = 0, uses_anonymous_args = 0
 4961 0000 0300     		movs	r3, r0
 4962 0002 70B5     		push	{r4, r5, r6, lr}
 4963 0004 4133     		adds	r3, r3, #65
 4964 0006 1A78     		ldrb	r2, [r3]
 4965 0008 0224     		movs	r4, #2
 4966 000a 282A     		cmp	r2, #40
 4967 000c 10D1     		bne	.L679
 4968 000e 0500     		movs	r5, r0
 4969 0010 1978     		ldrb	r1, [r3]
 4970 0012 4235     		adds	r5, r5, #66
 4971 0014 2A78     		ldrb	r2, [r5]
 4972 0016 0134     		adds	r4, r4, #1
 4973 0018 2140     		ands	r1, r4
 4974 001a 0A43     		orrs	r2, r1
 4975 001c 0263     		str	r2, [r0, #48]
 4976 001e 0024     		movs	r4, #0
 4977 0020 2022     		movs	r2, #32
 4978 0022 8021     		movs	r1, #128
 4979 0024 1A70     		strb	r2, [r3]
 4980 0026 0902     		lsls	r1, r1, #8
 4981 0028 2C70     		strb	r4, [r5]
 4982 002a 4463     		str	r4, [r0, #52]
 4983 002c FFF7FEFF 		bl	I2C_Disable_IRQ
 4984              	.L679:
 4985              		@ sp needed
 4986 0030 2000     		movs	r0, r4
 4987 0032 70BD     		pop	{r4, r5, r6, pc}
 4989              		.section	.text.HAL_I2C_Master_Abort_IT,"ax",%progbits
 4990              		.align	1
 4991              		.global	HAL_I2C_Master_Abort_IT
 4992              		.syntax unified
ARM GAS  /tmp/ccdcCb4o.s 			page 87


 4993              		.code	16
 4994              		.thumb_func
 4995              		.fpu softvfp
 4997              	HAL_I2C_Master_Abort_IT:
 4998              		@ args = 0, pretend = 0, frame = 0
 4999              		@ frame_needed = 0, uses_anonymous_args = 0
 5000 0000 0300     		movs	r3, r0
 5001 0002 F7B5     		push	{r0, r1, r2, r4, r5, r6, r7, lr}
 5002 0004 4233     		adds	r3, r3, #66
 5003 0006 1B78     		ldrb	r3, [r3]
 5004 0008 0E00     		movs	r6, r1
 5005 000a 0400     		movs	r4, r0
 5006 000c 0121     		movs	r1, #1
 5007 000e 102B     		cmp	r3, #16
 5008 0010 20D1     		bne	.L682
 5009 0012 0500     		movs	r5, r0
 5010 0014 4035     		adds	r5, r5, #64
 5011 0016 2B78     		ldrb	r3, [r5]
 5012 0018 8B42     		cmp	r3, r1
 5013 001a 25D0     		beq	.L686
 5014 001c 0700     		movs	r7, r0
 5015 001e 2970     		strb	r1, [r5]
 5016 0020 4137     		adds	r7, r7, #65
 5017 0022 3B78     		ldrb	r3, [r7]
 5018 0024 212B     		cmp	r3, #33
 5019 0026 17D1     		bne	.L683
 5020 0028 FFF7FEFF 		bl	I2C_Disable_IRQ
 5021 002c 1123     		movs	r3, #17
 5022              	.L687:
 5023 002e 2363     		str	r3, [r4, #48]
 5024              	.L684:
 5025 0030 6023     		movs	r3, #96
 5026 0032 3B70     		strb	r3, [r7]
 5027 0034 0D4B     		ldr	r3, .L688
 5028 0036 3100     		movs	r1, r6
 5029 0038 0093     		str	r3, [sp]
 5030 003a 8023     		movs	r3, #128
 5031 003c 0026     		movs	r6, #0
 5032 003e 0122     		movs	r2, #1
 5033 0040 2000     		movs	r0, r4
 5034 0042 9B04     		lsls	r3, r3, #18
 5035 0044 FFF7FEFF 		bl	I2C_TransferConfig
 5036 0048 2021     		movs	r1, #32
 5037 004a 2000     		movs	r0, r4
 5038 004c 2E70     		strb	r6, [r5]
 5039 004e FFF7FEFF 		bl	I2C_Enable_IRQ
 5040 0052 3100     		movs	r1, r6
 5041              	.L682:
 5042              		@ sp needed
 5043 0054 0800     		movs	r0, r1
 5044 0056 FEBD     		pop	{r1, r2, r3, r4, r5, r6, r7, pc}
 5045              	.L683:
 5046 0058 3B78     		ldrb	r3, [r7]
 5047 005a 222B     		cmp	r3, #34
 5048 005c E8D1     		bne	.L684
 5049 005e 0221     		movs	r1, #2
 5050 0060 FFF7FEFF 		bl	I2C_Disable_IRQ
ARM GAS  /tmp/ccdcCb4o.s 			page 88


 5051 0064 1223     		movs	r3, #18
 5052 0066 E2E7     		b	.L687
 5053              	.L686:
 5054 0068 0221     		movs	r1, #2
 5055 006a F3E7     		b	.L682
 5056              	.L689:
 5057              		.align	2
 5058              	.L688:
 5059 006c 00400080 		.word	-2147467264
 5061              		.section	.text.HAL_I2C_EV_IRQHandler,"ax",%progbits
 5062              		.align	1
 5063              		.global	HAL_I2C_EV_IRQHandler
 5064              		.syntax unified
 5065              		.code	16
 5066              		.thumb_func
 5067              		.fpu softvfp
 5069              	HAL_I2C_EV_IRQHandler:
 5070              		@ args = 0, pretend = 0, frame = 0
 5071              		@ frame_needed = 0, uses_anonymous_args = 0
 5072 0000 0368     		ldr	r3, [r0]
 5073 0002 10B5     		push	{r4, lr}
 5074 0004 9969     		ldr	r1, [r3, #24]
 5075 0006 1A68     		ldr	r2, [r3]
 5076 0008 436B     		ldr	r3, [r0, #52]
 5077 000a 002B     		cmp	r3, #0
 5078 000c 00D0     		beq	.L690
 5079 000e 9847     		blx	r3
 5080              	.L690:
 5081              		@ sp needed
 5082 0010 10BD     		pop	{r4, pc}
 5084              		.section	.text.HAL_I2C_MasterTxCpltCallback,"ax",%progbits
 5085              		.align	1
 5086              		.weak	HAL_I2C_MasterTxCpltCallback
 5087              		.syntax unified
 5088              		.code	16
 5089              		.thumb_func
 5090              		.fpu softvfp
 5092              	HAL_I2C_MasterTxCpltCallback:
 5093              		@ args = 0, pretend = 0, frame = 0
 5094              		@ frame_needed = 0, uses_anonymous_args = 0
 5095              		@ link register save eliminated.
 5096              		@ sp needed
 5097 0000 7047     		bx	lr
 5099              		.section	.text.HAL_I2C_MasterRxCpltCallback,"ax",%progbits
 5100              		.align	1
 5101              		.weak	HAL_I2C_MasterRxCpltCallback
 5102              		.syntax unified
 5103              		.code	16
 5104              		.thumb_func
 5105              		.fpu softvfp
 5107              	HAL_I2C_MasterRxCpltCallback:
 5108              		@ args = 0, pretend = 0, frame = 0
 5109              		@ frame_needed = 0, uses_anonymous_args = 0
 5110              		@ link register save eliminated.
 5111              		@ sp needed
 5112 0000 7047     		bx	lr
 5114              		.section	.text.I2C_ITMasterSeqCplt,"ax",%progbits
ARM GAS  /tmp/ccdcCb4o.s 			page 89


 5115              		.align	1
 5116              		.syntax unified
 5117              		.code	16
 5118              		.thumb_func
 5119              		.fpu softvfp
 5121              	I2C_ITMasterSeqCplt:
 5122              		@ args = 0, pretend = 0, frame = 0
 5123              		@ frame_needed = 0, uses_anonymous_args = 0
 5124 0000 0300     		movs	r3, r0
 5125 0002 70B5     		push	{r4, r5, r6, lr}
 5126 0004 0025     		movs	r5, #0
 5127 0006 2022     		movs	r2, #32
 5128 0008 0600     		movs	r6, r0
 5129 000a 4233     		adds	r3, r3, #66
 5130 000c 1D70     		strb	r5, [r3]
 5131 000e 013B     		subs	r3, r3, #1
 5132 0010 1978     		ldrb	r1, [r3]
 5133 0012 0400     		movs	r4, r0
 5134 0014 4036     		adds	r6, r6, #64
 5135 0016 1A70     		strb	r2, [r3]
 5136 0018 2129     		cmp	r1, #33
 5137 001a 0AD1     		bne	.L698
 5138 001c 1123     		movs	r3, #17
 5139 001e 4563     		str	r5, [r0, #52]
 5140 0020 0363     		str	r3, [r0, #48]
 5141 0022 2039     		subs	r1, r1, #32
 5142 0024 FFF7FEFF 		bl	I2C_Disable_IRQ
 5143 0028 2000     		movs	r0, r4
 5144 002a 3570     		strb	r5, [r6]
 5145 002c FFF7FEFF 		bl	HAL_I2C_MasterTxCpltCallback
 5146              	.L697:
 5147              		@ sp needed
 5148 0030 70BD     		pop	{r4, r5, r6, pc}
 5149              	.L698:
 5150 0032 1223     		movs	r3, #18
 5151 0034 4563     		str	r5, [r0, #52]
 5152 0036 0363     		str	r3, [r0, #48]
 5153 0038 0221     		movs	r1, #2
 5154 003a FFF7FEFF 		bl	I2C_Disable_IRQ
 5155 003e 2000     		movs	r0, r4
 5156 0040 3570     		strb	r5, [r6]
 5157 0042 FFF7FEFF 		bl	HAL_I2C_MasterRxCpltCallback
 5158 0046 F3E7     		b	.L697
 5160              		.section	.text.HAL_I2C_SlaveTxCpltCallback,"ax",%progbits
 5161              		.align	1
 5162              		.weak	HAL_I2C_SlaveTxCpltCallback
 5163              		.syntax unified
 5164              		.code	16
 5165              		.thumb_func
 5166              		.fpu softvfp
 5168              	HAL_I2C_SlaveTxCpltCallback:
 5169              		@ args = 0, pretend = 0, frame = 0
 5170              		@ frame_needed = 0, uses_anonymous_args = 0
 5171              		@ link register save eliminated.
 5172              		@ sp needed
 5173 0000 7047     		bx	lr
 5175              		.section	.text.HAL_I2C_SlaveRxCpltCallback,"ax",%progbits
ARM GAS  /tmp/ccdcCb4o.s 			page 90


 5176              		.align	1
 5177              		.weak	HAL_I2C_SlaveRxCpltCallback
 5178              		.syntax unified
 5179              		.code	16
 5180              		.thumb_func
 5181              		.fpu softvfp
 5183              	HAL_I2C_SlaveRxCpltCallback:
 5184              		@ args = 0, pretend = 0, frame = 0
 5185              		@ frame_needed = 0, uses_anonymous_args = 0
 5186              		@ link register save eliminated.
 5187              		@ sp needed
 5188 0000 7047     		bx	lr
 5190              		.section	.text.I2C_ITSlaveSeqCplt,"ax",%progbits
 5191              		.align	1
 5192              		.syntax unified
 5193              		.code	16
 5194              		.thumb_func
 5195              		.fpu softvfp
 5197              	I2C_ITSlaveSeqCplt:
 5198              		@ args = 0, pretend = 0, frame = 0
 5199              		@ frame_needed = 0, uses_anonymous_args = 0
 5200 0000 0100     		movs	r1, r0
 5201 0002 0368     		ldr	r3, [r0]
 5202 0004 10B5     		push	{r4, lr}
 5203 0006 0400     		movs	r4, r0
 5204 0008 0020     		movs	r0, #0
 5205 000a 1A68     		ldr	r2, [r3]
 5206 000c 4231     		adds	r1, r1, #66
 5207 000e 0870     		strb	r0, [r1]
 5208 0010 0121     		movs	r1, #1
 5209 0012 5004     		lsls	r0, r2, #17
 5210 0014 18D5     		bpl	.L703
 5211 0016 1A68     		ldr	r2, [r3]
 5212 0018 1849     		ldr	r1, .L711
 5213              	.L710:
 5214 001a 0A40     		ands	r2, r1
 5215 001c 1A60     		str	r2, [r3]
 5216              	.L704:
 5217 001e 2300     		movs	r3, r4
 5218 0020 4133     		adds	r3, r3, #65
 5219 0022 1A78     		ldrb	r2, [r3]
 5220 0024 292A     		cmp	r2, #41
 5221 0026 15D1     		bne	.L705
 5222 0028 013A     		subs	r2, r2, #1
 5223 002a 1A70     		strb	r2, [r3]
 5224 002c 2123     		movs	r3, #33
 5225 002e 2000     		movs	r0, r4
 5226 0030 2363     		str	r3, [r4, #48]
 5227 0032 0121     		movs	r1, #1
 5228 0034 FFF7FEFF 		bl	I2C_Disable_IRQ
 5229 0038 2300     		movs	r3, r4
 5230 003a 0022     		movs	r2, #0
 5231 003c 4033     		adds	r3, r3, #64
 5232 003e 2000     		movs	r0, r4
 5233 0040 1A70     		strb	r2, [r3]
 5234 0042 FFF7FEFF 		bl	HAL_I2C_SlaveTxCpltCallback
 5235              	.L702:
ARM GAS  /tmp/ccdcCb4o.s 			page 91


 5236              		@ sp needed
 5237 0046 10BD     		pop	{r4, pc}
 5238              	.L703:
 5239 0048 D20B     		lsrs	r2, r2, #15
 5240 004a 0A42     		tst	r2, r1
 5241 004c E7D0     		beq	.L704
 5242 004e 1A68     		ldr	r2, [r3]
 5243 0050 0B49     		ldr	r1, .L711+4
 5244 0052 E2E7     		b	.L710
 5245              	.L705:
 5246 0054 1A78     		ldrb	r2, [r3]
 5247 0056 2A2A     		cmp	r2, #42
 5248 0058 F5D1     		bne	.L702
 5249 005a 023A     		subs	r2, r2, #2
 5250 005c 1A70     		strb	r2, [r3]
 5251 005e 2223     		movs	r3, #34
 5252 0060 2000     		movs	r0, r4
 5253 0062 2363     		str	r3, [r4, #48]
 5254 0064 0221     		movs	r1, #2
 5255 0066 FFF7FEFF 		bl	I2C_Disable_IRQ
 5256 006a 2300     		movs	r3, r4
 5257 006c 0022     		movs	r2, #0
 5258 006e 4033     		adds	r3, r3, #64
 5259 0070 2000     		movs	r0, r4
 5260 0072 1A70     		strb	r2, [r3]
 5261 0074 FFF7FEFF 		bl	HAL_I2C_SlaveRxCpltCallback
 5262 0078 E5E7     		b	.L702
 5263              	.L712:
 5264 007a C046     		.align	2
 5265              	.L711:
 5266 007c FFBFFFFF 		.word	-16385
 5267 0080 FF7FFFFF 		.word	-32769
 5269              		.section	.text.I2C_DMASlaveTransmitCplt,"ax",%progbits
 5270              		.align	1
 5271              		.syntax unified
 5272              		.code	16
 5273              		.thumb_func
 5274              		.fpu softvfp
 5276              	I2C_DMASlaveTransmitCplt:
 5277              		@ args = 0, pretend = 0, frame = 0
 5278              		@ frame_needed = 0, uses_anonymous_args = 0
 5279 0000 806A     		ldr	r0, [r0, #40]
 5280 0002 064B     		ldr	r3, .L715
 5281 0004 C26A     		ldr	r2, [r0, #44]
 5282 0006 10B5     		push	{r4, lr}
 5283 0008 1A42     		tst	r2, r3
 5284 000a 06D1     		bne	.L713
 5285 000c 0268     		ldr	r2, [r0]
 5286 000e 0449     		ldr	r1, .L715+4
 5287 0010 1368     		ldr	r3, [r2]
 5288 0012 0B40     		ands	r3, r1
 5289 0014 1360     		str	r3, [r2]
 5290 0016 FFF7FEFF 		bl	I2C_ITSlaveSeqCplt
 5291              	.L713:
 5292              		@ sp needed
 5293 001a 10BD     		pop	{r4, pc}
 5294              	.L716:
ARM GAS  /tmp/ccdcCb4o.s 			page 92


 5295              		.align	2
 5296              	.L715:
 5297 001c FFFFFFFE 		.word	-16777217
 5298 0020 FFBFFFFF 		.word	-16385
 5300              		.section	.text.I2C_DMASlaveReceiveCplt,"ax",%progbits
 5301              		.align	1
 5302              		.syntax unified
 5303              		.code	16
 5304              		.thumb_func
 5305              		.fpu softvfp
 5307              	I2C_DMASlaveReceiveCplt:
 5308              		@ args = 0, pretend = 0, frame = 0
 5309              		@ frame_needed = 0, uses_anonymous_args = 0
 5310 0000 806A     		ldr	r0, [r0, #40]
 5311 0002 10B5     		push	{r4, lr}
 5312 0004 C36B     		ldr	r3, [r0, #60]
 5313 0006 C26A     		ldr	r2, [r0, #44]
 5314 0008 1B68     		ldr	r3, [r3]
 5315 000a 5B68     		ldr	r3, [r3, #4]
 5316 000c 002B     		cmp	r3, #0
 5317 000e 09D1     		bne	.L717
 5318 0010 054B     		ldr	r3, .L719
 5319 0012 9A42     		cmp	r2, r3
 5320 0014 06D0     		beq	.L717
 5321 0016 0268     		ldr	r2, [r0]
 5322 0018 0449     		ldr	r1, .L719+4
 5323 001a 1368     		ldr	r3, [r2]
 5324 001c 0B40     		ands	r3, r1
 5325 001e 1360     		str	r3, [r2]
 5326 0020 FFF7FEFF 		bl	I2C_ITSlaveSeqCplt
 5327              	.L717:
 5328              		@ sp needed
 5329 0024 10BD     		pop	{r4, pc}
 5330              	.L720:
 5331 0026 C046     		.align	2
 5332              	.L719:
 5333 0028 0000FFFF 		.word	-65536
 5334 002c FF7FFFFF 		.word	-32769
 5336              		.section	.text.HAL_I2C_AddrCallback,"ax",%progbits
 5337              		.align	1
 5338              		.weak	HAL_I2C_AddrCallback
 5339              		.syntax unified
 5340              		.code	16
 5341              		.thumb_func
 5342              		.fpu softvfp
 5344              	HAL_I2C_AddrCallback:
 5345              		@ args = 0, pretend = 0, frame = 0
 5346              		@ frame_needed = 0, uses_anonymous_args = 0
 5347              		@ link register save eliminated.
 5348              		@ sp needed
 5349 0000 7047     		bx	lr
 5351              		.section	.text.I2C_ITAddrCplt.constprop.0,"ax",%progbits
 5352              		.align	1
 5353              		.syntax unified
 5354              		.code	16
 5355              		.thumb_func
 5356              		.fpu softvfp
ARM GAS  /tmp/ccdcCb4o.s 			page 93


 5358              	I2C_ITAddrCplt.constprop.0:
 5359              		@ args = 0, pretend = 0, frame = 8
 5360              		@ frame_needed = 0, uses_anonymous_args = 0
 5361 0000 0300     		movs	r3, r0
 5362 0002 F7B5     		push	{r0, r1, r2, r4, r5, r6, r7, lr}
 5363 0004 2822     		movs	r2, #40
 5364 0006 4133     		adds	r3, r3, #65
 5365 0008 1B78     		ldrb	r3, [r3]
 5366 000a 0400     		movs	r4, r0
 5367 000c 0168     		ldr	r1, [r0]
 5368 000e 1340     		ands	r3, r2
 5369 0010 9342     		cmp	r3, r2
 5370 0012 3CD1     		bne	.L723
 5371 0014 FE27     		movs	r7, #254
 5372 0016 8D69     		ldr	r5, [r1, #24]
 5373 0018 8E69     		ldr	r6, [r1, #24]
 5374 001a 8B68     		ldr	r3, [r1, #8]
 5375 001c CA68     		ldr	r2, [r1, #12]
 5376 001e ED03     		lsls	r5, r5, #15
 5377 0020 0192     		str	r2, [sp, #4]
 5378 0022 C268     		ldr	r2, [r0, #12]
 5379 0024 360C     		lsrs	r6, r6, #16
 5380 0026 ED0F     		lsrs	r5, r5, #31
 5381 0028 3E40     		ands	r6, r7
 5382 002a 022A     		cmp	r2, #2
 5383 002c 25D1     		bne	.L724
 5384 002e 9B05     		lsls	r3, r3, #22
 5385 0030 9A0D     		lsrs	r2, r3, #22
 5386 0032 5B0F     		lsrs	r3, r3, #29
 5387 0034 5E40     		eors	r6, r3
 5388 0036 3000     		movs	r0, r6
 5389 0038 0623     		movs	r3, #6
 5390 003a 1840     		ands	r0, r3
 5391 003c 1E42     		tst	r6, r3
 5392 003e 10D1     		bne	.L725
 5393 0040 A36C     		ldr	r3, [r4, #72]
 5394 0042 0133     		adds	r3, r3, #1
 5395 0044 A364     		str	r3, [r4, #72]
 5396 0046 A36C     		ldr	r3, [r4, #72]
 5397 0048 022B     		cmp	r3, #2
 5398 004a 09D1     		bne	.L722
 5399 004c 0633     		adds	r3, r3, #6
 5400 004e A064     		str	r0, [r4, #72]
 5401 0050 CB61     		str	r3, [r1, #28]
 5402 0052 2300     		movs	r3, r4
 5403 0054 4033     		adds	r3, r3, #64
 5404 0056 1870     		strb	r0, [r3]
 5405              	.L727:
 5406 0058 2900     		movs	r1, r5
 5407 005a 2000     		movs	r0, r4
 5408 005c FFF7FEFF 		bl	HAL_I2C_AddrCallback
 5409              	.L722:
 5410              		@ sp needed
 5411 0060 F7BD     		pop	{r0, r1, r2, r4, r5, r6, r7, pc}
 5412              	.L725:
 5413 0062 8021     		movs	r1, #128
 5414 0064 2000     		movs	r0, r4
ARM GAS  /tmp/ccdcCb4o.s 			page 94


 5415 0066 0902     		lsls	r1, r1, #8
 5416 0068 FFF7FEFF 		bl	I2C_Disable_IRQ
 5417 006c 2300     		movs	r3, r4
 5418 006e 0022     		movs	r2, #0
 5419 0070 4033     		adds	r3, r3, #64
 5420 0072 1A70     		strb	r2, [r3]
 5421 0074 019A     		ldr	r2, [sp, #4]
 5422 0076 3A40     		ands	r2, r7
 5423 0078 EEE7     		b	.L727
 5424              	.L724:
 5425 007a 8021     		movs	r1, #128
 5426 007c 0902     		lsls	r1, r1, #8
 5427 007e FFF7FEFF 		bl	I2C_Disable_IRQ
 5428 0082 2300     		movs	r3, r4
 5429 0084 0022     		movs	r2, #0
 5430 0086 4033     		adds	r3, r3, #64
 5431 0088 1A70     		strb	r2, [r3]
 5432 008a 3200     		movs	r2, r6
 5433 008c E4E7     		b	.L727
 5434              	.L723:
 5435 008e 0823     		movs	r3, #8
 5436 0090 CB61     		str	r3, [r1, #28]
 5437 0092 0023     		movs	r3, #0
 5438 0094 4034     		adds	r4, r4, #64
 5439 0096 2370     		strb	r3, [r4]
 5440 0098 E2E7     		b	.L722
 5442              		.section	.text.HAL_I2C_ListenCpltCallback,"ax",%progbits
 5443              		.align	1
 5444              		.weak	HAL_I2C_ListenCpltCallback
 5445              		.syntax unified
 5446              		.code	16
 5447              		.thumb_func
 5448              		.fpu softvfp
 5450              	HAL_I2C_ListenCpltCallback:
 5451              		@ args = 0, pretend = 0, frame = 0
 5452              		@ frame_needed = 0, uses_anonymous_args = 0
 5453              		@ link register save eliminated.
 5454              		@ sp needed
 5455 0000 7047     		bx	lr
 5457              		.section	.text.I2C_ITListenCplt,"ax",%progbits
 5458              		.align	1
 5459              		.syntax unified
 5460              		.code	16
 5461              		.thumb_func
 5462              		.fpu softvfp
 5464              	I2C_ITListenCplt:
 5465              		@ args = 0, pretend = 0, frame = 0
 5466              		@ frame_needed = 0, uses_anonymous_args = 0
 5467 0000 184B     		ldr	r3, .L736
 5468 0002 10B5     		push	{r4, lr}
 5469 0004 C362     		str	r3, [r0, #44]
 5470 0006 0023     		movs	r3, #0
 5471 0008 0200     		movs	r2, r0
 5472 000a 0363     		str	r3, [r0, #48]
 5473 000c 0400     		movs	r4, r0
 5474 000e 2020     		movs	r0, #32
 5475 0010 4132     		adds	r2, r2, #65
ARM GAS  /tmp/ccdcCb4o.s 			page 95


 5476 0012 1070     		strb	r0, [r2]
 5477 0014 5370     		strb	r3, [r2, #1]
 5478 0016 6363     		str	r3, [r4, #52]
 5479 0018 4B07     		lsls	r3, r1, #29
 5480 001a 13D5     		bpl	.L731
 5481 001c 2368     		ldr	r3, [r4]
 5482 001e 626A     		ldr	r2, [r4, #36]
 5483 0020 5B6A     		ldr	r3, [r3, #36]
 5484 0022 1370     		strb	r3, [r2]
 5485 0024 636A     		ldr	r3, [r4, #36]
 5486 0026 0133     		adds	r3, r3, #1
 5487 0028 6362     		str	r3, [r4, #36]
 5488 002a 238D     		ldrh	r3, [r4, #40]
 5489 002c 002B     		cmp	r3, #0
 5490 002e 09D0     		beq	.L731
 5491 0030 013B     		subs	r3, r3, #1
 5492 0032 2385     		strh	r3, [r4, #40]
 5493 0034 638D     		ldrh	r3, [r4, #42]
 5494 0036 013B     		subs	r3, r3, #1
 5495 0038 9BB2     		uxth	r3, r3
 5496 003a 6385     		strh	r3, [r4, #42]
 5497 003c 0423     		movs	r3, #4
 5498 003e 626C     		ldr	r2, [r4, #68]
 5499 0040 1343     		orrs	r3, r2
 5500 0042 6364     		str	r3, [r4, #68]
 5501              	.L731:
 5502 0044 2000     		movs	r0, r4
 5503              		@ sp needed
 5504 0046 0849     		ldr	r1, .L736+4
 5505 0048 FFF7FEFF 		bl	I2C_Disable_IRQ
 5506 004c 1022     		movs	r2, #16
 5507 004e 2368     		ldr	r3, [r4]
 5508 0050 2000     		movs	r0, r4
 5509 0052 DA61     		str	r2, [r3, #28]
 5510 0054 2300     		movs	r3, r4
 5511 0056 0022     		movs	r2, #0
 5512 0058 4033     		adds	r3, r3, #64
 5513 005a 1A70     		strb	r2, [r3]
 5514 005c FFF7FEFF 		bl	HAL_I2C_ListenCpltCallback
 5515 0060 10BD     		pop	{r4, pc}
 5516              	.L737:
 5517 0062 C046     		.align	2
 5518              	.L736:
 5519 0064 0000FFFF 		.word	-65536
 5520 0068 03800000 		.word	32771
 5522              		.section	.text.HAL_I2C_MemTxCpltCallback,"ax",%progbits
 5523              		.align	1
 5524              		.weak	HAL_I2C_MemTxCpltCallback
 5525              		.syntax unified
 5526              		.code	16
 5527              		.thumb_func
 5528              		.fpu softvfp
 5530              	HAL_I2C_MemTxCpltCallback:
 5531              		@ args = 0, pretend = 0, frame = 0
 5532              		@ frame_needed = 0, uses_anonymous_args = 0
 5533              		@ link register save eliminated.
 5534              		@ sp needed
ARM GAS  /tmp/ccdcCb4o.s 			page 96


 5535 0000 7047     		bx	lr
 5537              		.section	.text.HAL_I2C_MemRxCpltCallback,"ax",%progbits
 5538              		.align	1
 5539              		.weak	HAL_I2C_MemRxCpltCallback
 5540              		.syntax unified
 5541              		.code	16
 5542              		.thumb_func
 5543              		.fpu softvfp
 5545              	HAL_I2C_MemRxCpltCallback:
 5546              		@ args = 0, pretend = 0, frame = 0
 5547              		@ frame_needed = 0, uses_anonymous_args = 0
 5548              		@ link register save eliminated.
 5549              		@ sp needed
 5550 0000 7047     		bx	lr
 5552              		.section	.text.HAL_I2C_ErrorCallback,"ax",%progbits
 5553              		.align	1
 5554              		.weak	HAL_I2C_ErrorCallback
 5555              		.syntax unified
 5556              		.code	16
 5557              		.thumb_func
 5558              		.fpu softvfp
 5560              	HAL_I2C_ErrorCallback:
 5561              		@ args = 0, pretend = 0, frame = 0
 5562              		@ frame_needed = 0, uses_anonymous_args = 0
 5563              		@ link register save eliminated.
 5564              		@ sp needed
 5565 0000 7047     		bx	lr
 5567              		.section	.text.HAL_I2C_AbortCpltCallback,"ax",%progbits
 5568              		.align	1
 5569              		.weak	HAL_I2C_AbortCpltCallback
 5570              		.syntax unified
 5571              		.code	16
 5572              		.thumb_func
 5573              		.fpu softvfp
 5575              	HAL_I2C_AbortCpltCallback:
 5576              		@ args = 0, pretend = 0, frame = 0
 5577              		@ frame_needed = 0, uses_anonymous_args = 0
 5578              		@ link register save eliminated.
 5579              		@ sp needed
 5580 0000 7047     		bx	lr
 5582              		.section	.text.I2C_TreatErrorCallback,"ax",%progbits
 5583              		.align	1
 5584              		.syntax unified
 5585              		.code	16
 5586              		.thumb_func
 5587              		.fpu softvfp
 5589              	I2C_TreatErrorCallback:
 5590              		@ args = 0, pretend = 0, frame = 0
 5591              		@ frame_needed = 0, uses_anonymous_args = 0
 5592 0000 0100     		movs	r1, r0
 5593 0002 0200     		movs	r2, r0
 5594 0004 10B5     		push	{r4, lr}
 5595 0006 4131     		adds	r1, r1, #65
 5596 0008 0C78     		ldrb	r4, [r1]
 5597 000a 0023     		movs	r3, #0
 5598 000c 4032     		adds	r2, r2, #64
 5599 000e 602C     		cmp	r4, #96
ARM GAS  /tmp/ccdcCb4o.s 			page 97


 5600 0010 06D1     		bne	.L743
 5601 0012 403C     		subs	r4, r4, #64
 5602 0014 0C70     		strb	r4, [r1]
 5603 0016 0363     		str	r3, [r0, #48]
 5604 0018 1370     		strb	r3, [r2]
 5605 001a FFF7FEFF 		bl	HAL_I2C_AbortCpltCallback
 5606              	.L742:
 5607              		@ sp needed
 5608 001e 10BD     		pop	{r4, pc}
 5609              	.L743:
 5610 0020 0363     		str	r3, [r0, #48]
 5611 0022 1370     		strb	r3, [r2]
 5612 0024 FFF7FEFF 		bl	HAL_I2C_ErrorCallback
 5613 0028 F9E7     		b	.L742
 5615              		.section	.text.I2C_ITError,"ax",%progbits
 5616              		.align	1
 5617              		.syntax unified
 5618              		.code	16
 5619              		.thumb_func
 5620              		.fpu softvfp
 5622              	I2C_ITError:
 5623              		@ args = 0, pretend = 0, frame = 0
 5624              		@ frame_needed = 0, uses_anonymous_args = 0
 5625 0000 70B5     		push	{r4, r5, r6, lr}
 5626 0002 0200     		movs	r2, r0
 5627 0004 0500     		movs	r5, r0
 5628 0006 0400     		movs	r4, r0
 5629 0008 0020     		movs	r0, #0
 5630 000a 4232     		adds	r2, r2, #66
 5631 000c 4135     		adds	r5, r5, #65
 5632 000e 2B78     		ldrb	r3, [r5]
 5633 0010 1070     		strb	r0, [r2]
 5634 0012 324A     		ldr	r2, .L782
 5635 0014 283B     		subs	r3, r3, #40
 5636 0016 E262     		str	r2, [r4, #44]
 5637 0018 6085     		strh	r0, [r4, #42]
 5638 001a 626C     		ldr	r2, [r4, #68]
 5639 001c 0A43     		orrs	r2, r1
 5640 001e 6264     		str	r2, [r4, #68]
 5641 0020 022B     		cmp	r3, #2
 5642 0022 2BD8     		bhi	.L746
 5643 0024 0321     		movs	r1, #3
 5644 0026 2000     		movs	r0, r4
 5645 0028 FFF7FEFF 		bl	I2C_Disable_IRQ
 5646 002c 2823     		movs	r3, #40
 5647 002e 2B70     		strb	r3, [r5]
 5648 0030 2B4B     		ldr	r3, .L782+4
 5649              	.L780:
 5650 0032 A06B     		ldr	r0, [r4, #56]
 5651 0034 6363     		str	r3, [r4, #52]
 5652 0036 236B     		ldr	r3, [r4, #48]
 5653 0038 0028     		cmp	r0, #0
 5654 003a 2ED0     		beq	.L749
 5655 003c 1A00     		movs	r2, r3
 5656 003e 1021     		movs	r1, #16
 5657 0040 113A     		subs	r2, r2, #17
 5658 0042 8A43     		bics	r2, r1
ARM GAS  /tmp/ccdcCb4o.s 			page 98


 5659 0044 29D1     		bne	.L749
 5660 0046 2368     		ldr	r3, [r4]
 5661 0048 1A68     		ldr	r2, [r3]
 5662 004a 5204     		lsls	r2, r2, #17
 5663 004c 03D5     		bpl	.L750
 5664 004e 1A68     		ldr	r2, [r3]
 5665 0050 2449     		ldr	r1, .L782+8
 5666 0052 0A40     		ands	r2, r1
 5667 0054 1A60     		str	r2, [r3]
 5668              	.L750:
 5669 0056 FFF7FEFF 		bl	HAL_DMA_GetState
 5670 005a 0128     		cmp	r0, #1
 5671 005c 19D0     		beq	.L751
 5672 005e A06B     		ldr	r0, [r4, #56]
 5673 0060 214B     		ldr	r3, .L782+12
 5674 0062 0022     		movs	r2, #0
 5675 0064 8363     		str	r3, [r0, #56]
 5676 0066 2300     		movs	r3, r4
 5677 0068 4033     		adds	r3, r3, #64
 5678 006a 1A70     		strb	r2, [r3]
 5679 006c FFF7FEFF 		bl	HAL_DMA_Abort_IT
 5680 0070 0028     		cmp	r0, #0
 5681 0072 11D0     		beq	.L745
 5682 0074 A06B     		ldr	r0, [r4, #56]
 5683              	.L781:
 5684 0076 836B     		ldr	r3, [r0, #56]
 5685 0078 9847     		blx	r3
 5686 007a 0DE0     		b	.L745
 5687              	.L746:
 5688 007c 2000     		movs	r0, r4
 5689 007e 1B49     		ldr	r1, .L782+16
 5690 0080 FFF7FEFF 		bl	I2C_Disable_IRQ
 5691 0084 2B78     		ldrb	r3, [r5]
 5692 0086 602B     		cmp	r3, #96
 5693 0088 01D0     		beq	.L748
 5694 008a 2023     		movs	r3, #32
 5695 008c 2B70     		strb	r3, [r5]
 5696              	.L748:
 5697 008e 0023     		movs	r3, #0
 5698 0090 CFE7     		b	.L780
 5699              	.L751:
 5700 0092 2000     		movs	r0, r4
 5701 0094 FFF7FEFF 		bl	I2C_TreatErrorCallback
 5702              	.L745:
 5703              		@ sp needed
 5704 0098 70BD     		pop	{r4, r5, r6, pc}
 5705              	.L749:
 5706 009a E06B     		ldr	r0, [r4, #60]
 5707 009c 0028     		cmp	r0, #0
 5708 009e F8D0     		beq	.L751
 5709 00a0 1022     		movs	r2, #16
 5710 00a2 123B     		subs	r3, r3, #18
 5711 00a4 9343     		bics	r3, r2
 5712 00a6 F4D1     		bne	.L751
 5713 00a8 2368     		ldr	r3, [r4]
 5714 00aa 1A68     		ldr	r2, [r3]
 5715 00ac 1204     		lsls	r2, r2, #16
ARM GAS  /tmp/ccdcCb4o.s 			page 99


 5716 00ae 03D5     		bpl	.L754
 5717 00b0 1A68     		ldr	r2, [r3]
 5718 00b2 0F49     		ldr	r1, .L782+20
 5719 00b4 0A40     		ands	r2, r1
 5720 00b6 1A60     		str	r2, [r3]
 5721              	.L754:
 5722 00b8 FFF7FEFF 		bl	HAL_DMA_GetState
 5723 00bc 0128     		cmp	r0, #1
 5724 00be E8D0     		beq	.L751
 5725 00c0 E06B     		ldr	r0, [r4, #60]
 5726 00c2 094B     		ldr	r3, .L782+12
 5727 00c4 0022     		movs	r2, #0
 5728 00c6 8363     		str	r3, [r0, #56]
 5729 00c8 2300     		movs	r3, r4
 5730 00ca 4033     		adds	r3, r3, #64
 5731 00cc 1A70     		strb	r2, [r3]
 5732 00ce FFF7FEFF 		bl	HAL_DMA_Abort_IT
 5733 00d2 0028     		cmp	r0, #0
 5734 00d4 E0D0     		beq	.L745
 5735 00d6 E06B     		ldr	r0, [r4, #60]
 5736 00d8 CDE7     		b	.L781
 5737              	.L783:
 5738 00da C046     		.align	2
 5739              	.L782:
 5740 00dc 0000FFFF 		.word	-65536
 5741 00e0 00000000 		.word	I2C_Slave_ISR_IT
 5742 00e4 FFBFFFFF 		.word	-16385
 5743 00e8 00000000 		.word	I2C_DMAAbort
 5744 00ec 03800000 		.word	32771
 5745 00f0 FF7FFFFF 		.word	-32769
 5747              		.section	.text.I2C_ITSlaveCplt,"ax",%progbits
 5748              		.align	1
 5749              		.syntax unified
 5750              		.code	16
 5751              		.thumb_func
 5752              		.fpu softvfp
 5754              	I2C_ITSlaveCplt:
 5755              		@ args = 0, pretend = 0, frame = 8
 5756              		@ frame_needed = 0, uses_anonymous_args = 0
 5757 0000 F7B5     		push	{r0, r1, r2, r4, r5, r6, r7, lr}
 5758 0002 0368     		ldr	r3, [r0]
 5759 0004 0600     		movs	r6, r0
 5760 0006 1A68     		ldr	r2, [r3]
 5761 0008 4136     		adds	r6, r6, #65
 5762 000a 0192     		str	r2, [sp, #4]
 5763 000c 2022     		movs	r2, #32
 5764 000e 3578     		ldrb	r5, [r6]
 5765 0010 DA61     		str	r2, [r3, #28]
 5766 0012 0823     		movs	r3, #8
 5767 0014 0400     		movs	r4, r0
 5768 0016 0F00     		movs	r7, r1
 5769 0018 9D43     		bics	r5, r3
 5770 001a 212D     		cmp	r5, #33
 5771 001c 50D1     		bne	.L785
 5772 001e 4049     		ldr	r1, .L816
 5773              	.L812:
 5774 0020 2000     		movs	r0, r4
ARM GAS  /tmp/ccdcCb4o.s 			page 100


 5775 0022 FFF7FEFF 		bl	I2C_Disable_IRQ
 5776 0026 2563     		str	r5, [r4, #48]
 5777              	.L786:
 5778 0028 8022     		movs	r2, #128
 5779 002a 2368     		ldr	r3, [r4]
 5780 002c 1202     		lsls	r2, r2, #8
 5781 002e 5968     		ldr	r1, [r3, #4]
 5782 0030 2000     		movs	r0, r4
 5783 0032 0A43     		orrs	r2, r1
 5784 0034 5A60     		str	r2, [r3, #4]
 5785 0036 5A68     		ldr	r2, [r3, #4]
 5786 0038 3A49     		ldr	r1, .L816+4
 5787 003a 0A40     		ands	r2, r1
 5788 003c 5A60     		str	r2, [r3, #4]
 5789 003e FFF7FEFF 		bl	I2C_Flush_TXDR
 5790 0042 019B     		ldr	r3, [sp, #4]
 5791 0044 0122     		movs	r2, #1
 5792 0046 5B04     		lsls	r3, r3, #17
 5793 0048 3ED5     		bpl	.L787
 5794 004a 2268     		ldr	r2, [r4]
 5795 004c 3649     		ldr	r1, .L816+8
 5796 004e 1368     		ldr	r3, [r2]
 5797 0050 0B40     		ands	r3, r1
 5798 0052 1360     		str	r3, [r2]
 5799 0054 A36B     		ldr	r3, [r4, #56]
 5800              	.L815:
 5801 0056 002B     		cmp	r3, #0
 5802 0058 03D0     		beq	.L789
 5803 005a 1B68     		ldr	r3, [r3]
 5804 005c 5B68     		ldr	r3, [r3, #4]
 5805 005e 9BB2     		uxth	r3, r3
 5806 0060 6385     		strh	r3, [r4, #42]
 5807              	.L789:
 5808 0062 7B07     		lsls	r3, r7, #29
 5809 0064 11D5     		bpl	.L791
 5810 0066 0423     		movs	r3, #4
 5811 0068 9F43     		bics	r7, r3
 5812 006a 2368     		ldr	r3, [r4]
 5813 006c 626A     		ldr	r2, [r4, #36]
 5814 006e 5B6A     		ldr	r3, [r3, #36]
 5815 0070 1370     		strb	r3, [r2]
 5816 0072 636A     		ldr	r3, [r4, #36]
 5817 0074 0133     		adds	r3, r3, #1
 5818 0076 6362     		str	r3, [r4, #36]
 5819 0078 238D     		ldrh	r3, [r4, #40]
 5820 007a 002B     		cmp	r3, #0
 5821 007c 05D0     		beq	.L791
 5822 007e 013B     		subs	r3, r3, #1
 5823 0080 2385     		strh	r3, [r4, #40]
 5824 0082 638D     		ldrh	r3, [r4, #42]
 5825 0084 013B     		subs	r3, r3, #1
 5826 0086 9BB2     		uxth	r3, r3
 5827 0088 6385     		strh	r3, [r4, #42]
 5828              	.L791:
 5829 008a 638D     		ldrh	r3, [r4, #42]
 5830 008c 002B     		cmp	r3, #0
 5831 008e 03D0     		beq	.L792
ARM GAS  /tmp/ccdcCb4o.s 			page 101


 5832 0090 0423     		movs	r3, #4
 5833 0092 626C     		ldr	r2, [r4, #68]
 5834 0094 1343     		orrs	r3, r2
 5835 0096 6364     		str	r3, [r4, #68]
 5836              	.L792:
 5837 0098 2300     		movs	r3, r4
 5838 009a 0022     		movs	r2, #0
 5839 009c 4233     		adds	r3, r3, #66
 5840 009e 1A70     		strb	r2, [r3]
 5841 00a0 656C     		ldr	r5, [r4, #68]
 5842 00a2 6263     		str	r2, [r4, #52]
 5843 00a4 9542     		cmp	r5, r2
 5844 00a6 1AD0     		beq	.L793
 5845 00a8 2000     		movs	r0, r4
 5846 00aa 616C     		ldr	r1, [r4, #68]
 5847 00ac FFF7FEFF 		bl	I2C_ITError
 5848 00b0 3378     		ldrb	r3, [r6]
 5849 00b2 282B     		cmp	r3, #40
 5850 00b4 03D1     		bne	.L784
 5851 00b6 3900     		movs	r1, r7
 5852 00b8 2000     		movs	r0, r4
 5853 00ba FFF7FEFF 		bl	I2C_ITListenCplt
 5854              	.L784:
 5855              		@ sp needed
 5856 00be F7BD     		pop	{r0, r1, r2, r4, r5, r6, r7, pc}
 5857              	.L785:
 5858 00c0 222D     		cmp	r5, #34
 5859 00c2 B1D1     		bne	.L786
 5860 00c4 1949     		ldr	r1, .L816+12
 5861 00c6 ABE7     		b	.L812
 5862              	.L787:
 5863 00c8 019B     		ldr	r3, [sp, #4]
 5864 00ca DB0B     		lsrs	r3, r3, #15
 5865 00cc 1342     		tst	r3, r2
 5866 00ce C8D0     		beq	.L789
 5867 00d0 2268     		ldr	r2, [r4]
 5868 00d2 1749     		ldr	r1, .L816+16
 5869 00d4 1368     		ldr	r3, [r2]
 5870 00d6 0B40     		ands	r3, r1
 5871 00d8 1360     		str	r3, [r2]
 5872 00da E36B     		ldr	r3, [r4, #60]
 5873 00dc BBE7     		b	.L815
 5874              	.L793:
 5875 00de 2700     		movs	r7, r4
 5876 00e0 E36A     		ldr	r3, [r4, #44]
 5877 00e2 144A     		ldr	r2, .L816+20
 5878 00e4 4037     		adds	r7, r7, #64
 5879 00e6 9342     		cmp	r3, r2
 5880 00e8 0CD0     		beq	.L795
 5881 00ea 2000     		movs	r0, r4
 5882 00ec FFF7FEFF 		bl	I2C_ITSlaveSeqCplt
 5883 00f0 2023     		movs	r3, #32
 5884 00f2 104A     		ldr	r2, .L816+20
 5885 00f4 2000     		movs	r0, r4
 5886 00f6 E262     		str	r2, [r4, #44]
 5887 00f8 3370     		strb	r3, [r6]
 5888 00fa 2563     		str	r5, [r4, #48]
ARM GAS  /tmp/ccdcCb4o.s 			page 102


 5889 00fc 3D70     		strb	r5, [r7]
 5890 00fe FFF7FEFF 		bl	HAL_I2C_ListenCpltCallback
 5891 0102 DCE7     		b	.L784
 5892              	.L795:
 5893 0104 2023     		movs	r3, #32
 5894 0106 3278     		ldrb	r2, [r6]
 5895 0108 2000     		movs	r0, r4
 5896 010a 3370     		strb	r3, [r6]
 5897 010c 2563     		str	r5, [r4, #48]
 5898 010e 3D70     		strb	r5, [r7]
 5899 0110 222A     		cmp	r2, #34
 5900 0112 02D1     		bne	.L796
 5901 0114 FFF7FEFF 		bl	HAL_I2C_SlaveRxCpltCallback
 5902 0118 D1E7     		b	.L784
 5903              	.L796:
 5904 011a FFF7FEFF 		bl	HAL_I2C_SlaveTxCpltCallback
 5905 011e CEE7     		b	.L784
 5906              	.L817:
 5907              		.align	2
 5908              	.L816:
 5909 0120 01800000 		.word	32769
 5910 0124 00E800FE 		.word	-33495040
 5911 0128 FFBFFFFF 		.word	-16385
 5912 012c 02800000 		.word	32770
 5913 0130 FF7FFFFF 		.word	-32769
 5914 0134 0000FFFF 		.word	-65536
 5916              		.section	.text.I2C_Slave_ISR_IT,"ax",%progbits
 5917              		.align	1
 5918              		.syntax unified
 5919              		.code	16
 5920              		.thumb_func
 5921              		.fpu softvfp
 5923              	I2C_Slave_ISR_IT:
 5924              		@ args = 0, pretend = 0, frame = 8
 5925              		@ frame_needed = 0, uses_anonymous_args = 0
 5926 0000 0300     		movs	r3, r0
 5927 0002 F7B5     		push	{r0, r1, r2, r4, r5, r6, r7, lr}
 5928 0004 4033     		adds	r3, r3, #64
 5929 0006 0193     		str	r3, [sp, #4]
 5930 0008 1B78     		ldrb	r3, [r3]
 5931 000a 0400     		movs	r4, r0
 5932 000c C76A     		ldr	r7, [r0, #44]
 5933 000e 0E00     		movs	r6, r1
 5934 0010 1500     		movs	r5, r2
 5935 0012 0220     		movs	r0, #2
 5936 0014 012B     		cmp	r3, #1
 5937 0016 24D0     		beq	.L819
 5938 0018 0123     		movs	r3, #1
 5939 001a 019A     		ldr	r2, [sp, #4]
 5940 001c 1370     		strb	r3, [r2]
 5941 001e 4A09     		lsrs	r2, r1, #5
 5942 0020 1A42     		tst	r2, r3
 5943 0022 05D0     		beq	.L820
 5944 0024 6A09     		lsrs	r2, r5, #5
 5945 0026 1A42     		tst	r2, r3
 5946 0028 02D0     		beq	.L820
 5947 002a 2000     		movs	r0, r4
ARM GAS  /tmp/ccdcCb4o.s 			page 103


 5948 002c FFF7FEFF 		bl	I2C_ITSlaveCplt
 5949              	.L820:
 5950 0030 0123     		movs	r3, #1
 5951 0032 F206     		lsls	r2, r6, #27
 5952 0034 35D5     		bpl	.L821
 5953 0036 2A09     		lsrs	r2, r5, #4
 5954 0038 1A42     		tst	r2, r3
 5955 003a 32D0     		beq	.L821
 5956 003c 638D     		ldrh	r3, [r4, #42]
 5957 003e 002B     		cmp	r3, #0
 5958 0040 20D1     		bne	.L822
 5959 0042 2300     		movs	r3, r4
 5960 0044 4133     		adds	r3, r3, #65
 5961 0046 1A78     		ldrb	r2, [r3]
 5962 0048 282A     		cmp	r2, #40
 5963 004a 0BD1     		bne	.L823
 5964 004c 8022     		movs	r2, #128
 5965 004e 9204     		lsls	r2, r2, #18
 5966 0050 9742     		cmp	r7, r2
 5967 0052 07D1     		bne	.L823
 5968 0054 3100     		movs	r1, r6
 5969 0056 2000     		movs	r0, r4
 5970 0058 FFF7FEFF 		bl	I2C_ITListenCplt
 5971              	.L824:
 5972 005c 0020     		movs	r0, #0
 5973 005e 019B     		ldr	r3, [sp, #4]
 5974 0060 1870     		strb	r0, [r3]
 5975              	.L819:
 5976              		@ sp needed
 5977 0062 FEBD     		pop	{r1, r2, r3, r4, r5, r6, r7, pc}
 5978              	.L823:
 5979 0064 1022     		movs	r2, #16
 5980 0066 1978     		ldrb	r1, [r3]
 5981 0068 2368     		ldr	r3, [r4]
 5982 006a DA61     		str	r2, [r3, #28]
 5983 006c 2929     		cmp	r1, #41
 5984 006e F5D1     		bne	.L824
 5985 0070 2D49     		ldr	r1, .L870
 5986 0072 8F42     		cmp	r7, r1
 5987 0074 F2D0     		beq	.L824
 5988 0076 2000     		movs	r0, r4
 5989 0078 FFF7FEFF 		bl	I2C_Flush_TXDR
 5990              	.L832:
 5991 007c 2000     		movs	r0, r4
 5992 007e FFF7FEFF 		bl	I2C_ITSlaveSeqCplt
 5993 0082 EBE7     		b	.L824
 5994              	.L822:
 5995 0084 1022     		movs	r2, #16
 5996 0086 2368     		ldr	r3, [r4]
 5997 0088 DA61     		str	r2, [r3, #28]
 5998 008a 0423     		movs	r3, #4
 5999 008c 626C     		ldr	r2, [r4, #68]
 6000 008e 1343     		orrs	r3, r2
 6001 0090 6364     		str	r3, [r4, #68]
 6002 0092 264B     		ldr	r3, .L870+4
 6003 0094 1F42     		tst	r7, r3
 6004 0096 E1D1     		bne	.L824
ARM GAS  /tmp/ccdcCb4o.s 			page 104


 6005 0098 2000     		movs	r0, r4
 6006 009a 616C     		ldr	r1, [r4, #68]
 6007 009c FFF7FEFF 		bl	I2C_ITError
 6008 00a0 DCE7     		b	.L824
 6009              	.L821:
 6010 00a2 0123     		movs	r3, #1
 6011 00a4 7207     		lsls	r2, r6, #29
 6012 00a6 1AD5     		bpl	.L827
 6013 00a8 AA08     		lsrs	r2, r5, #2
 6014 00aa 1A42     		tst	r2, r3
 6015 00ac 17D0     		beq	.L827
 6016 00ae 638D     		ldrh	r3, [r4, #42]
 6017 00b0 002B     		cmp	r3, #0
 6018 00b2 0DD0     		beq	.L828
 6019 00b4 2368     		ldr	r3, [r4]
 6020 00b6 626A     		ldr	r2, [r4, #36]
 6021 00b8 5B6A     		ldr	r3, [r3, #36]
 6022 00ba 1370     		strb	r3, [r2]
 6023 00bc 636A     		ldr	r3, [r4, #36]
 6024 00be 0133     		adds	r3, r3, #1
 6025 00c0 6362     		str	r3, [r4, #36]
 6026 00c2 238D     		ldrh	r3, [r4, #40]
 6027 00c4 013B     		subs	r3, r3, #1
 6028 00c6 2385     		strh	r3, [r4, #40]
 6029 00c8 638D     		ldrh	r3, [r4, #42]
 6030 00ca 013B     		subs	r3, r3, #1
 6031 00cc 9BB2     		uxth	r3, r3
 6032 00ce 6385     		strh	r3, [r4, #42]
 6033              	.L828:
 6034 00d0 638D     		ldrh	r3, [r4, #42]
 6035 00d2 002B     		cmp	r3, #0
 6036 00d4 C2D1     		bne	.L824
 6037 00d6 144B     		ldr	r3, .L870
 6038 00d8 9F42     		cmp	r7, r3
 6039 00da BFD0     		beq	.L824
 6040 00dc CEE7     		b	.L832
 6041              	.L827:
 6042 00de 0123     		movs	r3, #1
 6043 00e0 3207     		lsls	r2, r6, #28
 6044 00e2 06D5     		bpl	.L830
 6045 00e4 EA08     		lsrs	r2, r5, #3
 6046 00e6 1A42     		tst	r2, r3
 6047 00e8 03D0     		beq	.L830
 6048 00ea 2000     		movs	r0, r4
 6049 00ec FFF7FEFF 		bl	I2C_ITAddrCplt.constprop.0
 6050 00f0 B4E7     		b	.L824
 6051              	.L830:
 6052 00f2 0123     		movs	r3, #1
 6053 00f4 B207     		lsls	r2, r6, #30
 6054 00f6 B1D5     		bpl	.L824
 6055 00f8 DD40     		lsrs	r5, r5, r3
 6056 00fa 1D42     		tst	r5, r3
 6057 00fc AED0     		beq	.L824
 6058 00fe 638D     		ldrh	r3, [r4, #42]
 6059 0100 002B     		cmp	r3, #0
 6060 0102 0DD0     		beq	.L831
 6061 0104 636A     		ldr	r3, [r4, #36]
ARM GAS  /tmp/ccdcCb4o.s 			page 105


 6062 0106 2268     		ldr	r2, [r4]
 6063 0108 1978     		ldrb	r1, [r3]
 6064 010a 0133     		adds	r3, r3, #1
 6065 010c 9162     		str	r1, [r2, #40]
 6066 010e 6362     		str	r3, [r4, #36]
 6067 0110 638D     		ldrh	r3, [r4, #42]
 6068 0112 013B     		subs	r3, r3, #1
 6069 0114 9BB2     		uxth	r3, r3
 6070 0116 6385     		strh	r3, [r4, #42]
 6071 0118 238D     		ldrh	r3, [r4, #40]
 6072 011a 013B     		subs	r3, r3, #1
 6073 011c 2385     		strh	r3, [r4, #40]
 6074 011e 9DE7     		b	.L824
 6075              	.L831:
 6076 0120 024B     		ldr	r3, .L870+4
 6077 0122 1F42     		tst	r7, r3
 6078 0124 AAD0     		beq	.L832
 6079 0126 99E7     		b	.L824
 6080              	.L871:
 6081              		.align	2
 6082              	.L870:
 6083 0128 0000FFFF 		.word	-65536
 6084 012c FFFFFFFE 		.word	-16777217
 6086              		.section	.text.I2C_ITMasterCplt,"ax",%progbits
 6087              		.align	1
 6088              		.syntax unified
 6089              		.code	16
 6090              		.thumb_func
 6091              		.fpu softvfp
 6093              	I2C_ITMasterCplt:
 6094              		@ args = 0, pretend = 0, frame = 8
 6095              		@ frame_needed = 0, uses_anonymous_args = 0
 6096 0000 73B5     		push	{r0, r1, r4, r5, r6, lr}
 6097 0002 2022     		movs	r2, #32
 6098 0004 0500     		movs	r5, r0
 6099 0006 0368     		ldr	r3, [r0]
 6100 0008 4135     		adds	r5, r5, #65
 6101 000a DA61     		str	r2, [r3, #28]
 6102 000c 2B78     		ldrb	r3, [r5]
 6103 000e 0400     		movs	r4, r0
 6104 0010 0E00     		movs	r6, r1
 6105 0012 212B     		cmp	r3, #33
 6106 0014 2CD1     		bne	.L873
 6107 0016 0121     		movs	r1, #1
 6108 0018 FFF7FEFF 		bl	I2C_Disable_IRQ
 6109 001c 1123     		movs	r3, #17
 6110              	.L892:
 6111 001e 2363     		str	r3, [r4, #48]
 6112              	.L874:
 6113 0020 2368     		ldr	r3, [r4]
 6114 0022 2E49     		ldr	r1, .L893
 6115 0024 5A68     		ldr	r2, [r3, #4]
 6116 0026 0A40     		ands	r2, r1
 6117 0028 5A60     		str	r2, [r3, #4]
 6118 002a 0022     		movs	r2, #0
 6119 002c 6263     		str	r2, [r4, #52]
 6120 002e 2C4A     		ldr	r2, .L893+4
ARM GAS  /tmp/ccdcCb4o.s 			page 106


 6121 0030 E262     		str	r2, [r4, #44]
 6122 0032 F206     		lsls	r2, r6, #27
 6123 0034 05D5     		bpl	.L875
 6124 0036 1022     		movs	r2, #16
 6125 0038 DA61     		str	r2, [r3, #28]
 6126 003a 616C     		ldr	r1, [r4, #68]
 6127 003c 0C3A     		subs	r2, r2, #12
 6128 003e 0A43     		orrs	r2, r1
 6129 0040 6264     		str	r2, [r4, #68]
 6130              	.L875:
 6131 0042 2A78     		ldrb	r2, [r5]
 6132 0044 602A     		cmp	r2, #96
 6133 0046 05D1     		bne	.L876
 6134 0048 7207     		lsls	r2, r6, #29
 6135 004a 03D5     		bpl	.L876
 6136 004c 5B6A     		ldr	r3, [r3, #36]
 6137 004e DBB2     		uxtb	r3, r3
 6138 0050 0193     		str	r3, [sp, #4]
 6139 0052 019B     		ldr	r3, [sp, #4]
 6140              	.L876:
 6141 0054 2000     		movs	r0, r4
 6142 0056 FFF7FEFF 		bl	I2C_Flush_TXDR
 6143 005a 636C     		ldr	r3, [r4, #68]
 6144 005c 2A78     		ldrb	r2, [r5]
 6145 005e 602A     		cmp	r2, #96
 6146 0060 01D0     		beq	.L877
 6147 0062 002B     		cmp	r3, #0
 6148 0064 0CD0     		beq	.L878
 6149              	.L877:
 6150 0066 2000     		movs	r0, r4
 6151 0068 616C     		ldr	r1, [r4, #68]
 6152 006a FFF7FEFF 		bl	I2C_ITError
 6153              	.L872:
 6154              		@ sp needed
 6155 006e 73BD     		pop	{r0, r1, r4, r5, r6, pc}
 6156              	.L873:
 6157 0070 2B78     		ldrb	r3, [r5]
 6158 0072 222B     		cmp	r3, #34
 6159 0074 D4D1     		bne	.L874
 6160 0076 0221     		movs	r1, #2
 6161 0078 FFF7FEFF 		bl	I2C_Disable_IRQ
 6162 007c 1223     		movs	r3, #18
 6163 007e CEE7     		b	.L892
 6164              	.L878:
 6165 0080 2A78     		ldrb	r2, [r5]
 6166 0082 212A     		cmp	r2, #33
 6167 0084 13D1     		bne	.L880
 6168 0086 013A     		subs	r2, r2, #1
 6169 0088 2A70     		strb	r2, [r5]
 6170 008a 2200     		movs	r2, r4
 6171 008c 2100     		movs	r1, r4
 6172 008e 2363     		str	r3, [r4, #48]
 6173 0090 4232     		adds	r2, r2, #66
 6174 0092 1078     		ldrb	r0, [r2]
 6175 0094 4031     		adds	r1, r1, #64
 6176 0096 1370     		strb	r3, [r2]
 6177 0098 0B70     		strb	r3, [r1]
ARM GAS  /tmp/ccdcCb4o.s 			page 107


 6178 009a 4028     		cmp	r0, #64
 6179 009c 03D1     		bne	.L881
 6180 009e 2000     		movs	r0, r4
 6181 00a0 FFF7FEFF 		bl	HAL_I2C_MemTxCpltCallback
 6182 00a4 E3E7     		b	.L872
 6183              	.L881:
 6184 00a6 2000     		movs	r0, r4
 6185 00a8 FFF7FEFF 		bl	HAL_I2C_MasterTxCpltCallback
 6186 00ac DFE7     		b	.L872
 6187              	.L880:
 6188 00ae 2A78     		ldrb	r2, [r5]
 6189 00b0 222A     		cmp	r2, #34
 6190 00b2 DCD1     		bne	.L872
 6191 00b4 023A     		subs	r2, r2, #2
 6192 00b6 2A70     		strb	r2, [r5]
 6193 00b8 2200     		movs	r2, r4
 6194 00ba 2100     		movs	r1, r4
 6195 00bc 2363     		str	r3, [r4, #48]
 6196 00be 4232     		adds	r2, r2, #66
 6197 00c0 1078     		ldrb	r0, [r2]
 6198 00c2 4031     		adds	r1, r1, #64
 6199 00c4 1370     		strb	r3, [r2]
 6200 00c6 0B70     		strb	r3, [r1]
 6201 00c8 4028     		cmp	r0, #64
 6202 00ca 03D1     		bne	.L882
 6203 00cc 2000     		movs	r0, r4
 6204 00ce FFF7FEFF 		bl	HAL_I2C_MemRxCpltCallback
 6205 00d2 CCE7     		b	.L872
 6206              	.L882:
 6207 00d4 2000     		movs	r0, r4
 6208 00d6 FFF7FEFF 		bl	HAL_I2C_MasterRxCpltCallback
 6209 00da C8E7     		b	.L872
 6210              	.L894:
 6211              		.align	2
 6212              	.L893:
 6213 00dc 00E800FE 		.word	-33495040
 6214 00e0 0000FFFF 		.word	-65536
 6216              		.section	.text.I2C_Master_ISR_IT,"ax",%progbits
 6217              		.align	1
 6218              		.syntax unified
 6219              		.code	16
 6220              		.thumb_func
 6221              		.fpu softvfp
 6223              	I2C_Master_ISR_IT:
 6224              		@ args = 0, pretend = 0, frame = 0
 6225              		@ frame_needed = 0, uses_anonymous_args = 0
 6226 0000 F7B5     		push	{r0, r1, r2, r4, r5, r6, r7, lr}
 6227 0002 0700     		movs	r7, r0
 6228 0004 4037     		adds	r7, r7, #64
 6229 0006 3B78     		ldrb	r3, [r7]
 6230 0008 0400     		movs	r4, r0
 6231 000a 0D00     		movs	r5, r1
 6232 000c 1600     		movs	r6, r2
 6233 000e 0220     		movs	r0, #2
 6234 0010 012B     		cmp	r3, #1
 6235 0012 1DD0     		beq	.L896
 6236 0014 0123     		movs	r3, #1
ARM GAS  /tmp/ccdcCb4o.s 			page 108


 6237 0016 0A09     		lsrs	r2, r1, #4
 6238 0018 3B70     		strb	r3, [r7]
 6239 001a 1A42     		tst	r2, r3
 6240 001c 19D0     		beq	.L897
 6241 001e 3209     		lsrs	r2, r6, #4
 6242 0020 1A42     		tst	r2, r3
 6243 0022 16D0     		beq	.L897
 6244 0024 1022     		movs	r2, #16
 6245 0026 2368     		ldr	r3, [r4]
 6246 0028 2000     		movs	r0, r4
 6247 002a DA61     		str	r2, [r3, #28]
 6248 002c 0423     		movs	r3, #4
 6249 002e 626C     		ldr	r2, [r4, #68]
 6250 0030 1343     		orrs	r3, r2
 6251 0032 6364     		str	r3, [r4, #68]
 6252 0034 FFF7FEFF 		bl	I2C_Flush_TXDR
 6253              	.L898:
 6254 0038 0123     		movs	r3, #1
 6255 003a AA06     		lsls	r2, r5, #26
 6256 003c 06D5     		bpl	.L907
 6257 003e 7609     		lsrs	r6, r6, #5
 6258 0040 1E42     		tst	r6, r3
 6259 0042 03D0     		beq	.L907
 6260 0044 2900     		movs	r1, r5
 6261 0046 2000     		movs	r0, r4
 6262 0048 FFF7FEFF 		bl	I2C_ITMasterCplt
 6263              	.L907:
 6264 004c 0020     		movs	r0, #0
 6265 004e 3870     		strb	r0, [r7]
 6266              	.L896:
 6267              		@ sp needed
 6268 0050 FEBD     		pop	{r1, r2, r3, r4, r5, r6, r7, pc}
 6269              	.L897:
 6270 0052 0123     		movs	r3, #1
 6271 0054 6A07     		lsls	r2, r5, #29
 6272 0056 13D5     		bpl	.L899
 6273 0058 B208     		lsrs	r2, r6, #2
 6274 005a 1A42     		tst	r2, r3
 6275 005c 10D0     		beq	.L899
 6276 005e 0333     		adds	r3, r3, #3
 6277 0060 9D43     		bics	r5, r3
 6278 0062 2368     		ldr	r3, [r4]
 6279 0064 626A     		ldr	r2, [r4, #36]
 6280 0066 5B6A     		ldr	r3, [r3, #36]
 6281 0068 1370     		strb	r3, [r2]
 6282 006a 636A     		ldr	r3, [r4, #36]
 6283              	.L948:
 6284 006c 0133     		adds	r3, r3, #1
 6285 006e 6362     		str	r3, [r4, #36]
 6286 0070 238D     		ldrh	r3, [r4, #40]
 6287 0072 013B     		subs	r3, r3, #1
 6288 0074 2385     		strh	r3, [r4, #40]
 6289 0076 638D     		ldrh	r3, [r4, #42]
 6290 0078 013B     		subs	r3, r3, #1
 6291 007a 9BB2     		uxth	r3, r3
 6292 007c 6385     		strh	r3, [r4, #42]
 6293 007e DBE7     		b	.L898
ARM GAS  /tmp/ccdcCb4o.s 			page 109


 6294              	.L899:
 6295 0080 0123     		movs	r3, #1
 6296 0082 AA07     		lsls	r2, r5, #30
 6297 0084 07D5     		bpl	.L900
 6298 0086 7208     		lsrs	r2, r6, #1
 6299 0088 1A42     		tst	r2, r3
 6300 008a 04D0     		beq	.L900
 6301 008c 636A     		ldr	r3, [r4, #36]
 6302 008e 2268     		ldr	r2, [r4]
 6303 0090 1978     		ldrb	r1, [r3]
 6304 0092 9162     		str	r1, [r2, #40]
 6305 0094 EAE7     		b	.L948
 6306              	.L900:
 6307 0096 0123     		movs	r3, #1
 6308 0098 2A06     		lsls	r2, r5, #24
 6309 009a 34D5     		bpl	.L901
 6310 009c B209     		lsrs	r2, r6, #6
 6311 009e 1A42     		tst	r2, r3
 6312 00a0 31D0     		beq	.L901
 6313 00a2 628D     		ldrh	r2, [r4, #42]
 6314 00a4 2368     		ldr	r3, [r4]
 6315 00a6 002A     		cmp	r2, #0
 6316 00a8 21D0     		beq	.L902
 6317 00aa 208D     		ldrh	r0, [r4, #40]
 6318 00ac 0028     		cmp	r0, #0
 6319 00ae 1ED1     		bne	.L902
 6320 00b0 5968     		ldr	r1, [r3, #4]
 6321 00b2 638D     		ldrh	r3, [r4, #42]
 6322 00b4 8905     		lsls	r1, r1, #22
 6323 00b6 890D     		lsrs	r1, r1, #22
 6324 00b8 FF2B     		cmp	r3, #255
 6325 00ba 08D9     		bls	.L903
 6326 00bc FF22     		movs	r2, #255
 6327 00be 8023     		movs	r3, #128
 6328 00c0 2285     		strh	r2, [r4, #40]
 6329 00c2 0090     		str	r0, [sp]
 6330 00c4 5B04     		lsls	r3, r3, #17
 6331              	.L949:
 6332 00c6 2000     		movs	r0, r4
 6333 00c8 FFF7FEFF 		bl	I2C_TransferConfig
 6334 00cc B4E7     		b	.L898
 6335              	.L903:
 6336 00ce 628D     		ldrh	r2, [r4, #42]
 6337 00d0 E36A     		ldr	r3, [r4, #44]
 6338 00d2 92B2     		uxth	r2, r2
 6339 00d4 9C46     		mov	ip, r3
 6340 00d6 194B     		ldr	r3, .L950
 6341 00d8 2285     		strh	r2, [r4, #40]
 6342 00da D2B2     		uxtb	r2, r2
 6343 00dc 9C45     		cmp	ip, r3
 6344 00de 02D0     		beq	.L904
 6345 00e0 E36A     		ldr	r3, [r4, #44]
 6346 00e2 0090     		str	r0, [sp]
 6347 00e4 EFE7     		b	.L949
 6348              	.L904:
 6349 00e6 8023     		movs	r3, #128
 6350 00e8 0090     		str	r0, [sp]
ARM GAS  /tmp/ccdcCb4o.s 			page 110


 6351 00ea 9B04     		lsls	r3, r3, #18
 6352 00ec EBE7     		b	.L949
 6353              	.L902:
 6354 00ee 5B68     		ldr	r3, [r3, #4]
 6355 00f0 9B01     		lsls	r3, r3, #6
 6356 00f2 03D4     		bmi	.L905
 6357              	.L906:
 6358 00f4 2000     		movs	r0, r4
 6359 00f6 FFF7FEFF 		bl	I2C_ITMasterSeqCplt
 6360 00fa 9DE7     		b	.L898
 6361              	.L905:
 6362 00fc 4021     		movs	r1, #64
 6363 00fe 2000     		movs	r0, r4
 6364 0100 FFF7FEFF 		bl	I2C_ITError
 6365 0104 98E7     		b	.L898
 6366              	.L901:
 6367 0106 0123     		movs	r3, #1
 6368 0108 6A06     		lsls	r2, r5, #25
 6369 010a 00D4     		bmi	.LCB7160
 6370 010c 94E7     		b	.L898	@long jump
 6371              	.LCB7160:
 6372 010e B209     		lsrs	r2, r6, #6
 6373 0110 1A42     		tst	r2, r3
 6374 0112 00D1     		bne	.LCB7164
 6375 0114 90E7     		b	.L898	@long jump
 6376              	.LCB7164:
 6377 0116 638D     		ldrh	r3, [r4, #42]
 6378 0118 002B     		cmp	r3, #0
 6379 011a EFD1     		bne	.L905
 6380 011c 2368     		ldr	r3, [r4]
 6381 011e 5A68     		ldr	r2, [r3, #4]
 6382 0120 9201     		lsls	r2, r2, #6
 6383 0122 00D5     		bpl	.LCB7174
 6384 0124 88E7     		b	.L898	@long jump
 6385              	.LCB7174:
 6386 0126 E16A     		ldr	r1, [r4, #44]
 6387 0128 044A     		ldr	r2, .L950
 6388 012a 9142     		cmp	r1, r2
 6389 012c E2D1     		bne	.L906
 6390 012e 8022     		movs	r2, #128
 6391 0130 5968     		ldr	r1, [r3, #4]
 6392 0132 D201     		lsls	r2, r2, #7
 6393 0134 0A43     		orrs	r2, r1
 6394 0136 5A60     		str	r2, [r3, #4]
 6395 0138 7EE7     		b	.L898
 6396              	.L951:
 6397 013a C046     		.align	2
 6398              	.L950:
 6399 013c 0000FFFF 		.word	-65536
 6401              		.section	.text.I2C_Slave_ISR_DMA,"ax",%progbits
 6402              		.align	1
 6403              		.syntax unified
 6404              		.code	16
 6405              		.thumb_func
 6406              		.fpu softvfp
 6408              	I2C_Slave_ISR_DMA:
 6409              		@ args = 0, pretend = 0, frame = 8
ARM GAS  /tmp/ccdcCb4o.s 			page 111


 6410              		@ frame_needed = 0, uses_anonymous_args = 0
 6411 0000 0300     		movs	r3, r0
 6412 0002 F7B5     		push	{r0, r1, r2, r4, r5, r6, r7, lr}
 6413 0004 4033     		adds	r3, r3, #64
 6414 0006 0193     		str	r3, [sp, #4]
 6415 0008 1B78     		ldrb	r3, [r3]
 6416 000a 0400     		movs	r4, r0
 6417 000c C76A     		ldr	r7, [r0, #44]
 6418 000e 0E00     		movs	r6, r1
 6419 0010 1500     		movs	r5, r2
 6420 0012 0220     		movs	r0, #2
 6421 0014 012B     		cmp	r3, #1
 6422 0016 3DD0     		beq	.L953
 6423 0018 0123     		movs	r3, #1
 6424 001a 019A     		ldr	r2, [sp, #4]
 6425 001c 1370     		strb	r3, [r2]
 6426 001e 4A09     		lsrs	r2, r1, #5
 6427 0020 1A42     		tst	r2, r3
 6428 0022 05D0     		beq	.L954
 6429 0024 6A09     		lsrs	r2, r5, #5
 6430 0026 1A42     		tst	r2, r3
 6431 0028 02D0     		beq	.L954
 6432 002a 2000     		movs	r0, r4
 6433 002c FFF7FEFF 		bl	I2C_ITSlaveCplt
 6434              	.L954:
 6435 0030 0120     		movs	r0, #1
 6436 0032 F306     		lsls	r3, r6, #27
 6437 0034 5CD5     		bpl	.L955
 6438 0036 2B09     		lsrs	r3, r5, #4
 6439 0038 0342     		tst	r3, r0
 6440 003a 59D0     		beq	.L955
 6441 003c AB0B     		lsrs	r3, r5, #14
 6442 003e ED0B     		lsrs	r5, r5, #15
 6443 0040 9C46     		mov	ip, r3
 6444 0042 2B43     		orrs	r3, r5
 6445 0044 0342     		tst	r3, r0
 6446 0046 4FD0     		beq	.L956
 6447 0048 E16B     		ldr	r1, [r4, #60]
 6448 004a 0B1E     		subs	r3, r1, #0
 6449 004c 06D0     		beq	.L957
 6450 004e 0023     		movs	r3, #0
 6451 0050 0542     		tst	r5, r0
 6452 0052 03D0     		beq	.L957
 6453 0054 0B68     		ldr	r3, [r1]
 6454 0056 5B68     		ldr	r3, [r3, #4]
 6455 0058 5A42     		rsbs	r2, r3, #0
 6456 005a 5341     		adcs	r3, r3, r2
 6457              	.L957:
 6458 005c 2200     		movs	r2, r4
 6459 005e A16B     		ldr	r1, [r4, #56]
 6460 0060 4132     		adds	r2, r2, #65
 6461 0062 0029     		cmp	r1, #0
 6462 0064 06D0     		beq	.L958
 6463 0066 6046     		mov	r0, ip
 6464 0068 C007     		lsls	r0, r0, #31
 6465 006a 03D5     		bpl	.L958
 6466 006c 0968     		ldr	r1, [r1]
ARM GAS  /tmp/ccdcCb4o.s 			page 112


 6467 006e 4968     		ldr	r1, [r1, #4]
 6468 0070 0029     		cmp	r1, #0
 6469 0072 01D0     		beq	.L959
 6470              	.L958:
 6471 0074 012B     		cmp	r3, #1
 6472 0076 1ED1     		bne	.L960
 6473              	.L959:
 6474 0078 1378     		ldrb	r3, [r2]
 6475 007a 282B     		cmp	r3, #40
 6476 007c 0BD1     		bne	.L961
 6477 007e 8023     		movs	r3, #128
 6478 0080 9B04     		lsls	r3, r3, #18
 6479 0082 9F42     		cmp	r7, r3
 6480 0084 07D1     		bne	.L961
 6481 0086 3100     		movs	r1, r6
 6482 0088 2000     		movs	r0, r4
 6483 008a FFF7FEFF 		bl	I2C_ITListenCplt
 6484              	.L962:
 6485 008e 0020     		movs	r0, #0
 6486 0090 019B     		ldr	r3, [sp, #4]
 6487 0092 1870     		strb	r0, [r3]
 6488              	.L953:
 6489              		@ sp needed
 6490 0094 FEBD     		pop	{r1, r2, r3, r4, r5, r6, r7, pc}
 6491              	.L961:
 6492 0096 1178     		ldrb	r1, [r2]
 6493 0098 1022     		movs	r2, #16
 6494 009a 2368     		ldr	r3, [r4]
 6495 009c DA61     		str	r2, [r3, #28]
 6496 009e 2929     		cmp	r1, #41
 6497 00a0 F5D1     		bne	.L962
 6498 00a2 1849     		ldr	r1, .L1000
 6499 00a4 8F42     		cmp	r7, r1
 6500 00a6 F2D0     		beq	.L962
 6501 00a8 2000     		movs	r0, r4
 6502 00aa FFF7FEFF 		bl	I2C_Flush_TXDR
 6503 00ae 2000     		movs	r0, r4
 6504 00b0 FFF7FEFF 		bl	I2C_ITSlaveSeqCplt
 6505 00b4 EBE7     		b	.L962
 6506              	.L960:
 6507 00b6 1021     		movs	r1, #16
 6508 00b8 2368     		ldr	r3, [r4]
 6509 00ba D961     		str	r1, [r3, #28]
 6510 00bc 0423     		movs	r3, #4
 6511 00be 616C     		ldr	r1, [r4, #68]
 6512 00c0 0B43     		orrs	r3, r1
 6513 00c2 6364     		str	r3, [r4, #68]
 6514 00c4 1378     		ldrb	r3, [r2]
 6515 00c6 104A     		ldr	r2, .L1000+4
 6516 00c8 DBB2     		uxtb	r3, r3
 6517 00ca 1742     		tst	r7, r2
 6518 00cc DFD1     		bne	.L962
 6519 00ce 0822     		movs	r2, #8
 6520 00d0 9343     		bics	r3, r2
 6521 00d2 212B     		cmp	r3, #33
 6522 00d4 01D1     		bne	.L965
 6523              	.L999:
ARM GAS  /tmp/ccdcCb4o.s 			page 113


 6524 00d6 2363     		str	r3, [r4, #48]
 6525 00d8 01E0     		b	.L966
 6526              	.L965:
 6527 00da 222B     		cmp	r3, #34
 6528 00dc FBD0     		beq	.L999
 6529              	.L966:
 6530 00de 2000     		movs	r0, r4
 6531 00e0 616C     		ldr	r1, [r4, #68]
 6532 00e2 FFF7FEFF 		bl	I2C_ITError
 6533 00e6 D2E7     		b	.L962
 6534              	.L956:
 6535 00e8 1022     		movs	r2, #16
 6536 00ea 2368     		ldr	r3, [r4]
 6537 00ec DA61     		str	r2, [r3, #28]
 6538 00ee CEE7     		b	.L962
 6539              	.L955:
 6540 00f0 0123     		movs	r3, #1
 6541 00f2 3207     		lsls	r2, r6, #28
 6542 00f4 CBD5     		bpl	.L962
 6543 00f6 ED08     		lsrs	r5, r5, #3
 6544 00f8 1D42     		tst	r5, r3
 6545 00fa C8D0     		beq	.L962
 6546 00fc 2000     		movs	r0, r4
 6547 00fe FFF7FEFF 		bl	I2C_ITAddrCplt.constprop.0
 6548 0102 C4E7     		b	.L962
 6549              	.L1001:
 6550              		.align	2
 6551              	.L1000:
 6552 0104 0000FFFF 		.word	-65536
 6553 0108 FFFFFFFE 		.word	-16777217
 6555              		.section	.text.I2C_Master_ISR_DMA,"ax",%progbits
 6556              		.align	1
 6557              		.syntax unified
 6558              		.code	16
 6559              		.thumb_func
 6560              		.fpu softvfp
 6562              	I2C_Master_ISR_DMA:
 6563              		@ args = 0, pretend = 0, frame = 0
 6564              		@ frame_needed = 0, uses_anonymous_args = 0
 6565 0000 37B5     		push	{r0, r1, r2, r4, r5, lr}
 6566 0002 0500     		movs	r5, r0
 6567 0004 4035     		adds	r5, r5, #64
 6568 0006 2B78     		ldrb	r3, [r5]
 6569 0008 0400     		movs	r4, r0
 6570 000a 0220     		movs	r0, #2
 6571 000c 012B     		cmp	r3, #1
 6572 000e 17D0     		beq	.L1003
 6573 0010 0123     		movs	r3, #1
 6574 0012 0809     		lsrs	r0, r1, #4
 6575 0014 2B70     		strb	r3, [r5]
 6576 0016 1842     		tst	r0, r3
 6577 0018 13D0     		beq	.L1004
 6578 001a 1009     		lsrs	r0, r2, #4
 6579 001c 1842     		tst	r0, r3
 6580 001e 10D0     		beq	.L1004
 6581 0020 1022     		movs	r2, #16
 6582 0022 2368     		ldr	r3, [r4]
ARM GAS  /tmp/ccdcCb4o.s 			page 114


 6583 0024 2000     		movs	r0, r4
 6584 0026 DA61     		str	r2, [r3, #28]
 6585 0028 0423     		movs	r3, #4
 6586 002a 626C     		ldr	r2, [r4, #68]
 6587 002c 2021     		movs	r1, #32
 6588 002e 1343     		orrs	r3, r2
 6589 0030 6364     		str	r3, [r4, #68]
 6590 0032 FFF7FEFF 		bl	I2C_Enable_IRQ
 6591 0036 2000     		movs	r0, r4
 6592 0038 FFF7FEFF 		bl	I2C_Flush_TXDR
 6593              	.L1005:
 6594 003c 0020     		movs	r0, #0
 6595 003e 2870     		strb	r0, [r5]
 6596              	.L1003:
 6597              		@ sp needed
 6598 0040 3EBD     		pop	{r1, r2, r3, r4, r5, pc}
 6599              	.L1004:
 6600 0042 0123     		movs	r3, #1
 6601 0044 0806     		lsls	r0, r1, #24
 6602 0046 46D5     		bpl	.L1006
 6603 0048 9009     		lsrs	r0, r2, #6
 6604 004a 1842     		tst	r0, r3
 6605 004c 43D0     		beq	.L1006
 6606 004e 4021     		movs	r1, #64
 6607 0050 2368     		ldr	r3, [r4]
 6608 0052 1A68     		ldr	r2, [r3]
 6609 0054 8A43     		bics	r2, r1
 6610 0056 1A60     		str	r2, [r3]
 6611 0058 628D     		ldrh	r2, [r4, #42]
 6612 005a 002A     		cmp	r2, #0
 6613 005c 2FD0     		beq	.L1007
 6614 005e 5968     		ldr	r1, [r3, #4]
 6615 0060 638D     		ldrh	r3, [r4, #42]
 6616 0062 8905     		lsls	r1, r1, #22
 6617 0064 890D     		lsrs	r1, r1, #22
 6618 0066 FF2B     		cmp	r3, #255
 6619 0068 1BD9     		bls	.L1008
 6620 006a FF23     		movs	r3, #255
 6621 006c 2385     		strh	r3, [r4, #40]
 6622 006e 8023     		movs	r3, #128
 6623 0070 5B04     		lsls	r3, r3, #17
 6624              	.L1009:
 6625 0072 0020     		movs	r0, #0
 6626 0074 228D     		ldrh	r2, [r4, #40]
 6627 0076 0090     		str	r0, [sp]
 6628 0078 D2B2     		uxtb	r2, r2
 6629 007a 2000     		movs	r0, r4
 6630 007c FFF7FEFF 		bl	I2C_TransferConfig
 6631 0080 638D     		ldrh	r3, [r4, #42]
 6632 0082 228D     		ldrh	r2, [r4, #40]
 6633 0084 9B1A     		subs	r3, r3, r2
 6634 0086 9BB2     		uxth	r3, r3
 6635 0088 6385     		strh	r3, [r4, #42]
 6636 008a 2300     		movs	r3, r4
 6637 008c 4133     		adds	r3, r3, #65
 6638 008e 1A78     		ldrb	r2, [r3]
 6639 0090 2368     		ldr	r3, [r4]
ARM GAS  /tmp/ccdcCb4o.s 			page 115


 6640 0092 1968     		ldr	r1, [r3]
 6641 0094 222A     		cmp	r2, #34
 6642 0096 0FD1     		bne	.L1010
 6643 0098 8022     		movs	r2, #128
 6644 009a 1202     		lsls	r2, r2, #8
 6645              	.L1040:
 6646 009c 0A43     		orrs	r2, r1
 6647 009e 1A60     		str	r2, [r3]
 6648 00a0 CCE7     		b	.L1005
 6649              	.L1008:
 6650 00a2 638D     		ldrh	r3, [r4, #42]
 6651 00a4 E26A     		ldr	r2, [r4, #44]
 6652 00a6 2385     		strh	r3, [r4, #40]
 6653 00a8 1C4B     		ldr	r3, .L1041
 6654 00aa 9A42     		cmp	r2, r3
 6655 00ac 01D0     		beq	.L1015
 6656 00ae E36A     		ldr	r3, [r4, #44]
 6657 00b0 DFE7     		b	.L1009
 6658              	.L1015:
 6659 00b2 8023     		movs	r3, #128
 6660 00b4 9B04     		lsls	r3, r3, #18
 6661 00b6 DCE7     		b	.L1009
 6662              	.L1010:
 6663 00b8 8022     		movs	r2, #128
 6664 00ba D201     		lsls	r2, r2, #7
 6665 00bc EEE7     		b	.L1040
 6666              	.L1007:
 6667 00be 5B68     		ldr	r3, [r3, #4]
 6668 00c0 9B01     		lsls	r3, r3, #6
 6669 00c2 03D4     		bmi	.L1011
 6670              	.L1013:
 6671 00c4 2000     		movs	r0, r4
 6672 00c6 FFF7FEFF 		bl	I2C_ITMasterSeqCplt
 6673 00ca B7E7     		b	.L1005
 6674              	.L1011:
 6675 00cc 4021     		movs	r1, #64
 6676 00ce 2000     		movs	r0, r4
 6677 00d0 FFF7FEFF 		bl	I2C_ITError
 6678 00d4 B2E7     		b	.L1005
 6679              	.L1006:
 6680 00d6 0123     		movs	r3, #1
 6681 00d8 4806     		lsls	r0, r1, #25
 6682 00da 13D5     		bpl	.L1012
 6683 00dc 9009     		lsrs	r0, r2, #6
 6684 00de 1842     		tst	r0, r3
 6685 00e0 10D0     		beq	.L1012
 6686 00e2 638D     		ldrh	r3, [r4, #42]
 6687 00e4 002B     		cmp	r3, #0
 6688 00e6 F1D1     		bne	.L1011
 6689 00e8 2368     		ldr	r3, [r4]
 6690 00ea 5A68     		ldr	r2, [r3, #4]
 6691 00ec 9201     		lsls	r2, r2, #6
 6692 00ee A5D4     		bmi	.L1005
 6693 00f0 E16A     		ldr	r1, [r4, #44]
 6694 00f2 0A4A     		ldr	r2, .L1041
 6695 00f4 9142     		cmp	r1, r2
 6696 00f6 E5D1     		bne	.L1013
ARM GAS  /tmp/ccdcCb4o.s 			page 116


 6697 00f8 8022     		movs	r2, #128
 6698 00fa 5968     		ldr	r1, [r3, #4]
 6699 00fc D201     		lsls	r2, r2, #7
 6700 00fe 0A43     		orrs	r2, r1
 6701 0100 5A60     		str	r2, [r3, #4]
 6702 0102 9BE7     		b	.L1005
 6703              	.L1012:
 6704 0104 0123     		movs	r3, #1
 6705 0106 8806     		lsls	r0, r1, #26
 6706 0108 00D4     		bmi	.LCB7571
 6707 010a 97E7     		b	.L1005	@long jump
 6708              	.LCB7571:
 6709 010c 5209     		lsrs	r2, r2, #5
 6710 010e 1A42     		tst	r2, r3
 6711 0110 00D1     		bne	.LCB7575
 6712 0112 93E7     		b	.L1005	@long jump
 6713              	.LCB7575:
 6714 0114 2000     		movs	r0, r4
 6715 0116 FFF7FEFF 		bl	I2C_ITMasterCplt
 6716 011a 8FE7     		b	.L1005
 6717              	.L1042:
 6718              		.align	2
 6719              	.L1041:
 6720 011c 0000FFFF 		.word	-65536
 6722              		.section	.text.I2C_DMAError,"ax",%progbits
 6723              		.align	1
 6724              		.syntax unified
 6725              		.code	16
 6726              		.thumb_func
 6727              		.fpu softvfp
 6729              	I2C_DMAError:
 6730              		@ args = 0, pretend = 0, frame = 0
 6731              		@ frame_needed = 0, uses_anonymous_args = 0
 6732 0000 8023     		movs	r3, #128
 6733 0002 806A     		ldr	r0, [r0, #40]
 6734 0004 10B5     		push	{r4, lr}
 6735 0006 0268     		ldr	r2, [r0]
 6736 0008 1B02     		lsls	r3, r3, #8
 6737 000a 5168     		ldr	r1, [r2, #4]
 6738              		@ sp needed
 6739 000c 0B43     		orrs	r3, r1
 6740 000e 5360     		str	r3, [r2, #4]
 6741 0010 1021     		movs	r1, #16
 6742 0012 FFF7FEFF 		bl	I2C_ITError
 6743 0016 10BD     		pop	{r4, pc}
 6745              		.section	.text.I2C_DMAMasterTransmitCplt,"ax",%progbits
 6746              		.align	1
 6747              		.syntax unified
 6748              		.code	16
 6749              		.thumb_func
 6750              		.fpu softvfp
 6752              	I2C_DMAMasterTransmitCplt:
 6753              		@ args = 0, pretend = 0, frame = 0
 6754              		@ frame_needed = 0, uses_anonymous_args = 0
 6755 0000 10B5     		push	{r4, lr}
 6756 0002 846A     		ldr	r4, [r0, #40]
 6757 0004 1149     		ldr	r1, .L1051
ARM GAS  /tmp/ccdcCb4o.s 			page 117


 6758 0006 2268     		ldr	r2, [r4]
 6759 0008 1368     		ldr	r3, [r2]
 6760 000a 0B40     		ands	r3, r1
 6761 000c 1360     		str	r3, [r2]
 6762 000e 638D     		ldrh	r3, [r4, #42]
 6763 0010 2021     		movs	r1, #32
 6764 0012 002B     		cmp	r3, #0
 6765 0014 16D0     		beq	.L1050
 6766 0016 636A     		ldr	r3, [r4, #36]
 6767 0018 218D     		ldrh	r1, [r4, #40]
 6768 001a 608D     		ldrh	r0, [r4, #42]
 6769 001c 5918     		adds	r1, r3, r1
 6770 001e FF23     		movs	r3, #255
 6771 0020 6162     		str	r1, [r4, #36]
 6772 0022 9842     		cmp	r0, r3
 6773 0024 01D8     		bhi	.L1047
 6774 0026 638D     		ldrh	r3, [r4, #42]
 6775 0028 9BB2     		uxth	r3, r3
 6776              	.L1047:
 6777 002a A06B     		ldr	r0, [r4, #56]
 6778 002c 2385     		strh	r3, [r4, #40]
 6779 002e 2832     		adds	r2, r2, #40
 6780 0030 FFF7FEFF 		bl	HAL_DMA_Start_IT
 6781 0034 0028     		cmp	r0, #0
 6782 0036 04D0     		beq	.L1048
 6783 0038 1021     		movs	r1, #16
 6784 003a 2000     		movs	r0, r4
 6785 003c FFF7FEFF 		bl	I2C_ITError
 6786              	.L1044:
 6787              		@ sp needed
 6788 0040 10BD     		pop	{r4, pc}
 6789              	.L1048:
 6790 0042 4021     		movs	r1, #64
 6791              	.L1050:
 6792 0044 2000     		movs	r0, r4
 6793 0046 FFF7FEFF 		bl	I2C_Enable_IRQ
 6794 004a F9E7     		b	.L1044
 6795              	.L1052:
 6796              		.align	2
 6797              	.L1051:
 6798 004c FFBFFFFF 		.word	-16385
 6800              		.section	.text.I2C_DMAMasterReceiveCplt,"ax",%progbits
 6801              		.align	1
 6802              		.syntax unified
 6803              		.code	16
 6804              		.thumb_func
 6805              		.fpu softvfp
 6807              	I2C_DMAMasterReceiveCplt:
 6808              		@ args = 0, pretend = 0, frame = 0
 6809              		@ frame_needed = 0, uses_anonymous_args = 0
 6810 0000 10B5     		push	{r4, lr}
 6811 0002 846A     		ldr	r4, [r0, #40]
 6812 0004 124A     		ldr	r2, .L1060
 6813 0006 2168     		ldr	r1, [r4]
 6814 0008 0B68     		ldr	r3, [r1]
 6815 000a 1340     		ands	r3, r2
 6816 000c 0B60     		str	r3, [r1]
ARM GAS  /tmp/ccdcCb4o.s 			page 118


 6817 000e 638D     		ldrh	r3, [r4, #42]
 6818 0010 002B     		cmp	r3, #0
 6819 0012 04D1     		bne	.L1054
 6820 0014 2021     		movs	r1, #32
 6821              	.L1059:
 6822 0016 2000     		movs	r0, r4
 6823 0018 FFF7FEFF 		bl	I2C_Enable_IRQ
 6824 001c 14E0     		b	.L1053
 6825              	.L1054:
 6826 001e 636A     		ldr	r3, [r4, #36]
 6827 0020 228D     		ldrh	r2, [r4, #40]
 6828 0022 608D     		ldrh	r0, [r4, #42]
