ARM GAS  /tmp/ccQQTu5L.s 			page 1


   1              		.cpu cortex-m0
   2              		.eabi_attribute 23, 1
   3              		.eabi_attribute 24, 1
   4              		.eabi_attribute 25, 1
   5              		.eabi_attribute 26, 1
   6              		.eabi_attribute 30, 4
   7              		.eabi_attribute 34, 0
   8              		.eabi_attribute 18, 4
   9              		.file	"stm32l0xx_hal_adc.c"
  10              		.text
  11              		.global	__aeabi_uidiv
  12              		.section	.text.ADC_DelayMicroSecond,"ax",%progbits
  13              		.align	1
  14              		.arch armv6s-m
  15              		.syntax unified
  16              		.code	16
  17              		.thumb_func
  18              		.fpu softvfp
  20              	ADC_DelayMicroSecond:
  21              		@ args = 0, pretend = 0, frame = 8
  22              		@ frame_needed = 0, uses_anonymous_args = 0
  23 0000 084B     		ldr	r3, .L4
  24 0002 13B5     		push	{r0, r1, r4, lr}
  25 0004 0400     		movs	r4, r0
  26 0006 0849     		ldr	r1, .L4+4
  27 0008 1868     		ldr	r0, [r3]
  28 000a FFF7FEFF 		bl	__aeabi_uidiv
  29 000e 4443     		muls	r4, r0
  30 0010 0194     		str	r4, [sp, #4]
  31              	.L2:
  32 0012 019B     		ldr	r3, [sp, #4]
  33 0014 002B     		cmp	r3, #0
  34 0016 00D1     		bne	.L3
  35              		@ sp needed
  36 0018 13BD     		pop	{r0, r1, r4, pc}
  37              	.L3:
  38 001a 019B     		ldr	r3, [sp, #4]
  39 001c 013B     		subs	r3, r3, #1
  40 001e 0193     		str	r3, [sp, #4]
  41 0020 F7E7     		b	.L2
  42              	.L5:
  43 0022 C046     		.align	2
  44              	.L4:
  45 0024 00000000 		.word	SystemCoreClock
  46 0028 40420F00 		.word	1000000
  48              		.section	.text.ADC_Disable,"ax",%progbits
  49              		.align	1
  50              		.syntax unified
  51              		.code	16
  52              		.thumb_func
  53              		.fpu softvfp
  55              	ADC_Disable:
  56              		@ args = 0, pretend = 0, frame = 0
  57              		@ frame_needed = 0, uses_anonymous_args = 0
  58 0000 0321     		movs	r1, #3
  59 0002 0368     		ldr	r3, [r0]
  60 0004 70B5     		push	{r4, r5, r6, lr}
ARM GAS  /tmp/ccQQTu5L.s 			page 2


  61 0006 0400     		movs	r4, r0
  62 0008 9868     		ldr	r0, [r3, #8]
  63 000a 0840     		ands	r0, r1
  64 000c 0128     		cmp	r0, #1
  65 000e 01D0     		beq	.L7
  66              	.L9:
  67 0010 0020     		movs	r0, #0
  68              	.L8:
  69              		@ sp needed
  70 0012 70BD     		pop	{r4, r5, r6, pc}
  71              	.L7:
  72 0014 1A68     		ldr	r2, [r3]
  73 0016 0242     		tst	r2, r0
  74 0018 FAD0     		beq	.L9
  75 001a 0522     		movs	r2, #5
  76 001c 9D68     		ldr	r5, [r3, #8]
  77 001e 1540     		ands	r5, r2
  78 0020 012D     		cmp	r5, #1
  79 0022 1DD1     		bne	.L10
  80 0024 9868     		ldr	r0, [r3, #8]
  81 0026 033A     		subs	r2, r2, #3
  82 0028 0243     		orrs	r2, r0
  83 002a 9A60     		str	r2, [r3, #8]
  84 002c 1960     		str	r1, [r3]
  85 002e FFF7FEFF 		bl	HAL_GetTick
  86 0032 0600     		movs	r6, r0
  87              	.L16:
  88 0034 2368     		ldr	r3, [r4]
  89 0036 9B68     		ldr	r3, [r3, #8]
  90 0038 2B42     		tst	r3, r5
  91 003a E9D0     		beq	.L9
  92 003c FFF7FEFF 		bl	HAL_GetTick
  93 0040 801B     		subs	r0, r0, r6
  94 0042 0A28     		cmp	r0, #10
  95 0044 F6D9     		bls	.L16
  96 0046 2368     		ldr	r3, [r4]
  97 0048 9B68     		ldr	r3, [r3, #8]
  98 004a 2B42     		tst	r3, r5
  99 004c F2D0     		beq	.L16
 100 004e 1023     		movs	r3, #16
 101 0050 626D     		ldr	r2, [r4, #84]
 102 0052 0120     		movs	r0, #1
 103 0054 1343     		orrs	r3, r2
 104 0056 6365     		str	r3, [r4, #84]
 105 0058 A36D     		ldr	r3, [r4, #88]
 106 005a 1D43     		orrs	r5, r3
 107 005c A565     		str	r5, [r4, #88]
 108 005e D8E7     		b	.L8
 109              	.L10:
 110 0060 1023     		movs	r3, #16
 111 0062 626D     		ldr	r2, [r4, #84]
 112 0064 1343     		orrs	r3, r2
 113 0066 6365     		str	r3, [r4, #84]
 114 0068 A36D     		ldr	r3, [r4, #88]
 115 006a 0343     		orrs	r3, r0
 116 006c A365     		str	r3, [r4, #88]
 117 006e D0E7     		b	.L8
ARM GAS  /tmp/ccQQTu5L.s 			page 3


 119              		.section	.text.ADC_Enable,"ax",%progbits
 120              		.align	1
 121              		.syntax unified
 122              		.code	16
 123              		.thumb_func
 124              		.fpu softvfp
 126              	ADC_Enable:
 127              		@ args = 0, pretend = 0, frame = 0
 128              		@ frame_needed = 0, uses_anonymous_args = 0
 129 0000 0321     		movs	r1, #3
 130 0002 0368     		ldr	r3, [r0]
 131 0004 70B5     		push	{r4, r5, r6, lr}
 132 0006 9A68     		ldr	r2, [r3, #8]
 133 0008 0400     		movs	r4, r0
 134 000a 0A40     		ands	r2, r1
 135 000c 012A     		cmp	r2, #1
 136 000e 04D1     		bne	.L20
 137 0010 1968     		ldr	r1, [r3]
 138 0012 1142     		tst	r1, r2
 139 0014 01D0     		beq	.L20
 140              	.L25:
 141 0016 0020     		movs	r0, #0
 142              	.L21:
 143              		@ sp needed
 144 0018 70BD     		pop	{r4, r5, r6, pc}
 145              	.L20:
 146 001a 9968     		ldr	r1, [r3, #8]
 147 001c 154A     		ldr	r2, .L30
 148 001e 1142     		tst	r1, r2
 149 0020 08D0     		beq	.L22
 150 0022 1023     		movs	r3, #16
 151 0024 0120     		movs	r0, #1
 152 0026 626D     		ldr	r2, [r4, #84]
 153 0028 1343     		orrs	r3, r2
 154 002a 6365     		str	r3, [r4, #84]
 155 002c A36D     		ldr	r3, [r4, #88]
 156 002e 0343     		orrs	r3, r0
 157 0030 A365     		str	r3, [r4, #88]
 158 0032 F1E7     		b	.L21
 159              	.L22:
 160 0034 0125     		movs	r5, #1
 161 0036 9A68     		ldr	r2, [r3, #8]
 162 0038 2800     		movs	r0, r5
 163 003a 2A43     		orrs	r2, r5
 164 003c 9A60     		str	r2, [r3, #8]
 165 003e FFF7FEFF 		bl	ADC_DelayMicroSecond
 166 0042 FFF7FEFF 		bl	HAL_GetTick
 167 0046 0600     		movs	r6, r0
 168              	.L28:
 169 0048 2368     		ldr	r3, [r4]
 170 004a 1B68     		ldr	r3, [r3]
 171 004c 2B42     		tst	r3, r5
 172 004e E2D1     		bne	.L25
 173 0050 FFF7FEFF 		bl	HAL_GetTick
 174 0054 801B     		subs	r0, r0, r6
 175 0056 0A28     		cmp	r0, #10
 176 0058 F6D9     		bls	.L28
ARM GAS  /tmp/ccQQTu5L.s 			page 4


 177 005a 2368     		ldr	r3, [r4]
 178 005c 1B68     		ldr	r3, [r3]
 179 005e 2B42     		tst	r3, r5
 180 0060 F2D1     		bne	.L28
 181 0062 1023     		movs	r3, #16
 182 0064 626D     		ldr	r2, [r4, #84]
 183 0066 0120     		movs	r0, #1
 184 0068 1343     		orrs	r3, r2
 185 006a 6365     		str	r3, [r4, #84]
 186 006c A36D     		ldr	r3, [r4, #88]
 187 006e 1D43     		orrs	r5, r3
 188 0070 A565     		str	r5, [r4, #88]
 189 0072 D1E7     		b	.L21
 190              	.L31:
 191              		.align	2
 192              	.L30:
 193 0074 17000080 		.word	-2147483625
 195              		.section	.text.ADC_ConversionStop,"ax",%progbits
 196              		.align	1
 197              		.syntax unified
 198              		.code	16
 199              		.thumb_func
 200              		.fpu softvfp
 202              	ADC_ConversionStop:
 203              		@ args = 0, pretend = 0, frame = 0
 204              		@ frame_needed = 0, uses_anonymous_args = 0
 205 0000 0422     		movs	r2, #4
 206 0002 0368     		ldr	r3, [r0]
 207 0004 70B5     		push	{r4, r5, r6, lr}
 208 0006 9968     		ldr	r1, [r3, #8]
 209 0008 0400     		movs	r4, r0
 210 000a 1142     		tst	r1, r2
 211 000c 01D1     		bne	.L33
 212              	.L38:
 213 000e 0020     		movs	r0, #0
 214              	.L34:
 215              		@ sp needed
 216 0010 70BD     		pop	{r4, r5, r6, pc}
 217              	.L33:
 218 0012 9968     		ldr	r1, [r3, #8]
 219 0014 1142     		tst	r1, r2
 220 0016 06D0     		beq	.L35
 221 0018 9A68     		ldr	r2, [r3, #8]
 222 001a 9207     		lsls	r2, r2, #30
 223 001c 03D4     		bmi	.L35
 224 001e 1022     		movs	r2, #16
 225 0020 9968     		ldr	r1, [r3, #8]
 226 0022 0A43     		orrs	r2, r1
 227 0024 9A60     		str	r2, [r3, #8]
 228              	.L35:
 229 0026 FFF7FEFF 		bl	HAL_GetTick
 230 002a 0426     		movs	r6, #4
 231 002c 0500     		movs	r5, r0
 232              	.L42:
 233 002e 2368     		ldr	r3, [r4]
 234 0030 9B68     		ldr	r3, [r3, #8]
 235 0032 3342     		tst	r3, r6
ARM GAS  /tmp/ccQQTu5L.s 			page 5


 236 0034 EBD0     		beq	.L38
 237 0036 FFF7FEFF 		bl	HAL_GetTick
 238 003a 401B     		subs	r0, r0, r5
 239 003c 0A28     		cmp	r0, #10
 240 003e F6D9     		bls	.L42
 241 0040 2368     		ldr	r3, [r4]
 242 0042 9B68     		ldr	r3, [r3, #8]
 243 0044 3342     		tst	r3, r6
 244 0046 F2D0     		beq	.L42
 245 0048 1023     		movs	r3, #16
 246 004a 0120     		movs	r0, #1
 247 004c 626D     		ldr	r2, [r4, #84]
 248 004e 1343     		orrs	r3, r2
 249 0050 6365     		str	r3, [r4, #84]
 250 0052 A36D     		ldr	r3, [r4, #88]
 251 0054 0343     		orrs	r3, r0
 252 0056 A365     		str	r3, [r4, #88]
 253 0058 DAE7     		b	.L34
 255              		.section	.text.HAL_ADC_MspInit,"ax",%progbits
 256              		.align	1
 257              		.weak	HAL_ADC_MspInit
 258              		.syntax unified
 259              		.code	16
 260              		.thumb_func
 261              		.fpu softvfp
 263              	HAL_ADC_MspInit:
 264              		@ args = 0, pretend = 0, frame = 0
 265              		@ frame_needed = 0, uses_anonymous_args = 0
 266              		@ link register save eliminated.
 267              		@ sp needed
 268 0000 7047     		bx	lr
 270              		.section	.text.HAL_ADC_Init,"ax",%progbits
 271              		.align	1
 272              		.global	HAL_ADC_Init
 273              		.syntax unified
 274              		.code	16
 275              		.thumb_func
 276              		.fpu softvfp
 278              	HAL_ADC_Init:
 279              		@ args = 0, pretend = 0, frame = 0
 280              		@ frame_needed = 0, uses_anonymous_args = 0
 281 0000 70B5     		push	{r4, r5, r6, lr}
 282 0002 0400     		movs	r4, r0
 283 0004 0120     		movs	r0, #1
 284 0006 002C     		cmp	r4, #0
 285 0008 1BD0     		beq	.L47
 286 000a 636D     		ldr	r3, [r4, #84]
 287 000c 002B     		cmp	r3, #0
 288 000e 06D1     		bne	.L48
 289 0010 2200     		movs	r2, r4
 290 0012 5032     		adds	r2, r2, #80
 291 0014 A365     		str	r3, [r4, #88]
 292 0016 2000     		movs	r0, r4
 293 0018 1370     		strb	r3, [r2]
 294 001a FFF7FEFF 		bl	HAL_ADC_MspInit
 295              	.L48:
 296 001e 636D     		ldr	r3, [r4, #84]
ARM GAS  /tmp/ccQQTu5L.s 			page 6


 297 0020 DB06     		lsls	r3, r3, #27
 298 0022 06D4     		bmi	.L49
 299 0024 2368     		ldr	r3, [r4]
 300 0026 0422     		movs	r2, #4
 301 0028 9968     		ldr	r1, [r3, #8]
 302 002a 0800     		movs	r0, r1
 303 002c 1040     		ands	r0, r2
 304 002e 1142     		tst	r1, r2
 305 0030 08D0     		beq	.L50
 306              	.L49:
 307 0032 1023     		movs	r3, #16
 308 0034 626D     		ldr	r2, [r4, #84]
 309 0036 0120     		movs	r0, #1
 310 0038 1343     		orrs	r3, r2
 311 003a 6365     		str	r3, [r4, #84]
 312 003c 0023     		movs	r3, #0
 313 003e 5034     		adds	r4, r4, #80
 314 0040 2370     		strb	r3, [r4]
 315              	.L47:
 316              		@ sp needed
 317 0042 70BD     		pop	{r4, r5, r6, pc}
 318              	.L50:
 319 0044 626D     		ldr	r2, [r4, #84]
 320 0046 5549     		ldr	r1, .L68
 321 0048 1140     		ands	r1, r2
 322 004a 0222     		movs	r2, #2
 323 004c 0A43     		orrs	r2, r1
 324 004e 6265     		str	r2, [r4, #84]
 325 0050 0322     		movs	r2, #3
 326 0052 9968     		ldr	r1, [r3, #8]
 327 0054 1140     		ands	r1, r2
 328 0056 524A     		ldr	r2, .L68+4
 329 0058 0129     		cmp	r1, #1
 330 005a 02D1     		bne	.L51
 331 005c 1D68     		ldr	r5, [r3]
 332 005e 0D42     		tst	r5, r1
 333 0060 19D1     		bne	.L52
 334              	.L51:
 335 0062 8026     		movs	r6, #128
 336 0064 6168     		ldr	r1, [r4, #4]
 337 0066 F605     		lsls	r6, r6, #23
 338 0068 4D00     		lsls	r5, r1, #1
 339 006a 6D08     		lsrs	r5, r5, #1
 340 006c B542     		cmp	r5, r6
 341 006e 03D0     		beq	.L53
 342 0070 8025     		movs	r5, #128
 343 0072 2D06     		lsls	r5, r5, #24
 344 0074 A942     		cmp	r1, r5
 345 0076 76D1     		bne	.L54
 346              	.L53:
 347 0078 1D69     		ldr	r5, [r3, #16]
 348 007a AD00     		lsls	r5, r5, #2
 349 007c AD08     		lsrs	r5, r5, #2
 350 007e 1D61     		str	r5, [r3, #16]
 351 0080 1D69     		ldr	r5, [r3, #16]
 352 0082 2943     		orrs	r1, r5
 353 0084 1961     		str	r1, [r3, #16]
ARM GAS  /tmp/ccQQTu5L.s 			page 7


 354              	.L55:
 355 0086 1825     		movs	r5, #24
 356 0088 D968     		ldr	r1, [r3, #12]
 357 008a A943     		bics	r1, r5
 358 008c D960     		str	r1, [r3, #12]
 359 008e D968     		ldr	r1, [r3, #12]
 360 0090 A568     		ldr	r5, [r4, #8]
 361 0092 2943     		orrs	r1, r5
 362 0094 D960     		str	r1, [r3, #12]
 363              	.L52:
 364 0096 1168     		ldr	r1, [r2]
 365 0098 424D     		ldr	r5, .L68+8
 366 009a 2940     		ands	r1, r5
 367 009c 1160     		str	r1, [r2]
 368 009e 616B     		ldr	r1, [r4, #52]
 369 00a0 1568     		ldr	r5, [r2]
 370 00a2 4906     		lsls	r1, r1, #25
 371 00a4 2943     		orrs	r1, r5
 372 00a6 1160     		str	r1, [r2]
 373 00a8 8022     		movs	r2, #128
 374 00aa 9968     		ldr	r1, [r3, #8]
 375 00ac 5205     		lsls	r2, r2, #21
 376 00ae 1142     		tst	r1, r2
 377 00b0 02D1     		bne	.L56
 378 00b2 9968     		ldr	r1, [r3, #8]
 379 00b4 0A43     		orrs	r2, r1
 380 00b6 9A60     		str	r2, [r3, #8]
 381              	.L56:
 382 00b8 DA68     		ldr	r2, [r3, #12]
 383 00ba 3B49     		ldr	r1, .L68+12
 384 00bc 0A40     		ands	r2, r1
 385 00be 2169     		ldr	r1, [r4, #16]
 386 00c0 DA60     		str	r2, [r3, #12]
 387 00c2 DD68     		ldr	r5, [r3, #12]
 388 00c4 E268     		ldr	r2, [r4, #12]
 389 00c6 0229     		cmp	r1, #2
 390 00c8 00D1     		bne	.L57
 391 00ca 0420     		movs	r0, #4
 392              	.L57:
 393 00cc 266B     		ldr	r6, [r4, #48]
 394 00ce 611C     		adds	r1, r4, #1
 395 00d0 3243     		orrs	r2, r6
 396 00d2 2A43     		orrs	r2, r5
 397 00d4 A569     		ldr	r5, [r4, #24]
 398 00d6 C97F     		ldrb	r1, [r1, #31]
 399 00d8 AD03     		lsls	r5, r5, #14
 400 00da 2A43     		orrs	r2, r5
 401 00dc E569     		ldr	r5, [r4, #28]
 402 00de ED03     		lsls	r5, r5, #15
 403 00e0 2A43     		orrs	r2, r5
 404 00e2 4D03     		lsls	r5, r1, #13
 405 00e4 2A43     		orrs	r2, r5
 406 00e6 2500     		movs	r5, r4
 407 00e8 2C35     		adds	r5, r5, #44
 408 00ea 2D78     		ldrb	r5, [r5]
 409 00ec 6D00     		lsls	r5, r5, #1
 410 00ee 2A43     		orrs	r2, r5
ARM GAS  /tmp/ccQQTu5L.s 			page 8


 411 00f0 0243     		orrs	r2, r0
 412 00f2 C220     		movs	r0, #194
 413 00f4 DA60     		str	r2, [r3, #12]
 414 00f6 626A     		ldr	r2, [r4, #36]
 415 00f8 FF30     		adds	r0, r0, #255
 416 00fa 8242     		cmp	r2, r0
 417 00fc 04D0     		beq	.L58
 418 00fe A56A     		ldr	r5, [r4, #40]
 419 0100 D868     		ldr	r0, [r3, #12]
 420 0102 2A43     		orrs	r2, r5
 421 0104 0243     		orrs	r2, r0
 422 0106 DA60     		str	r2, [r3, #12]
 423              	.L58:
 424 0108 A21C     		adds	r2, r4, #2
 425 010a D27F     		ldrb	r2, [r2, #31]
 426 010c 012A     		cmp	r2, #1
 427 010e 06D1     		bne	.L59
 428 0110 0029     		cmp	r1, #0
 429 0112 34D1     		bne	.L60
 430 0114 8022     		movs	r2, #128
 431 0116 D968     		ldr	r1, [r3, #12]
 432 0118 5202     		lsls	r2, r2, #9
 433 011a 0A43     		orrs	r2, r1
 434 011c DA60     		str	r2, [r3, #12]
 435              	.L59:
 436 011e E16B     		ldr	r1, [r4, #60]
 437 0120 1A69     		ldr	r2, [r3, #16]
 438 0122 0129     		cmp	r1, #1
 439 0124 33D1     		bne	.L61
 440 0126 2148     		ldr	r0, .L68+16
 441 0128 656C     		ldr	r5, [r4, #68]
 442 012a 0240     		ands	r2, r0
 443 012c 1A61     		str	r2, [r3, #16]
 444 012e 226C     		ldr	r2, [r4, #64]
 445 0130 1869     		ldr	r0, [r3, #16]
 446 0132 2A43     		orrs	r2, r5
 447 0134 A56C     		ldr	r5, [r4, #72]
 448 0136 2A43     		orrs	r2, r5
 449 0138 0243     		orrs	r2, r0
 450 013a 1A61     		str	r2, [r3, #16]
 451 013c 1A69     		ldr	r2, [r3, #16]
 452 013e 1143     		orrs	r1, r2
 453 0140 1961     		str	r1, [r3, #16]
 454              	.L62:
 455 0142 0721     		movs	r1, #7
 456 0144 5A69     		ldr	r2, [r3, #20]
 457 0146 0020     		movs	r0, #0
 458 0148 8A43     		bics	r2, r1
 459 014a 5A61     		str	r2, [r3, #20]
 460 014c 5A69     		ldr	r2, [r3, #20]
 461 014e A16B     		ldr	r1, [r4, #56]
 462 0150 0A43     		orrs	r2, r1
 463 0152 5A61     		str	r2, [r3, #20]
 464 0154 0322     		movs	r2, #3
 465 0156 A065     		str	r0, [r4, #88]
 466 0158 636D     		ldr	r3, [r4, #84]
 467 015a 9343     		bics	r3, r2
ARM GAS  /tmp/ccQQTu5L.s 			page 9


 468 015c 1A00     		movs	r2, r3
 469 015e 0123     		movs	r3, #1
 470 0160 1343     		orrs	r3, r2
 471 0162 6365     		str	r3, [r4, #84]
 472 0164 6DE7     		b	.L47
 473              	.L54:
 474 0166 1D69     		ldr	r5, [r3, #16]
 475 0168 114E     		ldr	r6, .L68+20
 476 016a AD00     		lsls	r5, r5, #2
 477 016c AD08     		lsrs	r5, r5, #2
 478 016e 1D61     		str	r5, [r3, #16]
 479 0170 1568     		ldr	r5, [r2]
 480 0172 3540     		ands	r5, r6
 481 0174 1560     		str	r5, [r2]
 482 0176 1568     		ldr	r5, [r2]
 483 0178 2943     		orrs	r1, r5
 484 017a 1160     		str	r1, [r2]
 485 017c 83E7     		b	.L55
 486              	.L60:
 487 017e 2021     		movs	r1, #32
 488 0180 606D     		ldr	r0, [r4, #84]
 489 0182 0143     		orrs	r1, r0
 490 0184 6165     		str	r1, [r4, #84]
 491 0186 A16D     		ldr	r1, [r4, #88]
 492 0188 0A43     		orrs	r2, r1
 493 018a A265     		str	r2, [r4, #88]
 494 018c C7E7     		b	.L59
 495              	.L61:
 496 018e 0121     		movs	r1, #1
 497 0190 0A42     		tst	r2, r1
 498 0192 D6D0     		beq	.L62
 499 0194 1A69     		ldr	r2, [r3, #16]
 500 0196 8A43     		bics	r2, r1
 501 0198 1A61     		str	r2, [r3, #16]
 502 019a D2E7     		b	.L62
 503              	.L69:
 504              		.align	2
 505              	.L68:
 506 019c FDFEFFFF 		.word	-259
 507 01a0 08270140 		.word	1073817352
 508 01a4 FFFFFFFD 		.word	-33554433
 509 01a8 1902FEFF 		.word	-130535
 510 01ac 03FCFFFF 		.word	-1021
 511 01b0 FFFFC3FF 		.word	-3932161
 513              		.section	.text.HAL_ADC_MspDeInit,"ax",%progbits
 514              		.align	1
 515              		.weak	HAL_ADC_MspDeInit
 516              		.syntax unified
 517              		.code	16
 518              		.thumb_func
 519              		.fpu softvfp
 521              	HAL_ADC_MspDeInit:
 522              		@ args = 0, pretend = 0, frame = 0
 523              		@ frame_needed = 0, uses_anonymous_args = 0
 524              		@ link register save eliminated.
 525              		@ sp needed
 526 0000 7047     		bx	lr
ARM GAS  /tmp/ccQQTu5L.s 			page 10


 528              		.section	.text.HAL_ADC_DeInit,"ax",%progbits
 529              		.align	1
 530              		.global	HAL_ADC_DeInit
 531              		.syntax unified
 532              		.code	16
 533              		.thumb_func
 534              		.fpu softvfp
 536              	HAL_ADC_DeInit:
 537              		@ args = 0, pretend = 0, frame = 0
 538              		@ frame_needed = 0, uses_anonymous_args = 0
 539 0000 70B5     		push	{r4, r5, r6, lr}
 540 0002 0400     		movs	r4, r0
 541 0004 0125     		movs	r5, #1
 542 0006 0028     		cmp	r0, #0
 543 0008 11D0     		beq	.L72
 544 000a 0223     		movs	r3, #2
 545 000c 426D     		ldr	r2, [r0, #84]
 546 000e 1343     		orrs	r3, r2
 547 0010 4365     		str	r3, [r0, #84]
 548 0012 FFF7FEFF 		bl	ADC_ConversionStop
 549 0016 051E     		subs	r5, r0, #0
 550 0018 37D1     		bne	.L73
 551 001a 2000     		movs	r0, r4
 552 001c FFF7FEFF 		bl	ADC_Disable
 553 0020 0500     		movs	r5, r0
 554 0022 0128     		cmp	r0, #1
 555 0024 05D1     		bne	.L74
 556              	.L77:
 557 0026 0125     		movs	r5, #1
 558              	.L75:
 559 0028 0023     		movs	r3, #0
 560 002a 5034     		adds	r4, r4, #80
 561 002c 2370     		strb	r3, [r4]
 562              	.L72:
 563 002e 2800     		movs	r0, r5
 564              		@ sp needed
 565 0030 70BD     		pop	{r4, r5, r6, pc}
 566              	.L74:
 567 0032 0123     		movs	r3, #1
 568 0034 6365     		str	r3, [r4, #84]
 569              	.L76:
 570 0036 2368     		ldr	r3, [r4]
 571 0038 1549     		ldr	r1, .L82
 572 003a 5A68     		ldr	r2, [r3, #4]
 573 003c 2000     		movs	r0, r4
 574 003e 0A40     		ands	r2, r1
 575 0040 5A60     		str	r2, [r3, #4]
 576 0042 144A     		ldr	r2, .L82+4
 577 0044 1449     		ldr	r1, .L82+8
 578 0046 1A60     		str	r2, [r3]
 579 0048 9A68     		ldr	r2, [r3, #8]
 580 004a 0A40     		ands	r2, r1
 581 004c 9A60     		str	r2, [r3, #8]
 582 004e DA68     		ldr	r2, [r3, #12]
 583 0050 1249     		ldr	r1, .L82+12
 584 0052 0A40     		ands	r2, r1
 585 0054 DA60     		str	r2, [r3, #12]
ARM GAS  /tmp/ccQQTu5L.s 			page 11


 586 0056 1A69     		ldr	r2, [r3, #16]
 587 0058 1149     		ldr	r1, .L82+16
 588 005a 0A40     		ands	r2, r1
 589 005c 0721     		movs	r1, #7
 590 005e 1A61     		str	r2, [r3, #16]
 591 0060 5A69     		ldr	r2, [r3, #20]
 592 0062 8A43     		bics	r2, r1
 593 0064 5A61     		str	r2, [r3, #20]
 594 0066 1A6A     		ldr	r2, [r3, #32]
 595 0068 0E49     		ldr	r1, .L82+20
 596 006a 0A40     		ands	r2, r1
 597 006c 7F21     		movs	r1, #127
 598 006e 1A62     		str	r2, [r3, #32]
 599 0070 B433     		adds	r3, r3, #180
 600 0072 1A68     		ldr	r2, [r3]
 601 0074 8A43     		bics	r2, r1
 602 0076 1A60     		str	r2, [r3]
 603 0078 1A68     		ldr	r2, [r3]
 604 007a 8A43     		bics	r2, r1
 605 007c 1A60     		str	r2, [r3]
 606 007e FFF7FEFF 		bl	HAL_ADC_MspDeInit
 607 0082 0023     		movs	r3, #0
 608 0084 A365     		str	r3, [r4, #88]
 609 0086 6365     		str	r3, [r4, #84]
 610 0088 CEE7     		b	.L75
 611              	.L73:
 612 008a 0128     		cmp	r0, #1
 613 008c CBD0     		beq	.L77
 614 008e D2E7     		b	.L76
 615              	.L83:
 616              		.align	2
 617              	.L82:
 618 0090 60F7FFFF 		.word	-2208
 619 0094 9F080000 		.word	2207
 620 0098 FFFFFFEF 		.word	-268435457
 621 009c 00023E83 		.word	-2093088256
 622 00a0 02FCFF3F 		.word	1073740802
 623 00a4 00F000F0 		.word	-268374016
 625              		.section	.text.HAL_ADC_Start,"ax",%progbits
 626              		.align	1
 627              		.global	HAL_ADC_Start
 628              		.syntax unified
 629              		.code	16
 630              		.thumb_func
 631              		.fpu softvfp
 633              	HAL_ADC_Start:
 634              		@ args = 0, pretend = 0, frame = 0
 635              		@ frame_needed = 0, uses_anonymous_args = 0
 636 0000 0368     		ldr	r3, [r0]
 637 0002 70B5     		push	{r4, r5, r6, lr}
 638 0004 9B68     		ldr	r3, [r3, #8]
 639 0006 0400     		movs	r4, r0
 640 0008 0220     		movs	r0, #2
 641 000a 5B07     		lsls	r3, r3, #29
 642 000c 1AD4     		bmi	.L85
 643 000e 2500     		movs	r5, r4
 644 0010 5035     		adds	r5, r5, #80
ARM GAS  /tmp/ccQQTu5L.s 			page 12


 645 0012 2B78     		ldrb	r3, [r5]
 646 0014 012B     		cmp	r3, #1
 647 0016 15D0     		beq	.L85
 648 0018 0123     		movs	r3, #1
 649 001a 2B70     		strb	r3, [r5]
 650 001c E369     		ldr	r3, [r4, #28]
 651 001e 012B     		cmp	r3, #1
 652 0020 11D1     		bne	.L86
 653              	.L87:
 654 0022 636D     		ldr	r3, [r4, #84]
 655 0024 0B4A     		ldr	r2, .L93
 656 0026 0020     		movs	r0, #0
 657 0028 1A40     		ands	r2, r3
 658 002a 8023     		movs	r3, #128
 659 002c 5B00     		lsls	r3, r3, #1
 660 002e 1343     		orrs	r3, r2
 661 0030 1C22     		movs	r2, #28
 662 0032 6365     		str	r3, [r4, #84]
 663 0034 A065     		str	r0, [r4, #88]
 664 0036 2870     		strb	r0, [r5]
 665 0038 2368     		ldr	r3, [r4]
 666 003a 1A60     		str	r2, [r3]
 667 003c 9968     		ldr	r1, [r3, #8]
 668 003e 183A     		subs	r2, r2, #24
 669 0040 0A43     		orrs	r2, r1
 670 0042 9A60     		str	r2, [r3, #8]
 671              	.L85:
 672              		@ sp needed
 673 0044 70BD     		pop	{r4, r5, r6, pc}
 674              	.L86:
 675 0046 2000     		movs	r0, r4
 676 0048 FFF7FEFF 		bl	ADC_Enable
 677 004c 0028     		cmp	r0, #0
 678 004e E8D0     		beq	.L87
 679 0050 F8E7     		b	.L85
 680              	.L94:
 681 0052 C046     		.align	2
 682              	.L93:
 683 0054 FEF0FFFF 		.word	-3842
 685              		.section	.text.HAL_ADC_Stop,"ax",%progbits
 686              		.align	1
 687              		.global	HAL_ADC_Stop
 688              		.syntax unified
 689              		.code	16
 690              		.thumb_func
 691              		.fpu softvfp
 693              	HAL_ADC_Stop:
 694              		@ args = 0, pretend = 0, frame = 0
 695              		@ frame_needed = 0, uses_anonymous_args = 0
 696 0000 70B5     		push	{r4, r5, r6, lr}
 697 0002 0600     		movs	r6, r0
 698 0004 5036     		adds	r6, r6, #80
 699 0006 3378     		ldrb	r3, [r6]
 700 0008 0400     		movs	r4, r0
 701 000a 0220     		movs	r0, #2
 702 000c 012B     		cmp	r3, #1
 703 000e 12D0     		beq	.L96
ARM GAS  /tmp/ccQQTu5L.s 			page 13


 704 0010 0125     		movs	r5, #1
 705 0012 2000     		movs	r0, r4
 706 0014 3570     		strb	r5, [r6]
 707 0016 FFF7FEFF 		bl	ADC_ConversionStop
 708 001a 0028     		cmp	r0, #0
 709 001c 09D1     		bne	.L97
 710 001e 2000     		movs	r0, r4
 711 0020 FFF7FEFF 		bl	ADC_Disable
 712 0024 0028     		cmp	r0, #0
 713 0026 04D1     		bne	.L97
 714 0028 636D     		ldr	r3, [r4, #84]
 715 002a 034A     		ldr	r2, .L99
 716 002c 1340     		ands	r3, r2
 717 002e 1D43     		orrs	r5, r3
 718 0030 6565     		str	r5, [r4, #84]
 719              	.L97:
 720 0032 0023     		movs	r3, #0
 721 0034 3370     		strb	r3, [r6]
 722              	.L96:
 723              		@ sp needed
 724 0036 70BD     		pop	{r4, r5, r6, pc}
 725              	.L100:
 726              		.align	2
 727              	.L99:
 728 0038 FEFEFFFF 		.word	-258
 730              		.section	.text.HAL_ADC_PollForConversion,"ax",%progbits
 731              		.align	1
 732              		.global	HAL_ADC_PollForConversion
 733              		.syntax unified
 734              		.code	16
 735              		.thumb_func
 736              		.fpu softvfp
 738              	HAL_ADC_PollForConversion:
 739              		@ args = 0, pretend = 0, frame = 0
 740              		@ frame_needed = 0, uses_anonymous_args = 0
 741 0000 F8B5     		push	{r3, r4, r5, r6, r7, lr}
 742 0002 4569     		ldr	r5, [r0, #20]
 743 0004 0400     		movs	r4, r0
 744 0006 0E00     		movs	r6, r1
 745 0008 082D     		cmp	r5, #8
 746 000a 0DD0     		beq	.L102
 747 000c 0368     		ldr	r3, [r0]
 748 000e 0120     		movs	r0, #1
 749 0010 DB68     		ldr	r3, [r3, #12]
 750 0012 0C25     		movs	r5, #12
 751 0014 0342     		tst	r3, r0
 752 0016 07D0     		beq	.L102
 753 0018 2023     		movs	r3, #32
 754 001a 626D     		ldr	r2, [r4, #84]
 755 001c 5034     		adds	r4, r4, #80
 756 001e 1343     		orrs	r3, r2
 757 0020 6360     		str	r3, [r4, #4]
 758 0022 0023     		movs	r3, #0
 759 0024 2370     		strb	r3, [r4]
 760              	.L103:
 761              		@ sp needed
 762 0026 F8BD     		pop	{r3, r4, r5, r6, r7, pc}
ARM GAS  /tmp/ccQQTu5L.s 			page 14


 763              	.L102:
 764 0028 FFF7FEFF 		bl	HAL_GetTick
 765 002c 0700     		movs	r7, r0
 766              	.L104:
 767 002e 2368     		ldr	r3, [r4]
 768              	.L105:
 769 0030 1A68     		ldr	r2, [r3]
 770 0032 1542     		tst	r5, r2
 771 0034 24D0     		beq	.L110
 772 0036 8022     		movs	r2, #128
 773 0038 616D     		ldr	r1, [r4, #84]
 774 003a 9200     		lsls	r2, r2, #2
 775 003c 0A43     		orrs	r2, r1
 776 003e 6265     		str	r2, [r4, #84]
 777 0040 C022     		movs	r2, #192
 778 0042 D968     		ldr	r1, [r3, #12]
 779 0044 1201     		lsls	r2, r2, #4
 780 0046 1142     		tst	r1, r2
 781 0048 13D1     		bne	.L111
 782 004a 621C     		adds	r2, r4, #1
 783 004c D27F     		ldrb	r2, [r2, #31]
 784 004e 002A     		cmp	r2, #0
 785 0050 0FD1     		bne	.L111
 786 0052 1A68     		ldr	r2, [r3]
 787 0054 1207     		lsls	r2, r2, #28
 788 0056 0CD5     		bpl	.L111
 789 0058 9A68     		ldr	r2, [r3, #8]
 790 005a 5207     		lsls	r2, r2, #29
 791 005c 28D4     		bmi	.L112
 792 005e 0C21     		movs	r1, #12
 793 0060 5A68     		ldr	r2, [r3, #4]
 794 0062 8A43     		bics	r2, r1
 795 0064 5A60     		str	r2, [r3, #4]
 796 0066 626D     		ldr	r2, [r4, #84]
 797 0068 1649     		ldr	r1, .L124
 798 006a 1140     		ands	r1, r2
 799 006c 0122     		movs	r2, #1
 800 006e 0A43     		orrs	r2, r1
 801 0070 6265     		str	r2, [r4, #84]
 802              	.L111:
 803 0072 0020     		movs	r0, #0
 804 0074 A269     		ldr	r2, [r4, #24]
 805 0076 8242     		cmp	r2, r0
 806 0078 D5D1     		bne	.L103
 807 007a 0C22     		movs	r2, #12
 808 007c 1A60     		str	r2, [r3]
 809 007e D2E7     		b	.L103
 810              	.L110:
 811 0080 721C     		adds	r2, r6, #1
 812 0082 D5D0     		beq	.L105
 813 0084 002E     		cmp	r6, #0
 814 0086 0DD1     		bne	.L106
 815              	.L109:
 816 0088 2A00     		movs	r2, r5
 817 008a 2368     		ldr	r3, [r4]
 818 008c 1B68     		ldr	r3, [r3]
 819 008e 1A40     		ands	r2, r3
ARM GAS  /tmp/ccQQTu5L.s 			page 15


 820 0090 1D42     		tst	r5, r3
 821 0092 CCD1     		bne	.L104
 822 0094 0423     		movs	r3, #4
 823 0096 616D     		ldr	r1, [r4, #84]
 824 0098 5034     		adds	r4, r4, #80
 825 009a 0B43     		orrs	r3, r1
 826 009c 6360     		str	r3, [r4, #4]
 827 009e 0320     		movs	r0, #3
 828 00a0 2270     		strb	r2, [r4]
 829 00a2 C0E7     		b	.L103
 830              	.L106:
 831 00a4 FFF7FEFF 		bl	HAL_GetTick
 832 00a8 C01B     		subs	r0, r0, r7
 833 00aa B042     		cmp	r0, r6
 834 00ac ECD8     		bhi	.L109
 835 00ae BEE7     		b	.L104
 836              	.L112:
 837 00b0 2022     		movs	r2, #32
 838 00b2 616D     		ldr	r1, [r4, #84]
 839 00b4 0A43     		orrs	r2, r1
 840 00b6 6265     		str	r2, [r4, #84]
 841 00b8 0122     		movs	r2, #1
 842 00ba A16D     		ldr	r1, [r4, #88]
 843 00bc 0A43     		orrs	r2, r1
 844 00be A265     		str	r2, [r4, #88]
 845 00c0 D7E7     		b	.L111
 846              	.L125:
 847 00c2 C046     		.align	2
 848              	.L124:
 849 00c4 FEFEFFFF 		.word	-258
 851              		.section	.text.HAL_ADC_PollForEvent,"ax",%progbits
 852              		.align	1
 853              		.global	HAL_ADC_PollForEvent
 854              		.syntax unified
 855              		.code	16
 856              		.thumb_func
 857              		.fpu softvfp
 859              	HAL_ADC_PollForEvent:
 860              		@ args = 0, pretend = 0, frame = 0
 861              		@ frame_needed = 0, uses_anonymous_args = 0
 862 0000 F8B5     		push	{r3, r4, r5, r6, r7, lr}
 863 0002 0400     		movs	r4, r0
 864 0004 0D00     		movs	r5, r1
 865 0006 1600     		movs	r6, r2
 866 0008 FFF7FEFF 		bl	HAL_GetTick
 867 000c 0700     		movs	r7, r0
 868              	.L127:
 869 000e 2368     		ldr	r3, [r4]
 870              	.L128:
 871 0010 1A68     		ldr	r2, [r3]
 872 0012 2A40     		ands	r2, r5
 873 0014 AA42     		cmp	r2, r5
 874 0016 09D1     		bne	.L134
 875 0018 802D     		cmp	r5, #128
 876 001a 1FD1     		bne	.L135
 877 001c 8022     		movs	r2, #128
 878 001e 616D     		ldr	r1, [r4, #84]
ARM GAS  /tmp/ccQQTu5L.s 			page 16


 879 0020 5202     		lsls	r2, r2, #9
 880 0022 0A43     		orrs	r2, r1
 881 0024 6265     		str	r2, [r4, #84]
 882 0026 1D60     		str	r5, [r3]
 883              	.L139:
 884 0028 0020     		movs	r0, #0
 885 002a 10E0     		b	.L133
 886              	.L134:
 887 002c 721C     		adds	r2, r6, #1
 888 002e EFD0     		beq	.L128
 889 0030 002E     		cmp	r6, #0
 890 0032 0DD1     		bne	.L129
 891              	.L132:
 892 0034 2368     		ldr	r3, [r4]
 893 0036 1B68     		ldr	r3, [r3]
 894 0038 2B40     		ands	r3, r5
 895 003a AB42     		cmp	r3, r5
 896 003c E7D0     		beq	.L127
 897 003e 0423     		movs	r3, #4
 898 0040 626D     		ldr	r2, [r4, #84]
 899 0042 0320     		movs	r0, #3
 900 0044 1343     		orrs	r3, r2
 901 0046 6365     		str	r3, [r4, #84]
 902 0048 0023     		movs	r3, #0
 903 004a 5034     		adds	r4, r4, #80
 904 004c 2370     		strb	r3, [r4]
 905              	.L133:
 906              		@ sp needed
 907 004e F8BD     		pop	{r3, r4, r5, r6, r7, pc}
 908              	.L129:
 909 0050 FFF7FEFF 		bl	HAL_GetTick
 910 0054 C01B     		subs	r0, r0, r7
 911 0056 B042     		cmp	r0, r6
 912 0058 ECD8     		bhi	.L132
 913 005a D8E7     		b	.L127
 914              	.L135:
 915 005c 226B     		ldr	r2, [r4, #48]
 916 005e 002A     		cmp	r2, #0
 917 0060 08D1     		bne	.L136
 918 0062 8022     		movs	r2, #128
 919 0064 616D     		ldr	r1, [r4, #84]
 920 0066 D200     		lsls	r2, r2, #3
 921 0068 0A43     		orrs	r2, r1
 922 006a 6265     		str	r2, [r4, #84]
 923 006c 0222     		movs	r2, #2
 924 006e A16D     		ldr	r1, [r4, #88]
 925 0070 0A43     		orrs	r2, r1
 926 0072 A265     		str	r2, [r4, #88]
 927              	.L136:
 928 0074 1022     		movs	r2, #16
 929 0076 1A60     		str	r2, [r3]
 930 0078 D6E7     		b	.L139
 932              		.section	.text.HAL_ADC_Start_IT,"ax",%progbits
 933              		.align	1
 934              		.global	HAL_ADC_Start_IT
 935              		.syntax unified
 936              		.code	16
ARM GAS  /tmp/ccQQTu5L.s 			page 17


 937              		.thumb_func
 938              		.fpu softvfp
 940              	HAL_ADC_Start_IT:
 941              		@ args = 0, pretend = 0, frame = 0
 942              		@ frame_needed = 0, uses_anonymous_args = 0
 943 0000 0368     		ldr	r3, [r0]
 944 0002 70B5     		push	{r4, r5, r6, lr}
 945 0004 9B68     		ldr	r3, [r3, #8]
 946 0006 0400     		movs	r4, r0
 947 0008 0220     		movs	r0, #2
 948 000a 5B07     		lsls	r3, r3, #29
 949 000c 2CD4     		bmi	.L141
 950 000e 2500     		movs	r5, r4
 951 0010 5035     		adds	r5, r5, #80
 952 0012 2B78     		ldrb	r3, [r5]
 953 0014 012B     		cmp	r3, #1
 954 0016 27D0     		beq	.L141
 955 0018 0123     		movs	r3, #1
 956 001a 2B70     		strb	r3, [r5]
 957 001c E369     		ldr	r3, [r4, #28]
 958 001e 012B     		cmp	r3, #1
 959 0020 1DD1     		bne	.L142
 960              	.L145:
 961 0022 636D     		ldr	r3, [r4, #84]
 962 0024 124A     		ldr	r2, .L154
 963 0026 1A40     		ands	r2, r3
 964 0028 8023     		movs	r3, #128
 965 002a 5B00     		lsls	r3, r3, #1
 966 002c 1343     		orrs	r3, r2
 967 002e 6365     		str	r3, [r4, #84]
 968 0030 0023     		movs	r3, #0
 969 0032 1C22     		movs	r2, #28
 970 0034 A365     		str	r3, [r4, #88]
 971 0036 2B70     		strb	r3, [r5]
 972 0038 2368     		ldr	r3, [r4]
 973 003a 6169     		ldr	r1, [r4, #20]
 974 003c 1A60     		str	r2, [r3]
 975 003e 0829     		cmp	r1, #8
 976 0040 13D1     		bne	.L152
 977 0042 0421     		movs	r1, #4
 978 0044 5A68     		ldr	r2, [r3, #4]
 979 0046 8A43     		bics	r2, r1
 980 0048 5A60     		str	r2, [r3, #4]
 981 004a 1822     		movs	r2, #24
 982 004c 5968     		ldr	r1, [r3, #4]
 983              	.L153:
 984 004e 0A43     		orrs	r2, r1
 985 0050 5A60     		str	r2, [r3, #4]
 986 0052 0422     		movs	r2, #4
 987 0054 9968     		ldr	r1, [r3, #8]
 988 0056 0020     		movs	r0, #0
 989 0058 0A43     		orrs	r2, r1
 990 005a 9A60     		str	r2, [r3, #8]
 991 005c 04E0     		b	.L141
 992              	.L142:
 993 005e 2000     		movs	r0, r4
 994 0060 FFF7FEFF 		bl	ADC_Enable
ARM GAS  /tmp/ccQQTu5L.s 			page 18


 995 0064 0028     		cmp	r0, #0
 996 0066 DCD0     		beq	.L145
 997              	.L141:
 998              		@ sp needed
 999 0068 70BD     		pop	{r4, r5, r6, pc}
 1000              	.L152:
 1001 006a 5968     		ldr	r1, [r3, #4]
 1002 006c EFE7     		b	.L153
 1003              	.L155:
 1004 006e C046     		.align	2
 1005              	.L154:
 1006 0070 FEF0FFFF 		.word	-3842
 1008              		.section	.text.HAL_ADC_Stop_IT,"ax",%progbits
 1009              		.align	1
 1010              		.global	HAL_ADC_Stop_IT
 1011              		.syntax unified
 1012              		.code	16
 1013              		.thumb_func
 1014              		.fpu softvfp
 1016              	HAL_ADC_Stop_IT:
 1017              		@ args = 0, pretend = 0, frame = 0
 1018              		@ frame_needed = 0, uses_anonymous_args = 0
 1019 0000 70B5     		push	{r4, r5, r6, lr}
 1020 0002 0600     		movs	r6, r0
 1021 0004 5036     		adds	r6, r6, #80
 1022 0006 3378     		ldrb	r3, [r6]
 1023 0008 0400     		movs	r4, r0
 1024 000a 0220     		movs	r0, #2
 1025 000c 012B     		cmp	r3, #1
 1026 000e 17D0     		beq	.L157
 1027 0010 0125     		movs	r5, #1
 1028 0012 2000     		movs	r0, r4
 1029 0014 3570     		strb	r5, [r6]
 1030 0016 FFF7FEFF 		bl	ADC_ConversionStop
 1031 001a 0028     		cmp	r0, #0
 1032 001c 0ED1     		bne	.L158
 1033 001e 1C21     		movs	r1, #28
 1034 0020 2268     		ldr	r2, [r4]
 1035 0022 2000     		movs	r0, r4
 1036 0024 5368     		ldr	r3, [r2, #4]
 1037 0026 8B43     		bics	r3, r1
 1038 0028 5360     		str	r3, [r2, #4]
 1039 002a FFF7FEFF 		bl	ADC_Disable
 1040 002e 0028     		cmp	r0, #0
 1041 0030 04D1     		bne	.L158
 1042 0032 636D     		ldr	r3, [r4, #84]
 1043 0034 034A     		ldr	r2, .L160
 1044 0036 1340     		ands	r3, r2
 1045 0038 1D43     		orrs	r5, r3
 1046 003a 6565     		str	r5, [r4, #84]
 1047              	.L158:
 1048 003c 0023     		movs	r3, #0
 1049 003e 3370     		strb	r3, [r6]
 1050              	.L157:
 1051              		@ sp needed
 1052 0040 70BD     		pop	{r4, r5, r6, pc}
 1053              	.L161:
ARM GAS  /tmp/ccQQTu5L.s 			page 19


 1054 0042 C046     		.align	2
 1055              	.L160:
 1056 0044 FEFEFFFF 		.word	-258
 1058              		.section	.text.HAL_ADC_Start_DMA,"ax",%progbits
 1059              		.align	1
 1060              		.global	HAL_ADC_Start_DMA
 1061              		.syntax unified
 1062              		.code	16
 1063              		.thumb_func
 1064              		.fpu softvfp
 1066              	HAL_ADC_Start_DMA:
 1067              		@ args = 0, pretend = 0, frame = 8
 1068              		@ frame_needed = 0, uses_anonymous_args = 0
 1069 0000 F7B5     		push	{r0, r1, r2, r4, r5, r6, r7, lr}
 1070 0002 0192     		str	r2, [sp, #4]
 1071 0004 0268     		ldr	r2, [r0]
 1072 0006 0400     		movs	r4, r0
 1073 0008 9368     		ldr	r3, [r2, #8]
 1074 000a 0E00     		movs	r6, r1
 1075 000c 0220     		movs	r0, #2
 1076 000e 5B07     		lsls	r3, r3, #29
 1077 0010 2FD4     		bmi	.L163
 1078 0012 2700     		movs	r7, r4
 1079 0014 5037     		adds	r7, r7, #80
 1080 0016 3B78     		ldrb	r3, [r7]
 1081 0018 012B     		cmp	r3, #1
 1082 001a 2AD0     		beq	.L163
 1083 001c 0123     		movs	r3, #1
 1084 001e 3B70     		strb	r3, [r7]
 1085 0020 D168     		ldr	r1, [r2, #12]
 1086 0022 0B43     		orrs	r3, r1
 1087 0024 D360     		str	r3, [r2, #12]
 1088 0026 E369     		ldr	r3, [r4, #28]
 1089 0028 012B     		cmp	r3, #1
 1090 002a 23D1     		bne	.L164
 1091              	.L165:
 1092 002c 636D     		ldr	r3, [r4, #84]
 1093 002e 144A     		ldr	r2, .L171
 1094 0030 0025     		movs	r5, #0
 1095 0032 1A40     		ands	r2, r3
 1096 0034 8023     		movs	r3, #128
 1097 0036 5B00     		lsls	r3, r3, #1
 1098 0038 1343     		orrs	r3, r2
 1099 003a 6365     		str	r3, [r4, #84]
 1100 003c A565     		str	r5, [r4, #88]
 1101 003e 3D70     		strb	r5, [r7]
 1102 0040 E06C     		ldr	r0, [r4, #76]
 1103 0042 104B     		ldr	r3, .L171+4
 1104 0044 2168     		ldr	r1, [r4]
 1105 0046 C362     		str	r3, [r0, #44]
 1106 0048 0F4B     		ldr	r3, .L171+8
 1107 004a 0363     		str	r3, [r0, #48]
 1108 004c 0F4B     		ldr	r3, .L171+12
 1109 004e 4363     		str	r3, [r0, #52]
 1110 0050 1C23     		movs	r3, #28
 1111 0052 0B60     		str	r3, [r1]
 1112 0054 4A68     		ldr	r2, [r1, #4]
ARM GAS  /tmp/ccQQTu5L.s 			page 20


 1113 0056 0C3B     		subs	r3, r3, #12
 1114 0058 1343     		orrs	r3, r2
 1115 005a 4B60     		str	r3, [r1, #4]
 1116 005c 3200     		movs	r2, r6
 1117 005e 019B     		ldr	r3, [sp, #4]
 1118 0060 4031     		adds	r1, r1, #64
 1119 0062 FFF7FEFF 		bl	HAL_DMA_Start_IT
 1120 0066 0423     		movs	r3, #4
 1121 0068 2800     		movs	r0, r5
 1122 006a 2268     		ldr	r2, [r4]
 1123 006c 9168     		ldr	r1, [r2, #8]
 1124 006e 0B43     		orrs	r3, r1
 1125 0070 9360     		str	r3, [r2, #8]
 1126              	.L163:
 1127              		@ sp needed
 1128 0072 FEBD     		pop	{r1, r2, r3, r4, r5, r6, r7, pc}
 1129              	.L164:
 1130 0074 2000     		movs	r0, r4
 1131 0076 FFF7FEFF 		bl	ADC_Enable
 1132 007a 0028     		cmp	r0, #0
 1133 007c D6D0     		beq	.L165
 1134 007e F8E7     		b	.L163
 1135              	.L172:
 1136              		.align	2
 1137              	.L171:
 1138 0080 FEF0FFFF 		.word	-3842
 1139 0084 00000000 		.word	ADC_DMAConvCplt
 1140 0088 00000000 		.word	ADC_DMAHalfConvCplt
 1141 008c 00000000 		.word	ADC_DMAError
 1143              		.section	.text.HAL_ADC_Stop_DMA,"ax",%progbits
 1144              		.align	1
 1145              		.global	HAL_ADC_Stop_DMA
 1146              		.syntax unified
 1147              		.code	16
 1148              		.thumb_func
 1149              		.fpu softvfp
 1151              	HAL_ADC_Stop_DMA:
 1152              		@ args = 0, pretend = 0, frame = 0
 1153              		@ frame_needed = 0, uses_anonymous_args = 0
 1154 0000 F8B5     		push	{r3, r4, r5, r6, r7, lr}
 1155 0002 0600     		movs	r6, r0
 1156 0004 5036     		adds	r6, r6, #80
 1157 0006 3378     		ldrb	r3, [r6]
 1158 0008 0500     		movs	r5, r0
 1159 000a 0224     		movs	r4, #2
 1160 000c 012B     		cmp	r3, #1
 1161 000e 24D0     		beq	.L174
 1162 0010 0127     		movs	r7, #1
 1163 0012 3770     		strb	r7, [r6]
 1164 0014 FFF7FEFF 		bl	ADC_ConversionStop
 1165 0018 041E     		subs	r4, r0, #0
 1166 001a 1CD1     		bne	.L175
 1167 001c 2A68     		ldr	r2, [r5]
 1168 001e E86C     		ldr	r0, [r5, #76]
 1169 0020 D368     		ldr	r3, [r2, #12]
 1170 0022 BB43     		bics	r3, r7
 1171 0024 D360     		str	r3, [r2, #12]
ARM GAS  /tmp/ccQQTu5L.s 			page 21


 1172 0026 831D     		adds	r3, r0, #6
 1173 0028 DB7F     		ldrb	r3, [r3, #31]
 1174 002a 022B     		cmp	r3, #2
 1175 002c 07D1     		bne	.L176
 1176 002e FFF7FEFF 		bl	HAL_DMA_Abort
 1177 0032 041E     		subs	r4, r0, #0
 1178 0034 03D0     		beq	.L176
 1179 0036 4023     		movs	r3, #64
 1180 0038 6A6D     		ldr	r2, [r5, #84]
 1181 003a 1343     		orrs	r3, r2
 1182 003c 6B65     		str	r3, [r5, #84]
 1183              	.L176:
 1184 003e 1021     		movs	r1, #16
 1185 0040 2A68     		ldr	r2, [r5]
 1186 0042 2800     		movs	r0, r5
 1187 0044 5368     		ldr	r3, [r2, #4]
 1188 0046 8B43     		bics	r3, r1
 1189 0048 5360     		str	r3, [r2, #4]
 1190 004a 002C     		cmp	r4, #0
 1191 004c 07D1     		bne	.L177
 1192 004e FFF7FEFF 		bl	ADC_Disable
 1193 0052 041E     		subs	r4, r0, #0
 1194 0054 06D0     		beq	.L178
 1195              	.L175:
 1196 0056 0023     		movs	r3, #0
 1197 0058 3370     		strb	r3, [r6]
 1198              	.L174:
 1199 005a 2000     		movs	r0, r4
 1200              		@ sp needed
 1201 005c F8BD     		pop	{r3, r4, r5, r6, r7, pc}
 1202              	.L177:
 1203 005e FFF7FEFF 		bl	ADC_Disable
 1204 0062 F8E7     		b	.L175
 1205              	.L178:
 1206 0064 6B6D     		ldr	r3, [r5, #84]
 1207 0066 034A     		ldr	r2, .L183
 1208 0068 1A40     		ands	r2, r3
 1209 006a 0123     		movs	r3, #1
 1210 006c 1343     		orrs	r3, r2
 1211 006e 6B65     		str	r3, [r5, #84]
 1212 0070 F1E7     		b	.L175
 1213              	.L184:
 1214 0072 C046     		.align	2
 1215              	.L183:
 1216 0074 FEFEFFFF 		.word	-258
 1218              		.section	.text.HAL_ADC_GetValue,"ax",%progbits
 1219              		.align	1
 1220              		.global	HAL_ADC_GetValue
 1221              		.syntax unified
 1222              		.code	16
 1223              		.thumb_func
 1224              		.fpu softvfp
 1226              	HAL_ADC_GetValue:
 1227              		@ args = 0, pretend = 0, frame = 0
 1228              		@ frame_needed = 0, uses_anonymous_args = 0
 1229              		@ link register save eliminated.
 1230 0000 0368     		ldr	r3, [r0]
ARM GAS  /tmp/ccQQTu5L.s 			page 22


 1231              		@ sp needed
 1232 0002 186C     		ldr	r0, [r3, #64]
 1233 0004 7047     		bx	lr
 1235              		.section	.text.HAL_ADC_ConvCpltCallback,"ax",%progbits
 1236              		.align	1
 1237              		.weak	HAL_ADC_ConvCpltCallback
 1238              		.syntax unified
 1239              		.code	16
 1240              		.thumb_func
 1241              		.fpu softvfp
 1243              	HAL_ADC_ConvCpltCallback:
 1244              		@ args = 0, pretend = 0, frame = 0
 1245              		@ frame_needed = 0, uses_anonymous_args = 0
 1246              		@ link register save eliminated.
 1247              		@ sp needed
 1248 0000 7047     		bx	lr
 1250              		.section	.text.ADC_DMAConvCplt,"ax",%progbits
 1251              		.align	1
 1252              		.syntax unified
 1253              		.code	16
 1254              		.thumb_func
 1255              		.fpu softvfp
 1257              	ADC_DMAConvCplt:
 1258              		@ args = 0, pretend = 0, frame = 0
 1259              		@ frame_needed = 0, uses_anonymous_args = 0
 1260 0000 5022     		movs	r2, #80
 1261 0002 836A     		ldr	r3, [r0, #40]
 1262 0004 10B5     		push	{r4, lr}
 1263 0006 596D     		ldr	r1, [r3, #84]
 1264 0008 1142     		tst	r1, r2
 1265 000a 2BD1     		bne	.L188
 1266 000c 596D     		ldr	r1, [r3, #84]
 1267 000e B132     		adds	r2, r2, #177
 1268 0010 FF32     		adds	r2, r2, #255
 1269 0012 0A43     		orrs	r2, r1
 1270 0014 C021     		movs	r1, #192
 1271 0016 5A65     		str	r2, [r3, #84]
 1272 0018 1A68     		ldr	r2, [r3]
 1273 001a 0901     		lsls	r1, r1, #4
 1274 001c D068     		ldr	r0, [r2, #12]
 1275 001e 0842     		tst	r0, r1
 1276 0020 13D1     		bne	.L189
 1277 0022 591C     		adds	r1, r3, #1
 1278 0024 C97F     		ldrb	r1, [r1, #31]
 1279 0026 0029     		cmp	r1, #0
 1280 0028 0FD1     		bne	.L189
 1281 002a 1168     		ldr	r1, [r2]
 1282 002c 0907     		lsls	r1, r1, #28
 1283 002e 0CD5     		bpl	.L189
 1284 0030 9168     		ldr	r1, [r2, #8]
 1285 0032 4907     		lsls	r1, r1, #29
 1286 0034 0DD4     		bmi	.L190
 1287 0036 0C20     		movs	r0, #12
 1288 0038 5168     		ldr	r1, [r2, #4]
 1289 003a 8143     		bics	r1, r0
 1290 003c 5160     		str	r1, [r2, #4]
 1291 003e 5A6D     		ldr	r2, [r3, #84]
ARM GAS  /tmp/ccQQTu5L.s 			page 23


 1292 0040 0A49     		ldr	r1, .L195
 1293 0042 1140     		ands	r1, r2
 1294 0044 0122     		movs	r2, #1
 1295 0046 0A43     		orrs	r2, r1
 1296 0048 5A65     		str	r2, [r3, #84]
 1297              	.L189:
 1298 004a 1800     		movs	r0, r3
 1299 004c FFF7FEFF 		bl	HAL_ADC_ConvCpltCallback
 1300              	.L187:
 1301              		@ sp needed
 1302 0050 10BD     		pop	{r4, pc}
 1303              	.L190:
 1304 0052 2022     		movs	r2, #32
 1305 0054 596D     		ldr	r1, [r3, #84]
 1306 0056 0A43     		orrs	r2, r1
 1307 0058 5A65     		str	r2, [r3, #84]
 1308 005a 0122     		movs	r2, #1
 1309 005c 996D     		ldr	r1, [r3, #88]
 1310 005e 0A43     		orrs	r2, r1
 1311 0060 9A65     		str	r2, [r3, #88]
 1312 0062 F2E7     		b	.L189
 1313              	.L188:
 1314 0064 DB6C     		ldr	r3, [r3, #76]
 1315 0066 5B6B     		ldr	r3, [r3, #52]
 1316 0068 9847     		blx	r3
 1317 006a F1E7     		b	.L187
 1318              	.L196:
 1319              		.align	2
 1320              	.L195:
 1321 006c FEFEFFFF 		.word	-258
 1323              		.section	.text.HAL_ADC_ConvHalfCpltCallback,"ax",%progbits
 1324              		.align	1
 1325              		.weak	HAL_ADC_ConvHalfCpltCallback
 1326              		.syntax unified
 1327              		.code	16
 1328              		.thumb_func
 1329              		.fpu softvfp
 1331              	HAL_ADC_ConvHalfCpltCallback:
 1332              		@ args = 0, pretend = 0, frame = 0
 1333              		@ frame_needed = 0, uses_anonymous_args = 0
 1334              		@ link register save eliminated.
 1335              		@ sp needed
 1336 0000 7047     		bx	lr
 1338              		.section	.text.ADC_DMAHalfConvCplt,"ax",%progbits
 1339              		.align	1
 1340              		.syntax unified
 1341              		.code	16
 1342              		.thumb_func
 1343              		.fpu softvfp
 1345              	ADC_DMAHalfConvCplt:
 1346              		@ args = 0, pretend = 0, frame = 0
 1347              		@ frame_needed = 0, uses_anonymous_args = 0
 1348 0000 10B5     		push	{r4, lr}
 1349 0002 806A     		ldr	r0, [r0, #40]
 1350 0004 FFF7FEFF 		bl	HAL_ADC_ConvHalfCpltCallback
 1351              		@ sp needed
 1352 0008 10BD     		pop	{r4, pc}
ARM GAS  /tmp/ccQQTu5L.s 			page 24


 1354              		.section	.text.HAL_ADC_LevelOutOfWindowCallback,"ax",%progbits
 1355              		.align	1
 1356              		.weak	HAL_ADC_LevelOutOfWindowCallback
 1357              		.syntax unified
 1358              		.code	16
 1359              		.thumb_func
 1360              		.fpu softvfp
 1362              	HAL_ADC_LevelOutOfWindowCallback:
 1363              		@ args = 0, pretend = 0, frame = 0
 1364              		@ frame_needed = 0, uses_anonymous_args = 0
 1365              		@ link register save eliminated.
 1366              		@ sp needed
 1367 0000 7047     		bx	lr
 1369              		.section	.text.HAL_ADC_ErrorCallback,"ax",%progbits
 1370              		.align	1
 1371              		.weak	HAL_ADC_ErrorCallback
 1372              		.syntax unified
 1373              		.code	16
 1374              		.thumb_func
 1375              		.fpu softvfp
 1377              	HAL_ADC_ErrorCallback:
 1378              		@ args = 0, pretend = 0, frame = 0
 1379              		@ frame_needed = 0, uses_anonymous_args = 0
 1380              		@ link register save eliminated.
 1381              		@ sp needed
 1382 0000 7047     		bx	lr
 1384              		.section	.text.ADC_DMAError,"ax",%progbits
 1385              		.align	1
 1386              		.syntax unified
 1387              		.code	16
 1388              		.thumb_func
 1389              		.fpu softvfp
 1391              	ADC_DMAError:
 1392              		@ args = 0, pretend = 0, frame = 0
 1393              		@ frame_needed = 0, uses_anonymous_args = 0
 1394 0000 4023     		movs	r3, #64
 1395 0002 806A     		ldr	r0, [r0, #40]
 1396 0004 10B5     		push	{r4, lr}
 1397 0006 426D     		ldr	r2, [r0, #84]
 1398              		@ sp needed
 1399 0008 1343     		orrs	r3, r2
 1400 000a 4365     		str	r3, [r0, #84]
 1401 000c 0423     		movs	r3, #4
 1402 000e 826D     		ldr	r2, [r0, #88]
 1403 0010 1343     		orrs	r3, r2
 1404 0012 8365     		str	r3, [r0, #88]
 1405 0014 FFF7FEFF 		bl	HAL_ADC_ErrorCallback
 1406 0018 10BD     		pop	{r4, pc}
 1408              		.section	.text.HAL_ADC_IRQHandler,"ax",%progbits
 1409              		.align	1
 1410              		.global	HAL_ADC_IRQHandler
 1411              		.syntax unified
 1412              		.code	16
 1413              		.thumb_func
 1414              		.fpu softvfp
 1416              	HAL_ADC_IRQHandler:
 1417              		@ args = 0, pretend = 0, frame = 0
ARM GAS  /tmp/ccQQTu5L.s 			page 25


 1418              		@ frame_needed = 0, uses_anonymous_args = 0
 1419 0000 0422     		movs	r2, #4
 1420 0002 0368     		ldr	r3, [r0]
 1421 0004 70B5     		push	{r4, r5, r6, lr}
 1422 0006 1968     		ldr	r1, [r3]
 1423 0008 0400     		movs	r4, r0
 1424 000a 1142     		tst	r1, r2
 1425 000c 02D0     		beq	.L203
 1426 000e 5968     		ldr	r1, [r3, #4]
 1427 0010 1142     		tst	r1, r2
 1428 0012 06D1     		bne	.L204
 1429              	.L203:
 1430 0014 0822     		movs	r2, #8
 1431 0016 1968     		ldr	r1, [r3]
 1432 0018 1142     		tst	r1, r2
 1433 001a 2CD0     		beq	.L206
 1434 001c 5968     		ldr	r1, [r3, #4]
 1435 001e 1142     		tst	r1, r2
 1436 0020 29D0     		beq	.L206
 1437              	.L204:
 1438 0022 626D     		ldr	r2, [r4, #84]
 1439 0024 D206     		lsls	r2, r2, #27
 1440 0026 04D4     		bmi	.L208
 1441 0028 8022     		movs	r2, #128
 1442 002a 616D     		ldr	r1, [r4, #84]
 1443 002c 9200     		lsls	r2, r2, #2
 1444 002e 0A43     		orrs	r2, r1
 1445 0030 6265     		str	r2, [r4, #84]
 1446              	.L208:
 1447 0032 C022     		movs	r2, #192
 1448 0034 D968     		ldr	r1, [r3, #12]
 1449 0036 1201     		lsls	r2, r2, #4
 1450 0038 1142     		tst	r1, r2
 1451 003a 13D1     		bne	.L209
 1452 003c 621C     		adds	r2, r4, #1
 1453 003e D27F     		ldrb	r2, [r2, #31]
 1454 0040 002A     		cmp	r2, #0
 1455 0042 0FD1     		bne	.L209
 1456 0044 1A68     		ldr	r2, [r3]
 1457 0046 1207     		lsls	r2, r2, #28
 1458 0048 0CD5     		bpl	.L209
 1459 004a 9A68     		ldr	r2, [r3, #8]
 1460 004c 5207     		lsls	r2, r2, #29
 1461 004e 3FD4     		bmi	.L210
 1462 0050 0C21     		movs	r1, #12
 1463 0052 5A68     		ldr	r2, [r3, #4]
 1464 0054 8A43     		bics	r2, r1
 1465 0056 5A60     		str	r2, [r3, #4]
 1466 0058 636D     		ldr	r3, [r4, #84]
 1467 005a 224A     		ldr	r2, .L245
 1468 005c 1A40     		ands	r2, r3
 1469 005e 0123     		movs	r3, #1
 1470 0060 1343     		orrs	r3, r2
 1471 0062 6365     		str	r3, [r4, #84]
 1472              	.L209:
 1473 0064 2000     		movs	r0, r4
 1474 0066 FFF7FEFF 		bl	HAL_ADC_ConvCpltCallback
ARM GAS  /tmp/ccQQTu5L.s 			page 26


 1475 006a A369     		ldr	r3, [r4, #24]
 1476 006c 012B     		cmp	r3, #1
 1477 006e 02D0     		beq	.L206
 1478 0070 0C22     		movs	r2, #12
 1479 0072 2368     		ldr	r3, [r4]
 1480 0074 1A60     		str	r2, [r3]
 1481              	.L206:
 1482 0076 8025     		movs	r5, #128
 1483 0078 2368     		ldr	r3, [r4]
 1484 007a 1A68     		ldr	r2, [r3]
 1485 007c 2A42     		tst	r2, r5
 1486 007e 0CD0     		beq	.L211
 1487 0080 5B68     		ldr	r3, [r3, #4]
 1488 0082 2B42     		tst	r3, r5
 1489 0084 09D0     		beq	.L211
 1490 0086 8023     		movs	r3, #128
 1491 0088 626D     		ldr	r2, [r4, #84]
 1492 008a 5B02     		lsls	r3, r3, #9
 1493 008c 1343     		orrs	r3, r2
 1494 008e 6365     		str	r3, [r4, #84]
 1495 0090 2000     		movs	r0, r4
 1496 0092 FFF7FEFF 		bl	HAL_ADC_LevelOutOfWindowCallback
 1497 0096 2368     		ldr	r3, [r4]
 1498 0098 1D60     		str	r5, [r3]
 1499              	.L211:
 1500 009a 1022     		movs	r2, #16
 1501 009c 2368     		ldr	r3, [r4]
 1502 009e 1968     		ldr	r1, [r3]
 1503 00a0 1142     		tst	r1, r2
 1504 00a2 14D0     		beq	.L202
 1505 00a4 5968     		ldr	r1, [r3, #4]
 1506 00a6 1142     		tst	r1, r2
 1507 00a8 11D0     		beq	.L202
 1508 00aa 226B     		ldr	r2, [r4, #48]
 1509 00ac 002A     		cmp	r2, #0
 1510 00ae 02D0     		beq	.L213
 1511 00b0 DA68     		ldr	r2, [r3, #12]
 1512 00b2 D207     		lsls	r2, r2, #31
 1513 00b4 08D5     		bpl	.L214
 1514              	.L213:
 1515 00b6 0222     		movs	r2, #2
 1516 00b8 A16D     		ldr	r1, [r4, #88]
 1517 00ba 2000     		movs	r0, r4
 1518 00bc 0A43     		orrs	r2, r1
 1519 00be A265     		str	r2, [r4, #88]
 1520 00c0 1022     		movs	r2, #16
 1521 00c2 1A60     		str	r2, [r3]
 1522 00c4 FFF7FEFF 		bl	HAL_ADC_ErrorCallback
 1523              	.L214:
 1524 00c8 1022     		movs	r2, #16
 1525 00ca 2368     		ldr	r3, [r4]
 1526 00cc 1A60     		str	r2, [r3]
 1527              	.L202:
 1528              		@ sp needed
 1529 00ce 70BD     		pop	{r4, r5, r6, pc}
 1530              	.L210:
 1531 00d0 2023     		movs	r3, #32
ARM GAS  /tmp/ccQQTu5L.s 			page 27


 1532 00d2 626D     		ldr	r2, [r4, #84]
 1533 00d4 1343     		orrs	r3, r2
 1534 00d6 6365     		str	r3, [r4, #84]
 1535 00d8 0123     		movs	r3, #1
 1536 00da A26D     		ldr	r2, [r4, #88]
 1537 00dc 1343     		orrs	r3, r2
 1538 00de A365     		str	r3, [r4, #88]
 1539 00e0 C0E7     		b	.L209
 1540              	.L246:
 1541 00e2 C046     		.align	2
 1542              	.L245:
 1543 00e4 FEFEFFFF 		.word	-258
 1545              		.section	.text.HAL_ADC_ConfigChannel,"ax",%progbits
 1546              		.align	1
 1547              		.global	HAL_ADC_ConfigChannel
 1548              		.syntax unified
 1549              		.code	16
 1550              		.thumb_func
 1551              		.fpu softvfp
 1553              	HAL_ADC_ConfigChannel:
 1554              		@ args = 0, pretend = 0, frame = 0
 1555              		@ frame_needed = 0, uses_anonymous_args = 0
 1556 0000 F8B5     		push	{r3, r4, r5, r6, r7, lr}
 1557 0002 0400     		movs	r4, r0
 1558 0004 5034     		adds	r4, r4, #80
 1559 0006 2278     		ldrb	r2, [r4]
 1560 0008 0300     		movs	r3, r0
 1561 000a 0D00     		movs	r5, r1
 1562 000c 0220     		movs	r0, #2
 1563 000e 012A     		cmp	r2, #1
 1564 0010 0BD0     		beq	.L248
 1565 0012 0138     		subs	r0, r0, #1
 1566 0014 2070     		strb	r0, [r4]
 1567 0016 1A68     		ldr	r2, [r3]
 1568 0018 9168     		ldr	r1, [r2, #8]
 1569 001a 4907     		lsls	r1, r1, #29
 1570 001c 06D5     		bpl	.L249
 1571 001e 2022     		movs	r2, #32
 1572 0020 596D     		ldr	r1, [r3, #84]
 1573 0022 0A43     		orrs	r2, r1
 1574 0024 5A65     		str	r2, [r3, #84]
 1575 0026 0023     		movs	r3, #0
 1576 0028 2370     		strb	r3, [r4]
 1577              	.L248:
 1578              		@ sp needed
 1579 002a F8BD     		pop	{r3, r4, r5, r6, r7, pc}
 1580              	.L249:
 1581 002c 8023     		movs	r3, #128
 1582 002e 2868     		ldr	r0, [r5]
 1583 0030 194E     		ldr	r6, .L267
 1584 0032 6F68     		ldr	r7, [r5, #4]
 1585 0034 4103     		lsls	r1, r0, #13
 1586 0036 DB02     		lsls	r3, r3, #11
 1587 0038 490B     		lsrs	r1, r1, #13
 1588 003a 0340     		ands	r3, r0
 1589 003c B742     		cmp	r7, r6
 1590 003e 19D0     		beq	.L250
ARM GAS  /tmp/ccQQTu5L.s 			page 28


 1591 0040 906A     		ldr	r0, [r2, #40]
 1592 0042 0143     		orrs	r1, r0
 1593 0044 9162     		str	r1, [r2, #40]
 1594 0046 002B     		cmp	r3, #0
 1595 0048 08D0     		beq	.L251
 1596 004a 8023     		movs	r3, #128
 1597 004c 134A     		ldr	r2, .L267+4
 1598 004e 1B04     		lsls	r3, r3, #16
 1599 0050 1168     		ldr	r1, [r2]
 1600 0052 0A20     		movs	r0, #10
 1601 0054 0B43     		orrs	r3, r1
 1602 0056 1360     		str	r3, [r2]
 1603 0058 FFF7FEFF 		bl	ADC_DelayMicroSecond
 1604              	.L251:
 1605 005c 2B68     		ldr	r3, [r5]
 1606 005e 9B03     		lsls	r3, r3, #14
 1607 0060 05D5     		bpl	.L253
 1608 0062 8023     		movs	r3, #128
 1609 0064 0D4A     		ldr	r2, .L267+4
 1610 0066 DB03     		lsls	r3, r3, #15
 1611 0068 1168     		ldr	r1, [r2]
 1612 006a 0B43     		orrs	r3, r1
 1613              	.L266:
 1614 006c 1360     		str	r3, [r2]
 1615              	.L253:
 1616 006e 0020     		movs	r0, #0
 1617 0070 2070     		strb	r0, [r4]
 1618 0072 DAE7     		b	.L248
 1619              	.L250:
 1620 0074 956A     		ldr	r5, [r2, #40]
 1621 0076 8D43     		bics	r5, r1
 1622 0078 9562     		str	r5, [r2, #40]
 1623 007a 002B     		cmp	r3, #0
 1624 007c 04D0     		beq	.L254
 1625 007e 074A     		ldr	r2, .L267+4
 1626 0080 0749     		ldr	r1, .L267+8
 1627 0082 1368     		ldr	r3, [r2]
 1628 0084 0B40     		ands	r3, r1
 1629 0086 1360     		str	r3, [r2]
 1630              	.L254:
 1631 0088 8303     		lsls	r3, r0, #14
 1632 008a F0D5     		bpl	.L253
 1633 008c 034A     		ldr	r2, .L267+4
 1634 008e 0549     		ldr	r1, .L267+12
 1635 0090 1368     		ldr	r3, [r2]
 1636 0092 0B40     		ands	r3, r1
 1637 0094 EAE7     		b	.L266
 1638              	.L268:
 1639 0096 C046     		.align	2
 1640              	.L267:
 1641 0098 01100000 		.word	4097
 1642 009c 08270140 		.word	1073817352
 1643 00a0 FFFF7FFF 		.word	-8388609
 1644 00a4 FFFFBFFF 		.word	-4194305
 1646              		.section	.text.HAL_ADC_AnalogWDGConfig,"ax",%progbits
 1647              		.align	1
 1648              		.global	HAL_ADC_AnalogWDGConfig
ARM GAS  /tmp/ccQQTu5L.s 			page 29


 1649              		.syntax unified
 1650              		.code	16
 1651              		.thumb_func
 1652              		.fpu softvfp
 1654              	HAL_ADC_AnalogWDGConfig:
 1655              		@ args = 0, pretend = 0, frame = 0
 1656              		@ frame_needed = 0, uses_anonymous_args = 0
 1657 0000 70B5     		push	{r4, r5, r6, lr}
 1658 0002 0400     		movs	r4, r0
 1659 0004 5034     		adds	r4, r4, #80
 1660 0006 2378     		ldrb	r3, [r4]
 1661 0008 0200     		movs	r2, r0
 1662 000a 0D68     		ldr	r5, [r1]
 1663 000c 0220     		movs	r0, #2
 1664 000e 012B     		cmp	r3, #1
 1665 0010 31D0     		beq	.L270
 1666 0012 0138     		subs	r0, r0, #1
 1667 0014 2070     		strb	r0, [r4]
 1668 0016 1368     		ldr	r3, [r2]
 1669 0018 9E68     		ldr	r6, [r3, #8]
 1670 001a 7607     		lsls	r6, r6, #29
 1671 001c 30D4     		bmi	.L271
 1672 001e 0A7A     		ldrb	r2, [r1, #8]
 1673 0020 7F30     		adds	r0, r0, #127
 1674 0022 012A     		cmp	r2, #1
 1675 0024 28D1     		bne	.L272
 1676 0026 5A68     		ldr	r2, [r3, #4]
 1677 0028 1043     		orrs	r0, r2
 1678 002a 5860     		str	r0, [r3, #4]
 1679              	.L273:
 1680 002c DA68     		ldr	r2, [r3, #12]
 1681 002e 1748     		ldr	r0, .L276
 1682 0030 4E68     		ldr	r6, [r1, #4]
 1683 0032 0240     		ands	r2, r0
 1684 0034 DA60     		str	r2, [r3, #12]
 1685 0036 F822     		movs	r2, #248
 1686 0038 D868     		ldr	r0, [r3, #12]
 1687 003a D205     		lsls	r2, r2, #23
 1688 003c 0543     		orrs	r5, r0
 1689 003e 3240     		ands	r2, r6
 1690 0040 2A43     		orrs	r2, r5
 1691 0042 0325     		movs	r5, #3
 1692 0044 DA60     		str	r2, [r3, #12]
 1693 0046 D868     		ldr	r0, [r3, #12]
 1694 0048 DA68     		ldr	r2, [r3, #12]
 1695 004a C008     		lsrs	r0, r0, #3
 1696 004c EA40     		lsrs	r2, r2, r5
 1697 004e CE68     		ldr	r6, [r1, #12]
 1698 0050 2840     		ands	r0, r5
 1699 0052 4000     		lsls	r0, r0, #1
 1700 0054 8640     		lsls	r6, r6, r0
 1701 0056 0969     		ldr	r1, [r1, #16]
 1702 0058 2A40     		ands	r2, r5
 1703 005a 5200     		lsls	r2, r2, #1
 1704 005c 9140     		lsls	r1, r1, r2
 1705 005e 0C48     		ldr	r0, .L276+4
 1706 0060 1A6A     		ldr	r2, [r3, #32]
ARM GAS  /tmp/ccQQTu5L.s 			page 30


 1707 0062 3604     		lsls	r6, r6, #16
 1708 0064 0240     		ands	r2, r0
 1709 0066 0020     		movs	r0, #0
 1710 0068 1A62     		str	r2, [r3, #32]
 1711 006a 1E62     		str	r6, [r3, #32]
 1712 006c 1A6A     		ldr	r2, [r3, #32]
 1713 006e 0A43     		orrs	r2, r1
 1714 0070 1A62     		str	r2, [r3, #32]
 1715              	.L274:
 1716 0072 0023     		movs	r3, #0
 1717 0074 2370     		strb	r3, [r4]
 1718              	.L270:
 1719              		@ sp needed
 1720 0076 70BD     		pop	{r4, r5, r6, pc}
 1721              	.L272:
 1722 0078 5A68     		ldr	r2, [r3, #4]
 1723 007a 8243     		bics	r2, r0
 1724 007c 5A60     		str	r2, [r3, #4]
 1725 007e D5E7     		b	.L273
 1726              	.L271:
 1727 0080 2023     		movs	r3, #32
 1728 0082 516D     		ldr	r1, [r2, #84]
 1729 0084 0B43     		orrs	r3, r1
 1730 0086 5365     		str	r3, [r2, #84]
 1731 0088 F3E7     		b	.L274
 1732              	.L277:
 1733 008a C046     		.align	2
 1734              	.L276:
 1735 008c FFFF3F83 		.word	-2092957697
 1736 0090 00F000F0 		.word	-268374016
 1738              		.section	.text.HAL_ADC_GetState,"ax",%progbits
 1739              		.align	1
 1740              		.global	HAL_ADC_GetState
 1741              		.syntax unified
 1742              		.code	16
 1743              		.thumb_func
 1744              		.fpu softvfp
 1746              	HAL_ADC_GetState:
 1747              		@ args = 0, pretend = 0, frame = 0
 1748              		@ frame_needed = 0, uses_anonymous_args = 0
 1749              		@ link register save eliminated.
 1750 0000 406D     		ldr	r0, [r0, #84]
 1751              		@ sp needed
 1752 0002 7047     		bx	lr
 1754              		.section	.text.HAL_ADC_GetError,"ax",%progbits
 1755              		.align	1
 1756              		.global	HAL_ADC_GetError
 1757              		.syntax unified
 1758              		.code	16
 1759              		.thumb_func
 1760              		.fpu softvfp
 1762              	HAL_ADC_GetError:
 1763              		@ args = 0, pretend = 0, frame = 0
 1764              		@ frame_needed = 0, uses_anonymous_args = 0
 1765              		@ link register save eliminated.
 1766 0000 806D     		ldr	r0, [r0, #88]
 1767              		@ sp needed
ARM GAS  /tmp/ccQQTu5L.s 			page 31


 1768 0002 7047     		bx	lr
 1770              		.ident	"GCC: (15:10.3-2021.07-4) 10.3.1 20210621 (release)"
ARM GAS  /tmp/ccQQTu5L.s 			page 32

