ARM GAS  /tmp/ccNO2zsr.s 			page 1


   1              		.cpu cortex-m0
   2              		.eabi_attribute 23, 1
   3              		.eabi_attribute 24, 1
   4              		.eabi_attribute 25, 1
   5              		.eabi_attribute 26, 1
   6              		.eabi_attribute 30, 4
   7              		.eabi_attribute 34, 0
   8              		.eabi_attribute 18, 4
   9              		.file	"stm32l0xx_hal_lptim.c"
  10              		.text
  11              		.global	__aeabi_uidiv
  12              		.section	.text.LPTIM_WaitForFlag,"ax",%progbits
  13              		.align	1
  14              		.arch armv6s-m
  15              		.syntax unified
  16              		.code	16
  17              		.thumb_func
  18              		.fpu softvfp
  20              	LPTIM_WaitForFlag:
  21              		@ args = 0, pretend = 0, frame = 0
  22              		@ frame_needed = 0, uses_anonymous_args = 0
  23 0000 0C4B     		ldr	r3, .L6
  24 0002 70B5     		push	{r4, r5, r6, lr}
  25 0004 0500     		movs	r5, r0
  26 0006 0C00     		movs	r4, r1
  27 0008 1868     		ldr	r0, [r3]
  28 000a 0B49     		ldr	r1, .L6+4
  29 000c FFF7FEFF 		bl	__aeabi_uidiv
  30 0010 FA23     		movs	r3, #250
  31 0012 9B00     		lsls	r3, r3, #2
  32 0014 4343     		muls	r3, r0
  33 0016 2968     		ldr	r1, [r5]
  34 0018 0020     		movs	r0, #0
  35 001a 0325     		movs	r5, #3
  36              	.L4:
  37 001c 013B     		subs	r3, r3, #1
  38 001e 002B     		cmp	r3, #0
  39 0020 00D1     		bne	.L2
  40 0022 2800     		movs	r0, r5
  41              	.L2:
  42 0024 0A68     		ldr	r2, [r1]
  43 0026 2240     		ands	r2, r4
  44 0028 A242     		cmp	r2, r4
  45 002a 01D0     		beq	.L3
  46 002c 002B     		cmp	r3, #0
  47 002e F5D1     		bne	.L4
  48              	.L3:
  49              		@ sp needed
  50 0030 70BD     		pop	{r4, r5, r6, pc}
  51              	.L7:
  52 0032 C046     		.align	2
  53              	.L6:
  54 0034 00000000 		.word	SystemCoreClock
  55 0038 204E0000 		.word	20000
  57              		.section	.text.HAL_LPTIM_MspInit,"ax",%progbits
  58              		.align	1
  59              		.weak	HAL_LPTIM_MspInit
ARM GAS  /tmp/ccNO2zsr.s 			page 2


  60              		.syntax unified
  61              		.code	16
  62              		.thumb_func
  63              		.fpu softvfp
  65              	HAL_LPTIM_MspInit:
  66              		@ args = 0, pretend = 0, frame = 0
  67              		@ frame_needed = 0, uses_anonymous_args = 0
  68              		@ link register save eliminated.
  69              		@ sp needed
  70 0000 7047     		bx	lr
  72              		.section	.text.HAL_LPTIM_Init,"ax",%progbits
  73              		.align	1
  74              		.global	HAL_LPTIM_Init
  75              		.syntax unified
  76              		.code	16
  77              		.thumb_func
  78              		.fpu softvfp
  80              	HAL_LPTIM_Init:
  81              		@ args = 0, pretend = 0, frame = 0
  82              		@ frame_needed = 0, uses_anonymous_args = 0
  83 0000 F8B5     		push	{r3, r4, r5, r6, r7, lr}
  84 0002 0400     		movs	r4, r0
  85 0004 0120     		movs	r0, #1
  86 0006 002C     		cmp	r4, #0
  87 0008 42D0     		beq	.L10
  88 000a 2500     		movs	r5, r4
  89 000c 2E35     		adds	r5, r5, #46
  90 000e 2B78     		ldrb	r3, [r5]
  91 0010 DAB2     		uxtb	r2, r3
  92 0012 002B     		cmp	r3, #0
  93 0014 05D1     		bne	.L11
  94 0016 2300     		movs	r3, r4
  95 0018 2D33     		adds	r3, r3, #45
  96 001a 2000     		movs	r0, r4
  97 001c 1A70     		strb	r2, [r3]
  98 001e FFF7FEFF 		bl	HAL_LPTIM_MspInit
  99              	.L11:
 100 0022 0223     		movs	r3, #2
 101 0024 2B70     		strb	r3, [r5]
 102 0026 2668     		ldr	r6, [r4]
 103 0028 6168     		ldr	r1, [r4, #4]
 104 002a F368     		ldr	r3, [r6, #12]
 105 002c A06A     		ldr	r0, [r4, #40]
 106 002e 0129     		cmp	r1, #1
 107 0030 03D0     		beq	.L12
 108 0032 8022     		movs	r2, #128
 109 0034 1204     		lsls	r2, r2, #16
 110 0036 9042     		cmp	r0, r2
 111 0038 01D1     		bne	.L13
 112              	.L12:
 113 003a 1E22     		movs	r2, #30
 114 003c 9343     		bics	r3, r2
 115              	.L13:
 116 003e 6269     		ldr	r2, [r4, #20]
 117 0040 174F     		ldr	r7, .L27
 118 0042 BA42     		cmp	r2, r7
 119 0044 01D0     		beq	.L14
ARM GAS  /tmp/ccNO2zsr.s 			page 3


 120 0046 174F     		ldr	r7, .L27+4
 121 0048 3B40     		ands	r3, r7
 122              	.L14:
 123 004a 174F     		ldr	r7, .L27+8
 124 004c 1F40     		ands	r7, r3
 125 004e 0B00     		movs	r3, r1
 126 0050 BC46     		mov	ip, r7
 127 0052 A768     		ldr	r7, [r4, #8]
 128 0054 0343     		orrs	r3, r0
 129 0056 3B43     		orrs	r3, r7
 130 0058 276A     		ldr	r7, [r4, #32]
 131 005a 3B43     		orrs	r3, r7
 132 005c 676A     		ldr	r7, [r4, #36]
 133 005e 3B43     		orrs	r3, r7
 134 0060 6746     		mov	r7, ip
 135 0062 3B43     		orrs	r3, r7
 136 0064 0029     		cmp	r1, #0
 137 0066 14D1     		bne	.L15
 138 0068 E169     		ldr	r1, [r4, #28]
 139 006a 2769     		ldr	r7, [r4, #16]
 140 006c 3943     		orrs	r1, r7
 141 006e 0B43     		orrs	r3, r1
 142              	.L16:
 143 0070 8021     		movs	r1, #128
 144 0072 0904     		lsls	r1, r1, #16
 145 0074 8842     		cmp	r0, r1
 146 0076 0ED0     		beq	.L17
 147              	.L18:
 148 0078 0949     		ldr	r1, .L27
 149 007a 8A42     		cmp	r2, r1
 150 007c 04D0     		beq	.L19
 151 007e A169     		ldr	r1, [r4, #24]
 152 0080 0A43     		orrs	r2, r1
 153 0082 E169     		ldr	r1, [r4, #28]
 154 0084 0A43     		orrs	r2, r1
 155 0086 1343     		orrs	r3, r2
 156              	.L19:
 157 0088 F360     		str	r3, [r6, #12]
 158 008a 0123     		movs	r3, #1
 159 008c 0020     		movs	r0, #0
 160 008e 2B70     		strb	r3, [r5]
 161              	.L10:
 162              		@ sp needed
 163 0090 F8BD     		pop	{r3, r4, r5, r6, r7, pc}
 164              	.L15:
 165 0092 0129     		cmp	r1, #1
 166 0094 ECD1     		bne	.L16
 167              	.L17:
 168 0096 E168     		ldr	r1, [r4, #12]
 169 0098 2069     		ldr	r0, [r4, #16]
 170 009a 0143     		orrs	r1, r0
 171 009c 0B43     		orrs	r3, r1
 172 009e EBE7     		b	.L18
 173              	.L28:
 174              		.align	2
 175              	.L27:
 176 00a0 FFFF0000 		.word	65535
ARM GAS  /tmp/ccNO2zsr.s 			page 4


 177 00a4 3F1FFFFF 		.word	-57537
 178 00a8 FEF119FF 		.word	-15076866
 180              		.section	.text.HAL_LPTIM_MspDeInit,"ax",%progbits
 181              		.align	1
 182              		.weak	HAL_LPTIM_MspDeInit
 183              		.syntax unified
 184              		.code	16
 185              		.thumb_func
 186              		.fpu softvfp
 188              	HAL_LPTIM_MspDeInit:
 189              		@ args = 0, pretend = 0, frame = 0
 190              		@ frame_needed = 0, uses_anonymous_args = 0
 191              		@ link register save eliminated.
 192              		@ sp needed
 193 0000 7047     		bx	lr
 195              		.section	.text.HAL_LPTIM_PWM_Start,"ax",%progbits
 196              		.align	1
 197              		.global	HAL_LPTIM_PWM_Start
 198              		.syntax unified
 199              		.code	16
 200              		.thumb_func
 201              		.fpu softvfp
 203              	HAL_LPTIM_PWM_Start:
 204              		@ args = 0, pretend = 0, frame = 0
 205              		@ frame_needed = 0, uses_anonymous_args = 0
 206 0000 F8B5     		push	{r3, r4, r5, r6, r7, lr}
 207 0002 0400     		movs	r4, r0
 208 0004 2600     		movs	r6, r4
 209 0006 0223     		movs	r3, #2
 210 0008 2E36     		adds	r6, r6, #46
 211 000a 3370     		strb	r3, [r6]
 212 000c 2368     		ldr	r3, [r4]
 213 000e 0800     		movs	r0, r1
 214 0010 1500     		movs	r5, r2
 215 0012 1149     		ldr	r1, .L37
 216 0014 DA68     		ldr	r2, [r3, #12]
 217 0016 0127     		movs	r7, #1
 218 0018 0A40     		ands	r2, r1
 219 001a 1021     		movs	r1, #16
 220 001c DA60     		str	r2, [r3, #12]
 221 001e 1A69     		ldr	r2, [r3, #16]
 222 0020 3A43     		orrs	r2, r7
 223 0022 1A61     		str	r2, [r3, #16]
 224 0024 5960     		str	r1, [r3, #4]
 225 0026 9861     		str	r0, [r3, #24]
 226 0028 2000     		movs	r0, r4
 227 002a FFF7FEFF 		bl	LPTIM_WaitForFlag
 228 002e 0328     		cmp	r0, #3
 229 0030 01D1     		bne	.L31
 230              	.L33:
 231 0032 0320     		movs	r0, #3
 232              	.L32:
 233              		@ sp needed
 234 0034 F8BD     		pop	{r3, r4, r5, r6, r7, pc}
 235              	.L31:
 236 0036 0821     		movs	r1, #8
 237 0038 2368     		ldr	r3, [r4]
ARM GAS  /tmp/ccNO2zsr.s 			page 5


 238 003a 2000     		movs	r0, r4
 239 003c 5960     		str	r1, [r3, #4]
 240 003e 5D61     		str	r5, [r3, #20]
 241 0040 FFF7FEFF 		bl	LPTIM_WaitForFlag
 242 0044 0328     		cmp	r0, #3
 243 0046 F4D0     		beq	.L33
 244 0048 0423     		movs	r3, #4
 245 004a 2268     		ldr	r2, [r4]
 246 004c 0020     		movs	r0, #0
 247 004e 1169     		ldr	r1, [r2, #16]
 248 0050 0B43     		orrs	r3, r1
 249 0052 1361     		str	r3, [r2, #16]
 250 0054 3770     		strb	r7, [r6]
 251 0056 EDE7     		b	.L32
 252              	.L38:
 253              		.align	2
 254              	.L37:
 255 0058 FFFFEFFF 		.word	-1048577
 257              		.section	.text.HAL_LPTIM_OnePulse_Start,"ax",%progbits
 258              		.align	1
 259              		.global	HAL_LPTIM_OnePulse_Start
 260              		.syntax unified
 261              		.code	16
 262              		.thumb_func
 263              		.fpu softvfp
 265              	HAL_LPTIM_OnePulse_Start:
 266              		@ args = 0, pretend = 0, frame = 8
 267              		@ frame_needed = 0, uses_anonymous_args = 0
 268 0000 F7B5     		push	{r0, r1, r2, r4, r5, r6, r7, lr}
 269 0002 0400     		movs	r4, r0
 270 0004 2600     		movs	r6, r4
 271 0006 0225     		movs	r5, #2
 272 0008 2E36     		adds	r6, r6, #46
 273 000a 3570     		strb	r5, [r6]
 274 000c 2368     		ldr	r3, [r4]
 275 000e 0800     		movs	r0, r1
 276 0010 0192     		str	r2, [sp, #4]
 277 0012 1149     		ldr	r1, .L46
 278 0014 DA68     		ldr	r2, [r3, #12]
 279 0016 0127     		movs	r7, #1
 280 0018 0A40     		ands	r2, r1
 281 001a 1021     		movs	r1, #16
 282 001c DA60     		str	r2, [r3, #12]
 283 001e 1A69     		ldr	r2, [r3, #16]
 284 0020 3A43     		orrs	r2, r7
 285 0022 1A61     		str	r2, [r3, #16]
 286 0024 5960     		str	r1, [r3, #4]
 287 0026 9861     		str	r0, [r3, #24]
 288 0028 2000     		movs	r0, r4
 289 002a FFF7FEFF 		bl	LPTIM_WaitForFlag
 290 002e 0328     		cmp	r0, #3
 291 0030 01D1     		bne	.L40
 292              	.L42:
 293 0032 0320     		movs	r0, #3
 294              	.L41:
 295              		@ sp needed
 296 0034 FEBD     		pop	{r1, r2, r3, r4, r5, r6, r7, pc}
ARM GAS  /tmp/ccNO2zsr.s 			page 6


 297              	.L40:
 298 0036 0821     		movs	r1, #8
 299 0038 2368     		ldr	r3, [r4]
 300 003a 019A     		ldr	r2, [sp, #4]
 301 003c 5960     		str	r1, [r3, #4]
 302 003e 2000     		movs	r0, r4
 303 0040 5A61     		str	r2, [r3, #20]
 304 0042 FFF7FEFF 		bl	LPTIM_WaitForFlag
 305 0046 0328     		cmp	r0, #3
 306 0048 F3D0     		beq	.L42
 307 004a 2368     		ldr	r3, [r4]
 308 004c 0020     		movs	r0, #0
 309 004e 1A69     		ldr	r2, [r3, #16]
 310 0050 1543     		orrs	r5, r2
 311 0052 1D61     		str	r5, [r3, #16]
 312 0054 3770     		strb	r7, [r6]
 313 0056 EDE7     		b	.L41
 314              	.L47:
 315              		.align	2
 316              	.L46:
 317 0058 FFFFEFFF 		.word	-1048577
 319              		.section	.text.HAL_LPTIM_SetOnce_Start,"ax",%progbits
 320              		.align	1
 321              		.global	HAL_LPTIM_SetOnce_Start
 322              		.syntax unified
 323              		.code	16
 324              		.thumb_func
 325              		.fpu softvfp
 327              	HAL_LPTIM_SetOnce_Start:
 328              		@ args = 0, pretend = 0, frame = 8
 329              		@ frame_needed = 0, uses_anonymous_args = 0
 330 0000 F7B5     		push	{r0, r1, r2, r4, r5, r6, r7, lr}
 331 0002 0400     		movs	r4, r0
 332 0004 2600     		movs	r6, r4
 333 0006 0225     		movs	r5, #2
 334 0008 0192     		str	r2, [sp, #4]
 335 000a 8022     		movs	r2, #128
 336 000c 2E36     		adds	r6, r6, #46
 337 000e 3570     		strb	r5, [r6]
 338 0010 2368     		ldr	r3, [r4]
 339 0012 0800     		movs	r0, r1
 340 0014 D968     		ldr	r1, [r3, #12]
 341 0016 0127     		movs	r7, #1
 342 0018 5203     		lsls	r2, r2, #13
 343 001a 0A43     		orrs	r2, r1
 344 001c 1021     		movs	r1, #16
 345 001e DA60     		str	r2, [r3, #12]
 346 0020 1A69     		ldr	r2, [r3, #16]
 347 0022 3A43     		orrs	r2, r7
 348 0024 1A61     		str	r2, [r3, #16]
 349 0026 5960     		str	r1, [r3, #4]
 350 0028 9861     		str	r0, [r3, #24]
 351 002a 2000     		movs	r0, r4
 352 002c FFF7FEFF 		bl	LPTIM_WaitForFlag
 353 0030 0328     		cmp	r0, #3
 354 0032 01D1     		bne	.L49
 355              	.L51:
ARM GAS  /tmp/ccNO2zsr.s 			page 7


 356 0034 0320     		movs	r0, #3
 357              	.L50:
 358              		@ sp needed
 359 0036 FEBD     		pop	{r1, r2, r3, r4, r5, r6, r7, pc}
 360              	.L49:
 361 0038 0821     		movs	r1, #8
 362 003a 2368     		ldr	r3, [r4]
 363 003c 019A     		ldr	r2, [sp, #4]
 364 003e 5960     		str	r1, [r3, #4]
 365 0040 2000     		movs	r0, r4
 366 0042 5A61     		str	r2, [r3, #20]
 367 0044 FFF7FEFF 		bl	LPTIM_WaitForFlag
 368 0048 0328     		cmp	r0, #3
 369 004a F3D0     		beq	.L51
 370 004c 2368     		ldr	r3, [r4]
 371 004e 0020     		movs	r0, #0
 372 0050 1A69     		ldr	r2, [r3, #16]
 373 0052 1543     		orrs	r5, r2
 374 0054 1D61     		str	r5, [r3, #16]
 375 0056 3770     		strb	r7, [r6]
 376 0058 EDE7     		b	.L50
 378              		.section	.text.HAL_LPTIM_Encoder_Start,"ax",%progbits
 379              		.align	1
 380              		.global	HAL_LPTIM_Encoder_Start
 381              		.syntax unified
 382              		.code	16
 383              		.thumb_func
 384              		.fpu softvfp
 386              	HAL_LPTIM_Encoder_Start:
 387              		@ args = 0, pretend = 0, frame = 0
 388              		@ frame_needed = 0, uses_anonymous_args = 0
 389 0000 70B5     		push	{r4, r5, r6, lr}
 390 0002 0400     		movs	r4, r0
 391 0004 2500     		movs	r5, r4
 392 0006 0223     		movs	r3, #2
 393 0008 0800     		movs	r0, r1
 394 000a 0621     		movs	r1, #6
 395 000c 2E35     		adds	r5, r5, #46
 396 000e 2B70     		strb	r3, [r5]
 397 0010 2368     		ldr	r3, [r4]
 398 0012 0126     		movs	r6, #1
 399 0014 DA68     		ldr	r2, [r3, #12]
 400 0016 8A43     		bics	r2, r1
 401 0018 E168     		ldr	r1, [r4, #12]
 402 001a 0A43     		orrs	r2, r1
 403 001c DA60     		str	r2, [r3, #12]
 404 001e 8022     		movs	r2, #128
 405 0020 D968     		ldr	r1, [r3, #12]
 406 0022 5204     		lsls	r2, r2, #17
 407 0024 0A43     		orrs	r2, r1
 408 0026 1021     		movs	r1, #16
 409 0028 DA60     		str	r2, [r3, #12]
 410 002a 1A69     		ldr	r2, [r3, #16]
 411 002c 3243     		orrs	r2, r6
 412 002e 1A61     		str	r2, [r3, #16]
 413 0030 5960     		str	r1, [r3, #4]
 414 0032 9861     		str	r0, [r3, #24]
ARM GAS  /tmp/ccNO2zsr.s 			page 8


 415 0034 2000     		movs	r0, r4
 416 0036 FFF7FEFF 		bl	LPTIM_WaitForFlag
 417 003a 0328     		cmp	r0, #3
 418 003c 06D0     		beq	.L56
 419 003e 0423     		movs	r3, #4
 420 0040 0020     		movs	r0, #0
 421 0042 2268     		ldr	r2, [r4]
 422 0044 1169     		ldr	r1, [r2, #16]
 423 0046 0B43     		orrs	r3, r1
 424 0048 1361     		str	r3, [r2, #16]
 425 004a 2E70     		strb	r6, [r5]
 426              	.L56:
 427              		@ sp needed
 428 004c 70BD     		pop	{r4, r5, r6, pc}
 430              		.section	.text.HAL_LPTIM_TimeOut_Start,"ax",%progbits
 431              		.align	1
 432              		.global	HAL_LPTIM_TimeOut_Start
 433              		.syntax unified
 434              		.code	16
 435              		.thumb_func
 436              		.fpu softvfp
 438              	HAL_LPTIM_TimeOut_Start:
 439              		@ args = 0, pretend = 0, frame = 0
 440              		@ frame_needed = 0, uses_anonymous_args = 0
 441 0000 F8B5     		push	{r3, r4, r5, r6, r7, lr}
 442 0002 0400     		movs	r4, r0
 443 0004 2600     		movs	r6, r4
 444 0006 0223     		movs	r3, #2
 445 0008 1500     		movs	r5, r2
 446 000a 8022     		movs	r2, #128
 447 000c 2E36     		adds	r6, r6, #46
 448 000e 3370     		strb	r3, [r6]
 449 0010 2368     		ldr	r3, [r4]
 450 0012 0800     		movs	r0, r1
 451 0014 D968     		ldr	r1, [r3, #12]
 452 0016 0127     		movs	r7, #1
 453 0018 1203     		lsls	r2, r2, #12
 454 001a 0A43     		orrs	r2, r1
 455 001c 1021     		movs	r1, #16
 456 001e DA60     		str	r2, [r3, #12]
 457 0020 1A69     		ldr	r2, [r3, #16]
 458 0022 3A43     		orrs	r2, r7
 459 0024 1A61     		str	r2, [r3, #16]
 460 0026 5960     		str	r1, [r3, #4]
 461 0028 9861     		str	r0, [r3, #24]
 462 002a 2000     		movs	r0, r4
 463 002c FFF7FEFF 		bl	LPTIM_WaitForFlag
 464 0030 0328     		cmp	r0, #3
 465 0032 01D1     		bne	.L61
 466              	.L63:
 467 0034 0320     		movs	r0, #3
 468              	.L62:
 469              		@ sp needed
 470 0036 F8BD     		pop	{r3, r4, r5, r6, r7, pc}
 471              	.L61:
 472 0038 0821     		movs	r1, #8
 473 003a 2368     		ldr	r3, [r4]
ARM GAS  /tmp/ccNO2zsr.s 			page 9


 474 003c 2000     		movs	r0, r4
 475 003e 5960     		str	r1, [r3, #4]
 476 0040 5D61     		str	r5, [r3, #20]
 477 0042 FFF7FEFF 		bl	LPTIM_WaitForFlag
 478 0046 0328     		cmp	r0, #3
 479 0048 F4D0     		beq	.L63
 480 004a 0423     		movs	r3, #4
 481 004c 2268     		ldr	r2, [r4]
 482 004e 0020     		movs	r0, #0
 483 0050 1169     		ldr	r1, [r2, #16]
 484 0052 0B43     		orrs	r3, r1
 485 0054 1361     		str	r3, [r2, #16]
 486 0056 3770     		strb	r7, [r6]
 487 0058 EDE7     		b	.L62
 489              		.section	.text.HAL_LPTIM_Counter_Start,"ax",%progbits
 490              		.align	1
 491              		.global	HAL_LPTIM_Counter_Start
 492              		.syntax unified
 493              		.code	16
 494              		.thumb_func
 495              		.fpu softvfp
 497              	HAL_LPTIM_Counter_Start:
 498              		@ args = 0, pretend = 0, frame = 0
 499              		@ frame_needed = 0, uses_anonymous_args = 0
 500 0000 70B5     		push	{r4, r5, r6, lr}
 501 0002 0500     		movs	r5, r0
 502 0004 0223     		movs	r3, #2
 503 0006 2E35     		adds	r5, r5, #46
 504 0008 2B70     		strb	r3, [r5]
 505 000a 0A00     		movs	r2, r1
 506 000c 4168     		ldr	r1, [r0, #4]
 507 000e 0400     		movs	r4, r0
 508 0010 0368     		ldr	r3, [r0]
 509 0012 0129     		cmp	r1, #1
 510 0014 08D0     		beq	.L68
 511 0016 8021     		movs	r1, #128
 512 0018 806A     		ldr	r0, [r0, #40]
 513 001a 0904     		lsls	r1, r1, #16
 514 001c 8842     		cmp	r0, r1
 515 001e 03D1     		bne	.L68
 516 0020 D968     		ldr	r1, [r3, #12]
 517 0022 0B48     		ldr	r0, .L76
 518 0024 0140     		ands	r1, r0
 519 0026 D960     		str	r1, [r3, #12]
 520              	.L68:
 521 0028 0126     		movs	r6, #1
 522 002a 1969     		ldr	r1, [r3, #16]
 523 002c 2000     		movs	r0, r4
 524 002e 3143     		orrs	r1, r6
 525 0030 1961     		str	r1, [r3, #16]
 526 0032 1021     		movs	r1, #16
 527 0034 5960     		str	r1, [r3, #4]
 528 0036 9A61     		str	r2, [r3, #24]
 529 0038 FFF7FEFF 		bl	LPTIM_WaitForFlag
 530 003c 0328     		cmp	r0, #3
 531 003e 06D0     		beq	.L69
 532 0040 0423     		movs	r3, #4
ARM GAS  /tmp/ccNO2zsr.s 			page 10


 533 0042 0020     		movs	r0, #0
 534 0044 2268     		ldr	r2, [r4]
 535 0046 1169     		ldr	r1, [r2, #16]
 536 0048 0B43     		orrs	r3, r1
 537 004a 1361     		str	r3, [r2, #16]
 538 004c 2E70     		strb	r6, [r5]
 539              	.L69:
 540              		@ sp needed
 541 004e 70BD     		pop	{r4, r5, r6, pc}
 542              	.L77:
 543              		.align	2
 544              	.L76:
 545 0050 FFF1FFFF 		.word	-3585
 547              		.section	.text.HAL_LPTIM_ReadCounter,"ax",%progbits
 548              		.align	1
 549              		.global	HAL_LPTIM_ReadCounter
 550              		.syntax unified
 551              		.code	16
 552              		.thumb_func
 553              		.fpu softvfp
 555              	HAL_LPTIM_ReadCounter:
 556              		@ args = 0, pretend = 0, frame = 0
 557              		@ frame_needed = 0, uses_anonymous_args = 0
 558              		@ link register save eliminated.
 559 0000 0368     		ldr	r3, [r0]
 560              		@ sp needed
 561 0002 D869     		ldr	r0, [r3, #28]
 562 0004 7047     		bx	lr
 564              		.section	.text.HAL_LPTIM_ReadAutoReload,"ax",%progbits
 565              		.align	1
 566              		.global	HAL_LPTIM_ReadAutoReload
 567              		.syntax unified
 568              		.code	16
 569              		.thumb_func
 570              		.fpu softvfp
 572              	HAL_LPTIM_ReadAutoReload:
 573              		@ args = 0, pretend = 0, frame = 0
 574              		@ frame_needed = 0, uses_anonymous_args = 0
 575              		@ link register save eliminated.
 576 0000 0368     		ldr	r3, [r0]
 577              		@ sp needed
 578 0002 9869     		ldr	r0, [r3, #24]
 579 0004 7047     		bx	lr
 581              		.section	.text.HAL_LPTIM_ReadCompare,"ax",%progbits
 582              		.align	1
 583              		.global	HAL_LPTIM_ReadCompare
 584              		.syntax unified
 585              		.code	16
 586              		.thumb_func
 587              		.fpu softvfp
 589              	HAL_LPTIM_ReadCompare:
 590              		@ args = 0, pretend = 0, frame = 0
 591              		@ frame_needed = 0, uses_anonymous_args = 0
 592              		@ link register save eliminated.
 593 0000 0368     		ldr	r3, [r0]
 594              		@ sp needed
 595 0002 5869     		ldr	r0, [r3, #20]
ARM GAS  /tmp/ccNO2zsr.s 			page 11


 596 0004 7047     		bx	lr
 598              		.section	.text.HAL_LPTIM_CompareMatchCallback,"ax",%progbits
 599              		.align	1
 600              		.weak	HAL_LPTIM_CompareMatchCallback
 601              		.syntax unified
 602              		.code	16
 603              		.thumb_func
 604              		.fpu softvfp
 606              	HAL_LPTIM_CompareMatchCallback:
 607              		@ args = 0, pretend = 0, frame = 0
 608              		@ frame_needed = 0, uses_anonymous_args = 0
 609              		@ link register save eliminated.
 610              		@ sp needed
 611 0000 7047     		bx	lr
 613              		.section	.text.HAL_LPTIM_AutoReloadMatchCallback,"ax",%progbits
 614              		.align	1
 615              		.weak	HAL_LPTIM_AutoReloadMatchCallback
 616              		.syntax unified
 617              		.code	16
 618              		.thumb_func
 619              		.fpu softvfp
 621              	HAL_LPTIM_AutoReloadMatchCallback:
 622              		@ args = 0, pretend = 0, frame = 0
 623              		@ frame_needed = 0, uses_anonymous_args = 0
 624              		@ link register save eliminated.
 625              		@ sp needed
 626 0000 7047     		bx	lr
 628              		.section	.text.HAL_LPTIM_TriggerCallback,"ax",%progbits
 629              		.align	1
 630              		.weak	HAL_LPTIM_TriggerCallback
 631              		.syntax unified
 632              		.code	16
 633              		.thumb_func
 634              		.fpu softvfp
 636              	HAL_LPTIM_TriggerCallback:
 637              		@ args = 0, pretend = 0, frame = 0
 638              		@ frame_needed = 0, uses_anonymous_args = 0
 639              		@ link register save eliminated.
 640              		@ sp needed
 641 0000 7047     		bx	lr
 643              		.section	.text.HAL_LPTIM_CompareWriteCallback,"ax",%progbits
 644              		.align	1
 645              		.weak	HAL_LPTIM_CompareWriteCallback
 646              		.syntax unified
 647              		.code	16
 648              		.thumb_func
 649              		.fpu softvfp
 651              	HAL_LPTIM_CompareWriteCallback:
 652              		@ args = 0, pretend = 0, frame = 0
 653              		@ frame_needed = 0, uses_anonymous_args = 0
 654              		@ link register save eliminated.
 655              		@ sp needed
 656 0000 7047     		bx	lr
 658              		.section	.text.HAL_LPTIM_AutoReloadWriteCallback,"ax",%progbits
 659              		.align	1
 660              		.weak	HAL_LPTIM_AutoReloadWriteCallback
 661              		.syntax unified
ARM GAS  /tmp/ccNO2zsr.s 			page 12


 662              		.code	16
 663              		.thumb_func
 664              		.fpu softvfp
 666              	HAL_LPTIM_AutoReloadWriteCallback:
 667              		@ args = 0, pretend = 0, frame = 0
 668              		@ frame_needed = 0, uses_anonymous_args = 0
 669              		@ link register save eliminated.
 670              		@ sp needed
 671 0000 7047     		bx	lr
 673              		.section	.text.HAL_LPTIM_DirectionUpCallback,"ax",%progbits
 674              		.align	1
 675              		.weak	HAL_LPTIM_DirectionUpCallback
 676              		.syntax unified
 677              		.code	16
 678              		.thumb_func
 679              		.fpu softvfp
 681              	HAL_LPTIM_DirectionUpCallback:
 682              		@ args = 0, pretend = 0, frame = 0
 683              		@ frame_needed = 0, uses_anonymous_args = 0
 684              		@ link register save eliminated.
 685              		@ sp needed
 686 0000 7047     		bx	lr
 688              		.section	.text.HAL_LPTIM_DirectionDownCallback,"ax",%progbits
 689              		.align	1
 690              		.weak	HAL_LPTIM_DirectionDownCallback
 691              		.syntax unified
 692              		.code	16
 693              		.thumb_func
 694              		.fpu softvfp
 696              	HAL_LPTIM_DirectionDownCallback:
 697              		@ args = 0, pretend = 0, frame = 0
 698              		@ frame_needed = 0, uses_anonymous_args = 0
 699              		@ link register save eliminated.
 700              		@ sp needed
 701 0000 7047     		bx	lr
 703              		.section	.text.HAL_LPTIM_IRQHandler,"ax",%progbits
 704              		.align	1
 705              		.global	HAL_LPTIM_IRQHandler
 706              		.syntax unified
 707              		.code	16
 708              		.thumb_func
 709              		.fpu softvfp
 711              	HAL_LPTIM_IRQHandler:
 712              		@ args = 0, pretend = 0, frame = 0
 713              		@ frame_needed = 0, uses_anonymous_args = 0
 714 0000 0122     		movs	r2, #1
 715 0002 0368     		ldr	r3, [r0]
 716 0004 10B5     		push	{r4, lr}
 717 0006 1968     		ldr	r1, [r3]
 718 0008 0400     		movs	r4, r0
 719 000a 1142     		tst	r1, r2
 720 000c 05D0     		beq	.L89
 721 000e 9968     		ldr	r1, [r3, #8]
 722 0010 1142     		tst	r1, r2
 723 0012 02D0     		beq	.L89
 724 0014 5A60     		str	r2, [r3, #4]
 725 0016 FFF7FEFF 		bl	HAL_LPTIM_CompareMatchCallback
ARM GAS  /tmp/ccNO2zsr.s 			page 13


 726              	.L89:
 727 001a 0222     		movs	r2, #2
 728 001c 2368     		ldr	r3, [r4]
 729 001e 1968     		ldr	r1, [r3]
 730 0020 1142     		tst	r1, r2
 731 0022 06D0     		beq	.L90
 732 0024 9968     		ldr	r1, [r3, #8]
 733 0026 1142     		tst	r1, r2
 734 0028 03D0     		beq	.L90
 735 002a 2000     		movs	r0, r4
 736 002c 5A60     		str	r2, [r3, #4]
 737 002e FFF7FEFF 		bl	HAL_LPTIM_AutoReloadMatchCallback
 738              	.L90:
 739 0032 0422     		movs	r2, #4
 740 0034 2368     		ldr	r3, [r4]
 741 0036 1968     		ldr	r1, [r3]
 742 0038 1142     		tst	r1, r2
 743 003a 06D0     		beq	.L91
 744 003c 9968     		ldr	r1, [r3, #8]
 745 003e 1142     		tst	r1, r2
 746 0040 03D0     		beq	.L91
 747 0042 2000     		movs	r0, r4
 748 0044 5A60     		str	r2, [r3, #4]
 749 0046 FFF7FEFF 		bl	HAL_LPTIM_TriggerCallback
 750              	.L91:
 751 004a 0822     		movs	r2, #8
 752 004c 2368     		ldr	r3, [r4]
 753 004e 1968     		ldr	r1, [r3]
 754 0050 1142     		tst	r1, r2
 755 0052 06D0     		beq	.L92
 756 0054 9968     		ldr	r1, [r3, #8]
 757 0056 1142     		tst	r1, r2
 758 0058 03D0     		beq	.L92
 759 005a 2000     		movs	r0, r4
 760 005c 5A60     		str	r2, [r3, #4]
 761 005e FFF7FEFF 		bl	HAL_LPTIM_CompareWriteCallback
 762              	.L92:
 763 0062 1022     		movs	r2, #16
 764 0064 2368     		ldr	r3, [r4]
 765 0066 1968     		ldr	r1, [r3]
 766 0068 1142     		tst	r1, r2
 767 006a 06D0     		beq	.L93
 768 006c 9968     		ldr	r1, [r3, #8]
 769 006e 1142     		tst	r1, r2
 770 0070 03D0     		beq	.L93
 771 0072 2000     		movs	r0, r4
 772 0074 5A60     		str	r2, [r3, #4]
 773 0076 FFF7FEFF 		bl	HAL_LPTIM_AutoReloadWriteCallback
 774              	.L93:
 775 007a 2022     		movs	r2, #32
 776 007c 2368     		ldr	r3, [r4]
 777 007e 1968     		ldr	r1, [r3]
 778 0080 1142     		tst	r1, r2
 779 0082 06D0     		beq	.L94
 780 0084 9968     		ldr	r1, [r3, #8]
 781 0086 1142     		tst	r1, r2
 782 0088 03D0     		beq	.L94
ARM GAS  /tmp/ccNO2zsr.s 			page 14


 783 008a 2000     		movs	r0, r4
 784 008c 5A60     		str	r2, [r3, #4]
 785 008e FFF7FEFF 		bl	HAL_LPTIM_DirectionUpCallback
 786              	.L94:
 787 0092 4022     		movs	r2, #64
 788 0094 2368     		ldr	r3, [r4]
 789 0096 1968     		ldr	r1, [r3]
 790 0098 1142     		tst	r1, r2
 791 009a 06D0     		beq	.L88
 792 009c 9968     		ldr	r1, [r3, #8]
 793 009e 1142     		tst	r1, r2
 794 00a0 03D0     		beq	.L88
 795 00a2 2000     		movs	r0, r4
 796 00a4 5A60     		str	r2, [r3, #4]
 797 00a6 FFF7FEFF 		bl	HAL_LPTIM_DirectionDownCallback
 798              	.L88:
 799              		@ sp needed
 800 00aa 10BD     		pop	{r4, pc}
 802              		.section	.text.HAL_LPTIM_GetState,"ax",%progbits
 803              		.align	1
 804              		.global	HAL_LPTIM_GetState
 805              		.syntax unified
 806              		.code	16
 807              		.thumb_func
 808              		.fpu softvfp
 810              	HAL_LPTIM_GetState:
 811              		@ args = 0, pretend = 0, frame = 0
 812              		@ frame_needed = 0, uses_anonymous_args = 0
 813              		@ link register save eliminated.
 814 0000 2E30     		adds	r0, r0, #46
 815 0002 0078     		ldrb	r0, [r0]
 816              		@ sp needed
 817 0004 C0B2     		uxtb	r0, r0
 818 0006 7047     		bx	lr
 820              		.section	.text.LPTIM_Disable,"ax",%progbits
 821              		.align	1
 822              		.global	LPTIM_Disable
 823              		.syntax unified
 824              		.code	16
 825              		.thumb_func
 826              		.fpu softvfp
 828              	LPTIM_Disable:
 829              		@ args = 0, pretend = 0, frame = 16
 830              		@ frame_needed = 0, uses_anonymous_args = 0
 831 0000 F0B5     		push	{r4, r5, r6, r7, lr}
 832 0002 0400     		movs	r4, r0
 833 0004 85B0     		sub	sp, sp, #20
 834              		.syntax divided
 835              	@ 209 "bsp_l0/mcu_drivers/cmsis/Core/Include/cmsis_gcc.h" 1
 836 0006 72B6     		cpsid i
 837              	@ 0 "" 2
 838              		.thumb
 839              		.syntax unified
 840 0008 0022     		movs	r2, #0
 841 000a 0368     		ldr	r3, [r0]
 842 000c 324E     		ldr	r6, .L157
 843 000e 0192     		str	r2, [sp, #4]
ARM GAS  /tmp/ccNO2zsr.s 			page 15


 844 0010 B342     		cmp	r3, r6
 845 0012 05D1     		bne	.L140
 846 0014 314A     		ldr	r2, .L157+4
 847 0016 D56C     		ldr	r5, [r2, #76]
 848 0018 C022     		movs	r2, #192
 849 001a 1203     		lsls	r2, r2, #12
 850 001c 1540     		ands	r5, r2
 851 001e 0195     		str	r5, [sp, #4]
 852              	.L140:
 853 0020 9A68     		ldr	r2, [r3, #8]
 854 0022 0292     		str	r2, [sp, #8]
 855 0024 DA68     		ldr	r2, [r3, #12]
 856 0026 5869     		ldr	r0, [r3, #20]
 857 0028 0392     		str	r2, [sp, #12]
 858 002a 9F69     		ldr	r7, [r3, #24]
 859 002c B342     		cmp	r3, r6
 860 002e 0BD1     		bne	.L141
 861 0030 2A49     		ldr	r1, .L157+4
 862 0032 8A6A     		ldr	r2, [r1, #40]
 863 0034 9446     		mov	ip, r2
 864 0036 8022     		movs	r2, #128
 865 0038 6546     		mov	r5, ip
 866 003a 1206     		lsls	r2, r2, #24
 867 003c 2A43     		orrs	r2, r5
 868 003e 8A62     		str	r2, [r1, #40]
 869 0040 8A6A     		ldr	r2, [r1, #40]
 870 0042 5200     		lsls	r2, r2, #1
 871 0044 5208     		lsrs	r2, r2, #1
 872 0046 8A62     		str	r2, [r1, #40]
 873              	.L141:
 874 0048 0200     		movs	r2, r0
 875 004a 3A43     		orrs	r2, r7
 876 004c 37D0     		beq	.L143
 877 004e B342     		cmp	r3, r6
 878 0050 04D1     		bne	.L144
 879 0052 2249     		ldr	r1, .L157+4
 880 0054 224D     		ldr	r5, .L157+8
 881 0056 CA6C     		ldr	r2, [r1, #76]
 882 0058 2A40     		ands	r2, r5
 883 005a CA64     		str	r2, [r1, #76]
 884              	.L144:
 885 005c 0028     		cmp	r0, #0
 886 005e 10D0     		beq	.L145
 887 0060 0122     		movs	r2, #1
 888 0062 1969     		ldr	r1, [r3, #16]
 889 0064 0A43     		orrs	r2, r1
 890 0066 1A61     		str	r2, [r3, #16]
 891 0068 0821     		movs	r1, #8
 892 006a 5861     		str	r0, [r3, #20]
 893 006c 2000     		movs	r0, r4
 894 006e FFF7FEFF 		bl	LPTIM_WaitForFlag
 895 0072 0328     		cmp	r0, #3
 896 0074 02D1     		bne	.L146
 897 0076 2300     		movs	r3, r4
 898 0078 2E33     		adds	r3, r3, #46
 899 007a 1870     		strb	r0, [r3]
 900              	.L146:
ARM GAS  /tmp/ccNO2zsr.s 			page 16


 901 007c 0822     		movs	r2, #8
 902 007e 2368     		ldr	r3, [r4]
 903 0080 5A60     		str	r2, [r3, #4]
 904              	.L145:
 905 0082 002F     		cmp	r7, #0
 906 0084 11D0     		beq	.L147
 907 0086 0122     		movs	r2, #1
 908 0088 2368     		ldr	r3, [r4]
 909 008a 2000     		movs	r0, r4
 910 008c 1969     		ldr	r1, [r3, #16]
 911 008e 0A43     		orrs	r2, r1
 912 0090 1A61     		str	r2, [r3, #16]
 913 0092 1021     		movs	r1, #16
 914 0094 9F61     		str	r7, [r3, #24]
 915 0096 FFF7FEFF 		bl	LPTIM_WaitForFlag
 916 009a 0328     		cmp	r0, #3
 917 009c 02D1     		bne	.L148
 918 009e 2300     		movs	r3, r4
 919 00a0 2E33     		adds	r3, r3, #46
 920 00a2 1870     		strb	r0, [r3]
 921              	.L148:
 922 00a4 1022     		movs	r2, #16
 923 00a6 2368     		ldr	r3, [r4]
 924 00a8 5A60     		str	r2, [r3, #4]
 925              	.L147:
 926 00aa 2368     		ldr	r3, [r4]
 927 00ac B342     		cmp	r3, r6
 928 00ae 06D1     		bne	.L143
 929 00b0 0A4A     		ldr	r2, .L157+4
 930 00b2 0B49     		ldr	r1, .L157+8
 931 00b4 D36C     		ldr	r3, [r2, #76]
 932 00b6 019D     		ldr	r5, [sp, #4]
 933 00b8 0B40     		ands	r3, r1
 934 00ba 1D43     		orrs	r5, r3
 935 00bc D564     		str	r5, [r2, #76]
 936              	.L143:
 937 00be 0121     		movs	r1, #1
 938 00c0 2368     		ldr	r3, [r4]
 939 00c2 1A69     		ldr	r2, [r3, #16]
 940 00c4 8A43     		bics	r2, r1
 941 00c6 1A61     		str	r2, [r3, #16]
 942 00c8 029A     		ldr	r2, [sp, #8]
 943 00ca 9A60     		str	r2, [r3, #8]
 944 00cc 039A     		ldr	r2, [sp, #12]
 945 00ce DA60     		str	r2, [r3, #12]
 946              		.syntax divided
 947              	@ 198 "bsp_l0/mcu_drivers/cmsis/Core/Include/cmsis_gcc.h" 1
 948 00d0 62B6     		cpsie i
 949              	@ 0 "" 2
 950              		.thumb
 951              		.syntax unified
 952 00d2 05B0     		add	sp, sp, #20
 953              		@ sp needed
 954 00d4 F0BD     		pop	{r4, r5, r6, r7, pc}
 955              	.L158:
 956 00d6 C046     		.align	2
 957              	.L157:
ARM GAS  /tmp/ccNO2zsr.s 			page 17


 958 00d8 007C0040 		.word	1073773568
 959 00dc 00100240 		.word	1073876992
 960 00e0 FFFFF3FF 		.word	-786433
 962              		.section	.text.HAL_LPTIM_DeInit,"ax",%progbits
 963              		.align	1
 964              		.global	HAL_LPTIM_DeInit
 965              		.syntax unified
 966              		.code	16
 967              		.thumb_func
 968              		.fpu softvfp
 970              	HAL_LPTIM_DeInit:
 971              		@ args = 0, pretend = 0, frame = 0
 972              		@ frame_needed = 0, uses_anonymous_args = 0
 973 0000 70B5     		push	{r4, r5, r6, lr}
 974 0002 0400     		movs	r4, r0
 975 0004 0120     		movs	r0, #1
 976 0006 002C     		cmp	r4, #0
 977 0008 11D0     		beq	.L160
 978 000a 2500     		movs	r5, r4
 979 000c 0223     		movs	r3, #2
 980 000e 2E35     		adds	r5, r5, #46
 981 0010 2000     		movs	r0, r4
 982 0012 2B70     		strb	r3, [r5]
 983 0014 FFF7FEFF 		bl	LPTIM_Disable
 984 0018 2B78     		ldrb	r3, [r5]
 985 001a D8B2     		uxtb	r0, r3
 986 001c 032B     		cmp	r3, #3
 987 001e 06D0     		beq	.L160
 988 0020 2000     		movs	r0, r4
 989 0022 FFF7FEFF 		bl	HAL_LPTIM_MspDeInit
 990 0026 0020     		movs	r0, #0
 991 0028 2D34     		adds	r4, r4, #45
 992 002a 2870     		strb	r0, [r5]
 993 002c 2070     		strb	r0, [r4]
 994              	.L160:
 995              		@ sp needed
 996 002e 70BD     		pop	{r4, r5, r6, pc}
 998              		.section	.text.HAL_LPTIM_PWM_Stop,"ax",%progbits
 999              		.align	1
 1000              		.global	HAL_LPTIM_PWM_Stop
 1001              		.syntax unified
 1002              		.code	16
 1003              		.thumb_func
 1004              		.fpu softvfp
 1006              	HAL_LPTIM_PWM_Stop:
 1007              		@ args = 0, pretend = 0, frame = 0
 1008              		@ frame_needed = 0, uses_anonymous_args = 0
 1009 0000 10B5     		push	{r4, lr}
 1010 0002 0400     		movs	r4, r0
 1011 0004 0223     		movs	r3, #2
 1012 0006 2E34     		adds	r4, r4, #46
 1013 0008 2370     		strb	r3, [r4]
 1014 000a FFF7FEFF 		bl	LPTIM_Disable
 1015 000e 2378     		ldrb	r3, [r4]
 1016 0010 D8B2     		uxtb	r0, r3
 1017 0012 032B     		cmp	r3, #3
 1018 0014 02D0     		beq	.L166
ARM GAS  /tmp/ccNO2zsr.s 			page 18


 1019 0016 0123     		movs	r3, #1
 1020 0018 0020     		movs	r0, #0
 1021 001a 2370     		strb	r3, [r4]
 1022              	.L166:
 1023              		@ sp needed
 1024 001c 10BD     		pop	{r4, pc}
 1026              		.section	.text.HAL_LPTIM_OnePulse_Stop,"ax",%progbits
 1027              		.align	1
 1028              		.global	HAL_LPTIM_OnePulse_Stop
 1029              		.syntax unified
 1030              		.code	16
 1031              		.thumb_func
 1032              		.fpu softvfp
 1034              	HAL_LPTIM_OnePulse_Stop:
 1035              		@ args = 0, pretend = 0, frame = 0
 1036              		@ frame_needed = 0, uses_anonymous_args = 0
 1037 0000 10B5     		push	{r4, lr}
 1038 0002 FFF7FEFF 		bl	HAL_LPTIM_PWM_Stop
 1039              		@ sp needed
 1040 0006 10BD     		pop	{r4, pc}
 1042              		.section	.text.HAL_LPTIM_SetOnce_Stop,"ax",%progbits
 1043              		.align	1
 1044              		.global	HAL_LPTIM_SetOnce_Stop
 1045              		.syntax unified
 1046              		.code	16
 1047              		.thumb_func
 1048              		.fpu softvfp
 1050              	HAL_LPTIM_SetOnce_Stop:
 1051              		@ args = 0, pretend = 0, frame = 0
 1052              		@ frame_needed = 0, uses_anonymous_args = 0
 1053 0000 10B5     		push	{r4, lr}
 1054 0002 FFF7FEFF 		bl	HAL_LPTIM_PWM_Stop
 1055              		@ sp needed
 1056 0006 10BD     		pop	{r4, pc}
 1058              		.section	.text.HAL_LPTIM_Counter_Stop,"ax",%progbits
 1059              		.align	1
 1060              		.global	HAL_LPTIM_Counter_Stop
 1061              		.syntax unified
 1062              		.code	16
 1063              		.thumb_func
 1064              		.fpu softvfp
 1066              	HAL_LPTIM_Counter_Stop:
 1067              		@ args = 0, pretend = 0, frame = 0
 1068              		@ frame_needed = 0, uses_anonymous_args = 0
 1069 0000 10B5     		push	{r4, lr}
 1070 0002 FFF7FEFF 		bl	HAL_LPTIM_PWM_Stop
 1071              		@ sp needed
 1072 0006 10BD     		pop	{r4, pc}
 1074              		.section	.text.HAL_LPTIM_PWM_Start_IT,"ax",%progbits
 1075              		.align	1
 1076              		.global	HAL_LPTIM_PWM_Start_IT
 1077              		.syntax unified
 1078              		.code	16
 1079              		.thumb_func
 1080              		.fpu softvfp
 1082              	HAL_LPTIM_PWM_Start_IT:
 1083              		@ args = 0, pretend = 0, frame = 8
ARM GAS  /tmp/ccNO2zsr.s 			page 19


 1084              		@ frame_needed = 0, uses_anonymous_args = 0
 1085 0000 F7B5     		push	{r0, r1, r2, r4, r5, r6, r7, lr}
 1086 0002 0700     		movs	r7, r0
 1087 0004 0223     		movs	r3, #2
 1088 0006 2E37     		adds	r7, r7, #46
 1089 0008 3B70     		strb	r3, [r7]
 1090 000a 0368     		ldr	r3, [r0]
 1091 000c 0400     		movs	r4, r0
 1092 000e 0192     		str	r2, [sp, #4]
 1093 0010 2248     		ldr	r0, .L184
 1094 0012 DA68     		ldr	r2, [r3, #12]
 1095 0014 1026     		movs	r6, #16
 1096 0016 0240     		ands	r2, r0
 1097 0018 0120     		movs	r0, #1
 1098 001a DA60     		str	r2, [r3, #12]
 1099 001c 1A69     		ldr	r2, [r3, #16]
 1100 001e 0243     		orrs	r2, r0
 1101 0020 1A61     		str	r2, [r3, #16]
 1102 0022 2000     		movs	r0, r4
 1103 0024 5E60     		str	r6, [r3, #4]
 1104 0026 9961     		str	r1, [r3, #24]
 1105 0028 3100     		movs	r1, r6
 1106 002a FFF7FEFF 		bl	LPTIM_WaitForFlag
 1107 002e 0328     		cmp	r0, #3
 1108 0030 01D1     		bne	.L174
 1109              	.L176:
 1110 0032 0320     		movs	r0, #3
 1111              	.L175:
 1112              		@ sp needed
 1113 0034 FEBD     		pop	{r1, r2, r3, r4, r5, r6, r7, pc}
 1114              	.L174:
 1115 0036 0825     		movs	r5, #8
 1116 0038 2368     		ldr	r3, [r4]
 1117 003a 019A     		ldr	r2, [sp, #4]
 1118 003c 5D60     		str	r5, [r3, #4]
 1119 003e 2900     		movs	r1, r5
 1120 0040 2000     		movs	r0, r4
 1121 0042 5A61     		str	r2, [r3, #20]
 1122 0044 FFF7FEFF 		bl	LPTIM_WaitForFlag
 1123 0048 0328     		cmp	r0, #3
 1124 004a F2D0     		beq	.L176
 1125 004c 2000     		movs	r0, r4
 1126 004e FFF7FEFF 		bl	LPTIM_Disable
 1127 0052 3B78     		ldrb	r3, [r7]
 1128 0054 032B     		cmp	r3, #3
 1129 0056 ECD0     		beq	.L176
 1130 0058 0221     		movs	r1, #2
 1131 005a 2368     		ldr	r3, [r4]
 1132 005c 9A68     		ldr	r2, [r3, #8]
 1133 005e 1643     		orrs	r6, r2
 1134 0060 9E60     		str	r6, [r3, #8]
 1135 0062 9A68     		ldr	r2, [r3, #8]
 1136 0064 1543     		orrs	r5, r2
 1137 0066 9D60     		str	r5, [r3, #8]
 1138 0068 9A68     		ldr	r2, [r3, #8]
 1139 006a 0A43     		orrs	r2, r1
 1140 006c 9A60     		str	r2, [r3, #8]
ARM GAS  /tmp/ccNO2zsr.s 			page 20


 1141 006e 9A68     		ldr	r2, [r3, #8]
 1142 0070 0139     		subs	r1, r1, #1
 1143 0072 0A43     		orrs	r2, r1
 1144 0074 9A60     		str	r2, [r3, #8]
 1145 0076 6169     		ldr	r1, [r4, #20]
 1146 0078 094A     		ldr	r2, .L184+4
 1147 007a 9142     		cmp	r1, r2
 1148 007c 03D0     		beq	.L177
 1149 007e 0422     		movs	r2, #4
 1150 0080 9968     		ldr	r1, [r3, #8]
 1151 0082 0A43     		orrs	r2, r1
 1152 0084 9A60     		str	r2, [r3, #8]
 1153              	.L177:
 1154 0086 0121     		movs	r1, #1
 1155 0088 1A69     		ldr	r2, [r3, #16]
 1156 008a 0A43     		orrs	r2, r1
 1157 008c 1A61     		str	r2, [r3, #16]
 1158 008e 0422     		movs	r2, #4
 1159 0090 1869     		ldr	r0, [r3, #16]
 1160 0092 0243     		orrs	r2, r0
 1161 0094 1A61     		str	r2, [r3, #16]
 1162 0096 0020     		movs	r0, #0
 1163 0098 3970     		strb	r1, [r7]
 1164 009a CBE7     		b	.L175
 1165              	.L185:
 1166              		.align	2
 1167              	.L184:
 1168 009c FFFFEFFF 		.word	-1048577
 1169 00a0 FFFF0000 		.word	65535
 1171              		.section	.text.HAL_LPTIM_PWM_Stop_IT,"ax",%progbits
 1172              		.align	1
 1173              		.global	HAL_LPTIM_PWM_Stop_IT
 1174              		.syntax unified
 1175              		.code	16
 1176              		.thumb_func
 1177              		.fpu softvfp
 1179              	HAL_LPTIM_PWM_Stop_IT:
 1180              		@ args = 0, pretend = 0, frame = 0
 1181              		@ frame_needed = 0, uses_anonymous_args = 0
 1182 0000 70B5     		push	{r4, r5, r6, lr}
 1183 0002 0500     		movs	r5, r0
 1184 0004 0226     		movs	r6, #2
 1185 0006 2E35     		adds	r5, r5, #46
 1186 0008 2E70     		strb	r6, [r5]
 1187 000a 0400     		movs	r4, r0
 1188 000c FFF7FEFF 		bl	LPTIM_Disable
 1189 0010 2B78     		ldrb	r3, [r5]
 1190 0012 D8B2     		uxtb	r0, r3
 1191 0014 032B     		cmp	r3, #3
 1192 0016 1AD0     		beq	.L187
 1193 0018 1021     		movs	r1, #16
 1194 001a 2368     		ldr	r3, [r4]
 1195 001c 9A68     		ldr	r2, [r3, #8]
 1196 001e 8A43     		bics	r2, r1
 1197 0020 9A60     		str	r2, [r3, #8]
 1198 0022 9A68     		ldr	r2, [r3, #8]
 1199 0024 0839     		subs	r1, r1, #8
ARM GAS  /tmp/ccNO2zsr.s 			page 21


 1200 0026 8A43     		bics	r2, r1
 1201 0028 9A60     		str	r2, [r3, #8]
 1202 002a 9A68     		ldr	r2, [r3, #8]
 1203 002c 0739     		subs	r1, r1, #7
 1204 002e B243     		bics	r2, r6
 1205 0030 9A60     		str	r2, [r3, #8]
 1206 0032 9A68     		ldr	r2, [r3, #8]
 1207 0034 8A43     		bics	r2, r1
 1208 0036 9A60     		str	r2, [r3, #8]
 1209 0038 6169     		ldr	r1, [r4, #20]
 1210 003a 054A     		ldr	r2, .L192
 1211 003c 9142     		cmp	r1, r2
 1212 003e 03D0     		beq	.L188
 1213 0040 0421     		movs	r1, #4
 1214 0042 9A68     		ldr	r2, [r3, #8]
 1215 0044 8A43     		bics	r2, r1
 1216 0046 9A60     		str	r2, [r3, #8]
 1217              	.L188:
 1218 0048 0123     		movs	r3, #1
 1219 004a 0020     		movs	r0, #0
 1220 004c 2B70     		strb	r3, [r5]
 1221              	.L187:
 1222              		@ sp needed
 1223 004e 70BD     		pop	{r4, r5, r6, pc}
 1224              	.L193:
 1225              		.align	2
 1226              	.L192:
 1227 0050 FFFF0000 		.word	65535
 1229              		.section	.text.HAL_LPTIM_OnePulse_Stop_IT,"ax",%progbits
 1230              		.align	1
 1231              		.global	HAL_LPTIM_OnePulse_Stop_IT
 1232              		.syntax unified
 1233              		.code	16
 1234              		.thumb_func
 1235              		.fpu softvfp
 1237              	HAL_LPTIM_OnePulse_Stop_IT:
 1238              		@ args = 0, pretend = 0, frame = 0
 1239              		@ frame_needed = 0, uses_anonymous_args = 0
 1240 0000 10B5     		push	{r4, lr}
 1241 0002 FFF7FEFF 		bl	HAL_LPTIM_PWM_Stop_IT
 1242              		@ sp needed
 1243 0006 10BD     		pop	{r4, pc}
 1245              		.section	.text.HAL_LPTIM_SetOnce_Stop_IT,"ax",%progbits
 1246              		.align	1
 1247              		.global	HAL_LPTIM_SetOnce_Stop_IT
 1248              		.syntax unified
 1249              		.code	16
 1250              		.thumb_func
 1251              		.fpu softvfp
 1253              	HAL_LPTIM_SetOnce_Stop_IT:
 1254              		@ args = 0, pretend = 0, frame = 0
 1255              		@ frame_needed = 0, uses_anonymous_args = 0
 1256 0000 10B5     		push	{r4, lr}
 1257 0002 FFF7FEFF 		bl	HAL_LPTIM_PWM_Stop_IT
 1258              		@ sp needed
 1259 0006 10BD     		pop	{r4, pc}
 1261              		.section	.text.HAL_LPTIM_OnePulse_Start_IT,"ax",%progbits
ARM GAS  /tmp/ccNO2zsr.s 			page 22


 1262              		.align	1
 1263              		.global	HAL_LPTIM_OnePulse_Start_IT
 1264              		.syntax unified
 1265              		.code	16
 1266              		.thumb_func
 1267              		.fpu softvfp
 1269              	HAL_LPTIM_OnePulse_Start_IT:
 1270              		@ args = 0, pretend = 0, frame = 8
 1271              		@ frame_needed = 0, uses_anonymous_args = 0
 1272 0000 F7B5     		push	{r0, r1, r2, r4, r5, r6, r7, lr}
 1273 0002 0700     		movs	r7, r0
 1274 0004 0223     		movs	r3, #2
 1275 0006 2E37     		adds	r7, r7, #46
 1276 0008 3B70     		strb	r3, [r7]
 1277 000a 0368     		ldr	r3, [r0]
 1278 000c 0400     		movs	r4, r0
 1279 000e 0192     		str	r2, [sp, #4]
 1280 0010 2248     		ldr	r0, .L207
 1281 0012 DA68     		ldr	r2, [r3, #12]
 1282 0014 1026     		movs	r6, #16
 1283 0016 0240     		ands	r2, r0
 1284 0018 0120     		movs	r0, #1
 1285 001a DA60     		str	r2, [r3, #12]
 1286 001c 1A69     		ldr	r2, [r3, #16]
 1287 001e 0243     		orrs	r2, r0
 1288 0020 1A61     		str	r2, [r3, #16]
 1289 0022 2000     		movs	r0, r4
 1290 0024 5E60     		str	r6, [r3, #4]
 1291 0026 9961     		str	r1, [r3, #24]
 1292 0028 3100     		movs	r1, r6
 1293 002a FFF7FEFF 		bl	LPTIM_WaitForFlag
 1294 002e 0328     		cmp	r0, #3
 1295 0030 01D1     		bne	.L197
 1296              	.L199:
 1297 0032 0320     		movs	r0, #3
 1298              	.L198:
 1299              		@ sp needed
 1300 0034 FEBD     		pop	{r1, r2, r3, r4, r5, r6, r7, pc}
 1301              	.L197:
 1302 0036 0825     		movs	r5, #8
 1303 0038 2368     		ldr	r3, [r4]
 1304 003a 019A     		ldr	r2, [sp, #4]
 1305 003c 5D60     		str	r5, [r3, #4]
 1306 003e 2900     		movs	r1, r5
 1307 0040 2000     		movs	r0, r4
 1308 0042 5A61     		str	r2, [r3, #20]
 1309 0044 FFF7FEFF 		bl	LPTIM_WaitForFlag
 1310 0048 0328     		cmp	r0, #3
 1311 004a F2D0     		beq	.L199
 1312 004c 2000     		movs	r0, r4
 1313 004e FFF7FEFF 		bl	LPTIM_Disable
 1314 0052 3B78     		ldrb	r3, [r7]
 1315 0054 032B     		cmp	r3, #3
 1316 0056 ECD0     		beq	.L199
 1317 0058 0221     		movs	r1, #2
 1318 005a 2368     		ldr	r3, [r4]
 1319 005c 9A68     		ldr	r2, [r3, #8]
ARM GAS  /tmp/ccNO2zsr.s 			page 23


 1320 005e 1643     		orrs	r6, r2
 1321 0060 9E60     		str	r6, [r3, #8]
 1322 0062 9A68     		ldr	r2, [r3, #8]
 1323 0064 1543     		orrs	r5, r2
 1324 0066 9D60     		str	r5, [r3, #8]
 1325 0068 9A68     		ldr	r2, [r3, #8]
 1326 006a 0A43     		orrs	r2, r1
 1327 006c 9A60     		str	r2, [r3, #8]
 1328 006e 9A68     		ldr	r2, [r3, #8]
 1329 0070 0139     		subs	r1, r1, #1
 1330 0072 0A43     		orrs	r2, r1
 1331 0074 9A60     		str	r2, [r3, #8]
 1332 0076 6169     		ldr	r1, [r4, #20]
 1333 0078 094A     		ldr	r2, .L207+4
 1334 007a 9142     		cmp	r1, r2
 1335 007c 03D0     		beq	.L200
 1336 007e 0422     		movs	r2, #4
 1337 0080 9968     		ldr	r1, [r3, #8]
 1338 0082 0A43     		orrs	r2, r1
 1339 0084 9A60     		str	r2, [r3, #8]
 1340              	.L200:
 1341 0086 0121     		movs	r1, #1
 1342 0088 1A69     		ldr	r2, [r3, #16]
 1343 008a 0A43     		orrs	r2, r1
 1344 008c 1A61     		str	r2, [r3, #16]
 1345 008e 0222     		movs	r2, #2
 1346 0090 1869     		ldr	r0, [r3, #16]
 1347 0092 0243     		orrs	r2, r0
 1348 0094 1A61     		str	r2, [r3, #16]
 1349 0096 0020     		movs	r0, #0
 1350 0098 3970     		strb	r1, [r7]
 1351 009a CBE7     		b	.L198
 1352              	.L208:
 1353              		.align	2
 1354              	.L207:
 1355 009c FFFFEFFF 		.word	-1048577
 1356 00a0 FFFF0000 		.word	65535
 1358              		.section	.text.HAL_LPTIM_SetOnce_Start_IT,"ax",%progbits
 1359              		.align	1
 1360              		.global	HAL_LPTIM_SetOnce_Start_IT
 1361              		.syntax unified
 1362              		.code	16
 1363              		.thumb_func
 1364              		.fpu softvfp
 1366              	HAL_LPTIM_SetOnce_Start_IT:
 1367              		@ args = 0, pretend = 0, frame = 8
 1368              		@ frame_needed = 0, uses_anonymous_args = 0
 1369 0000 F7B5     		push	{r0, r1, r2, r4, r5, r6, r7, lr}
 1370 0002 0700     		movs	r7, r0
 1371 0004 0223     		movs	r3, #2
 1372 0006 0192     		str	r2, [sp, #4]
 1373 0008 8022     		movs	r2, #128
 1374 000a 2E37     		adds	r7, r7, #46
 1375 000c 3B70     		strb	r3, [r7]
 1376 000e 0368     		ldr	r3, [r0]
 1377 0010 0400     		movs	r4, r0
 1378 0012 D868     		ldr	r0, [r3, #12]
ARM GAS  /tmp/ccNO2zsr.s 			page 24


 1379 0014 5203     		lsls	r2, r2, #13
 1380 0016 0243     		orrs	r2, r0
 1381 0018 0120     		movs	r0, #1
 1382 001a 1026     		movs	r6, #16
 1383 001c DA60     		str	r2, [r3, #12]
 1384 001e 1A69     		ldr	r2, [r3, #16]
 1385 0020 0243     		orrs	r2, r0
 1386 0022 1A61     		str	r2, [r3, #16]
 1387 0024 2000     		movs	r0, r4
 1388 0026 5E60     		str	r6, [r3, #4]
 1389 0028 9961     		str	r1, [r3, #24]
 1390 002a 3100     		movs	r1, r6
 1391 002c FFF7FEFF 		bl	LPTIM_WaitForFlag
 1392 0030 0328     		cmp	r0, #3
 1393 0032 01D1     		bne	.L210
 1394              	.L212:
 1395 0034 0320     		movs	r0, #3
 1396              	.L211:
 1397              		@ sp needed
 1398 0036 FEBD     		pop	{r1, r2, r3, r4, r5, r6, r7, pc}
 1399              	.L210:
 1400 0038 0825     		movs	r5, #8
 1401 003a 2368     		ldr	r3, [r4]
 1402 003c 019A     		ldr	r2, [sp, #4]
 1403 003e 5D60     		str	r5, [r3, #4]
 1404 0040 2900     		movs	r1, r5
 1405 0042 2000     		movs	r0, r4
 1406 0044 5A61     		str	r2, [r3, #20]
 1407 0046 FFF7FEFF 		bl	LPTIM_WaitForFlag
 1408 004a 0328     		cmp	r0, #3
 1409 004c F2D0     		beq	.L212
 1410 004e 2000     		movs	r0, r4
 1411 0050 FFF7FEFF 		bl	LPTIM_Disable
 1412 0054 3B78     		ldrb	r3, [r7]
 1413 0056 032B     		cmp	r3, #3
 1414 0058 ECD0     		beq	.L212
 1415 005a 0221     		movs	r1, #2
 1416 005c 2368     		ldr	r3, [r4]
 1417 005e 9A68     		ldr	r2, [r3, #8]
 1418 0060 1643     		orrs	r6, r2
 1419 0062 9E60     		str	r6, [r3, #8]
 1420 0064 9A68     		ldr	r2, [r3, #8]
 1421 0066 1543     		orrs	r5, r2
 1422 0068 9D60     		str	r5, [r3, #8]
 1423 006a 9A68     		ldr	r2, [r3, #8]
 1424 006c 0A43     		orrs	r2, r1
 1425 006e 9A60     		str	r2, [r3, #8]
 1426 0070 9A68     		ldr	r2, [r3, #8]
 1427 0072 0139     		subs	r1, r1, #1
 1428 0074 0A43     		orrs	r2, r1
 1429 0076 9A60     		str	r2, [r3, #8]
 1430 0078 6169     		ldr	r1, [r4, #20]
 1431 007a 094A     		ldr	r2, .L220
 1432 007c 9142     		cmp	r1, r2
 1433 007e 03D0     		beq	.L213
 1434 0080 0422     		movs	r2, #4
 1435 0082 9968     		ldr	r1, [r3, #8]
ARM GAS  /tmp/ccNO2zsr.s 			page 25


 1436 0084 0A43     		orrs	r2, r1
 1437 0086 9A60     		str	r2, [r3, #8]
 1438              	.L213:
 1439 0088 0121     		movs	r1, #1
 1440 008a 1A69     		ldr	r2, [r3, #16]
 1441 008c 0A43     		orrs	r2, r1
 1442 008e 1A61     		str	r2, [r3, #16]
 1443 0090 0222     		movs	r2, #2
 1444 0092 1869     		ldr	r0, [r3, #16]
 1445 0094 0243     		orrs	r2, r0
 1446 0096 1A61     		str	r2, [r3, #16]
 1447 0098 0020     		movs	r0, #0
 1448 009a 3970     		strb	r1, [r7]
 1449 009c CBE7     		b	.L211
 1450              	.L221:
 1451 009e C046     		.align	2
 1452              	.L220:
 1453 00a0 FFFF0000 		.word	65535
 1455              		.section	.text.HAL_LPTIM_Encoder_Stop,"ax",%progbits
 1456              		.align	1
 1457              		.global	HAL_LPTIM_Encoder_Stop
 1458              		.syntax unified
 1459              		.code	16
 1460              		.thumb_func
 1461              		.fpu softvfp
 1463              	HAL_LPTIM_Encoder_Stop:
 1464              		@ args = 0, pretend = 0, frame = 0
 1465              		@ frame_needed = 0, uses_anonymous_args = 0
 1466 0000 70B5     		push	{r4, r5, r6, lr}
 1467 0002 0500     		movs	r5, r0
 1468 0004 0223     		movs	r3, #2
 1469 0006 2E35     		adds	r5, r5, #46
 1470 0008 2B70     		strb	r3, [r5]
 1471 000a 0400     		movs	r4, r0
 1472 000c FFF7FEFF 		bl	LPTIM_Disable
 1473 0010 2B78     		ldrb	r3, [r5]
 1474 0012 D8B2     		uxtb	r0, r3
 1475 0014 032B     		cmp	r3, #3
 1476 0016 07D0     		beq	.L223
 1477 0018 2268     		ldr	r2, [r4]
 1478 001a 0449     		ldr	r1, .L227
 1479 001c D368     		ldr	r3, [r2, #12]
 1480 001e 0020     		movs	r0, #0
 1481 0020 0B40     		ands	r3, r1
 1482 0022 D360     		str	r3, [r2, #12]
 1483 0024 0123     		movs	r3, #1
 1484 0026 2B70     		strb	r3, [r5]
 1485              	.L223:
 1486              		@ sp needed
 1487 0028 70BD     		pop	{r4, r5, r6, pc}
 1488              	.L228:
 1489 002a C046     		.align	2
 1490              	.L227:
 1491 002c FFFFFFFE 		.word	-16777217
 1493              		.section	.text.HAL_LPTIM_Encoder_Start_IT,"ax",%progbits
 1494              		.align	1
 1495              		.global	HAL_LPTIM_Encoder_Start_IT
ARM GAS  /tmp/ccNO2zsr.s 			page 26


 1496              		.syntax unified
 1497              		.code	16
 1498              		.thumb_func
 1499              		.fpu softvfp
 1501              	HAL_LPTIM_Encoder_Start_IT:
 1502              		@ args = 0, pretend = 0, frame = 0
 1503              		@ frame_needed = 0, uses_anonymous_args = 0
 1504 0000 70B5     		push	{r4, r5, r6, lr}
 1505 0002 0400     		movs	r4, r0
 1506 0004 2500     		movs	r5, r4
 1507 0006 0223     		movs	r3, #2
 1508 0008 0800     		movs	r0, r1
 1509 000a 0621     		movs	r1, #6
 1510 000c 2E35     		adds	r5, r5, #46
 1511 000e 2B70     		strb	r3, [r5]
 1512 0010 2368     		ldr	r3, [r4]
 1513 0012 0126     		movs	r6, #1
 1514 0014 DA68     		ldr	r2, [r3, #12]
 1515 0016 8A43     		bics	r2, r1
 1516 0018 E168     		ldr	r1, [r4, #12]
 1517 001a 0A43     		orrs	r2, r1
 1518 001c DA60     		str	r2, [r3, #12]
 1519 001e 8022     		movs	r2, #128
 1520 0020 D968     		ldr	r1, [r3, #12]
 1521 0022 5204     		lsls	r2, r2, #17
 1522 0024 0A43     		orrs	r2, r1
 1523 0026 1021     		movs	r1, #16
 1524 0028 DA60     		str	r2, [r3, #12]
 1525 002a 1A69     		ldr	r2, [r3, #16]
 1526 002c 3243     		orrs	r2, r6
 1527 002e 1A61     		str	r2, [r3, #16]
 1528 0030 5960     		str	r1, [r3, #4]
 1529 0032 9861     		str	r0, [r3, #24]
 1530 0034 2000     		movs	r0, r4
 1531 0036 FFF7FEFF 		bl	LPTIM_WaitForFlag
 1532 003a 0328     		cmp	r0, #3
 1533 003c 01D1     		bne	.L230
 1534              	.L232:
 1535 003e 0320     		movs	r0, #3
 1536              	.L231:
 1537              		@ sp needed
 1538 0040 70BD     		pop	{r4, r5, r6, pc}
 1539              	.L230:
 1540 0042 2000     		movs	r0, r4
 1541 0044 FFF7FEFF 		bl	LPTIM_Disable
 1542 0048 2B78     		ldrb	r3, [r5]
 1543 004a 032B     		cmp	r3, #3
 1544 004c F7D0     		beq	.L232
 1545 004e 4022     		movs	r2, #64
 1546 0050 2368     		ldr	r3, [r4]
 1547 0052 0020     		movs	r0, #0
 1548 0054 9968     		ldr	r1, [r3, #8]
 1549 0056 0A43     		orrs	r2, r1
 1550 0058 9A60     		str	r2, [r3, #8]
 1551 005a 2022     		movs	r2, #32
 1552 005c 9968     		ldr	r1, [r3, #8]
 1553 005e 0A43     		orrs	r2, r1
ARM GAS  /tmp/ccNO2zsr.s 			page 27


 1554 0060 9A60     		str	r2, [r3, #8]
 1555 0062 1A69     		ldr	r2, [r3, #16]
 1556 0064 3243     		orrs	r2, r6
 1557 0066 1A61     		str	r2, [r3, #16]
 1558 0068 0422     		movs	r2, #4
 1559 006a 1969     		ldr	r1, [r3, #16]
 1560 006c 0A43     		orrs	r2, r1
 1561 006e 1A61     		str	r2, [r3, #16]
 1562 0070 2E70     		strb	r6, [r5]
 1563 0072 E5E7     		b	.L231
 1565              		.section	.text.HAL_LPTIM_Encoder_Stop_IT,"ax",%progbits
 1566              		.align	1
 1567              		.global	HAL_LPTIM_Encoder_Stop_IT
 1568              		.syntax unified
 1569              		.code	16
 1570              		.thumb_func
 1571              		.fpu softvfp
 1573              	HAL_LPTIM_Encoder_Stop_IT:
 1574              		@ args = 0, pretend = 0, frame = 0
 1575              		@ frame_needed = 0, uses_anonymous_args = 0
 1576 0000 70B5     		push	{r4, r5, r6, lr}
 1577 0002 0500     		movs	r5, r0
 1578 0004 0223     		movs	r3, #2
 1579 0006 2E35     		adds	r5, r5, #46
 1580 0008 2B70     		strb	r3, [r5]
 1581 000a 0400     		movs	r4, r0
 1582 000c FFF7FEFF 		bl	LPTIM_Disable
 1583 0010 2B78     		ldrb	r3, [r5]
 1584 0012 D8B2     		uxtb	r0, r3
 1585 0014 032B     		cmp	r3, #3
 1586 0016 0FD0     		beq	.L237
 1587 0018 2368     		ldr	r3, [r4]
 1588 001a 0849     		ldr	r1, .L241
 1589 001c DA68     		ldr	r2, [r3, #12]
 1590 001e 0020     		movs	r0, #0
 1591 0020 0A40     		ands	r2, r1
 1592 0022 4021     		movs	r1, #64
 1593 0024 DA60     		str	r2, [r3, #12]
 1594 0026 9A68     		ldr	r2, [r3, #8]
 1595 0028 8A43     		bics	r2, r1
 1596 002a 9A60     		str	r2, [r3, #8]
 1597 002c 9A68     		ldr	r2, [r3, #8]
 1598 002e 2039     		subs	r1, r1, #32
 1599 0030 8A43     		bics	r2, r1
 1600 0032 9A60     		str	r2, [r3, #8]
 1601 0034 0123     		movs	r3, #1
 1602 0036 2B70     		strb	r3, [r5]
 1603              	.L237:
 1604              		@ sp needed
 1605 0038 70BD     		pop	{r4, r5, r6, pc}
 1606              	.L242:
 1607 003a C046     		.align	2
 1608              	.L241:
 1609 003c FFFFFFFE 		.word	-16777217
 1611              		.section	.text.HAL_LPTIM_TimeOut_Stop,"ax",%progbits
 1612              		.align	1
 1613              		.global	HAL_LPTIM_TimeOut_Stop
ARM GAS  /tmp/ccNO2zsr.s 			page 28


 1614              		.syntax unified
 1615              		.code	16
 1616              		.thumb_func
 1617              		.fpu softvfp
 1619              	HAL_LPTIM_TimeOut_Stop:
 1620              		@ args = 0, pretend = 0, frame = 0
 1621              		@ frame_needed = 0, uses_anonymous_args = 0
 1622 0000 70B5     		push	{r4, r5, r6, lr}
 1623 0002 0500     		movs	r5, r0
 1624 0004 0223     		movs	r3, #2
 1625 0006 2E35     		adds	r5, r5, #46
 1626 0008 2B70     		strb	r3, [r5]
 1627 000a 0400     		movs	r4, r0
 1628 000c FFF7FEFF 		bl	LPTIM_Disable
 1629 0010 2B78     		ldrb	r3, [r5]
 1630 0012 D8B2     		uxtb	r0, r3
 1631 0014 032B     		cmp	r3, #3
 1632 0016 07D0     		beq	.L244
 1633 0018 2268     		ldr	r2, [r4]
 1634 001a 0449     		ldr	r1, .L248
 1635 001c D368     		ldr	r3, [r2, #12]
 1636 001e 0020     		movs	r0, #0
 1637 0020 0B40     		ands	r3, r1
 1638 0022 D360     		str	r3, [r2, #12]
 1639 0024 0123     		movs	r3, #1
 1640 0026 2B70     		strb	r3, [r5]
 1641              	.L244:
 1642              		@ sp needed
 1643 0028 70BD     		pop	{r4, r5, r6, pc}
 1644              	.L249:
 1645 002a C046     		.align	2
 1646              	.L248:
 1647 002c FFFFF7FF 		.word	-524289
 1649              		.section	.text.HAL_LPTIM_TimeOut_Start_IT,"ax",%progbits
 1650              		.align	1
 1651              		.global	HAL_LPTIM_TimeOut_Start_IT
 1652              		.syntax unified
 1653              		.code	16
 1654              		.thumb_func
 1655              		.fpu softvfp
 1657              	HAL_LPTIM_TimeOut_Start_IT:
 1658              		@ args = 0, pretend = 0, frame = 0
 1659              		@ frame_needed = 0, uses_anonymous_args = 0
 1660 0000 F8B5     		push	{r3, r4, r5, r6, r7, lr}
 1661 0002 0400     		movs	r4, r0
 1662 0004 2600     		movs	r6, r4
 1663 0006 0223     		movs	r3, #2
 1664 0008 2E36     		adds	r6, r6, #46
 1665 000a 3370     		strb	r3, [r6]
 1666 000c 8023     		movs	r3, #128
 1667 000e 1700     		movs	r7, r2
 1668 0010 1B4A     		ldr	r2, .L260
 1669 0012 0800     		movs	r0, r1
 1670 0014 1168     		ldr	r1, [r2]
 1671 0016 9B05     		lsls	r3, r3, #22
 1672 0018 0B43     		orrs	r3, r1
 1673 001a 1360     		str	r3, [r2]
ARM GAS  /tmp/ccNO2zsr.s 			page 29


 1674 001c 8022     		movs	r2, #128
 1675 001e 2368     		ldr	r3, [r4]
 1676 0020 0125     		movs	r5, #1
 1677 0022 D968     		ldr	r1, [r3, #12]
 1678 0024 1203     		lsls	r2, r2, #12
 1679 0026 0A43     		orrs	r2, r1
 1680 0028 1021     		movs	r1, #16
 1681 002a DA60     		str	r2, [r3, #12]
 1682 002c 1A69     		ldr	r2, [r3, #16]
 1683 002e 2A43     		orrs	r2, r5
 1684 0030 1A61     		str	r2, [r3, #16]
 1685 0032 5960     		str	r1, [r3, #4]
 1686 0034 9861     		str	r0, [r3, #24]
 1687 0036 2000     		movs	r0, r4
 1688 0038 FFF7FEFF 		bl	LPTIM_WaitForFlag
 1689 003c 0328     		cmp	r0, #3
 1690 003e 01D1     		bne	.L251
 1691              	.L253:
 1692 0040 0320     		movs	r0, #3
 1693              	.L252:
 1694              		@ sp needed
 1695 0042 F8BD     		pop	{r3, r4, r5, r6, r7, pc}
 1696              	.L251:
 1697 0044 0821     		movs	r1, #8
 1698 0046 2368     		ldr	r3, [r4]
 1699 0048 2000     		movs	r0, r4
 1700 004a 5960     		str	r1, [r3, #4]
 1701 004c 5F61     		str	r7, [r3, #20]
 1702 004e FFF7FEFF 		bl	LPTIM_WaitForFlag
 1703 0052 0328     		cmp	r0, #3
 1704 0054 F4D0     		beq	.L253
 1705 0056 2000     		movs	r0, r4
 1706 0058 FFF7FEFF 		bl	LPTIM_Disable
 1707 005c 3378     		ldrb	r3, [r6]
 1708 005e 032B     		cmp	r3, #3
 1709 0060 EED0     		beq	.L253
 1710 0062 2368     		ldr	r3, [r4]
 1711 0064 0020     		movs	r0, #0
 1712 0066 9A68     		ldr	r2, [r3, #8]
 1713 0068 2A43     		orrs	r2, r5
 1714 006a 9A60     		str	r2, [r3, #8]
 1715 006c 1A69     		ldr	r2, [r3, #16]
 1716 006e 2A43     		orrs	r2, r5
 1717 0070 1A61     		str	r2, [r3, #16]
 1718 0072 0422     		movs	r2, #4
 1719 0074 1969     		ldr	r1, [r3, #16]
 1720 0076 0A43     		orrs	r2, r1
 1721 0078 1A61     		str	r2, [r3, #16]
 1722 007a 3570     		strb	r5, [r6]
 1723 007c E1E7     		b	.L252
 1724              	.L261:
 1725 007e C046     		.align	2
 1726              	.L260:
 1727 0080 00040140 		.word	1073808384
 1729              		.section	.text.HAL_LPTIM_TimeOut_Stop_IT,"ax",%progbits
 1730              		.align	1
 1731              		.global	HAL_LPTIM_TimeOut_Stop_IT
ARM GAS  /tmp/ccNO2zsr.s 			page 30


 1732              		.syntax unified
 1733              		.code	16
 1734              		.thumb_func
 1735              		.fpu softvfp
 1737              	HAL_LPTIM_TimeOut_Stop_IT:
 1738              		@ args = 0, pretend = 0, frame = 0
 1739              		@ frame_needed = 0, uses_anonymous_args = 0
 1740 0000 70B5     		push	{r4, r5, r6, lr}
 1741 0002 0500     		movs	r5, r0
 1742 0004 0223     		movs	r3, #2
 1743 0006 0D4A     		ldr	r2, .L267
 1744 0008 2E35     		adds	r5, r5, #46
 1745 000a 2B70     		strb	r3, [r5]
 1746 000c 1368     		ldr	r3, [r2]
 1747 000e 0C49     		ldr	r1, .L267+4
 1748 0010 0400     		movs	r4, r0
 1749 0012 0B40     		ands	r3, r1
 1750 0014 1360     		str	r3, [r2]
 1751 0016 FFF7FEFF 		bl	LPTIM_Disable
 1752 001a 2B78     		ldrb	r3, [r5]
 1753 001c D8B2     		uxtb	r0, r3
 1754 001e 032B     		cmp	r3, #3
 1755 0020 0AD0     		beq	.L263
 1756 0022 2368     		ldr	r3, [r4]
 1757 0024 0749     		ldr	r1, .L267+8
 1758 0026 DA68     		ldr	r2, [r3, #12]
 1759 0028 0020     		movs	r0, #0
 1760 002a 0A40     		ands	r2, r1
 1761 002c 0121     		movs	r1, #1
 1762 002e DA60     		str	r2, [r3, #12]
 1763 0030 9A68     		ldr	r2, [r3, #8]
 1764 0032 8A43     		bics	r2, r1
 1765 0034 9A60     		str	r2, [r3, #8]
 1766 0036 2970     		strb	r1, [r5]
 1767              	.L263:
 1768              		@ sp needed
 1769 0038 70BD     		pop	{r4, r5, r6, pc}
 1770              	.L268:
 1771 003a C046     		.align	2
 1772              	.L267:
 1773 003c 00040140 		.word	1073808384
 1774 0040 FFFFFFDF 		.word	-536870913
 1775 0044 FFFFF7FF 		.word	-524289
 1777              		.section	.text.HAL_LPTIM_Counter_Start_IT,"ax",%progbits
 1778              		.align	1
 1779              		.global	HAL_LPTIM_Counter_Start_IT
 1780              		.syntax unified
 1781              		.code	16
 1782              		.thumb_func
 1783              		.fpu softvfp
 1785              	HAL_LPTIM_Counter_Start_IT:
 1786              		@ args = 0, pretend = 0, frame = 0
 1787              		@ frame_needed = 0, uses_anonymous_args = 0
 1788 0000 F8B5     		push	{r3, r4, r5, r6, r7, lr}
 1789 0002 0600     		movs	r6, r0
 1790 0004 0223     		movs	r3, #2
 1791 0006 2E36     		adds	r6, r6, #46
ARM GAS  /tmp/ccNO2zsr.s 			page 31


 1792 0008 3370     		strb	r3, [r6]
 1793 000a 8023     		movs	r3, #128
 1794 000c 0400     		movs	r4, r0
 1795 000e 1C4A     		ldr	r2, .L280
 1796 0010 9B05     		lsls	r3, r3, #22
 1797 0012 1068     		ldr	r0, [r2]
 1798 0014 0343     		orrs	r3, r0
 1799 0016 1360     		str	r3, [r2]
 1800 0018 6268     		ldr	r2, [r4, #4]
 1801 001a 2368     		ldr	r3, [r4]
 1802 001c 012A     		cmp	r2, #1
 1803 001e 08D0     		beq	.L270
 1804 0020 8022     		movs	r2, #128
 1805 0022 A06A     		ldr	r0, [r4, #40]
 1806 0024 1204     		lsls	r2, r2, #16
 1807 0026 9042     		cmp	r0, r2
 1808 0028 03D1     		bne	.L270
 1809 002a DA68     		ldr	r2, [r3, #12]
 1810 002c 1548     		ldr	r0, .L280+4
 1811 002e 0240     		ands	r2, r0
 1812 0030 DA60     		str	r2, [r3, #12]
 1813              	.L270:
 1814 0032 0127     		movs	r7, #1
 1815 0034 1025     		movs	r5, #16
 1816 0036 1A69     		ldr	r2, [r3, #16]
 1817 0038 2000     		movs	r0, r4
 1818 003a 3A43     		orrs	r2, r7
 1819 003c 1A61     		str	r2, [r3, #16]
 1820 003e 5D60     		str	r5, [r3, #4]
 1821 0040 9961     		str	r1, [r3, #24]
 1822 0042 2900     		movs	r1, r5
 1823 0044 FFF7FEFF 		bl	LPTIM_WaitForFlag
 1824 0048 0328     		cmp	r0, #3
 1825 004a 01D1     		bne	.L271
 1826              	.L273:
 1827 004c 0320     		movs	r0, #3
 1828              	.L272:
 1829              		@ sp needed
 1830 004e F8BD     		pop	{r3, r4, r5, r6, r7, pc}
 1831              	.L271:
 1832 0050 2000     		movs	r0, r4
 1833 0052 FFF7FEFF 		bl	LPTIM_Disable
 1834 0056 3378     		ldrb	r3, [r6]
 1835 0058 032B     		cmp	r3, #3
 1836 005a F7D0     		beq	.L273
 1837 005c 2368     		ldr	r3, [r4]
 1838 005e 0020     		movs	r0, #0
 1839 0060 9A68     		ldr	r2, [r3, #8]
 1840 0062 1543     		orrs	r5, r2
 1841 0064 0222     		movs	r2, #2
 1842 0066 9D60     		str	r5, [r3, #8]
 1843 0068 9968     		ldr	r1, [r3, #8]
 1844 006a 0A43     		orrs	r2, r1
 1845 006c 9A60     		str	r2, [r3, #8]
 1846 006e 1A69     		ldr	r2, [r3, #16]
 1847 0070 3A43     		orrs	r2, r7
 1848 0072 1A61     		str	r2, [r3, #16]
ARM GAS  /tmp/ccNO2zsr.s 			page 32


 1849 0074 0422     		movs	r2, #4
 1850 0076 1969     		ldr	r1, [r3, #16]
 1851 0078 0A43     		orrs	r2, r1
 1852 007a 1A61     		str	r2, [r3, #16]
 1853 007c 3770     		strb	r7, [r6]
 1854 007e E6E7     		b	.L272
 1855              	.L281:
 1856              		.align	2
 1857              	.L280:
 1858 0080 00040140 		.word	1073808384
 1859 0084 FFF1FFFF 		.word	-3585
 1861              		.section	.text.HAL_LPTIM_Counter_Stop_IT,"ax",%progbits
 1862              		.align	1
 1863              		.global	HAL_LPTIM_Counter_Stop_IT
 1864              		.syntax unified
 1865              		.code	16
 1866              		.thumb_func
 1867              		.fpu softvfp
 1869              	HAL_LPTIM_Counter_Stop_IT:
 1870              		@ args = 0, pretend = 0, frame = 0
 1871              		@ frame_needed = 0, uses_anonymous_args = 0
 1872 0000 70B5     		push	{r4, r5, r6, lr}
 1873 0002 0500     		movs	r5, r0
 1874 0004 0226     		movs	r6, #2
 1875 0006 0D4A     		ldr	r2, .L287
 1876 0008 2E35     		adds	r5, r5, #46
 1877 000a 2E70     		strb	r6, [r5]
 1878 000c 1368     		ldr	r3, [r2]
 1879 000e 0C49     		ldr	r1, .L287+4
 1880 0010 0400     		movs	r4, r0
 1881 0012 0B40     		ands	r3, r1
 1882 0014 1360     		str	r3, [r2]
 1883 0016 FFF7FEFF 		bl	LPTIM_Disable
 1884 001a 2B78     		ldrb	r3, [r5]
 1885 001c D8B2     		uxtb	r0, r3
 1886 001e 032B     		cmp	r3, #3
 1887 0020 0AD0     		beq	.L283
 1888 0022 1021     		movs	r1, #16
 1889 0024 2368     		ldr	r3, [r4]
 1890 0026 0020     		movs	r0, #0
 1891 0028 9A68     		ldr	r2, [r3, #8]
 1892 002a 8A43     		bics	r2, r1
 1893 002c 9A60     		str	r2, [r3, #8]
 1894 002e 9A68     		ldr	r2, [r3, #8]
 1895 0030 B243     		bics	r2, r6
 1896 0032 9A60     		str	r2, [r3, #8]
 1897 0034 0123     		movs	r3, #1
 1898 0036 2B70     		strb	r3, [r5]
 1899              	.L283:
 1900              		@ sp needed
 1901 0038 70BD     		pop	{r4, r5, r6, pc}
 1902              	.L288:
 1903 003a C046     		.align	2
 1904              	.L287:
 1905 003c 00040140 		.word	1073808384
 1906 0040 FFFFFFDF 		.word	-536870913
 1908              		.ident	"GCC: (15:10.3-2021.07-4) 10.3.1 20210621 (release)"
ARM GAS  /tmp/ccNO2zsr.s 			page 33


ARM GAS  /tmp/ccNO2zsr.s 			page 34

