ARM GAS  /tmp/ccl6FuYN.s 			page 1


   1              		.cpu cortex-m0
   2              		.eabi_attribute 23, 1
   3              		.eabi_attribute 24, 1
   4              		.eabi_attribute 25, 1
   5              		.eabi_attribute 26, 1
   6              		.eabi_attribute 30, 4
   7              		.eabi_attribute 34, 0
   8              		.eabi_attribute 18, 4
   9              		.file	"stm32l0xx_hal_dma.c"
  10              		.text
  11              		.global	__aeabi_uidiv
  12              		.section	.text.HAL_DMA_Init,"ax",%progbits
  13              		.align	1
  14              		.global	HAL_DMA_Init
  15              		.arch armv6s-m
  16              		.syntax unified
  17              		.code	16
  18              		.thumb_func
  19              		.fpu softvfp
  21              	HAL_DMA_Init:
  22              		@ args = 0, pretend = 0, frame = 0
  23              		@ frame_needed = 0, uses_anonymous_args = 0
  24 0000 F8B5     		push	{r3, r4, r5, r6, r7, lr}
  25 0002 0400     		movs	r4, r0
  26 0004 0120     		movs	r0, #1
  27 0006 002C     		cmp	r4, #0
  28 0008 35D0     		beq	.L2
  29 000a 2568     		ldr	r5, [r4]
  30 000c 1A4B     		ldr	r3, .L5
  31 000e 1421     		movs	r1, #20
  32 0010 E818     		adds	r0, r5, r3
  33 0012 FFF7FEFF 		bl	__aeabi_uidiv
  34 0016 194B     		ldr	r3, .L5+4
  35 0018 8000     		lsls	r0, r0, #2
  36 001a 2364     		str	r3, [r4, #64]
  37 001c 0223     		movs	r3, #2
  38 001e A21D     		adds	r2, r4, #6
  39 0020 6064     		str	r0, [r4, #68]
  40 0022 D377     		strb	r3, [r2, #31]
  41 0024 2E68     		ldr	r6, [r5]
  42 0026 164B     		ldr	r3, .L5+8
  43 0028 A168     		ldr	r1, [r4, #8]
  44 002a 1E40     		ands	r6, r3
  45 002c E368     		ldr	r3, [r4, #12]
  46 002e 2769     		ldr	r7, [r4, #16]
  47 0030 0B43     		orrs	r3, r1
  48 0032 3B43     		orrs	r3, r7
  49 0034 6769     		ldr	r7, [r4, #20]
  50 0036 3B43     		orrs	r3, r7
  51 0038 A769     		ldr	r7, [r4, #24]
  52 003a 3B43     		orrs	r3, r7
  53 003c E769     		ldr	r7, [r4, #28]
  54 003e 3B43     		orrs	r3, r7
  55 0040 276A     		ldr	r7, [r4, #32]
  56 0042 3B43     		orrs	r3, r7
  57 0044 3343     		orrs	r3, r6
  58 0046 2B60     		str	r3, [r5]
ARM GAS  /tmp/ccl6FuYN.s 			page 2


  59 0048 8023     		movs	r3, #128
  60 004a DB01     		lsls	r3, r3, #7
  61 004c 9942     		cmp	r1, r3
  62 004e 0CD0     		beq	.L3
  63 0050 1C25     		movs	r5, #28
  64 0052 2840     		ands	r0, r5
  65 0054 0D3D     		subs	r5, r5, #13
  66 0056 8540     		lsls	r5, r5, r0
  67 0058 0A49     		ldr	r1, .L5+12
  68 005a 0B68     		ldr	r3, [r1]
  69 005c AB43     		bics	r3, r5
  70 005e 0B60     		str	r3, [r1]
  71 0060 6368     		ldr	r3, [r4, #4]
  72 0062 0D68     		ldr	r5, [r1]
  73 0064 8340     		lsls	r3, r3, r0
  74 0066 2B43     		orrs	r3, r5
  75 0068 0B60     		str	r3, [r1]
  76              	.L3:
  77 006a 0020     		movs	r0, #0
  78 006c 0123     		movs	r3, #1
  79 006e E063     		str	r0, [r4, #60]
  80 0070 0534     		adds	r4, r4, #5
  81 0072 D377     		strb	r3, [r2, #31]
  82 0074 E077     		strb	r0, [r4, #31]
  83              	.L2:
  84              		@ sp needed
  85 0076 F8BD     		pop	{r3, r4, r5, r6, r7, pc}
  86              	.L6:
  87              		.align	2
  88              	.L5:
  89 0078 F8FFFDBF 		.word	-1073872904
  90 007c 00000240 		.word	1073872896
  91 0080 0F80FFFF 		.word	-32753
  92 0084 A8000240 		.word	1073873064
  94              		.section	.text.HAL_DMA_DeInit,"ax",%progbits
  95              		.align	1
  96              		.global	HAL_DMA_DeInit
  97              		.syntax unified
  98              		.code	16
  99              		.thumb_func
 100              		.fpu softvfp
 102              	HAL_DMA_DeInit:
 103              		@ args = 0, pretend = 0, frame = 0
 104              		@ frame_needed = 0, uses_anonymous_args = 0
 105 0000 70B5     		push	{r4, r5, r6, lr}
 106 0002 0125     		movs	r5, #1
 107 0004 0400     		movs	r4, r0
 108 0006 2800     		movs	r0, r5
 109 0008 002C     		cmp	r4, #0
 110 000a 21D0     		beq	.L8
 111 000c 2668     		ldr	r6, [r4]
 112 000e 1421     		movs	r1, #20
 113 0010 3368     		ldr	r3, [r6]
 114 0012 AB43     		bics	r3, r5
 115 0014 3360     		str	r3, [r6]
 116 0016 0F4B     		ldr	r3, .L10
 117 0018 F018     		adds	r0, r6, r3
ARM GAS  /tmp/ccl6FuYN.s 			page 3


 118 001a FFF7FEFF 		bl	__aeabi_uidiv
 119 001e 1C21     		movs	r1, #28
 120 0020 8300     		lsls	r3, r0, #2
 121 0022 6364     		str	r3, [r4, #68]
 122 0024 0B40     		ands	r3, r1
 123 0026 0020     		movs	r0, #0
 124 0028 9D40     		lsls	r5, r5, r3
 125 002a 0D39     		subs	r1, r1, #13
 126 002c 9940     		lsls	r1, r1, r3
 127 002e 0A4A     		ldr	r2, .L10+4
 128 0030 A31D     		adds	r3, r4, #6
 129 0032 2264     		str	r2, [r4, #64]
 130 0034 3060     		str	r0, [r6]
 131 0036 5560     		str	r5, [r2, #4]
 132 0038 084D     		ldr	r5, .L10+8
 133 003a 2A68     		ldr	r2, [r5]
 134 003c 8A43     		bics	r2, r1
 135 003e 2A60     		str	r2, [r5]
 136 0040 E062     		str	r0, [r4, #44]
 137 0042 2063     		str	r0, [r4, #48]
 138 0044 6063     		str	r0, [r4, #52]
 139 0046 A063     		str	r0, [r4, #56]
 140 0048 E063     		str	r0, [r4, #60]
 141 004a 0534     		adds	r4, r4, #5
 142 004c D877     		strb	r0, [r3, #31]
 143 004e E077     		strb	r0, [r4, #31]
 144              	.L8:
 145              		@ sp needed
 146 0050 70BD     		pop	{r4, r5, r6, pc}
 147              	.L11:
 148 0052 C046     		.align	2
 149              	.L10:
 150 0054 F8FFFDBF 		.word	-1073872904
 151 0058 00000240 		.word	1073872896
 152 005c A8000240 		.word	1073873064
 154              		.section	.text.HAL_DMA_Start,"ax",%progbits
 155              		.align	1
 156              		.global	HAL_DMA_Start
 157              		.syntax unified
 158              		.code	16
 159              		.thumb_func
 160              		.fpu softvfp
 162              	HAL_DMA_Start:
 163              		@ args = 0, pretend = 0, frame = 8
 164              		@ frame_needed = 0, uses_anonymous_args = 0
 165 0000 F7B5     		push	{r0, r1, r2, r4, r5, r6, r7, lr}
 166 0002 451D     		adds	r5, r0, #5
 167 0004 0193     		str	r3, [sp, #4]
 168 0006 EB7F     		ldrb	r3, [r5, #31]
 169 0008 0400     		movs	r4, r0
 170 000a 0220     		movs	r0, #2
 171 000c 012B     		cmp	r3, #1
 172 000e 22D0     		beq	.L13
 173 0010 0123     		movs	r3, #1
 174 0012 A71D     		adds	r7, r4, #6
 175 0014 EB77     		strb	r3, [r5, #31]
 176 0016 FB7F     		ldrb	r3, [r7, #31]
ARM GAS  /tmp/ccl6FuYN.s 			page 4


 177 0018 0026     		movs	r6, #0
 178 001a 9C46     		mov	ip, r3
 179 001c 6046     		mov	r0, ip
 180 001e DBB2     		uxtb	r3, r3
 181 0020 0128     		cmp	r0, #1
 182 0022 1CD1     		bne	.L14
 183 0024 0130     		adds	r0, r0, #1
 184 0026 F877     		strb	r0, [r7, #31]
 185 0028 2068     		ldr	r0, [r4]
 186 002a E663     		str	r6, [r4, #60]
 187 002c 676C     		ldr	r7, [r4, #68]
 188 002e 0568     		ldr	r5, [r0]
 189 0030 1C36     		adds	r6, r6, #28
 190 0032 3E40     		ands	r6, r7
 191 0034 9D43     		bics	r5, r3
 192 0036 B340     		lsls	r3, r3, r6
 193 0038 0560     		str	r5, [r0]
 194 003a 256C     		ldr	r5, [r4, #64]
 195 003c 6B60     		str	r3, [r5, #4]
 196 003e 019B     		ldr	r3, [sp, #4]
 197 0040 4360     		str	r3, [r0, #4]
 198 0042 A368     		ldr	r3, [r4, #8]
 199 0044 102B     		cmp	r3, #16
 200 0046 07D1     		bne	.L15
 201 0048 8260     		str	r2, [r0, #8]
 202 004a C160     		str	r1, [r0, #12]
 203              	.L16:
 204 004c 0123     		movs	r3, #1
 205 004e 0268     		ldr	r2, [r0]
 206 0050 1343     		orrs	r3, r2
 207 0052 0360     		str	r3, [r0]
 208 0054 0020     		movs	r0, #0
 209              	.L13:
 210              		@ sp needed
 211 0056 FEBD     		pop	{r1, r2, r3, r4, r5, r6, r7, pc}
 212              	.L15:
 213 0058 8160     		str	r1, [r0, #8]
 214 005a C260     		str	r2, [r0, #12]
 215 005c F6E7     		b	.L16
 216              	.L14:
 217 005e 0220     		movs	r0, #2
 218 0060 EE77     		strb	r6, [r5, #31]
 219 0062 F8E7     		b	.L13
 221              		.section	.text.HAL_DMA_Start_IT,"ax",%progbits
 222              		.align	1
 223              		.global	HAL_DMA_Start_IT
 224              		.syntax unified
 225              		.code	16
 226              		.thumb_func
 227              		.fpu softvfp
 229              	HAL_DMA_Start_IT:
 230              		@ args = 0, pretend = 0, frame = 8
 231              		@ frame_needed = 0, uses_anonymous_args = 0
 232 0000 F7B5     		push	{r0, r1, r2, r4, r5, r6, r7, lr}
 233 0002 451D     		adds	r5, r0, #5
 234 0004 0193     		str	r3, [sp, #4]
 235 0006 EB7F     		ldrb	r3, [r5, #31]
ARM GAS  /tmp/ccl6FuYN.s 			page 5


 236 0008 0400     		movs	r4, r0
 237 000a 0220     		movs	r0, #2
 238 000c 012B     		cmp	r3, #1
 239 000e 29D0     		beq	.L19
 240 0010 0123     		movs	r3, #1
 241 0012 A71D     		adds	r7, r4, #6
 242 0014 EB77     		strb	r3, [r5, #31]
 243 0016 FB7F     		ldrb	r3, [r7, #31]
 244 0018 0026     		movs	r6, #0
 245 001a 9C46     		mov	ip, r3
 246 001c 6046     		mov	r0, ip
 247 001e DBB2     		uxtb	r3, r3
 248 0020 0128     		cmp	r0, #1
 249 0022 2AD1     		bne	.L20
 250 0024 0130     		adds	r0, r0, #1
 251 0026 F877     		strb	r0, [r7, #31]
 252 0028 2068     		ldr	r0, [r4]
 253 002a E663     		str	r6, [r4, #60]
 254 002c 676C     		ldr	r7, [r4, #68]
 255 002e 0568     		ldr	r5, [r0]
 256 0030 1C36     		adds	r6, r6, #28
 257 0032 3E40     		ands	r6, r7
 258 0034 9D43     		bics	r5, r3
 259 0036 B340     		lsls	r3, r3, r6
 260 0038 0560     		str	r5, [r0]
 261 003a 256C     		ldr	r5, [r4, #64]
 262 003c 6B60     		str	r3, [r5, #4]
 263 003e 019B     		ldr	r3, [sp, #4]
 264 0040 4360     		str	r3, [r0, #4]
 265 0042 A368     		ldr	r3, [r4, #8]
 266 0044 102B     		cmp	r3, #16
 267 0046 0ED1     		bne	.L21
 268 0048 8260     		str	r2, [r0, #8]
 269 004a C160     		str	r1, [r0, #12]
 270              	.L22:
 271 004c 236B     		ldr	r3, [r4, #48]
 272 004e 002B     		cmp	r3, #0
 273 0050 0CD0     		beq	.L23
 274 0052 0E23     		movs	r3, #14
 275 0054 0268     		ldr	r2, [r0]
 276              	.L26:
 277 0056 1343     		orrs	r3, r2
 278 0058 0360     		str	r3, [r0]
 279 005a 0123     		movs	r3, #1
 280 005c 0268     		ldr	r2, [r0]
 281 005e 1343     		orrs	r3, r2
 282 0060 0360     		str	r3, [r0]
 283 0062 0020     		movs	r0, #0
 284              	.L19:
 285              		@ sp needed
 286 0064 FEBD     		pop	{r1, r2, r3, r4, r5, r6, r7, pc}
 287              	.L21:
 288 0066 8160     		str	r1, [r0, #8]
 289 0068 C260     		str	r2, [r0, #12]
 290 006a EFE7     		b	.L22
 291              	.L23:
 292 006c 0422     		movs	r2, #4
ARM GAS  /tmp/ccl6FuYN.s 			page 6


 293 006e 0368     		ldr	r3, [r0]
 294 0070 9343     		bics	r3, r2
 295 0072 0360     		str	r3, [r0]
 296 0074 0268     		ldr	r2, [r0]
 297 0076 0A23     		movs	r3, #10
 298 0078 EDE7     		b	.L26
 299              	.L20:
 300 007a 0220     		movs	r0, #2
 301 007c EE77     		strb	r6, [r5, #31]
 302 007e F1E7     		b	.L19
 304              		.section	.text.HAL_DMA_Abort,"ax",%progbits
 305              		.align	1
 306              		.global	HAL_DMA_Abort
 307              		.syntax unified
 308              		.code	16
 309              		.thumb_func
 310              		.fpu softvfp
 312              	HAL_DMA_Abort:
 313              		@ args = 0, pretend = 0, frame = 0
 314              		@ frame_needed = 0, uses_anonymous_args = 0
 315 0000 30B5     		push	{r4, r5, lr}
 316 0002 851D     		adds	r5, r0, #6
 317 0004 EB7F     		ldrb	r3, [r5, #31]
 318 0006 441D     		adds	r4, r0, #5
 319 0008 022B     		cmp	r3, #2
 320 000a 05D0     		beq	.L28
 321 000c 0423     		movs	r3, #4
 322 000e C363     		str	r3, [r0, #60]
 323 0010 0023     		movs	r3, #0
 324 0012 0120     		movs	r0, #1
 325 0014 E377     		strb	r3, [r4, #31]
 326              	.L29:
 327              		@ sp needed
 328 0016 30BD     		pop	{r4, r5, pc}
 329              	.L28:
 330 0018 0E21     		movs	r1, #14
 331 001a 0368     		ldr	r3, [r0]
 332 001c 1A68     		ldr	r2, [r3]
 333 001e 8A43     		bics	r2, r1
 334 0020 1A60     		str	r2, [r3]
 335 0022 0122     		movs	r2, #1
 336 0024 1968     		ldr	r1, [r3]
 337 0026 9143     		bics	r1, r2
 338 0028 1960     		str	r1, [r3]
 339 002a 436C     		ldr	r3, [r0, #68]
 340 002c 016C     		ldr	r1, [r0, #64]
 341 002e 1C20     		movs	r0, #28
 342 0030 0340     		ands	r3, r0
 343 0032 1000     		movs	r0, r2
 344 0034 9840     		lsls	r0, r0, r3
 345 0036 4860     		str	r0, [r1, #4]
 346 0038 0020     		movs	r0, #0
 347 003a EA77     		strb	r2, [r5, #31]
 348 003c E077     		strb	r0, [r4, #31]
 349 003e EAE7     		b	.L29
 351              		.section	.text.HAL_DMA_Abort_IT,"ax",%progbits
 352              		.align	1
ARM GAS  /tmp/ccl6FuYN.s 			page 7


 353              		.global	HAL_DMA_Abort_IT
 354              		.syntax unified
 355              		.code	16
 356              		.thumb_func
 357              		.fpu softvfp
 359              	HAL_DMA_Abort_IT:
 360              		@ args = 0, pretend = 0, frame = 0
 361              		@ frame_needed = 0, uses_anonymous_args = 0
 362 0000 70B5     		push	{r4, r5, r6, lr}
 363 0002 841D     		adds	r4, r0, #6
 364 0004 E37F     		ldrb	r3, [r4, #31]
 365 0006 022B     		cmp	r3, #2
 366 0008 04D0     		beq	.L31
 367 000a 0423     		movs	r3, #4
 368 000c C363     		str	r3, [r0, #60]
 369 000e 033B     		subs	r3, r3, #3
 370              	.L32:
 371 0010 1800     		movs	r0, r3
 372              		@ sp needed
 373 0012 70BD     		pop	{r4, r5, r6, pc}
 374              	.L31:
 375 0014 0E21     		movs	r1, #14
 376 0016 0368     		ldr	r3, [r0]
 377 0018 456C     		ldr	r5, [r0, #68]
 378 001a 1A68     		ldr	r2, [r3]
 379 001c 8A43     		bics	r2, r1
 380 001e 1A60     		str	r2, [r3]
 381 0020 0122     		movs	r2, #1
 382 0022 1968     		ldr	r1, [r3]
 383 0024 9143     		bics	r1, r2
 384 0026 1960     		str	r1, [r3]
 385 0028 1C23     		movs	r3, #28
 386 002a 2B40     		ands	r3, r5
 387 002c 1500     		movs	r5, r2
 388 002e 9D40     		lsls	r5, r5, r3
 389 0030 016C     		ldr	r1, [r0, #64]
 390 0032 431D     		adds	r3, r0, #5
 391 0034 4D60     		str	r5, [r1, #4]
 392 0036 E277     		strb	r2, [r4, #31]
 393 0038 0024     		movs	r4, #0
 394 003a DC77     		strb	r4, [r3, #31]
 395 003c 826B     		ldr	r2, [r0, #56]
 396 003e 1300     		movs	r3, r2
 397 0040 A242     		cmp	r2, r4
 398 0042 E5D0     		beq	.L32
 399 0044 9047     		blx	r2
 400 0046 2300     		movs	r3, r4
 401 0048 E2E7     		b	.L32
 403              		.section	.text.HAL_DMA_PollForTransfer,"ax",%progbits
 404              		.align	1
 405              		.global	HAL_DMA_PollForTransfer
 406              		.syntax unified
 407              		.code	16
 408              		.thumb_func
 409              		.fpu softvfp
 411              	HAL_DMA_PollForTransfer:
 412              		@ args = 0, pretend = 0, frame = 16
ARM GAS  /tmp/ccl6FuYN.s 			page 8


 413              		@ frame_needed = 0, uses_anonymous_args = 0
 414 0000 F0B5     		push	{r4, r5, r6, r7, lr}
 415 0002 85B0     		sub	sp, sp, #20
 416 0004 0191     		str	r1, [sp, #4]
 417 0006 871D     		adds	r7, r0, #6
 418 0008 FB7F     		ldrb	r3, [r7, #31]
 419 000a 0400     		movs	r4, r0
 420 000c 1600     		movs	r6, r2
 421 000e DDB2     		uxtb	r5, r3
 422 0010 022B     		cmp	r3, #2
 423 0012 07D0     		beq	.L35
 424 0014 0423     		movs	r3, #4
 425 0016 C363     		str	r3, [r0, #60]
 426 0018 0023     		movs	r3, #0
 427 001a 0534     		adds	r4, r4, #5
 428 001c E377     		strb	r3, [r4, #31]
 429              	.L51:
 430 001e 0120     		movs	r0, #1
 431              	.L36:
 432 0020 05B0     		add	sp, sp, #20
 433              		@ sp needed
 434 0022 F0BD     		pop	{r4, r5, r6, r7, pc}
 435              	.L35:
 436 0024 0368     		ldr	r3, [r0]
 437 0026 1B68     		ldr	r3, [r3]
 438 0028 9B06     		lsls	r3, r3, #26
 439 002a 03D5     		bpl	.L37
 440 002c 8023     		movs	r3, #128
 441 002e 5B00     		lsls	r3, r3, #1
 442 0030 C363     		str	r3, [r0, #60]
 443 0032 F4E7     		b	.L51
 444              	.L37:
 445 0034 1C23     		movs	r3, #28
 446 0036 426C     		ldr	r2, [r0, #68]
 447 0038 1340     		ands	r3, r2
 448 003a 019A     		ldr	r2, [sp, #4]
 449 003c 002A     		cmp	r2, #0
 450 003e 1CD1     		bne	.L38
 451              	.L50:
 452 0040 9D40     		lsls	r5, r5, r3
 453 0042 FFF7FEFF 		bl	HAL_GetTick
 454 0046 0390     		str	r0, [sp, #12]
 455              	.L40:
 456 0048 1C21     		movs	r1, #28
 457 004a 0820     		movs	r0, #8
 458 004c 636C     		ldr	r3, [r4, #68]
 459 004e 226C     		ldr	r2, [r4, #64]
 460 0050 0B40     		ands	r3, r1
 461 0052 9840     		lsls	r0, r0, r3
 462 0054 0290     		str	r0, [sp, #8]
 463              	.L42:
 464 0056 2800     		movs	r0, r5
 465 0058 1168     		ldr	r1, [r2]
 466 005a 0840     		ands	r0, r1
 467 005c 8446     		mov	ip, r0
 468 005e 0D42     		tst	r5, r1
 469 0060 0DD0     		beq	.L44
ARM GAS  /tmp/ccl6FuYN.s 			page 9


 470 0062 0199     		ldr	r1, [sp, #4]
 471 0064 0029     		cmp	r1, #0
 472 0066 29D1     		bne	.L45
 473 0068 0231     		adds	r1, r1, #2
 474 006a 9940     		lsls	r1, r1, r3
 475 006c 0123     		movs	r3, #1
 476 006e 5160     		str	r1, [r2, #4]
 477 0070 FB77     		strb	r3, [r7, #31]
 478              	.L46:
 479 0072 0020     		movs	r0, #0
 480 0074 0534     		adds	r4, r4, #5
 481 0076 E077     		strb	r0, [r4, #31]
 482 0078 D2E7     		b	.L36
 483              	.L38:
 484 007a 0425     		movs	r5, #4
 485 007c E0E7     		b	.L50
 486              	.L44:
 487 007e 1168     		ldr	r1, [r2]
 488 0080 0298     		ldr	r0, [sp, #8]
 489 0082 0842     		tst	r0, r1
 490 0084 09D0     		beq	.L41
 491 0086 0120     		movs	r0, #1
 492 0088 0100     		movs	r1, r0
 493 008a 9940     		lsls	r1, r1, r3
 494 008c 6346     		mov	r3, ip
 495 008e 5160     		str	r1, [r2, #4]
 496 0090 E063     		str	r0, [r4, #60]
 497 0092 F877     		strb	r0, [r7, #31]
 498 0094 0534     		adds	r4, r4, #5
 499              	.L52:
 500 0096 E377     		strb	r3, [r4, #31]
 501 0098 C2E7     		b	.L36
 502              	.L41:
 503 009a 711C     		adds	r1, r6, #1
 504 009c DBD0     		beq	.L42
 505 009e FFF7FEFF 		bl	HAL_GetTick
 506 00a2 039B     		ldr	r3, [sp, #12]
 507 00a4 C01A     		subs	r0, r0, r3
 508 00a6 B042     		cmp	r0, r6
 509 00a8 01D8     		bhi	.L43
 510 00aa 002E     		cmp	r6, #0
 511 00ac CCD1     		bne	.L40
 512              	.L43:
 513 00ae 2023     		movs	r3, #32
 514 00b0 0120     		movs	r0, #1
 515 00b2 E363     		str	r3, [r4, #60]
 516 00b4 0023     		movs	r3, #0
 517 00b6 F877     		strb	r0, [r7, #31]
 518 00b8 0534     		adds	r4, r4, #5
 519 00ba ECE7     		b	.L52
 520              	.L45:
 521 00bc 0421     		movs	r1, #4
 522 00be 9940     		lsls	r1, r1, r3
 523 00c0 5160     		str	r1, [r2, #4]
 524 00c2 D6E7     		b	.L46
 526              		.section	.text.HAL_DMA_IRQHandler,"ax",%progbits
 527              		.align	1
ARM GAS  /tmp/ccl6FuYN.s 			page 10


 528              		.global	HAL_DMA_IRQHandler
 529              		.syntax unified
 530              		.code	16
 531              		.thumb_func
 532              		.fpu softvfp
 534              	HAL_DMA_IRQHandler:
 535              		@ args = 0, pretend = 0, frame = 0
 536              		@ frame_needed = 0, uses_anonymous_args = 0
 537 0000 F8B5     		push	{r3, r4, r5, r6, r7, lr}
 538 0002 1C22     		movs	r2, #28
 539 0004 0427     		movs	r7, #4
 540 0006 466C     		ldr	r6, [r0, #68]
 541 0008 016C     		ldr	r1, [r0, #64]
 542 000a 3240     		ands	r2, r6
 543 000c 3E00     		movs	r6, r7
 544 000e 9640     		lsls	r6, r6, r2
 545 0010 0D68     		ldr	r5, [r1]
 546 0012 0368     		ldr	r3, [r0]
 547 0014 1C68     		ldr	r4, [r3]
 548 0016 3542     		tst	r5, r6
 549 0018 0DD0     		beq	.L54
 550 001a 3C42     		tst	r4, r7
 551 001c 0BD0     		beq	.L54
 552 001e 1A68     		ldr	r2, [r3]
 553 0020 9206     		lsls	r2, r2, #26
 554 0022 02D4     		bmi	.L55
 555 0024 1A68     		ldr	r2, [r3]
 556 0026 BA43     		bics	r2, r7
 557 0028 1A60     		str	r2, [r3]
 558              	.L55:
 559 002a 036B     		ldr	r3, [r0, #48]
 560 002c 4E60     		str	r6, [r1, #4]
 561 002e 002B     		cmp	r3, #0
 562 0030 19D0     		beq	.L53
 563              	.L85:
 564 0032 9847     		blx	r3
 565 0034 17E0     		b	.L53
 566              	.L54:
 567 0036 0227     		movs	r7, #2
 568 0038 3E00     		movs	r6, r7
 569 003a 9640     		lsls	r6, r6, r2
 570 003c 3542     		tst	r5, r6
 571 003e 13D0     		beq	.L58
 572 0040 3C42     		tst	r4, r7
 573 0042 11D0     		beq	.L58
 574 0044 1A68     		ldr	r2, [r3]
 575 0046 9206     		lsls	r2, r2, #26
 576 0048 06D4     		bmi	.L59
 577 004a 0A24     		movs	r4, #10
 578 004c 1A68     		ldr	r2, [r3]
 579 004e A243     		bics	r2, r4
 580 0050 1A60     		str	r2, [r3]
 581 0052 0122     		movs	r2, #1
 582 0054 831D     		adds	r3, r0, #6
 583 0056 DA77     		strb	r2, [r3, #31]
 584              	.L59:
 585 0058 0022     		movs	r2, #0
ARM GAS  /tmp/ccl6FuYN.s 			page 11


 586 005a 431D     		adds	r3, r0, #5
 587 005c 4E60     		str	r6, [r1, #4]
 588 005e DA77     		strb	r2, [r3, #31]
 589 0060 C36A     		ldr	r3, [r0, #44]
 590              	.L87:
 591 0062 9342     		cmp	r3, r2
 592 0064 E5D1     		bne	.L85
 593              	.L53:
 594              		@ sp needed
 595 0066 F8BD     		pop	{r3, r4, r5, r6, r7, pc}
 596              	.L58:
 597 0068 0826     		movs	r6, #8
 598 006a 3700     		movs	r7, r6
 599 006c 9740     		lsls	r7, r7, r2
 600 006e 3D42     		tst	r5, r7
 601 0070 F9D0     		beq	.L53
 602 0072 3442     		tst	r4, r6
 603 0074 F7D0     		beq	.L53
 604 0076 0E25     		movs	r5, #14
 605 0078 1C68     		ldr	r4, [r3]
 606 007a AC43     		bics	r4, r5
 607 007c 1C60     		str	r4, [r3]
 608 007e 0123     		movs	r3, #1
 609 0080 1C00     		movs	r4, r3
 610 0082 9440     		lsls	r4, r4, r2
 611 0084 821D     		adds	r2, r0, #6
 612 0086 4C60     		str	r4, [r1, #4]
 613 0088 C363     		str	r3, [r0, #60]
 614 008a D377     		strb	r3, [r2, #31]
 615 008c 0022     		movs	r2, #0
 616 008e 431D     		adds	r3, r0, #5
 617 0090 DA77     		strb	r2, [r3, #31]
 618 0092 436B     		ldr	r3, [r0, #52]
 619 0094 E5E7     		b	.L87
 621              		.section	.text.HAL_DMA_RegisterCallback,"ax",%progbits
 622              		.align	1
 623              		.global	HAL_DMA_RegisterCallback
 624              		.syntax unified
 625              		.code	16
 626              		.thumb_func
 627              		.fpu softvfp
 629              	HAL_DMA_RegisterCallback:
 630              		@ args = 0, pretend = 0, frame = 0
 631              		@ frame_needed = 0, uses_anonymous_args = 0
 632 0000 30B5     		push	{r4, r5, lr}
 633 0002 441D     		adds	r4, r0, #5
 634 0004 E57F     		ldrb	r5, [r4, #31]
 635 0006 0300     		movs	r3, r0
 636 0008 0220     		movs	r0, #2
 637 000a 012D     		cmp	r5, #1
 638 000c 0ED0     		beq	.L89
 639 000e 981D     		adds	r0, r3, #6
 640 0010 C57F     		ldrb	r5, [r0, #31]
 641 0012 E8B2     		uxtb	r0, r5
 642 0014 012D     		cmp	r5, #1
 643 0016 11D1     		bne	.L97
 644 0018 0329     		cmp	r1, #3
ARM GAS  /tmp/ccl6FuYN.s 			page 12


 645 001a 05D8     		bhi	.L90
 646 001c 0800     		movs	r0, r1
 647 001e FFF7FEFF 		bl	__gnu_thumb1_case_uqi
 648              	.L92:
 649 0022 02       		.byte	(.L95-.L92)/2
 650 0023 06       		.byte	(.L94-.L92)/2
 651 0024 09       		.byte	(.L93-.L92)/2
 652 0025 0B       		.byte	(.L91-.L92)/2
 653              		.p2align 1
 654              	.L95:
 655 0026 DA62     		str	r2, [r3, #44]
 656              	.L90:
 657 0028 0023     		movs	r3, #0
 658 002a E377     		strb	r3, [r4, #31]
 659              	.L89:
 660              		@ sp needed
 661 002c 30BD     		pop	{r4, r5, pc}
 662              	.L94:
 663 002e 1A63     		str	r2, [r3, #48]
 664              	.L98:
 665 0030 0020     		movs	r0, #0
 666 0032 F9E7     		b	.L90
 667              	.L93:
 668 0034 5A63     		str	r2, [r3, #52]
 669 0036 FBE7     		b	.L98
 670              	.L91:
 671 0038 9A63     		str	r2, [r3, #56]
 672 003a F9E7     		b	.L98
 673              	.L97:
 674 003c 0120     		movs	r0, #1
 675 003e F3E7     		b	.L90
 677              		.section	.text.HAL_DMA_UnRegisterCallback,"ax",%progbits
 678              		.align	1
 679              		.global	HAL_DMA_UnRegisterCallback
 680              		.syntax unified
 681              		.code	16
 682              		.thumb_func
 683              		.fpu softvfp
 685              	HAL_DMA_UnRegisterCallback:
 686              		@ args = 0, pretend = 0, frame = 0
 687              		@ frame_needed = 0, uses_anonymous_args = 0
 688 0000 30B5     		push	{r4, r5, lr}
 689 0002 441D     		adds	r4, r0, #5
 690 0004 E27F     		ldrb	r2, [r4, #31]
 691 0006 0300     		movs	r3, r0
 692 0008 0220     		movs	r0, #2
 693 000a 012A     		cmp	r2, #1
 694 000c 12D0     		beq	.L100
 695 000e 0122     		movs	r2, #1
 696 0010 981D     		adds	r0, r3, #6
 697 0012 E277     		strb	r2, [r4, #31]
 698 0014 C57F     		ldrb	r5, [r0, #31]
 699 0016 E8B2     		uxtb	r0, r5
 700 0018 9542     		cmp	r5, r2
 701 001a 16D1     		bne	.L109
 702 001c 0429     		cmp	r1, #4
 703 001e 07D8     		bhi	.L101
ARM GAS  /tmp/ccl6FuYN.s 			page 13


 704 0020 0800     		movs	r0, r1
 705 0022 0022     		movs	r2, #0
 706 0024 FFF7FEFF 		bl	__gnu_thumb1_case_uqi
 707              	.L103:
 708 0028 03       		.byte	(.L107-.L103)/2
 709 0029 07       		.byte	(.L106-.L103)/2
 710 002a 0A       		.byte	(.L105-.L103)/2
 711 002b 0F       		.byte	(.L104-.L103)/2
 712 002c 0C       		.byte	(.L102-.L103)/2
 713 002d 00       		.p2align 1
 714              	.L107:
 715 002e DA62     		str	r2, [r3, #44]
 716              	.L101:
 717 0030 0023     		movs	r3, #0
 718 0032 E377     		strb	r3, [r4, #31]
 719              	.L100:
 720              		@ sp needed
 721 0034 30BD     		pop	{r4, r5, pc}
 722              	.L106:
 723 0036 1A63     		str	r2, [r3, #48]
 724              	.L110:
 725 0038 0020     		movs	r0, #0
 726 003a F9E7     		b	.L101
 727              	.L105:
 728 003c 5A63     		str	r2, [r3, #52]
 729 003e FBE7     		b	.L110
 730              	.L102:
 731 0040 DA62     		str	r2, [r3, #44]
 732 0042 1A63     		str	r2, [r3, #48]
 733 0044 5A63     		str	r2, [r3, #52]
 734              	.L104:
 735 0046 9A63     		str	r2, [r3, #56]
 736 0048 F6E7     		b	.L110
 737              	.L109:
 738 004a 1000     		movs	r0, r2
 739 004c F0E7     		b	.L101
 741              		.section	.text.HAL_DMA_GetState,"ax",%progbits
 742              		.align	1
 743              		.global	HAL_DMA_GetState
 744              		.syntax unified
 745              		.code	16
 746              		.thumb_func
 747              		.fpu softvfp
 749              	HAL_DMA_GetState:
 750              		@ args = 0, pretend = 0, frame = 0
 751              		@ frame_needed = 0, uses_anonymous_args = 0
 752              		@ link register save eliminated.
 753 0000 0630     		adds	r0, r0, #6
 754 0002 C07F     		ldrb	r0, [r0, #31]
 755              		@ sp needed
 756 0004 C0B2     		uxtb	r0, r0
 757 0006 7047     		bx	lr
 759              		.section	.text.HAL_DMA_GetError,"ax",%progbits
 760              		.align	1
 761              		.global	HAL_DMA_GetError
 762              		.syntax unified
 763              		.code	16
ARM GAS  /tmp/ccl6FuYN.s 			page 14


 764              		.thumb_func
 765              		.fpu softvfp
 767              	HAL_DMA_GetError:
 768              		@ args = 0, pretend = 0, frame = 0
 769              		@ frame_needed = 0, uses_anonymous_args = 0
 770              		@ link register save eliminated.
 771 0000 C06B     		ldr	r0, [r0, #60]
 772              		@ sp needed
 773 0002 7047     		bx	lr
 775              		.ident	"GCC: (15:10.3-2021.07-4) 10.3.1 20210621 (release)"
ARM GAS  /tmp/ccl6FuYN.s 			page 15

