ARM GAS  /tmp/ccF4V7bZ.s 			page 1


   1              		.cpu cortex-m0
   2              		.eabi_attribute 23, 1
   3              		.eabi_attribute 24, 1
   4              		.eabi_attribute 25, 1
   5              		.eabi_attribute 26, 1
   6              		.eabi_attribute 30, 4
   7              		.eabi_attribute 34, 0
   8              		.eabi_attribute 18, 4
   9              		.file	"lr11xx_crypto_engine.c"
  10              		.text
  11              		.section	.text.lr11xx_crypto_fill_cbuffer_opcode_key_data,"ax",%progbits
  12              		.align	1
  13              		.arch armv6s-m
  14              		.syntax unified
  15              		.code	16
  16              		.thumb_func
  17              		.fpu softvfp
  19              	lr11xx_crypto_fill_cbuffer_opcode_key_data:
  20              		@ args = 4, pretend = 0, frame = 0
  21              		@ frame_needed = 0, uses_anonymous_args = 0
  22 0000 30B5     		push	{r4, r5, lr}
  23 0002 0525     		movs	r5, #5
  24 0004 8270     		strb	r2, [r0, #2]
  25 0006 0022     		movs	r2, #0
  26 0008 03AC     		add	r4, sp, #12
  27 000a 2488     		ldrh	r4, [r4]
  28 000c 0570     		strb	r5, [r0]
  29 000e 4170     		strb	r1, [r0, #1]
  30 0010 0330     		adds	r0, r0, #3
  31              	.L2:
  32 0012 91B2     		uxth	r1, r2
  33 0014 8C42     		cmp	r4, r1
  34 0016 00D8     		bhi	.L3
  35              		@ sp needed
  36 0018 30BD     		pop	{r4, r5, pc}
  37              	.L3:
  38 001a 995C     		ldrb	r1, [r3, r2]
  39 001c 8154     		strb	r1, [r0, r2]
  40 001e 0132     		adds	r2, r2, #1
  41 0020 F7E7     		b	.L2
  43              		.section	.text.lr11xx_crypto_select,"ax",%progbits
  44              		.align	1
  45              		.global	lr11xx_crypto_select
  46              		.syntax unified
  47              		.code	16
  48              		.thumb_func
  49              		.fpu softvfp
  51              	lr11xx_crypto_select:
  52              		@ args = 0, pretend = 0, frame = 8
  53              		@ frame_needed = 0, uses_anonymous_args = 0
  54 0000 30B5     		push	{r4, r5, lr}
  55 0002 85B0     		sub	sp, sp, #20
  56 0004 0400     		movs	r4, r0
  57 0006 0D00     		movs	r5, r1
  58 0008 0222     		movs	r2, #2
  59 000a 0849     		ldr	r1, .L5
  60 000c 03A8     		add	r0, sp, #12
ARM GAS  /tmp/ccF4V7bZ.s 			page 2


  61 000e FFF7FEFF 		bl	memcpy
  62 0012 6946     		mov	r1, sp
  63 0014 0023     		movs	r3, #0
  64 0016 0522     		movs	r2, #5
  65 0018 8D73     		strb	r5, [r1, #14]
  66 001a 0A73     		strb	r2, [r1, #12]
  67 001c 2000     		movs	r0, r4
  68 001e 0322     		movs	r2, #3
  69 0020 0093     		str	r3, [sp]
  70 0022 03A9     		add	r1, sp, #12
  71 0024 FFF7FEFF 		bl	lr11xx_hal_write
  72 0028 05B0     		add	sp, sp, #20
  73              		@ sp needed
  74 002a 30BD     		pop	{r4, r5, pc}
  75              	.L6:
  76              		.align	2
  77              	.L5:
  78 002c 00000000 		.word	.LANCHOR0
  80              		.section	.rodata.lr11xx_crypto_set_key.str1.1,"aMS",%progbits,1
  81              	.LC2:
  82 0000 00       		.ascii	"\000"
  83              		.section	.text.lr11xx_crypto_set_key,"ax",%progbits
  84              		.align	1
  85              		.global	lr11xx_crypto_set_key
  86              		.syntax unified
  87              		.code	16
  88              		.thumb_func
  89              		.fpu softvfp
  91              	lr11xx_crypto_set_key:
  92              		@ args = 0, pretend = 0, frame = 32
  93              		@ frame_needed = 0, uses_anonymous_args = 0
  94 0000 F0B5     		push	{r4, r5, r6, r7, lr}
  95 0002 0024     		movs	r4, #0
  96 0004 8BB0     		sub	sp, sp, #44
  97 0006 1700     		movs	r7, r2
  98 0008 0291     		str	r1, [sp, #8]
  99 000a 0F22     		movs	r2, #15
 100 000c 0600     		movs	r6, r0
 101 000e 2100     		movs	r1, r4
 102 0010 06A8     		add	r0, sp, #24
 103 0012 0393     		str	r3, [sp, #12]
 104 0014 0594     		str	r4, [sp, #20]
 105 0016 FFF7FEFF 		bl	memset
 106 001a 104B     		ldr	r3, .L11
 107 001c 02AA     		add	r2, sp, #8
 108 001e 1B78     		ldrb	r3, [r3]
 109 0020 05AD     		add	r5, sp, #20
 110 0022 1372     		strb	r3, [r2, #8]
 111 0024 0523     		movs	r3, #5
 112 0026 2B70     		strb	r3, [r5]
 113 0028 033B     		subs	r3, r3, #3
 114 002a 6B70     		strb	r3, [r5, #1]
 115 002c AF70     		strb	r7, [r5, #2]
 116              	.L8:
 117 002e 039A     		ldr	r2, [sp, #12]
 118 0030 2B19     		adds	r3, r5, r4
 119 0032 125D     		ldrb	r2, [r2, r4]
ARM GAS  /tmp/ccF4V7bZ.s 			page 3


 120 0034 0134     		adds	r4, r4, #1
 121 0036 DA70     		strb	r2, [r3, #3]
 122 0038 102C     		cmp	r4, #16
 123 003a F8D1     		bne	.L8
 124 003c 0123     		movs	r3, #1
 125 003e 1322     		movs	r2, #19
 126 0040 0093     		str	r3, [sp]
 127 0042 2900     		movs	r1, r5
 128 0044 3000     		movs	r0, r6
 129 0046 04AB     		add	r3, sp, #16
 130 0048 FFF7FEFF 		bl	lr11xx_hal_read
 131 004c 0028     		cmp	r0, #0
 132 004e 03D1     		bne	.L9
 133 0050 02AB     		add	r3, sp, #8
 134 0052 1B7A     		ldrb	r3, [r3, #8]
 135 0054 029A     		ldr	r2, [sp, #8]
 136 0056 1370     		strb	r3, [r2]
 137              	.L9:
 138 0058 0BB0     		add	sp, sp, #44
 139              		@ sp needed
 140 005a F0BD     		pop	{r4, r5, r6, r7, pc}
 141              	.L12:
 142              		.align	2
 143              	.L11:
 144 005c 00000000 		.word	.LC2
 146              		.section	.text.lr11xx_crypto_derive_key,"ax",%progbits
 147              		.align	1
 148              		.global	lr11xx_crypto_derive_key
 149              		.syntax unified
 150              		.code	16
 151              		.thumb_func
 152              		.fpu softvfp
 154              	lr11xx_crypto_derive_key:
 155              		@ args = 4, pretend = 0, frame = 32
 156              		@ frame_needed = 0, uses_anonymous_args = 0
 157 0000 F0B5     		push	{r4, r5, r6, r7, lr}
 158 0002 0024     		movs	r4, #0
 159 0004 8BB0     		sub	sp, sp, #44
 160 0006 1700     		movs	r7, r2
 161 0008 0291     		str	r1, [sp, #8]
 162 000a 1022     		movs	r2, #16
 163 000c 0600     		movs	r6, r0
 164 000e 2100     		movs	r1, r4
 165 0010 06A8     		add	r0, sp, #24
 166 0012 0393     		str	r3, [sp, #12]
 167 0014 FFF7FEFF 		bl	memset
 168 0018 114B     		ldr	r3, .L17
 169 001a 02AA     		add	r2, sp, #8
 170 001c 1B78     		ldrb	r3, [r3]
 171 001e 05AD     		add	r5, sp, #20
 172 0020 1372     		strb	r3, [r2, #8]
 173 0022 0523     		movs	r3, #5
 174 0024 2B70     		strb	r3, [r5]
 175 0026 023B     		subs	r3, r3, #2
 176 0028 6B70     		strb	r3, [r5, #1]
 177 002a 039B     		ldr	r3, [sp, #12]
 178 002c AF70     		strb	r7, [r5, #2]
ARM GAS  /tmp/ccF4V7bZ.s 			page 4


 179 002e EB70     		strb	r3, [r5, #3]
 180              	.L14:
 181 0030 109A     		ldr	r2, [sp, #64]
 182 0032 2B19     		adds	r3, r5, r4
 183 0034 125D     		ldrb	r2, [r2, r4]
 184 0036 0134     		adds	r4, r4, #1
 185 0038 1A71     		strb	r2, [r3, #4]
 186 003a 102C     		cmp	r4, #16
 187 003c F8D1     		bne	.L14
 188 003e 0123     		movs	r3, #1
 189 0040 1422     		movs	r2, #20
 190 0042 0093     		str	r3, [sp]
 191 0044 2900     		movs	r1, r5
 192 0046 3000     		movs	r0, r6
 193 0048 04AB     		add	r3, sp, #16
 194 004a FFF7FEFF 		bl	lr11xx_hal_read
 195 004e 0028     		cmp	r0, #0
 196 0050 03D1     		bne	.L15
 197 0052 02AB     		add	r3, sp, #8
 198 0054 1B7A     		ldrb	r3, [r3, #8]
 199 0056 029A     		ldr	r2, [sp, #8]
 200 0058 1370     		strb	r3, [r2]
 201              	.L15:
 202 005a 0BB0     		add	sp, sp, #44
 203              		@ sp needed
 204 005c F0BD     		pop	{r4, r5, r6, r7, pc}
 205              	.L18:
 206 005e C046     		.align	2
 207              	.L17:
 208 0060 00000000 		.word	.LC2
 210              		.section	.text.lr11xx_crypto_process_join_accept,"ax",%progbits
 211              		.align	1
 212              		.global	lr11xx_crypto_process_join_accept
 213              		.syntax unified
 214              		.code	16
 215              		.thumb_func
 216              		.fpu softvfp
 218              	lr11xx_crypto_process_join_accept:
 219              		@ args = 20, pretend = 0, frame = 104
 220              		@ frame_needed = 0, uses_anonymous_args = 0
 221 0000 F0B5     		push	{r4, r5, r6, r7, lr}
 222 0002 0026     		movs	r6, #0
 223 0004 9DB0     		sub	sp, sp, #116
 224 0006 0593     		str	r3, [sp, #20]
 225 0008 22AB     		add	r3, sp, #136
 226 000a 1F78     		ldrb	r7, [r3]
 227 000c 0391     		str	r1, [sp, #12]
 228 000e 25AB     		add	r3, sp, #148
 229 0010 3100     		movs	r1, r6
 230 0012 0492     		str	r2, [sp, #16]
 231 0014 0500     		movs	r5, r0
 232 0016 2D22     		movs	r2, #45
 233 0018 10A8     		add	r0, sp, #64
 234 001a 1C78     		ldrb	r4, [r3]
 235 001c FFF7FEFF 		bl	memset
 236 0020 1D22     		movs	r2, #29
 237 0022 3100     		movs	r1, r6
ARM GAS  /tmp/ccF4V7bZ.s 			page 5


 238 0024 07A8     		add	r0, sp, #28
 239 0026 0696     		str	r6, [sp, #24]
 240 0028 FFF7FEFF 		bl	memset
 241 002c 0122     		movs	r2, #1
 242 002e B742     		cmp	r7, r6
 243 0030 00D0     		beq	.L20
 244 0032 0B32     		adds	r2, r2, #11
 245              	.L20:
 246 0034 0523     		movs	r3, #5
 247 0036 0FA9     		add	r1, sp, #60
 248 0038 0B70     		strb	r3, [r1]
 249 003a 013B     		subs	r3, r3, #1
 250 003c 4B70     		strb	r3, [r1, #1]
 251 003e 049B     		ldr	r3, [sp, #16]
 252 0040 0F71     		strb	r7, [r1, #4]
 253 0042 8B70     		strb	r3, [r1, #2]
 254 0044 059B     		ldr	r3, [sp, #20]
 255 0046 CB70     		strb	r3, [r1, #3]
 256 0048 0023     		movs	r3, #0
 257              	.L21:
 258 004a 239E     		ldr	r6, [sp, #140]
 259 004c C818     		adds	r0, r1, r3
 260 004e F65C     		ldrb	r6, [r6, r3]
 261 0050 0133     		adds	r3, r3, #1
 262 0052 4671     		strb	r6, [r0, #5]
 263 0054 D8B2     		uxtb	r0, r3
 264 0056 8242     		cmp	r2, r0
 265 0058 F7D8     		bhi	.L21
 266 005a 0023     		movs	r3, #0
 267 005c 501D     		adds	r0, r2, #5
 268 005e 0818     		adds	r0, r1, r0
 269              	.L22:
 270 0060 DEB2     		uxtb	r6, r3
 271 0062 B442     		cmp	r4, r6
 272 0064 16D8     		bhi	.L23
 273 0066 631D     		adds	r3, r4, #5
 274 0068 06AE     		add	r6, sp, #24
 275 006a 9A18     		adds	r2, r3, r2
 276 006c 631C     		adds	r3, r4, #1
 277 006e 0093     		str	r3, [sp]
 278 0070 2800     		movs	r0, r5
 279 0072 3300     		movs	r3, r6
 280 0074 FFF7FEFF 		bl	lr11xx_hal_read
 281 0078 0028     		cmp	r0, #0
 282 007a 09D1     		bne	.L29
 283 007c 3378     		ldrb	r3, [r6]
 284 007e 039A     		ldr	r2, [sp, #12]
 285 0080 1370     		strb	r3, [r2]
 286 0082 002B     		cmp	r3, #0
 287 0084 04D1     		bne	.L29
 288 0086 269B     		ldr	r3, [sp, #152]
 289 0088 1C19     		adds	r4, r3, r4
 290              	.L26:
 291 008a 0136     		adds	r6, r6, #1
 292 008c A342     		cmp	r3, r4
 293 008e 06D1     		bne	.L27
 294              	.L29:
ARM GAS  /tmp/ccF4V7bZ.s 			page 6


 295 0090 1DB0     		add	sp, sp, #116
 296              		@ sp needed
 297 0092 F0BD     		pop	{r4, r5, r6, r7, pc}
 298              	.L23:
 299 0094 249E     		ldr	r6, [sp, #144]
 300 0096 F65C     		ldrb	r6, [r6, r3]
 301 0098 C654     		strb	r6, [r0, r3]
 302 009a 0133     		adds	r3, r3, #1
 303 009c E0E7     		b	.L22
 304              	.L27:
 305 009e 3278     		ldrb	r2, [r6]
 306 00a0 1A70     		strb	r2, [r3]
 307 00a2 0133     		adds	r3, r3, #1
 308 00a4 F1E7     		b	.L26
 310              		.section	.text.lr11xx_crypto_compute_aes_cmac,"ax",%progbits
 311              		.align	1
 312              		.global	lr11xx_crypto_compute_aes_cmac
 313              		.syntax unified
 314              		.code	16
 315              		.thumb_func
 316              		.fpu softvfp
 318              	lr11xx_crypto_compute_aes_cmac:
 319              		@ args = 8, pretend = 0, frame = 304
 320              		@ frame_needed = 0, uses_anonymous_args = 0
 321 0000 F0B5     		push	{r4, r5, r6, r7, lr}
 322 0002 0026     		movs	r6, #0
 323 0004 1700     		movs	r7, r2
 324 0006 1022     		movs	r2, #16
 325 0008 CFB0     		sub	sp, sp, #316
 326 000a 0593     		str	r3, [sp, #20]
 327 000c 54AB     		add	r3, sp, #336
 328 000e 1C88     		ldrh	r4, [r3]
 329 0010 0390     		str	r0, [sp, #12]
 330 0012 0491     		str	r1, [sp, #16]
 331 0014 FF32     		adds	r2, r2, #255
 332 0016 3100     		movs	r1, r6
 333 0018 07AD     		add	r5, sp, #28
 334 001a 0AA8     		add	r0, sp, #40
 335 001c 0996     		str	r6, [sp, #36]
 336 001e FFF7FEFF 		bl	memset
 337 0022 3A00     		movs	r2, r7
 338 0024 059B     		ldr	r3, [sp, #20]
 339 0026 1049     		ldr	r1, .L36
 340 0028 2E71     		strb	r6, [r5, #4]
 341 002a 09A8     		add	r0, sp, #36
 342 002c 0094     		str	r4, [sp]
 343 002e 0796     		str	r6, [sp, #28]
 344 0030 FFF7FEFF 		bl	lr11xx_crypto_fill_cbuffer_opcode_key_data
 345 0034 0523     		movs	r3, #5
 346 0036 0334     		adds	r4, r4, #3
 347 0038 0093     		str	r3, [sp]
 348 003a 0398     		ldr	r0, [sp, #12]
 349 003c 2B00     		movs	r3, r5
 350 003e A2B2     		uxth	r2, r4
 351 0040 09A9     		add	r1, sp, #36
 352 0042 FFF7FEFF 		bl	lr11xx_hal_read
 353 0046 B042     		cmp	r0, r6
ARM GAS  /tmp/ccF4V7bZ.s 			page 7


 354 0048 0CD1     		bne	.L33
 355 004a 2B78     		ldrb	r3, [r5]
 356 004c 049A     		ldr	r2, [sp, #16]
 357 004e 1370     		strb	r3, [r2]
 358 0050 B342     		cmp	r3, r6
 359 0052 07D1     		bne	.L33
 360 0054 0123     		movs	r3, #1
 361 0056 559A     		ldr	r2, [sp, #340]
 362 0058 013A     		subs	r2, r2, #1
 363              	.L34:
 364 005a E95C     		ldrb	r1, [r5, r3]
 365 005c D154     		strb	r1, [r2, r3]
 366 005e 0133     		adds	r3, r3, #1
 367 0060 052B     		cmp	r3, #5
 368 0062 FAD1     		bne	.L34
 369              	.L33:
 370 0064 4FB0     		add	sp, sp, #316
 371              		@ sp needed
 372 0066 F0BD     		pop	{r4, r5, r6, r7, pc}
 373              	.L37:
 374              		.align	2
 375              	.L36:
 376 0068 05050000 		.word	1285
 378              		.section	.text.lr11xx_crypto_verify_aes_cmac,"ax",%progbits
 379              		.align	1
 380              		.global	lr11xx_crypto_verify_aes_cmac
 381              		.syntax unified
 382              		.code	16
 383              		.thumb_func
 384              		.fpu softvfp
 386              	lr11xx_crypto_verify_aes_cmac:
 387              		@ args = 8, pretend = 0, frame = 288
 388              		@ frame_needed = 0, uses_anonymous_args = 0
 389 0000 F0B5     		push	{r4, r5, r6, r7, lr}
 390 0002 CBB0     		sub	sp, sp, #300
 391 0004 0492     		str	r2, [sp, #16]
 392 0006 0025     		movs	r5, #0
 393 0008 0422     		movs	r2, #4
 394 000a 0391     		str	r1, [sp, #12]
 395 000c 0593     		str	r3, [sp, #20]
 396 000e FF32     		adds	r2, r2, #255
 397 0010 50AB     		add	r3, sp, #320
 398 0012 0700     		movs	r7, r0
 399 0014 2900     		movs	r1, r5
 400 0016 09A8     		add	r0, sp, #36
 401 0018 1E88     		ldrh	r6, [r3]
 402 001a FFF7FEFF 		bl	memset
 403 001e 184B     		ldr	r3, .L42
 404 0020 04AA     		add	r2, sp, #16
 405 0022 1B78     		ldrb	r3, [r3]
 406 0024 08AC     		add	r4, sp, #32
 407 0026 1373     		strb	r3, [r2, #12]
 408 0028 0523     		movs	r3, #5
 409 002a 2370     		strb	r3, [r4]
 410 002c 0133     		adds	r3, r3, #1
 411 002e 6370     		strb	r3, [r4, #1]
 412 0030 049B     		ldr	r3, [sp, #16]
ARM GAS  /tmp/ccF4V7bZ.s 			page 8


 413 0032 A370     		strb	r3, [r4, #2]
 414 0034 519B     		ldr	r3, [sp, #324]
 415 0036 1B78     		ldrb	r3, [r3]
 416 0038 E370     		strb	r3, [r4, #3]
 417 003a 519B     		ldr	r3, [sp, #324]
 418 003c 5B78     		ldrb	r3, [r3, #1]
 419 003e 2371     		strb	r3, [r4, #4]
 420 0040 519B     		ldr	r3, [sp, #324]
 421 0042 9B78     		ldrb	r3, [r3, #2]
 422 0044 6371     		strb	r3, [r4, #5]
 423 0046 519B     		ldr	r3, [sp, #324]
 424 0048 DB78     		ldrb	r3, [r3, #3]
 425 004a A371     		strb	r3, [r4, #6]
 426              	.L39:
 427 004c ABB2     		uxth	r3, r5
 428 004e 9E42     		cmp	r6, r3
 429 0050 10D8     		bhi	.L40
 430 0052 0123     		movs	r3, #1
 431 0054 F21D     		adds	r2, r6, #7
 432 0056 0093     		str	r3, [sp]
 433 0058 2100     		movs	r1, r4
 434 005a 3800     		movs	r0, r7
 435 005c 92B2     		uxth	r2, r2
 436 005e 07AB     		add	r3, sp, #28
 437 0060 FFF7FEFF 		bl	lr11xx_hal_read
 438 0064 0028     		cmp	r0, #0
 439 0066 03D1     		bne	.L41
 440 0068 04AB     		add	r3, sp, #16
 441 006a 1B7B     		ldrb	r3, [r3, #12]
 442 006c 039A     		ldr	r2, [sp, #12]
 443 006e 1370     		strb	r3, [r2]
 444              	.L41:
 445 0070 4BB0     		add	sp, sp, #300
 446              		@ sp needed
 447 0072 F0BD     		pop	{r4, r5, r6, r7, pc}
 448              	.L40:
 449 0074 059A     		ldr	r2, [sp, #20]
 450 0076 6319     		adds	r3, r4, r5
 451 0078 525D     		ldrb	r2, [r2, r5]
 452 007a 0135     		adds	r5, r5, #1
 453 007c DA71     		strb	r2, [r3, #7]
 454 007e E5E7     		b	.L39
 455              	.L43:
 456              		.align	2
 457              	.L42:
 458 0080 00000000 		.word	.LC2
 460              		.section	.text.lr11xx_crypto_aes_encrypt_01,"ax",%progbits
 461              		.align	1
 462              		.global	lr11xx_crypto_aes_encrypt_01
 463              		.syntax unified
 464              		.code	16
 465              		.thumb_func
 466              		.fpu softvfp
 468              	lr11xx_crypto_aes_encrypt_01:
 469              		@ args = 8, pretend = 0, frame = 536
 470              		@ frame_needed = 0, uses_anonymous_args = 0
 471 0000 F0B5     		push	{r4, r5, r6, r7, lr}
ARM GAS  /tmp/ccF4V7bZ.s 			page 9


 472 0002 0025     		movs	r5, #0
 473 0004 1700     		movs	r7, r2
 474 0006 1D4C     		ldr	r4, .L51
 475 0008 FF22     		movs	r2, #255
 476 000a A544     		add	sp, sp, r4
 477 000c 0593     		str	r3, [sp, #20]
 478 000e 8EAB     		add	r3, sp, #568
 479 0010 1C88     		ldrh	r4, [r3]
 480 0012 0390     		str	r0, [sp, #12]
 481 0014 0491     		str	r1, [sp, #16]
 482 0016 48A8     		add	r0, sp, #288
 483 0018 2900     		movs	r1, r5
 484 001a 4795     		str	r5, [sp, #284]
 485 001c FFF7FEFF 		bl	memset
 486 0020 FD22     		movs	r2, #253
 487 0022 2900     		movs	r1, r5
 488 0024 07A8     		add	r0, sp, #28
 489 0026 0695     		str	r5, [sp, #24]
 490 0028 FFF7FEFF 		bl	memset
 491 002c 3A00     		movs	r2, r7
 492 002e 059B     		ldr	r3, [sp, #20]
 493 0030 1349     		ldr	r1, .L51+4
 494 0032 47A8     		add	r0, sp, #284
 495 0034 0094     		str	r4, [sp]
 496 0036 FFF7FEFF 		bl	lr11xx_crypto_fill_cbuffer_opcode_key_data
 497 003a 631C     		adds	r3, r4, #1
 498 003c 9BB2     		uxth	r3, r3
 499 003e 06AE     		add	r6, sp, #24
 500 0040 E21C     		adds	r2, r4, #3
 501 0042 0093     		str	r3, [sp]
 502 0044 0398     		ldr	r0, [sp, #12]
 503 0046 3300     		movs	r3, r6
 504 0048 92B2     		uxth	r2, r2
 505 004a 47A9     		add	r1, sp, #284
 506 004c FFF7FEFF 		bl	lr11xx_hal_read
 507 0050 A842     		cmp	r0, r5
 508 0052 04D1     		bne	.L50
 509 0054 3378     		ldrb	r3, [r6]
 510 0056 049A     		ldr	r2, [sp, #16]
 511 0058 1370     		strb	r3, [r2]
 512 005a AB42     		cmp	r3, r5
 513 005c 0CD0     		beq	.L49
 514              	.L50:
 515 005e 8923     		movs	r3, #137
 516 0060 9B00     		lsls	r3, r3, #2
 517 0062 9D44     		add	sp, sp, r3
 518              		@ sp needed
 519 0064 F0BD     		pop	{r4, r5, r6, r7, pc}
 520              	.L48:
 521 0066 F218     		adds	r2, r6, r3
 522 0068 5278     		ldrb	r2, [r2, #1]
 523 006a 8F99     		ldr	r1, [sp, #572]
 524 006c CA54     		strb	r2, [r1, r3]
 525 006e 0133     		adds	r3, r3, #1
 526              	.L46:
 527 0070 9AB2     		uxth	r2, r3
 528 0072 9442     		cmp	r4, r2
ARM GAS  /tmp/ccF4V7bZ.s 			page 10


 529 0074 F7D8     		bhi	.L48
 530 0076 F2E7     		b	.L50
 531              	.L49:
 532 0078 0300     		movs	r3, r0
 533 007a F9E7     		b	.L46
 534              	.L52:
 535              		.align	2
 536              	.L51:
 537 007c DCFDFFFF 		.word	-548
 538 0080 07050000 		.word	1287
 540              		.section	.text.lr11xx_crypto_aes_encrypt,"ax",%progbits
 541              		.align	1
 542              		.global	lr11xx_crypto_aes_encrypt
 543              		.syntax unified
 544              		.code	16
 545              		.thumb_func
 546              		.fpu softvfp
 548              	lr11xx_crypto_aes_encrypt:
 549              		@ args = 8, pretend = 0, frame = 536
 550              		@ frame_needed = 0, uses_anonymous_args = 0
 551 0000 F0B5     		push	{r4, r5, r6, r7, lr}
 552 0002 0025     		movs	r5, #0
 553 0004 1E4C     		ldr	r4, .L60
 554 0006 1700     		movs	r7, r2
 555 0008 A544     		add	sp, sp, r4
 556 000a FF22     		movs	r2, #255
 557 000c 0390     		str	r0, [sp, #12]
 558 000e 0491     		str	r1, [sp, #16]
 559 0010 0593     		str	r3, [sp, #20]
 560 0012 2900     		movs	r1, r5
 561 0014 8EAB     		add	r3, sp, #568
 562 0016 48A8     		add	r0, sp, #288
 563 0018 1C88     		ldrh	r4, [r3]
 564 001a 4795     		str	r5, [sp, #284]
 565 001c FFF7FEFF 		bl	memset
 566 0020 FD22     		movs	r2, #253
 567 0022 2900     		movs	r1, r5
 568 0024 07A8     		add	r0, sp, #28
 569 0026 0695     		str	r5, [sp, #24]
 570 0028 FFF7FEFF 		bl	memset
 571 002c A121     		movs	r1, #161
 572 002e 3A00     		movs	r2, r7
 573 0030 059B     		ldr	r3, [sp, #20]
 574 0032 C900     		lsls	r1, r1, #3
 575 0034 47A8     		add	r0, sp, #284
 576 0036 0094     		str	r4, [sp]
 577 0038 FFF7FEFF 		bl	lr11xx_crypto_fill_cbuffer_opcode_key_data
 578 003c 631C     		adds	r3, r4, #1
 579 003e 9BB2     		uxth	r3, r3
 580 0040 06AE     		add	r6, sp, #24
 581 0042 E21C     		adds	r2, r4, #3
 582 0044 0093     		str	r3, [sp]
 583 0046 0398     		ldr	r0, [sp, #12]
 584 0048 3300     		movs	r3, r6
 585 004a 92B2     		uxth	r2, r2
 586 004c 47A9     		add	r1, sp, #284
 587 004e FFF7FEFF 		bl	lr11xx_hal_read
ARM GAS  /tmp/ccF4V7bZ.s 			page 11


 588 0052 A842     		cmp	r0, r5
 589 0054 04D1     		bne	.L59
 590 0056 3378     		ldrb	r3, [r6]
 591 0058 049A     		ldr	r2, [sp, #16]
 592 005a 1370     		strb	r3, [r2]
 593 005c AB42     		cmp	r3, r5
 594 005e 0CD0     		beq	.L58
 595              	.L59:
 596 0060 8923     		movs	r3, #137
 597 0062 9B00     		lsls	r3, r3, #2
 598 0064 9D44     		add	sp, sp, r3
 599              		@ sp needed
 600 0066 F0BD     		pop	{r4, r5, r6, r7, pc}
 601              	.L57:
 602 0068 F218     		adds	r2, r6, r3
 603 006a 5278     		ldrb	r2, [r2, #1]
 604 006c 8F99     		ldr	r1, [sp, #572]
 605 006e CA54     		strb	r2, [r1, r3]
 606 0070 0133     		adds	r3, r3, #1
 607              	.L55:
 608 0072 9AB2     		uxth	r2, r3
 609 0074 9442     		cmp	r4, r2
 610 0076 F7D8     		bhi	.L57
 611 0078 F2E7     		b	.L59
 612              	.L58:
 613 007a 0300     		movs	r3, r0
 614 007c F9E7     		b	.L55
 615              	.L61:
 616 007e C046     		.align	2
 617              	.L60:
 618 0080 DCFDFFFF 		.word	-548
 620              		.section	.text.lr11xx_crypto_aes_decrypt,"ax",%progbits
 621              		.align	1
 622              		.global	lr11xx_crypto_aes_decrypt
 623              		.syntax unified
 624              		.code	16
 625              		.thumb_func
 626              		.fpu softvfp
 628              	lr11xx_crypto_aes_decrypt:
 629              		@ args = 8, pretend = 0, frame = 536
 630              		@ frame_needed = 0, uses_anonymous_args = 0
 631 0000 F0B5     		push	{r4, r5, r6, r7, lr}
 632 0002 0025     		movs	r5, #0
 633 0004 1700     		movs	r7, r2
 634 0006 1D4C     		ldr	r4, .L69
 635 0008 FF22     		movs	r2, #255
 636 000a A544     		add	sp, sp, r4
 637 000c 0593     		str	r3, [sp, #20]
 638 000e 8EAB     		add	r3, sp, #568
 639 0010 1C88     		ldrh	r4, [r3]
 640 0012 0390     		str	r0, [sp, #12]
 641 0014 0491     		str	r1, [sp, #16]
 642 0016 48A8     		add	r0, sp, #288
 643 0018 2900     		movs	r1, r5
 644 001a 4795     		str	r5, [sp, #284]
 645 001c FFF7FEFF 		bl	memset
 646 0020 FD22     		movs	r2, #253
ARM GAS  /tmp/ccF4V7bZ.s 			page 12


 647 0022 2900     		movs	r1, r5
 648 0024 07A8     		add	r0, sp, #28
 649 0026 0695     		str	r5, [sp, #24]
 650 0028 FFF7FEFF 		bl	memset
 651 002c 3A00     		movs	r2, r7
 652 002e 059B     		ldr	r3, [sp, #20]
 653 0030 1349     		ldr	r1, .L69+4
 654 0032 47A8     		add	r0, sp, #284
 655 0034 0094     		str	r4, [sp]
 656 0036 FFF7FEFF 		bl	lr11xx_crypto_fill_cbuffer_opcode_key_data
 657 003a 631C     		adds	r3, r4, #1
 658 003c 9BB2     		uxth	r3, r3
 659 003e 06AE     		add	r6, sp, #24
 660 0040 E21C     		adds	r2, r4, #3
 661 0042 0093     		str	r3, [sp]
 662 0044 0398     		ldr	r0, [sp, #12]
 663 0046 3300     		movs	r3, r6
 664 0048 92B2     		uxth	r2, r2
 665 004a 47A9     		add	r1, sp, #284
 666 004c FFF7FEFF 		bl	lr11xx_hal_read
 667 0050 A842     		cmp	r0, r5
 668 0052 04D1     		bne	.L68
 669 0054 3378     		ldrb	r3, [r6]
 670 0056 049A     		ldr	r2, [sp, #16]
 671 0058 1370     		strb	r3, [r2]
 672 005a AB42     		cmp	r3, r5
 673 005c 0CD0     		beq	.L67
 674              	.L68:
 675 005e 8923     		movs	r3, #137
 676 0060 9B00     		lsls	r3, r3, #2
 677 0062 9D44     		add	sp, sp, r3
 678              		@ sp needed
 679 0064 F0BD     		pop	{r4, r5, r6, r7, pc}
 680              	.L66:
 681 0066 F218     		adds	r2, r6, r3
 682 0068 5278     		ldrb	r2, [r2, #1]
 683 006a 8F99     		ldr	r1, [sp, #572]
 684 006c CA54     		strb	r2, [r1, r3]
 685 006e 0133     		adds	r3, r3, #1
 686              	.L64:
 687 0070 9AB2     		uxth	r2, r3
 688 0072 9442     		cmp	r4, r2
 689 0074 F7D8     		bhi	.L66
 690 0076 F2E7     		b	.L68
 691              	.L67:
 692 0078 0300     		movs	r3, r0
 693 007a F9E7     		b	.L64
 694              	.L70:
 695              		.align	2
 696              	.L69:
 697 007c DCFDFFFF 		.word	-548
 698 0080 09050000 		.word	1289
 700              		.section	.text.lr11xx_crypto_store_to_flash,"ax",%progbits
 701              		.align	1
 702              		.global	lr11xx_crypto_store_to_flash
 703              		.syntax unified
 704              		.code	16
ARM GAS  /tmp/ccF4V7bZ.s 			page 13


 705              		.thumb_func
 706              		.fpu softvfp
 708              	lr11xx_crypto_store_to_flash:
 709              		@ args = 0, pretend = 0, frame = 8
 710              		@ frame_needed = 0, uses_anonymous_args = 0
 711 0000 1FB5     		push	{r0, r1, r2, r3, r4, lr}
 712 0002 6A46     		mov	r2, sp
 713 0004 094B     		ldr	r3, .L73
 714 0006 0C00     		movs	r4, r1
 715 0008 1B78     		ldrb	r3, [r3]
 716 000a 03A9     		add	r1, sp, #12
 717 000c 1372     		strb	r3, [r2, #8]
 718 000e 084B     		ldr	r3, .L73+4
 719 0010 0222     		movs	r2, #2
 720 0012 0B80     		strh	r3, [r1]
 721 0014 0123     		movs	r3, #1
 722 0016 0093     		str	r3, [sp]
 723 0018 02AB     		add	r3, sp, #8
 724 001a FFF7FEFF 		bl	lr11xx_hal_read
 725 001e 0028     		cmp	r0, #0
 726 0020 02D1     		bne	.L72
 727 0022 6B46     		mov	r3, sp
 728 0024 1B7A     		ldrb	r3, [r3, #8]
 729 0026 2370     		strb	r3, [r4]
 730              	.L72:
 731 0028 04B0     		add	sp, sp, #16
 732              		@ sp needed
 733 002a 10BD     		pop	{r4, pc}
 734              	.L74:
 735              		.align	2
 736              	.L73:
 737 002c 00000000 		.word	.LC2
 738 0030 050A0000 		.word	2565
 740              		.section	.text.lr11xx_crypto_restore_from_flash,"ax",%progbits
 741              		.align	1
 742              		.global	lr11xx_crypto_restore_from_flash
 743              		.syntax unified
 744              		.code	16
 745              		.thumb_func
 746              		.fpu softvfp
 748              	lr11xx_crypto_restore_from_flash:
 749              		@ args = 0, pretend = 0, frame = 8
 750              		@ frame_needed = 0, uses_anonymous_args = 0
 751 0000 1FB5     		push	{r0, r1, r2, r3, r4, lr}
 752 0002 6A46     		mov	r2, sp
 753 0004 094B     		ldr	r3, .L77
 754 0006 0C00     		movs	r4, r1
 755 0008 1B78     		ldrb	r3, [r3]
 756 000a 03A9     		add	r1, sp, #12
 757 000c 1372     		strb	r3, [r2, #8]
 758 000e 084B     		ldr	r3, .L77+4
 759 0010 0222     		movs	r2, #2
 760 0012 0B80     		strh	r3, [r1]
 761 0014 0123     		movs	r3, #1
 762 0016 0093     		str	r3, [sp]
 763 0018 02AB     		add	r3, sp, #8
 764 001a FFF7FEFF 		bl	lr11xx_hal_read
ARM GAS  /tmp/ccF4V7bZ.s 			page 14


 765 001e 0028     		cmp	r0, #0
 766 0020 02D1     		bne	.L76
 767 0022 6B46     		mov	r3, sp
 768 0024 1B7A     		ldrb	r3, [r3, #8]
 769 0026 2370     		strb	r3, [r4]
 770              	.L76:
 771 0028 04B0     		add	sp, sp, #16
 772              		@ sp needed
 773 002a 10BD     		pop	{r4, pc}
 774              	.L78:
 775              		.align	2
 776              	.L77:
 777 002c 00000000 		.word	.LC2
 778 0030 050B0000 		.word	2821
 780              		.section	.text.lr11xx_crypto_set_parameter,"ax",%progbits
 781              		.align	1
 782              		.global	lr11xx_crypto_set_parameter
 783              		.syntax unified
 784              		.code	16
 785              		.thumb_func
 786              		.fpu softvfp
 788              	lr11xx_crypto_set_parameter:
 789              		@ args = 0, pretend = 0, frame = 16
 790              		@ frame_needed = 0, uses_anonymous_args = 0
 791 0000 30B5     		push	{r4, r5, lr}
 792 0002 87B0     		sub	sp, sp, #28
 793 0004 6D46     		mov	r5, sp
 794 0006 0C00     		movs	r4, r1
 795 0008 0E49     		ldr	r1, .L81
 796 000a 0978     		ldrb	r1, [r1]
 797 000c 2973     		strb	r1, [r5, #12]
 798 000e 04A9     		add	r1, sp, #16
 799 0010 8A70     		strb	r2, [r1, #2]
 800 0012 1A78     		ldrb	r2, [r3]
 801 0014 0525     		movs	r5, #5
 802 0016 CA70     		strb	r2, [r1, #3]
 803 0018 5A78     		ldrb	r2, [r3, #1]
 804 001a 0D70     		strb	r5, [r1]
 805 001c 0A71     		strb	r2, [r1, #4]
 806 001e 9A78     		ldrb	r2, [r3, #2]
 807 0020 DB78     		ldrb	r3, [r3, #3]
 808 0022 0835     		adds	r5, r5, #8
 809 0024 8B71     		strb	r3, [r1, #6]
 810 0026 0123     		movs	r3, #1
 811 0028 4A71     		strb	r2, [r1, #5]
 812 002a 4D70     		strb	r5, [r1, #1]
 813 002c 0722     		movs	r2, #7
 814 002e 0093     		str	r3, [sp]
 815 0030 03AB     		add	r3, sp, #12
 816 0032 FFF7FEFF 		bl	lr11xx_hal_read
 817 0036 0028     		cmp	r0, #0
 818 0038 02D1     		bne	.L80
 819 003a 6B46     		mov	r3, sp
 820 003c 1B7B     		ldrb	r3, [r3, #12]
 821 003e 2370     		strb	r3, [r4]
 822              	.L80:
 823 0040 07B0     		add	sp, sp, #28
ARM GAS  /tmp/ccF4V7bZ.s 			page 15


 824              		@ sp needed
 825 0042 30BD     		pop	{r4, r5, pc}
 826              	.L82:
 827              		.align	2
 828              	.L81:
 829 0044 00000000 		.word	.LC2
 831              		.section	.text.lr11xx_crypto_get_parameter,"ax",%progbits
 832              		.align	1
 833              		.global	lr11xx_crypto_get_parameter
 834              		.syntax unified
 835              		.code	16
 836              		.thumb_func
 837              		.fpu softvfp
 839              	lr11xx_crypto_get_parameter:
 840              		@ args = 0, pretend = 0, frame = 16
 841              		@ frame_needed = 0, uses_anonymous_args = 0
 842 0000 F0B5     		push	{r4, r5, r6, r7, lr}
 843 0002 1C00     		movs	r4, r3
 844 0004 0023     		movs	r3, #0
 845 0006 0E27     		movs	r7, #14
 846 0008 87B0     		sub	sp, sp, #28
 847 000a 04AD     		add	r5, sp, #16
 848 000c 2B71     		strb	r3, [r5, #4]
 849 000e 0E00     		movs	r6, r1
 850 0010 0493     		str	r3, [sp, #16]
 851 0012 03A9     		add	r1, sp, #12
 852 0014 0533     		adds	r3, r3, #5
 853 0016 0B70     		strb	r3, [r1]
 854 0018 8A70     		strb	r2, [r1, #2]
 855 001a 4F70     		strb	r7, [r1, #1]
 856 001c 0322     		movs	r2, #3
 857 001e 0093     		str	r3, [sp]
 858 0020 2B00     		movs	r3, r5
 859 0022 FFF7FEFF 		bl	lr11xx_hal_read
 860 0026 0028     		cmp	r0, #0
 861 0028 0AD1     		bne	.L84
 862 002a 2B78     		ldrb	r3, [r5]
 863 002c 3370     		strb	r3, [r6]
 864 002e 002B     		cmp	r3, #0
 865 0030 06D1     		bne	.L84
 866 0032 0122     		movs	r2, #1
 867 0034 013C     		subs	r4, r4, #1
 868              	.L85:
 869 0036 AB5C     		ldrb	r3, [r5, r2]
 870 0038 A354     		strb	r3, [r4, r2]
 871 003a 0132     		adds	r2, r2, #1
 872 003c 052A     		cmp	r2, #5
 873 003e FAD1     		bne	.L85
 874              	.L84:
 875 0040 07B0     		add	sp, sp, #28
 876              		@ sp needed
 877 0042 F0BD     		pop	{r4, r5, r6, r7, pc}
 879              		.section	.rodata
 880              		.set	.LANCHOR0,. + 0
 881              	.LC0:
 882 0000 0000     		.ascii	"\000\000"
 883 0002 00       		.space	1
ARM GAS  /tmp/ccF4V7bZ.s 			page 16


 884              		.ident	"GCC: (15:10.3-2021.07-4) 10.3.1 20210621 (release)"
ARM GAS  /tmp/ccF4V7bZ.s 			page 17

