ARM GAS  /tmp/ccSzR2eS.s 			page 1


   1              		.cpu cortex-m0
   2              		.eabi_attribute 23, 1
   3              		.eabi_attribute 24, 1
   4              		.eabi_attribute 25, 1
   5              		.eabi_attribute 26, 1
   6              		.eabi_attribute 30, 4
   7              		.eabi_attribute 34, 0
   8              		.eabi_attribute 18, 4
   9              		.file	"lr1_stack_mac_layer.c"
  10              		.text
  11              		.section	.text.ral_compute_lora_ldro,"ax",%progbits
  12              		.align	1
  13              		.arch armv6s-m
  14              		.syntax unified
  15              		.code	16
  16              		.thumb_func
  17              		.fpu softvfp
  19              	ral_compute_lora_ldro:
  20              		@ args = 0, pretend = 0, frame = 0
  21              		@ frame_needed = 0, uses_anonymous_args = 0
  22 0000 0300     		movs	r3, r0
  23 0002 00B5     		push	{lr}
  24 0004 0800     		movs	r0, r1
  25 0006 0C29     		cmp	r1, #12
  26 0008 21D8     		bhi	.L9
  27 000a FFF7FEFF 		bl	__gnu_thumb1_case_uqi
  28              	.L4:
  29 000e 07       		.byte	(.L8-.L4)/2
  30 000f 07       		.byte	(.L8-.L4)/2
  31 0010 07       		.byte	(.L8-.L4)/2
  32 0011 07       		.byte	(.L8-.L4)/2
  33 0012 07       		.byte	(.L8-.L4)/2
  34 0013 1B       		.byte	(.L7-.L4)/2
  35 0014 16       		.byte	(.L6-.L4)/2
  36 0015 0E       		.byte	(.L3-.L4)/2
  37 0016 0E       		.byte	(.L3-.L4)/2
  38 0017 09       		.byte	(.L5-.L4)/2
  39 0018 0E       		.byte	(.L3-.L4)/2
  40 0019 20       		.byte	(.L9-.L4)/2
  41 001a 0E       		.byte	(.L3-.L4)/2
  42 001b 00       		.p2align 1
  43              	.L8:
  44 001c 0120     		movs	r0, #1
  45              	.L2:
  46              		@ sp needed
  47 001e 00BD     		pop	{pc}
  48              	.L5:
  49 0020 0C3B     		subs	r3, r3, #12
  50 0022 5A42     		rsbs	r2, r3, #0
  51 0024 5341     		adcs	r3, r3, r2
  52 0026 D8B2     		uxtb	r0, r3
  53 0028 F9E7     		b	.L2
  54              	.L3:
  55 002a 0020     		movs	r0, #0
  56 002c 0122     		movs	r2, #1
  57 002e 0B3B     		subs	r3, r3, #11
  58 0030 DBB2     		uxtb	r3, r3
ARM GAS  /tmp/ccSzR2eS.s 			page 2


  59              	.L10:
  60 0032 9A42     		cmp	r2, r3
  61 0034 4041     		adcs	r0, r0, r0
  62 0036 C0B2     		uxtb	r0, r0
  63 0038 F1E7     		b	.L2
  64              	.L6:
  65 003a 0A3B     		subs	r3, r3, #10
  66 003c 0020     		movs	r0, #0
  67 003e 0222     		movs	r2, #2
  68 0040 DBB2     		uxtb	r3, r3
  69 0042 F6E7     		b	.L10
  70              	.L7:
  71 0044 093B     		subs	r3, r3, #9
  72 0046 0020     		movs	r0, #0
  73 0048 0322     		movs	r2, #3
  74 004a DBB2     		uxtb	r3, r3
  75 004c F1E7     		b	.L10
  76              	.L9:
  77 004e 0020     		movs	r0, #0
  78 0050 E5E7     		b	.L2
  80              		.section	.text.ral_set_dio_irq_params,"ax",%progbits
  81              		.align	1
  82              		.syntax unified
  83              		.code	16
  84              		.thumb_func
  85              		.fpu softvfp
  87              	ral_set_dio_irq_params:
  88              		@ args = 0, pretend = 0, frame = 0
  89              		@ frame_needed = 0, uses_anonymous_args = 0
  90 0000 10B5     		push	{r4, lr}
  91 0002 036E     		ldr	r3, [r0, #96]
  92 0004 0068     		ldr	r0, [r0]
  93 0006 9847     		blx	r3
  94              		@ sp needed
  95 0008 10BD     		pop	{r4, pc}
  97              		.section	.text.lr1_stack_mac_tx_lora_launch_callback_for_rp,"ax",%progbits
  98              		.align	1
  99              		.global	lr1_stack_mac_tx_lora_launch_callback_for_rp
 100              		.syntax unified
 101              		.code	16
 102              		.thumb_func
 103              		.fpu softvfp
 105              	lr1_stack_mac_tx_lora_launch_callback_for_rp:
 106              		@ args = 0, pretend = 0, frame = 0
 107              		@ frame_needed = 0, uses_anonymous_args = 0
 108 0000 8421     		movs	r1, #132
 109 0002 70B5     		push	{r4, r5, r6, lr}
 110 0004 9C25     		movs	r5, #156
 111 0006 294B     		ldr	r3, .L31
 112 0008 2D01     		lsls	r5, r5, #4
 113 000a C65C     		ldrb	r6, [r0, r3]
 114 000c 4359     		ldr	r3, [r0, r5]
 115 000e 7143     		muls	r1, r6
 116 0010 F433     		adds	r3, r3, #244
 117 0012 2031     		adds	r1, r1, #32
 118 0014 0400     		movs	r4, r0
 119 0016 4118     		adds	r1, r0, r1
ARM GAS  /tmp/ccSzR2eS.s 			page 3


 120 0018 1B68     		ldr	r3, [r3]
 121 001a 4059     		ldr	r0, [r0, r5]
 122 001c 9847     		blx	r3
 123 001e 0028     		cmp	r0, #0
 124 0020 03D0     		beq	.L13
 125 0022 EE21     		movs	r1, #238
 126 0024 2248     		ldr	r0, .L31+4
 127 0026 FFF7FEFF 		bl	smtc_modem_hal_assert_fail
 128              	.L13:
 129 002a 0221     		movs	r1, #2
 130 002c 6059     		ldr	r0, [r4, r5]
 131 002e FFF7FEFF 		bl	ral_set_dio_irq_params
 132 0032 0028     		cmp	r0, #0
 133 0034 03D0     		beq	.L14
 134 0036 EF21     		movs	r1, #239
 135 0038 1D48     		ldr	r0, .L31+4
 136 003a FFF7FEFF 		bl	smtc_modem_hal_assert_fail
 137              	.L14:
 138 003e 9C23     		movs	r3, #156
 139 0040 1B01     		lsls	r3, r3, #4
 140 0042 E058     		ldr	r0, [r4, r3]
 141 0044 E523     		movs	r3, #229
 142 0046 9B00     		lsls	r3, r3, #2
 143 0048 F318     		adds	r3, r6, r3
 144 004a 5B00     		lsls	r3, r3, #1
 145 004c 1A5B     		ldrh	r2, [r3, r4]
 146 004e 3300     		movs	r3, r6
 147 0050 BF33     		adds	r3, r3, #191
 148 0052 FF33     		adds	r3, r3, #255
 149 0054 9B00     		lsls	r3, r3, #2
 150 0056 E318     		adds	r3, r4, r3
 151 0058 C56C     		ldr	r5, [r0, #76]
 152 005a 5968     		ldr	r1, [r3, #4]
 153 005c 0068     		ldr	r0, [r0]
 154 005e A847     		blx	r5
 155 0060 0028     		cmp	r0, #0
 156 0062 03D0     		beq	.L15
 157 0064 F021     		movs	r1, #240
 158 0066 1248     		ldr	r0, .L31+4
 159 0068 FFF7FEFF 		bl	smtc_modem_hal_assert_fail
 160              	.L15:
 161 006c 1C25     		movs	r5, #28
 162 006e 7543     		muls	r5, r6
 163 0070 104B     		ldr	r3, .L31+8
 164 0072 6519     		adds	r5, r4, r5
 165 0074 ED18     		adds	r5, r5, r3
 166              	.L16:
 167 0076 2E68     		ldr	r6, [r5]
 168 0078 FFF7FEFF 		bl	smtc_modem_hal_get_time_in_ms
 169 007c 361A     		subs	r6, r6, r0
 170 007e 002E     		cmp	r6, #0
 171 0080 F9DC     		bgt	.L16
 172 0082 FFF7FEFF 		bl	smtc_modem_hal_start_radio_tcxo
 173 0086 9C23     		movs	r3, #156
 174 0088 1B01     		lsls	r3, r3, #4
 175 008a E358     		ldr	r3, [r4, r3]
 176 008c 1A6A     		ldr	r2, [r3, #32]
ARM GAS  /tmp/ccSzR2eS.s 			page 4


 177 008e 1868     		ldr	r0, [r3]
 178 0090 9047     		blx	r2
 179 0092 0028     		cmp	r0, #0
 180 0094 03D0     		beq	.L17
 181 0096 F921     		movs	r1, #249
 182 0098 0548     		ldr	r0, .L31+4
 183 009a FFF7FEFF 		bl	smtc_modem_hal_assert_fail
 184              	.L17:
 185              		@ sp needed
 186 009e FFF7FEFF 		bl	smtc_modem_hal_get_time_in_ms
 187 00a2 8F23     		movs	r3, #143
 188 00a4 1B01     		lsls	r3, r3, #4
 189 00a6 E418     		adds	r4, r4, r3
 190 00a8 2065     		str	r0, [r4, #80]
 191 00aa 70BD     		pop	{r4, r5, r6, pc}
 192              	.L32:
 193              		.align	2
 194              	.L31:
 195 00ac 84090000 		.word	2436
 196 00b0 00000000 		.word	.LANCHOR0
 197 00b4 D4050000 		.word	1492
 199              		.section	.text.lr1_stack_mac_rx_lora_launch_callback_for_rp,"ax",%progbits
 200              		.align	1
 201              		.global	lr1_stack_mac_rx_lora_launch_callback_for_rp
 202              		.syntax unified
 203              		.code	16
 204              		.thumb_func
 205              		.fpu softvfp
 207              	lr1_stack_mac_rx_lora_launch_callback_for_rp:
 208              		@ args = 0, pretend = 0, frame = 0
 209              		@ frame_needed = 0, uses_anonymous_args = 0
 210 0000 8421     		movs	r1, #132
 211 0002 F8B5     		push	{r3, r4, r5, r6, r7, lr}
 212 0004 9C25     		movs	r5, #156
 213 0006 214B     		ldr	r3, .L48
 214 0008 2D01     		lsls	r5, r5, #4
 215 000a C65C     		ldrb	r6, [r0, r3]
 216 000c 4359     		ldr	r3, [r0, r5]
 217 000e 7143     		muls	r1, r6
 218 0010 F433     		adds	r3, r3, #244
 219 0012 4C31     		adds	r1, r1, #76
 220 0014 0400     		movs	r4, r0
 221 0016 4118     		adds	r1, r0, r1
 222 0018 1B68     		ldr	r3, [r3]
 223 001a 4059     		ldr	r0, [r0, r5]
 224 001c 9847     		blx	r3
 225 001e 0028     		cmp	r0, #0
 226 0020 04D0     		beq	.L34
 227 0022 9921     		movs	r1, #153
 228 0024 1A48     		ldr	r0, .L48+4
 229 0026 4900     		lsls	r1, r1, #1
 230 0028 FFF7FEFF 		bl	smtc_modem_hal_assert_fail
 231              	.L34:
 232 002c CC21     		movs	r1, #204
 233 002e 6059     		ldr	r0, [r4, r5]
 234 0030 FFF7FEFF 		bl	ral_set_dio_irq_params
 235 0034 0028     		cmp	r0, #0
ARM GAS  /tmp/ccSzR2eS.s 			page 5


 236 0036 04D0     		beq	.L35
 237 0038 3421     		movs	r1, #52
 238 003a 1548     		ldr	r0, .L48+4
 239 003c FF31     		adds	r1, r1, #255
 240 003e FFF7FEFF 		bl	smtc_modem_hal_assert_fail
 241              	.L35:
 242 0042 1C25     		movs	r5, #28
 243 0044 7543     		muls	r5, r6
 244 0046 134B     		ldr	r3, .L48+8
 245 0048 6519     		adds	r5, r4, r5
 246 004a ED18     		adds	r5, r5, r3
 247              	.L36:
 248 004c 2F68     		ldr	r7, [r5]
 249 004e FFF7FEFF 		bl	smtc_modem_hal_get_time_in_ms
 250 0052 3F1A     		subs	r7, r7, r0
 251 0054 002F     		cmp	r7, #0
 252 0056 F9DC     		bgt	.L36
 253 0058 FFF7FEFF 		bl	smtc_modem_hal_start_radio_tcxo
 254 005c 9C23     		movs	r3, #156
 255 005e 1B01     		lsls	r3, r3, #4
 256 0060 E258     		ldr	r2, [r4, r3]
 257 0062 8423     		movs	r3, #132
 258 0064 5E43     		muls	r6, r3
 259 0066 A619     		adds	r6, r4, r6
 260 0068 536A     		ldr	r3, [r2, #36]
 261 006a B16F     		ldr	r1, [r6, #120]
 262 006c 1068     		ldr	r0, [r2]
 263 006e 9847     		blx	r3
 264 0070 0028     		cmp	r0, #0
 265 0072 04D0     		beq	.L37
 266 0074 9E21     		movs	r1, #158
 267 0076 0648     		ldr	r0, .L48+4
 268 0078 4900     		lsls	r1, r1, #1
 269 007a FFF7FEFF 		bl	smtc_modem_hal_assert_fail
 270              	.L37:
 271              		@ sp needed
 272 007e FFF7FEFF 		bl	smtc_modem_hal_get_time_in_ms
 273 0082 8F23     		movs	r3, #143
 274 0084 1B01     		lsls	r3, r3, #4
 275 0086 E418     		adds	r4, r4, r3
 276 0088 6065     		str	r0, [r4, #84]
 277 008a F8BD     		pop	{r3, r4, r5, r6, r7, pc}
 278              	.L49:
 279              		.align	2
 280              	.L48:
 281 008c 84090000 		.word	2436
 282 0090 00000000 		.word	.LANCHOR1
 283 0094 D4050000 		.word	1492
 285              		.section	.text.lr1_stack_mac_rx_gfsk_launch_callback_for_rp,"ax",%progbits
 286              		.align	1
 287              		.global	lr1_stack_mac_rx_gfsk_launch_callback_for_rp
 288              		.syntax unified
 289              		.code	16
 290              		.thumb_func
 291              		.fpu softvfp
 293              	lr1_stack_mac_rx_gfsk_launch_callback_for_rp:
 294              		@ args = 0, pretend = 0, frame = 0
ARM GAS  /tmp/ccSzR2eS.s 			page 6


 295              		@ frame_needed = 0, uses_anonymous_args = 0
 296 0000 8421     		movs	r1, #132
 297 0002 F8B5     		push	{r3, r4, r5, r6, r7, lr}
 298 0004 9C25     		movs	r5, #156
 299 0006 214B     		ldr	r3, .L65
 300 0008 2D01     		lsls	r5, r5, #4
 301 000a C65C     		ldrb	r6, [r0, r3]
 302 000c 4359     		ldr	r3, [r0, r5]
 303 000e 7143     		muls	r1, r6
 304 0010 F033     		adds	r3, r3, #240
 305 0012 4C31     		adds	r1, r1, #76
 306 0014 0400     		movs	r4, r0
 307 0016 4118     		adds	r1, r0, r1
 308 0018 1B68     		ldr	r3, [r3]
 309 001a 4059     		ldr	r0, [r0, r5]
 310 001c 9847     		blx	r3
 311 001e 0028     		cmp	r0, #0
 312 0020 04D0     		beq	.L51
 313 0022 4621     		movs	r1, #70
 314 0024 1A48     		ldr	r0, .L65+4
 315 0026 FF31     		adds	r1, r1, #255
 316 0028 FFF7FEFF 		bl	smtc_modem_hal_assert_fail
 317              	.L51:
 318 002c 8C21     		movs	r1, #140
 319 002e 6059     		ldr	r0, [r4, r5]
 320 0030 FFF7FEFF 		bl	ral_set_dio_irq_params
 321 0034 0028     		cmp	r0, #0
 322 0036 04D0     		beq	.L52
 323 0038 A321     		movs	r1, #163
 324 003a 1548     		ldr	r0, .L65+4
 325 003c 4900     		lsls	r1, r1, #1
 326 003e FFF7FEFF 		bl	smtc_modem_hal_assert_fail
 327              	.L52:
 328 0042 1C25     		movs	r5, #28
 329 0044 7543     		muls	r5, r6
 330 0046 134B     		ldr	r3, .L65+8
 331 0048 6519     		adds	r5, r4, r5
 332 004a ED18     		adds	r5, r5, r3
 333              	.L53:
 334 004c 2F68     		ldr	r7, [r5]
 335 004e FFF7FEFF 		bl	smtc_modem_hal_get_time_in_ms
 336 0052 3F1A     		subs	r7, r7, r0
 337 0054 002F     		cmp	r7, #0
 338 0056 F9DC     		bgt	.L53
 339 0058 FFF7FEFF 		bl	smtc_modem_hal_start_radio_tcxo
 340 005c 9C23     		movs	r3, #156
 341 005e 1B01     		lsls	r3, r3, #4
 342 0060 E258     		ldr	r2, [r4, r3]
 343 0062 8423     		movs	r3, #132
 344 0064 5E43     		muls	r6, r3
 345 0066 A619     		adds	r6, r4, r6
 346 0068 536A     		ldr	r3, [r2, #36]
 347 006a B16F     		ldr	r1, [r6, #120]
 348 006c 1068     		ldr	r0, [r2]
 349 006e 9847     		blx	r3
 350 0070 0028     		cmp	r0, #0
 351 0072 04D0     		beq	.L54
ARM GAS  /tmp/ccSzR2eS.s 			page 7


 352 0074 A721     		movs	r1, #167
 353 0076 0648     		ldr	r0, .L65+4
 354 0078 4900     		lsls	r1, r1, #1
 355 007a FFF7FEFF 		bl	smtc_modem_hal_assert_fail
 356              	.L54:
 357              		@ sp needed
 358 007e FFF7FEFF 		bl	smtc_modem_hal_get_time_in_ms
 359 0082 8F23     		movs	r3, #143
 360 0084 1B01     		lsls	r3, r3, #4
 361 0086 E418     		adds	r4, r4, r3
 362 0088 6065     		str	r0, [r4, #84]
 363 008a F8BD     		pop	{r3, r4, r5, r6, r7, pc}
 364              	.L66:
 365              		.align	2
 366              	.L65:
 367 008c 84090000 		.word	2436
 368 0090 00000000 		.word	.LANCHOR2
 369 0094 D4050000 		.word	1492
 371              		.section	.text.lr1_stack_mac_tx_lr_fhss_launch_callback_for_rp,"ax",%progbits
 372              		.align	1
 373              		.global	lr1_stack_mac_tx_lr_fhss_launch_callback_for_rp
 374              		.syntax unified
 375              		.code	16
 376              		.thumb_func
 377              		.fpu softvfp
 379              	lr1_stack_mac_tx_lr_fhss_launch_callback_for_rp:
 380              		@ args = 0, pretend = 0, frame = 8
 381              		@ frame_needed = 0, uses_anonymous_args = 0
 382 0000 8422     		movs	r2, #132
 383 0002 F0B5     		push	{r4, r5, r6, r7, lr}
 384 0004 9C27     		movs	r7, #156
 385 0006 3D4B     		ldr	r3, .L90
 386 0008 3F01     		lsls	r7, r7, #4
 387 000a C55C     		ldrb	r5, [r0, r3]
 388 000c C359     		ldr	r3, [r0, r7]
 389 000e 6A43     		muls	r2, r5
 390 0010 85B0     		sub	sp, sp, #20
 391 0012 1600     		movs	r6, r2
 392 0014 0392     		str	r2, [sp, #12]
 393 0016 1A00     		movs	r2, r3
 394 0018 2036     		adds	r6, r6, #32
 395 001a 8619     		adds	r6, r0, r6
 396 001c C432     		adds	r2, r2, #196
 397 001e 0400     		movs	r4, r0
 398 0020 3100     		movs	r1, r6
 399 0022 1268     		ldr	r2, [r2]
 400 0024 1868     		ldr	r0, [r3]
 401 0026 9047     		blx	r2
 402 0028 0028     		cmp	r0, #0
 403 002a 04D0     		beq	.L68
 404 002c 8B21     		movs	r1, #139
 405 002e 3448     		ldr	r0, .L90+4
 406 0030 4900     		lsls	r1, r1, #1
 407 0032 FFF7FEFF 		bl	smtc_modem_hal_assert_fail
 408              	.L68:
 409 0036 8422     		movs	r2, #132
 410 0038 3421     		movs	r1, #52
ARM GAS  /tmp/ccSzR2eS.s 			page 8


 411 003a 6A43     		muls	r2, r5
 412 003c E059     		ldr	r0, [r4, r7]
 413 003e A218     		adds	r2, r4, r2
 414 0040 5156     		ldrsb	r1, [r2, r1]
 415 0042 836C     		ldr	r3, [r0, #72]
 416 0044 D26A     		ldr	r2, [r2, #44]
 417 0046 0068     		ldr	r0, [r0]
 418 0048 9847     		blx	r3
 419 004a 0028     		cmp	r0, #0
 420 004c 04D0     		beq	.L69
 421 004e 8C21     		movs	r1, #140
 422 0050 2B48     		ldr	r0, .L90+4
 423 0052 4900     		lsls	r1, r1, #1
 424 0054 FFF7FEFF 		bl	smtc_modem_hal_assert_fail
 425              	.L69:
 426 0058 9C27     		movs	r7, #156
 427 005a 3F01     		lsls	r7, r7, #4
 428 005c 2949     		ldr	r1, .L90+8
 429 005e E059     		ldr	r0, [r4, r7]
 430 0060 FFF7FEFF 		bl	ral_set_dio_irq_params
 431 0064 0028     		cmp	r0, #0
 432 0066 04D0     		beq	.L70
 433 0068 1C21     		movs	r1, #28
 434 006a 2548     		ldr	r0, .L90+4
 435 006c FF31     		adds	r1, r1, #255
 436 006e FFF7FEFF 		bl	smtc_modem_hal_assert_fail
 437              	.L70:
 438 0072 8423     		movs	r3, #132
 439 0074 E521     		movs	r1, #229
 440 0076 6B43     		muls	r3, r5
 441 0078 8900     		lsls	r1, r1, #2
 442 007a 6918     		adds	r1, r5, r1
 443 007c 4900     		lsls	r1, r1, #1
 444 007e 095B     		ldrh	r1, [r1, r4]
 445 0080 E318     		adds	r3, r4, r3
 446 0082 E059     		ldr	r0, [r4, r7]
 447 0084 DB8E     		ldrh	r3, [r3, #54]
 448 0086 0191     		str	r1, [sp, #4]
 449 0088 2900     		movs	r1, r5
 450 008a 0700     		movs	r7, r0
 451 008c BF31     		adds	r1, r1, #191
 452 008e FF31     		adds	r1, r1, #255
 453 0090 8900     		lsls	r1, r1, #2
 454 0092 6118     		adds	r1, r4, r1
 455 0094 4968     		ldr	r1, [r1, #4]
 456 0096 039A     		ldr	r2, [sp, #12]
 457 0098 0091     		str	r1, [sp]
 458 009a 8632     		adds	r2, r2, #134
 459 009c C837     		adds	r7, r7, #200
 460 009e 3100     		movs	r1, r6
 461 00a0 3F68     		ldr	r7, [r7]
 462 00a2 0068     		ldr	r0, [r0]
 463 00a4 A218     		adds	r2, r4, r2
 464 00a6 B847     		blx	r7
 465 00a8 0028     		cmp	r0, #0
 466 00aa 04D0     		beq	.L71
 467 00ac 1E21     		movs	r1, #30
ARM GAS  /tmp/ccSzR2eS.s 			page 9


 468 00ae 1448     		ldr	r0, .L90+4
 469 00b0 FF31     		adds	r1, r1, #255
 470 00b2 FFF7FEFF 		bl	smtc_modem_hal_assert_fail
 471              	.L71:
 472 00b6 1C23     		movs	r3, #28
 473 00b8 5D43     		muls	r5, r3
 474 00ba 134B     		ldr	r3, .L90+12
 475 00bc 6519     		adds	r5, r4, r5
 476 00be ED18     		adds	r5, r5, r3
 477              	.L72:
 478 00c0 2E68     		ldr	r6, [r5]
 479 00c2 FFF7FEFF 		bl	smtc_modem_hal_get_time_in_ms
 480 00c6 361A     		subs	r6, r6, r0
 481 00c8 002E     		cmp	r6, #0
 482 00ca F9DC     		bgt	.L72
 483 00cc FFF7FEFF 		bl	smtc_modem_hal_start_radio_tcxo
 484 00d0 9C23     		movs	r3, #156
 485 00d2 1B01     		lsls	r3, r3, #4
 486 00d4 E358     		ldr	r3, [r4, r3]
 487 00d6 1A6A     		ldr	r2, [r3, #32]
 488 00d8 1868     		ldr	r0, [r3]
 489 00da 9047     		blx	r2
 490 00dc 0028     		cmp	r0, #0
 491 00de 04D0     		beq	.L73
 492 00e0 2A21     		movs	r1, #42
 493 00e2 0748     		ldr	r0, .L90+4
 494 00e4 FF31     		adds	r1, r1, #255
 495 00e6 FFF7FEFF 		bl	smtc_modem_hal_assert_fail
 496              	.L73:
 497 00ea FFF7FEFF 		bl	smtc_modem_hal_get_time_in_ms
 498 00ee 8F23     		movs	r3, #143
 499 00f0 1B01     		lsls	r3, r3, #4
 500 00f2 E418     		adds	r4, r4, r3
 501 00f4 2065     		str	r0, [r4, #80]
 502 00f6 05B0     		add	sp, sp, #20
 503              		@ sp needed
 504 00f8 F0BD     		pop	{r4, r5, r6, r7, pc}
 505              	.L91:
 506 00fa C046     		.align	2
 507              	.L90:
 508 00fc 84090000 		.word	2436
 509 0100 00000000 		.word	.LANCHOR3
 510 0104 02040000 		.word	1026
 511 0108 D4050000 		.word	1492
 513              		.section	.text.lr1_stack_mac_tx_gfsk_launch_callback_for_rp,"ax",%progbits
 514              		.align	1
 515              		.global	lr1_stack_mac_tx_gfsk_launch_callback_for_rp
 516              		.syntax unified
 517              		.code	16
 518              		.thumb_func
 519              		.fpu softvfp
 521              	lr1_stack_mac_tx_gfsk_launch_callback_for_rp:
 522              		@ args = 0, pretend = 0, frame = 0
 523              		@ frame_needed = 0, uses_anonymous_args = 0
 524 0000 8421     		movs	r1, #132
 525 0002 70B5     		push	{r4, r5, r6, lr}
 526 0004 9C25     		movs	r5, #156
ARM GAS  /tmp/ccSzR2eS.s 			page 10


 527 0006 2B4B     		ldr	r3, .L111
 528 0008 2D01     		lsls	r5, r5, #4
 529 000a C65C     		ldrb	r6, [r0, r3]
 530 000c 4359     		ldr	r3, [r0, r5]
 531 000e 7143     		muls	r1, r6
 532 0010 F033     		adds	r3, r3, #240
 533 0012 2031     		adds	r1, r1, #32
 534 0014 0400     		movs	r4, r0
 535 0016 4118     		adds	r1, r0, r1
 536 0018 1B68     		ldr	r3, [r3]
 537 001a 4059     		ldr	r0, [r0, r5]
 538 001c 9847     		blx	r3
 539 001e 0028     		cmp	r0, #0
 540 0020 04D0     		beq	.L93
 541 0022 8121     		movs	r1, #129
 542 0024 2448     		ldr	r0, .L111+4
 543 0026 4900     		lsls	r1, r1, #1
 544 0028 FFF7FEFF 		bl	smtc_modem_hal_assert_fail
 545              	.L93:
 546 002c 0221     		movs	r1, #2
 547 002e 6059     		ldr	r0, [r4, r5]
 548 0030 FFF7FEFF 		bl	ral_set_dio_irq_params
 549 0034 0028     		cmp	r0, #0
 550 0036 04D0     		beq	.L94
 551 0038 0421     		movs	r1, #4
 552 003a 1F48     		ldr	r0, .L111+4
 553 003c FF31     		adds	r1, r1, #255
 554 003e FFF7FEFF 		bl	smtc_modem_hal_assert_fail
 555              	.L94:
 556 0042 9C23     		movs	r3, #156
 557 0044 1B01     		lsls	r3, r3, #4
 558 0046 E058     		ldr	r0, [r4, r3]
 559 0048 E523     		movs	r3, #229
 560 004a 9B00     		lsls	r3, r3, #2
 561 004c F318     		adds	r3, r6, r3
 562 004e 5B00     		lsls	r3, r3, #1
 563 0050 1A5B     		ldrh	r2, [r3, r4]
 564 0052 3300     		movs	r3, r6
 565 0054 BF33     		adds	r3, r3, #191
 566 0056 FF33     		adds	r3, r3, #255
 567 0058 9B00     		lsls	r3, r3, #2
 568 005a E318     		adds	r3, r4, r3
 569 005c C56C     		ldr	r5, [r0, #76]
 570 005e 5968     		ldr	r1, [r3, #4]
 571 0060 0068     		ldr	r0, [r0]
 572 0062 A847     		blx	r5
 573 0064 0028     		cmp	r0, #0
 574 0066 04D0     		beq	.L95
 575 0068 8221     		movs	r1, #130
 576 006a 1348     		ldr	r0, .L111+4
 577 006c 4900     		lsls	r1, r1, #1
 578 006e FFF7FEFF 		bl	smtc_modem_hal_assert_fail
 579              	.L95:
 580 0072 1C25     		movs	r5, #28
 581 0074 7543     		muls	r5, r6
 582 0076 114B     		ldr	r3, .L111+8
 583 0078 6519     		adds	r5, r4, r5
ARM GAS  /tmp/ccSzR2eS.s 			page 11


 584 007a ED18     		adds	r5, r5, r3
 585              	.L96:
 586 007c 2E68     		ldr	r6, [r5]
 587 007e FFF7FEFF 		bl	smtc_modem_hal_get_time_in_ms
 588 0082 361A     		subs	r6, r6, r0
 589 0084 002E     		cmp	r6, #0
 590 0086 F9DC     		bgt	.L96
 591 0088 FFF7FEFF 		bl	smtc_modem_hal_start_radio_tcxo
 592 008c 9C23     		movs	r3, #156
 593 008e 1B01     		lsls	r3, r3, #4
 594 0090 E358     		ldr	r3, [r4, r3]
 595 0092 1A6A     		ldr	r2, [r3, #32]
 596 0094 1868     		ldr	r0, [r3]
 597 0096 9047     		blx	r2
 598 0098 0028     		cmp	r0, #0
 599 009a 04D0     		beq	.L97
 600 009c 8621     		movs	r1, #134
 601 009e 0648     		ldr	r0, .L111+4
 602 00a0 4900     		lsls	r1, r1, #1
 603 00a2 FFF7FEFF 		bl	smtc_modem_hal_assert_fail
 604              	.L97:
 605              		@ sp needed
 606 00a6 FFF7FEFF 		bl	smtc_modem_hal_get_time_in_ms
 607 00aa 8F23     		movs	r3, #143
 608 00ac 1B01     		lsls	r3, r3, #4
 609 00ae E418     		adds	r4, r4, r3
 610 00b0 2065     		str	r0, [r4, #80]
 611 00b2 70BD     		pop	{r4, r5, r6, pc}
 612              	.L112:
 613              		.align	2
 614              	.L111:
 615 00b4 84090000 		.word	2436
 616 00b8 00000000 		.word	.LANCHOR4
 617 00bc D4050000 		.word	1492
 619              		.section	.text.lr1_stack_mac_session_init,"ax",%progbits
 620              		.align	1
 621              		.global	lr1_stack_mac_session_init
 622              		.syntax unified
 623              		.code	16
 624              		.thumb_func
 625              		.fpu softvfp
 627              	lr1_stack_mac_session_init:
 628              		@ args = 0, pretend = 0, frame = 0
 629              		@ frame_needed = 0, uses_anonymous_args = 0
 630 0000 0123     		movs	r3, #1
 631 0002 5B42     		rsbs	r3, r3, #0
 632 0004 70B5     		push	{r4, r5, r6, lr}
 633 0006 8366     		str	r3, [r0, #104]
 634 0008 9523     		movs	r3, #149
 635              		@ sp needed
 636 000a 0025     		movs	r5, #0
 637 000c DB00     		lsls	r3, r3, #3
 638 000e 4566     		str	r5, [r0, #100]
 639 0010 C550     		str	r5, [r0, r3]
 640 0012 083B     		subs	r3, r3, #8
 641 0014 C552     		strh	r5, [r0, r3]
 642 0016 134B     		ldr	r3, .L114
ARM GAS  /tmp/ccSzR2eS.s 			page 12


 643 0018 0400     		movs	r4, r0
 644 001a C552     		strh	r5, [r0, r3]
 645 001c 163B     		subs	r3, r3, #22
 646 001e C550     		str	r5, [r0, r3]
 647 0020 F523     		movs	r3, #245
 648 0022 5B00     		lsls	r3, r3, #1
 649 0024 C554     		strb	r5, [r0, r3]
 650 0026 7A23     		movs	r3, #122
 651 0028 FF33     		adds	r3, r3, #255
 652 002a C554     		strb	r5, [r0, r3]
 653 002c 6133     		adds	r3, r3, #97
 654 002e C554     		strb	r5, [r0, r3]
 655 0030 0D4B     		ldr	r3, .L114+4
 656 0032 C554     		strb	r5, [r0, r3]
 657 0034 0D4B     		ldr	r3, .L114+8
 658 0036 C554     		strb	r5, [r0, r3]
 659 0038 0D4B     		ldr	r3, .L114+12
 660 003a C554     		strb	r5, [r0, r3]
 661 003c FE3B     		subs	r3, r3, #254
 662 003e FF3B     		subs	r3, r3, #255
 663 0040 0566     		str	r5, [r0, #96]
 664 0042 C550     		str	r5, [r0, r3]
 665 0044 FFF7FEFF 		bl	smtc_modem_hal_get_time_in_ms
 666 0048 C623     		movs	r3, #198
 667 004a 9B00     		lsls	r3, r3, #2
 668 004c E050     		str	r0, [r4, r3]
 669 004e 094B     		ldr	r3, .L114+16
 670 0050 E554     		strb	r5, [r4, r3]
 671 0052 094B     		ldr	r3, .L114+20
 672 0054 E552     		strh	r5, [r4, r3]
 673 0056 094B     		ldr	r3, .L114+24
 674 0058 E554     		strb	r5, [r4, r3]
 675 005a 263B     		subs	r3, r3, #38
 676 005c E552     		strh	r5, [r4, r3]
 677 005e 7634     		adds	r4, r4, #118
 678 0060 2580     		strh	r5, [r4]
 679 0062 70BD     		pop	{r4, r5, r6, pc}
 680              	.L115:
 681              		.align	2
 682              	.L114:
 683 0064 9E040000 		.word	1182
 684 0068 87040000 		.word	1159
 685 006c 26040000 		.word	1062
 686 0070 11050000 		.word	1297
 687 0074 19050000 		.word	1305
 688 0078 44050000 		.word	1348
 689 007c 46050000 		.word	1350
 691              		.section	.text.lr1_stack_mac_init,"ax",%progbits
 692              		.align	1
 693              		.global	lr1_stack_mac_init
 694              		.syntax unified
 695              		.code	16
 696              		.thumb_func
 697              		.fpu softvfp
 699              	lr1_stack_mac_init:
 700              		@ args = 0, pretend = 0, frame = 0
 701              		@ frame_needed = 0, uses_anonymous_args = 0
ARM GAS  /tmp/ccSzR2eS.s 			page 13


 702 0000 0023     		movs	r3, #0
 703 0002 10B5     		push	{r4, lr}
 704 0004 0400     		movs	r4, r0
 705              		@ sp needed
 706 0006 7430     		adds	r0, r0, #116
 707 0008 0370     		strb	r3, [r0]
 708 000a 2348     		ldr	r0, .L117
 709 000c 2354     		strb	r3, [r4, r0]
 710 000e 2348     		ldr	r0, .L117+4
 711 0010 2350     		str	r3, [r4, r0]
 712 0012 2348     		ldr	r0, .L117+8
 713 0014 2354     		strb	r3, [r4, r0]
 714 0016 4230     		adds	r0, r0, #66
 715 0018 2354     		strb	r3, [r4, r0]
 716 001a 2000     		movs	r0, r4
 717 001c 7030     		adds	r0, r0, #112
 718 001e 0170     		strb	r1, [r0]
 719 0020 2100     		movs	r1, r4
 720 0022 0120     		movs	r0, #1
 721 0024 5131     		adds	r1, r1, #81
 722 0026 0870     		strb	r0, [r1]
 723 0028 C421     		movs	r1, #196
 724 002a 8900     		lsls	r1, r1, #2
 725 002c 6354     		strb	r3, [r4, r1]
 726 002e A16B     		ldr	r1, [r4, #56]
 727 0030 0A70     		strb	r2, [r1]
 728 0032 1C4A     		ldr	r2, .L117+12
 729 0034 8021     		movs	r1, #128
 730 0036 A354     		strb	r3, [r4, r2]
 731 0038 1B4A     		ldr	r2, .L117+16
 732 003a 4905     		lsls	r1, r1, #21
 733 003c A350     		str	r3, [r4, r2]
 734 003e C93A     		subs	r2, r2, #201
 735 0040 FF3A     		subs	r2, r2, #255
 736 0042 A352     		strh	r3, [r4, r2]
 737 0044 2200     		movs	r2, r4
 738 0046 4C32     		adds	r2, r2, #76
 739 0048 1380     		strh	r3, [r2]
 740 004a 184A     		ldr	r2, .L117+20
 741 004c A352     		strh	r3, [r4, r2]
 742 004e 184A     		ldr	r2, .L117+24
 743 0050 A150     		str	r1, [r4, r2]
 744 0052 0432     		adds	r2, r2, #4
 745 0054 A350     		str	r3, [r4, r2]
 746 0056 174A     		ldr	r2, .L117+28
 747 0058 1900     		movs	r1, r3
 748 005a A354     		strb	r3, [r4, r2]
 749 005c 164A     		ldr	r2, .L117+32
 750 005e A350     		str	r3, [r4, r2]
 751 0060 0432     		adds	r2, r2, #4
 752 0062 A350     		str	r3, [r4, r2]
 753 0064 154A     		ldr	r2, .L117+36
 754 0066 A350     		str	r3, [r4, r2]
 755 0068 154A     		ldr	r2, .L117+40
 756 006a A350     		str	r3, [r4, r2]
 757 006c 0432     		adds	r2, r2, #4
 758 006e A350     		str	r3, [r4, r2]
ARM GAS  /tmp/ccSzR2eS.s 			page 14


 759 0070 0832     		adds	r2, r2, #8
 760 0072 A350     		str	r3, [r4, r2]
 761 0074 134A     		ldr	r2, .L117+44
 762 0076 A350     		str	r3, [r4, r2]
 763 0078 543A     		subs	r2, r2, #84
 764 007a A018     		adds	r0, r4, r2
 765 007c 2022     		movs	r2, #32
 766 007e FFF7FEFF 		bl	memset
 767 0082 114B     		ldr	r3, .L117+48
 768 0084 0622     		movs	r2, #6
 769 0086 FF21     		movs	r1, #255
 770 0088 E018     		adds	r0, r4, r3
 771 008a FFF7FEFF 		bl	memset
 772 008e 2000     		movs	r0, r4
 773 0090 FFF7FEFF 		bl	lr1_stack_mac_session_init
 774 0094 10BD     		pop	{r4, pc}
 775              	.L118:
 776 0096 C046     		.align	2
 777              	.L117:
 778 0098 BB040000 		.word	1211
 779 009c A4040000 		.word	1188
 780 00a0 CE040000 		.word	1230
 781 00a4 1A050000 		.word	1306
 782 00a8 E4040000 		.word	1252
 783 00ac 92040000 		.word	1170
 784 00b0 94040000 		.word	1172
 785 00b4 BA040000 		.word	1210
 786 00b8 24050000 		.word	1316
 787 00bc 34050000 		.word	1332
 788 00c0 2C050000 		.word	1324
 789 00c4 3C050000 		.word	1340
 790 00c8 1E030000 		.word	798
 792              		.section	.text.lr1_stack_mac_tx_frame_build,"ax",%progbits
 793              		.align	1
 794              		.global	lr1_stack_mac_tx_frame_build
 795              		.syntax unified
 796              		.code	16
 797              		.thumb_func
 798              		.fpu softvfp
 800              	lr1_stack_mac_tx_frame_build:
 801              		@ args = 0, pretend = 0, frame = 0
 802              		@ frame_needed = 0, uses_anonymous_args = 0
 803 0000 0300     		movs	r3, r0
 804 0002 0022     		movs	r2, #0
 805 0004 F0B5     		push	{r4, r5, r6, r7, lr}
 806 0006 7133     		adds	r3, r3, #113
 807 0008 1978     		ldrb	r1, [r3]
 808 000a 9142     		cmp	r1, r2
 809 000c 02D0     		beq	.L120
 810 000e F523     		movs	r3, #245
 811 0010 5B00     		lsls	r3, r3, #1
 812 0012 C25C     		ldrb	r2, [r0, r3]
 813              	.L120:
 814 0014 9224     		movs	r4, #146
 815 0016 2F4B     		ldr	r3, .L130
 816 0018 E400     		lsls	r4, r4, #3
 817 001a C35C     		ldrb	r3, [r0, r3]
ARM GAS  /tmp/ccSzR2eS.s 			page 15


 818 001c 045D     		ldrb	r4, [r0, r4]
 819 001e DB01     		lsls	r3, r3, #7
 820 0020 A401     		lsls	r4, r4, #6
 821 0022 1B19     		adds	r3, r3, r4
 822 0024 0400     		movs	r4, r0
 823 0026 7634     		adds	r4, r4, #118
 824 0028 2578     		ldrb	r5, [r4]
 825 002a 0600     		movs	r6, r0
 826 002c 6D01     		lsls	r5, r5, #5
 827 002e 5B19     		adds	r3, r3, r5
 828 0030 0500     		movs	r5, r0
 829 0032 7735     		adds	r5, r5, #119
 830 0034 2D78     		ldrb	r5, [r5]
 831 0036 0327     		movs	r7, #3
 832 0038 2D01     		lsls	r5, r5, #4
 833 003a 5B19     		adds	r3, r3, r5
 834 003c 0F25     		movs	r5, #15
 835 003e 1540     		ands	r5, r2
 836 0040 5B19     		adds	r3, r3, r5
 837 0042 0500     		movs	r5, r0
 838 0044 DBB2     		uxtb	r3, r3
 839 0046 7535     		adds	r5, r5, #117
 840 0048 2B70     		strb	r3, [r5]
 841 004a 0025     		movs	r5, #0
 842 004c 033C     		subs	r4, r4, #3
 843 004e E570     		strb	r5, [r4, #3]
 844 0050 7436     		adds	r6, r6, #116
 845 0052 2478     		ldrb	r4, [r4]
 846 0054 3678     		ldrb	r6, [r6]
 847 0056 6401     		lsls	r4, r4, #5
 848 0058 3E40     		ands	r6, r7
 849 005a A419     		adds	r4, r4, r6
 850 005c 0600     		movs	r6, r0
 851 005e 7A36     		adds	r6, r6, #122
 852 0060 3470     		strb	r4, [r6]
 853 0062 C46E     		ldr	r4, [r0, #108]
 854 0064 270A     		lsrs	r7, r4, #8
 855 0066 7470     		strb	r4, [r6, #1]
 856 0068 B770     		strb	r7, [r6, #2]
 857 006a 270C     		lsrs	r7, r4, #16
 858 006c 240E     		lsrs	r4, r4, #24
 859 006e 3471     		strb	r4, [r6, #4]
 860 0070 0400     		movs	r4, r0
 861 0072 7F34     		adds	r4, r4, #127
 862 0074 F770     		strb	r7, [r6, #3]
 863 0076 2370     		strb	r3, [r4]
 864 0078 0300     		movs	r3, r0
 865 007a 6433     		adds	r3, r3, #100
 866 007c 1C88     		ldrh	r4, [r3]
 867 007e 0436     		adds	r6, r6, #4
 868 0080 9C83     		strh	r4, [r3, #28]
 869 0082 A942     		cmp	r1, r5
 870 0084 12D0     		beq	.L121
 871 0086 F523     		movs	r3, #245
 872 0088 5B00     		lsls	r3, r3, #1
 873 008a C45C     		ldrb	r4, [r0, r3]
 874 008c 2B00     		movs	r3, r5
ARM GAS  /tmp/ccSzR2eS.s 			page 16


 875 008e 0500     		movs	r5, r0
 876 0090 EC35     		adds	r5, r5, #236
 877 0092 FF35     		adds	r5, r5, #255
 878 0094 0436     		adds	r6, r6, #4
 879              	.L122:
 880 0096 A342     		cmp	r3, r4
 881 0098 17DB     		blt	.L124
 882 009a 0300     		movs	r3, r0
 883 009c 7233     		adds	r3, r3, #114
 884 009e 1B78     		ldrb	r3, [r3]
 885 00a0 002B     		cmp	r3, #0
 886 00a2 06D0     		beq	.L123
 887 00a4 0419     		adds	r4, r0, r4
 888 00a6 8234     		adds	r4, r4, #130
 889 00a8 2170     		strb	r1, [r4]
 890 00aa 02E0     		b	.L123
 891              	.L121:
 892 00ac 0300     		movs	r3, r0
 893 00ae 8233     		adds	r3, r3, #130
 894 00b0 1970     		strb	r1, [r3]
 895              	.L123:
 896 00b2 0300     		movs	r3, r0
 897              		@ sp needed
 898 00b4 0100     		movs	r1, r0
 899 00b6 7833     		adds	r3, r3, #120
 900 00b8 1B78     		ldrb	r3, [r3]
 901 00ba 7231     		adds	r1, r1, #114
 902 00bc 0978     		ldrb	r1, [r1]
 903 00be 0833     		adds	r3, r3, #8
 904 00c0 5B18     		adds	r3, r3, r1
 905 00c2 D218     		adds	r2, r2, r3
 906 00c4 7930     		adds	r0, r0, #121
 907 00c6 0270     		strb	r2, [r0]
 908 00c8 F0BD     		pop	{r4, r5, r6, r7, pc}
 909              	.L124:
 910 00ca EF5C     		ldrb	r7, [r5, r3]
 911 00cc F754     		strb	r7, [r6, r3]
 912 00ce 0133     		adds	r3, r3, #1
 913 00d0 E1E7     		b	.L122
 914              	.L131:
 915 00d2 C046     		.align	2
 916              	.L130:
 917 00d4 91040000 		.word	1169
 919              		.section	.rodata.lr1_stack_mac_tx_frame_encrypt.str1.1,"aMS",%progbits,1
 920              	.LC6:
 921 0000 1B5B303B 		.ascii	"\033[0;31mERROR: crash log :%s\012\000"
 921      33316D45 
 921      52524F52 
 921      3A206372 
 921      61736820 
 922              	.LC8:
 923 001d 1B5B306D 		.ascii	"\033[0m\000"
 923      00
 924              	.LC10:
 925 0022 1B5B303B 		.ascii	"\033[0;31mERROR: -> Crypto error during payload enc"
 925      33316D45 
 925      52524F52 
ARM GAS  /tmp/ccSzR2eS.s 			page 17


 925      3A202D3E 
 925      20437279 
 926 0052 72797074 		.ascii	"ryption\012\000"
 926      696F6E0A 
 926      00
 927              	.LC12:
 928 005b 1B5B303B 		.ascii	"\033[0;31mERROR: -> Crypto error during mic computa"
 928      33316D45 
 928      52524F52 
 928      3A202D3E 
 928      20437279 
 929 008b 74696F6E 		.ascii	"tion\012\000"
 929      0A00
 930              		.section	.text.lr1_stack_mac_tx_frame_encrypt,"ax",%progbits
 931              		.align	1
 932              		.global	lr1_stack_mac_tx_frame_encrypt
 933              		.syntax unified
 934              		.code	16
 935              		.thumb_func
 936              		.fpu softvfp
 938              	lr1_stack_mac_tx_frame_encrypt:
 939              		@ args = 0, pretend = 0, frame = 0
 940              		@ frame_needed = 0, uses_anonymous_args = 0
 941 0000 0300     		movs	r3, r0
 942 0002 30B5     		push	{r4, r5, lr}
 943 0004 0400     		movs	r4, r0
 944 0006 0020     		movs	r0, #0
 945 0008 7133     		adds	r3, r3, #113
 946 000a 1A78     		ldrb	r2, [r3]
 947 000c 85B0     		sub	sp, sp, #20
 948 000e 8242     		cmp	r2, r0
 949 0010 02D0     		beq	.L133
 950 0012 F523     		movs	r3, #245
 951 0014 5B00     		lsls	r3, r3, #1
 952 0016 E05C     		ldrb	r0, [r4, r3]
 953              	.L133:
 954 0018 2300     		movs	r3, r4
 955 001a 7233     		adds	r3, r3, #114
 956 001c 1B78     		ldrb	r3, [r3]
 957 001e C018     		adds	r0, r0, r3
 958 0020 2300     		movs	r3, r4
 959 0022 8230     		adds	r0, r0, #130
 960 0024 7833     		adds	r3, r3, #120
 961 0026 2018     		adds	r0, r4, r0
 962 0028 1978     		ldrb	r1, [r3]
 963 002a 0290     		str	r0, [sp, #8]
 964 002c 531E     		subs	r3, r2, #1
 965 002e 9A41     		sbcs	r2, r2, r3
 966 0030 636E     		ldr	r3, [r4, #100]
 967 0032 0632     		adds	r2, r2, #6
 968 0034 0193     		str	r3, [sp, #4]
 969 0036 0023     		movs	r3, #0
 970 0038 0093     		str	r3, [sp]
 971 003a E36E     		ldr	r3, [r4, #108]
 972 003c FFF7FEFF 		bl	smtc_modem_crypto_payload_encrypt
 973 0040 0028     		cmp	r0, #0
 974 0042 16D0     		beq	.L135
ARM GAS  /tmp/ccSzR2eS.s 			page 18


 975 0044 204D     		ldr	r5, .L146
 976 0046 2800     		movs	r0, r5
 977 0048 FFF7FEFF 		bl	smtc_modem_hal_store_crashlog
 978 004c 0120     		movs	r0, #1
 979 004e FFF7FEFF 		bl	smtc_modem_hal_set_crashlog_status
 980 0052 2900     		movs	r1, r5
 981 0054 1D48     		ldr	r0, .L146+4
 982 0056 FFF7FEFF 		bl	smtc_modem_hal_print_trace
 983 005a 1D4D     		ldr	r5, .L146+8
 984 005c 2800     		movs	r0, r5
 985 005e FFF7FEFF 		bl	smtc_modem_hal_print_trace
 986 0062 1C48     		ldr	r0, .L146+12
 987 0064 FFF7FEFF 		bl	smtc_modem_hal_print_trace
 988 0068 2800     		movs	r0, r5
 989 006a FFF7FEFF 		bl	smtc_modem_hal_print_trace
 990 006e FFF7FEFF 		bl	smtc_modem_hal_reset_mcu
 991              	.L135:
 992 0072 2500     		movs	r5, r4
 993 0074 636E     		ldr	r3, [r4, #100]
 994 0076 7935     		adds	r5, r5, #121
 995 0078 2978     		ldrb	r1, [r5]
 996 007a 0193     		str	r3, [sp, #4]
 997 007c 0023     		movs	r3, #0
 998 007e 2000     		movs	r0, r4
 999 0080 0093     		str	r3, [sp]
 1000 0082 0622     		movs	r2, #6
 1001 0084 E36E     		ldr	r3, [r4, #108]
 1002 0086 7A30     		adds	r0, r0, #122
 1003 0088 FFF7FEFF 		bl	smtc_modem_crypto_compute_and_add_mic
 1004 008c 0028     		cmp	r0, #0
 1005 008e 16D0     		beq	.L136
 1006 0090 0D4C     		ldr	r4, .L146
 1007 0092 2000     		movs	r0, r4
 1008 0094 FFF7FEFF 		bl	smtc_modem_hal_store_crashlog
 1009 0098 0120     		movs	r0, #1
 1010 009a FFF7FEFF 		bl	smtc_modem_hal_set_crashlog_status
 1011 009e 2100     		movs	r1, r4
 1012 00a0 0A48     		ldr	r0, .L146+4
 1013 00a2 FFF7FEFF 		bl	smtc_modem_hal_print_trace
 1014 00a6 0A4C     		ldr	r4, .L146+8
 1015 00a8 2000     		movs	r0, r4
 1016 00aa FFF7FEFF 		bl	smtc_modem_hal_print_trace
 1017 00ae 0A48     		ldr	r0, .L146+16
 1018 00b0 FFF7FEFF 		bl	smtc_modem_hal_print_trace
 1019 00b4 2000     		movs	r0, r4
 1020 00b6 FFF7FEFF 		bl	smtc_modem_hal_print_trace
 1021 00ba FFF7FEFF 		bl	smtc_modem_hal_reset_mcu
 1022              	.L136:
 1023 00be 2B78     		ldrb	r3, [r5]
 1024 00c0 0433     		adds	r3, r3, #4
 1025 00c2 2B70     		strb	r3, [r5]
 1026 00c4 05B0     		add	sp, sp, #20
 1027              		@ sp needed
 1028 00c6 30BD     		pop	{r4, r5, pc}
 1029              	.L147:
 1030              		.align	2
 1031              	.L146:
ARM GAS  /tmp/ccSzR2eS.s 			page 19


 1032 00c8 00000000 		.word	.LANCHOR5
 1033 00cc 00000000 		.word	.LC6
 1034 00d0 1D000000 		.word	.LC8
 1035 00d4 22000000 		.word	.LC10
 1036 00d8 5B000000 		.word	.LC12
 1038              		.section	.text.lr1_stack_mac_radio_busy_lbt,"ax",%progbits
 1039              		.align	1
 1040              		.global	lr1_stack_mac_radio_busy_lbt
 1041              		.syntax unified
 1042              		.code	16
 1043              		.thumb_func
 1044              		.fpu softvfp
 1046              	lr1_stack_mac_radio_busy_lbt:
 1047              		@ args = 0, pretend = 0, frame = 0
 1048              		@ frame_needed = 0, uses_anonymous_args = 0
 1049 0000 0022     		movs	r2, #0
 1050 0002 10B5     		push	{r4, lr}
 1051 0004 0400     		movs	r4, r0
 1052              		@ sp needed
 1053 0006 074B     		ldr	r3, .L149
 1054 0008 C254     		strb	r2, [r0, r3]
 1055 000a FFF7FEFF 		bl	smtc_modem_hal_get_time_in_ms
 1056 000e 064B     		ldr	r3, .L149+4
 1057 0010 E258     		ldr	r2, [r4, r3]
 1058 0012 064B     		ldr	r3, .L149+8
 1059 0014 D358     		ldr	r3, [r2, r3]
 1060 0016 064A     		ldr	r2, .L149+12
 1061 0018 1B18     		adds	r3, r3, r0
 1062 001a A350     		str	r3, [r4, r2]
 1063 001c 2000     		movs	r0, r4
 1064 001e FFF7FEFF 		bl	smtc_real_get_next_channel
 1065 0022 10BD     		pop	{r4, pc}
 1066              	.L150:
 1067              		.align	2
 1068              	.L149:
 1069 0024 BB040000 		.word	1211
 1070 0028 BC040000 		.word	1212
 1071 002c C4090000 		.word	2500
 1072 0030 14050000 		.word	1300
 1074              		.section	.text.lr1_stack_mac_radio_abort_lbt,"ax",%progbits
 1075              		.align	1
 1076              		.global	lr1_stack_mac_radio_abort_lbt
 1077              		.syntax unified
 1078              		.code	16
 1079              		.thumb_func
 1080              		.fpu softvfp
 1082              	lr1_stack_mac_radio_abort_lbt:
 1083              		@ args = 0, pretend = 0, frame = 0
 1084              		@ frame_needed = 0, uses_anonymous_args = 0
 1085              		@ link register save eliminated.
 1086 0000 0622     		movs	r2, #6
 1087              		@ sp needed
 1088 0002 014B     		ldr	r3, .L152
 1089 0004 C254     		strb	r2, [r0, r3]
 1090 0006 7047     		bx	lr
 1091              	.L153:
 1092              		.align	2
ARM GAS  /tmp/ccSzR2eS.s 			page 20


 1093              	.L152:
 1094 0008 BB040000 		.word	1211
 1096              		.section	.rodata.lr1_stack_mac_tx_radio_start.str1.1,"aMS",%progbits,1
 1097              	.LC20:
 1098 0000 1B5B303B 		.ascii	"\033[0;31mERROR: -> TX MODULATION NOT SUPPORTED\012"
 1098      33316D45 
 1098      52524F52 
 1098      3A202D3E 
 1098      20545820 
 1099 002d 00       		.ascii	"\000"
 1100              	.LC22:
 1101 002e 1B5B303B 		.ascii	"\033[0;31mERROR: -> \000"
 1101      33316D45 
 1101      52524F52 
 1101      3A202D3E 
 1101      2000
 1102              	.LC24:
 1103 0040 52616469 		.ascii	"Radio planner hook %d is busy\012\000"
 1103      6F20706C 
 1103      616E6E65 
 1103      7220686F 
 1103      6F6B2025 
 1104              		.section	.text.lr1_stack_mac_tx_radio_start,"ax",%progbits
 1105              		.align	1
 1106              		.global	lr1_stack_mac_tx_radio_start
 1107              		.syntax unified
 1108              		.code	16
 1109              		.thumb_func
 1110              		.fpu softvfp
 1112              	lr1_stack_mac_tx_radio_start:
 1113              		@ args = 0, pretend = 0, frame = 232
 1114              		@ frame_needed = 0, uses_anonymous_args = 0
 1115 0000 F0B5     		push	{r4, r5, r6, r7, lr}
 1116 0002 0400     		movs	r4, r0
 1117 0004 BDB0     		sub	sp, sp, #244
 1118 0006 8422     		movs	r2, #132
 1119 0008 0021     		movs	r1, #0
 1120 000a 1BA8     		add	r0, sp, #108
 1121 000c 09AE     		add	r6, sp, #36
 1122 000e FFF7FEFF 		bl	memset
 1123 0012 1C22     		movs	r2, #28
 1124 0014 0021     		movs	r1, #0
 1125 0016 3000     		movs	r0, r6
 1126 0018 FFF7FEFF 		bl	memset
 1127 001c 2300     		movs	r3, r4
 1128 001e 0027     		movs	r7, #0
 1129 0020 4E33     		adds	r3, r3, #78
 1130 0022 0897     		str	r7, [sp, #32]
 1131 0024 0493     		str	r3, [sp, #16]
 1132 0026 2000     		movs	r0, r4
 1133 0028 1978     		ldrb	r1, [r3]
 1134 002a FFF7FEFF 		bl	smtc_real_get_modulation_type_from_datarate
 1135 002e 0390     		str	r0, [sp, #12]
 1136 0030 B842     		cmp	r0, r7
 1137 0032 00D0     		beq	.LCB1172
 1138 0034 ACE0     		b	.L155	@long jump
 1139              	.LCB1172:
ARM GAS  /tmp/ccSzR2eS.s 			page 21


 1140 0036 049B     		ldr	r3, [sp, #16]
 1141 0038 04AA     		add	r2, sp, #16
 1142 003a 1978     		ldrb	r1, [r3]
 1143 003c 0F23     		movs	r3, #15
 1144 003e 9B18     		adds	r3, r3, r2
 1145 0040 0E22     		movs	r2, #14
 1146 0042 9627     		movs	r7, #150
 1147 0044 04A8     		add	r0, sp, #16
 1148 0046 10AD     		add	r5, sp, #64
 1149 0048 1218     		adds	r2, r2, r0
 1150 004a 2000     		movs	r0, r4
 1151 004c FFF7FEFF 		bl	smtc_real_lora_dr_to_sf_bw
 1152 0050 FF00     		lsls	r7, r7, #3
 1153 0052 1422     		movs	r2, #20
 1154 0054 0399     		ldr	r1, [sp, #12]
 1155 0056 2800     		movs	r0, r5
 1156 0058 FFF7FEFF 		bl	memset
 1157 005c E359     		ldr	r3, [r4, r7]
 1158 005e 2000     		movs	r0, r4
 1159 0060 1393     		str	r3, [sp, #76]
 1160 0062 FFF7FEFF 		bl	smtc_real_get_sync_word
 1161 0066 5021     		movs	r1, #80
 1162 0068 049B     		ldr	r3, [sp, #16]
 1163 006a 6874     		strb	r0, [r5, #17]
 1164 006c E259     		ldr	r2, [r4, r7]
 1165 006e 6156     		ldrsb	r1, [r4, r1]
 1166 0070 1B78     		ldrb	r3, [r3]
 1167 0072 2000     		movs	r0, r4
 1168 0074 FFF7FEFF 		bl	smtc_real_clamp_output_power_eirp_vs_freq_and_dr
 1169 0078 04AB     		add	r3, sp, #16
 1170 007a 9B7B     		ldrb	r3, [r3, #14]
 1171 007c 2874     		strb	r0, [r5, #16]
 1172 007e 2B70     		strb	r3, [r5]
 1173 0080 04AB     		add	r3, sp, #16
 1174 0082 DB7B     		ldrb	r3, [r3, #15]
 1175 0084 2000     		movs	r0, r4
 1176 0086 6B70     		strb	r3, [r5, #1]
 1177 0088 FFF7FEFF 		bl	smtc_real_get_coding_rate
 1178 008c 2F78     		ldrb	r7, [r5]
 1179 008e 6978     		ldrb	r1, [r5, #1]
 1180 0090 A870     		strb	r0, [r5, #2]
 1181 0092 3800     		movs	r0, r7
 1182 0094 FFF7FEFF 		bl	ral_compute_lora_ldro
 1183 0098 3900     		movs	r1, r7
 1184 009a E870     		strb	r0, [r5, #3]
 1185 009c 2000     		movs	r0, r4
 1186 009e FFF7FEFF 		bl	smtc_real_get_preamble_len
 1187 00a2 039B     		ldr	r3, [sp, #12]
 1188 00a4 A880     		strh	r0, [r5, #4]
 1189 00a6 AB71     		strb	r3, [r5, #6]
 1190 00a8 2300     		movs	r3, r4
 1191 00aa 7933     		adds	r3, r3, #121
 1192 00ac 1B78     		ldrb	r3, [r3]
 1193 00ae 5C21     		movs	r1, #92
 1194 00b0 EB71     		strb	r3, [r5, #7]
 1195 00b2 0123     		movs	r3, #1
 1196 00b4 04AA     		add	r2, sp, #16
ARM GAS  /tmp/ccSzR2eS.s 			page 22


 1197 00b6 5218     		adds	r2, r2, r1
 1198 00b8 1370     		strb	r3, [r2]
 1199 00ba 2A00     		movs	r2, r5
 1200 00bc 2B81     		strh	r3, [r5, #8]
 1201 00be 1CAB     		add	r3, sp, #112
 1202 00c0 83CA     		ldmia	r2!, {r0, r1, r7}
 1203 00c2 83C3     		stmia	r3!, {r0, r1, r7}
 1204 00c4 03CA     		ldmia	r2!, {r0, r1}
 1205 00c6 03C3     		stmia	r3!, {r0, r1}
 1206 00c8 A54B     		ldr	r3, .L170
 1207 00ca 2900     		movs	r1, r5
 1208 00cc E358     		ldr	r3, [r4, r3]
 1209 00ce 11A8     		add	r0, sp, #68
 1210 00d0 0393     		str	r3, [sp, #12]
 1211 00d2 9C23     		movs	r3, #156
 1212 00d4 039A     		ldr	r2, [sp, #12]
 1213 00d6 1B01     		lsls	r3, r3, #4
 1214 00d8 D358     		ldr	r3, [r2, r3]
 1215 00da A033     		adds	r3, r3, #160
 1216 00dc 1B68     		ldr	r3, [r3]
 1217 00de 9847     		blx	r3
 1218 00e0 0223     		movs	r3, #2
 1219 00e2 7370     		strb	r3, [r6, #1]
 1220 00e4 9F4B     		ldr	r3, .L170+4
 1221 00e6 0890     		str	r0, [sp, #32]
 1222              	.L169:
 1223 00e8 7360     		str	r3, [r6, #4]
 1224              	.L156:
 1225 00ea 9D4B     		ldr	r3, .L170
 1226 00ec 2100     		movs	r1, r4
 1227 00ee E058     		ldr	r0, [r4, r3]
 1228 00f0 10AA     		add	r2, sp, #64
 1229 00f2 FFF7FEFF 		bl	rp_hook_get_id
 1230 00f6 0028     		cmp	r0, #0
 1231 00f8 16D0     		beq	.L159
 1232 00fa 9B4D     		ldr	r5, .L170+8
 1233 00fc 2800     		movs	r0, r5
 1234 00fe FFF7FEFF 		bl	smtc_modem_hal_store_crashlog
 1235 0102 0120     		movs	r0, #1
 1236 0104 FFF7FEFF 		bl	smtc_modem_hal_set_crashlog_status
 1237 0108 2900     		movs	r1, r5
 1238 010a 9848     		ldr	r0, .L170+12
 1239 010c FFF7FEFF 		bl	smtc_modem_hal_print_trace
 1240 0110 974D     		ldr	r5, .L170+16
 1241 0112 2800     		movs	r0, r5
 1242 0114 FFF7FEFF 		bl	smtc_modem_hal_print_trace
 1243 0118 9648     		ldr	r0, .L170+20
 1244 011a FFF7FEFF 		bl	smtc_modem_hal_print_trace
 1245 011e 2800     		movs	r0, r5
 1246 0120 FFF7FEFF 		bl	smtc_modem_hal_print_trace
 1247 0124 FFF7FEFF 		bl	smtc_modem_hal_reset_mcu
 1248              	.L159:
 1249 0128 3022     		movs	r2, #48
 1250 012a 04AB     		add	r3, sp, #16
 1251 012c 9B18     		adds	r3, r3, r2
 1252 012e 1B78     		ldrb	r3, [r3]
 1253 0130 04AA     		add	r2, sp, #16
ARM GAS  /tmp/ccSzR2eS.s 			page 23


 1254 0132 1375     		strb	r3, [r2, #20]
 1255 0134 089B     		ldr	r3, [sp, #32]
 1256 0136 0F93     		str	r3, [sp, #60]
 1257 0138 8F4B     		ldr	r3, .L170+24
 1258 013a E558     		ldr	r5, [r4, r3]
 1259 013c FFF7FEFF 		bl	smtc_modem_hal_get_radio_tcxo_startup_delay_ms
 1260 0140 A322     		movs	r2, #163
 1261 0142 0123     		movs	r3, #1
 1262 0144 D200     		lsls	r2, r2, #3
 1263 0146 A15C     		ldrb	r1, [r4, r2]
 1264 0148 2D1A     		subs	r5, r5, r0
 1265 014a 0C95     		str	r5, [sp, #48]
 1266 014c 9942     		cmp	r1, r3
 1267 014e 01D1     		bne	.L160
 1268 0150 0023     		movs	r3, #0
 1269 0152 A354     		strb	r3, [r4, r2]
 1270              	.L160:
 1271 0154 04AA     		add	r2, sp, #16
 1272 0156 9377     		strb	r3, [r2, #30]
 1273 0158 0223     		movs	r3, #2
 1274 015a 884D     		ldr	r5, .L170+28
 1275 015c 1BAA     		add	r2, sp, #108
 1276 015e 6355     		strb	r3, [r4, r5]
 1277 0160 2300     		movs	r3, r4
 1278 0162 7933     		adds	r3, r3, #121
 1279 0164 1B78     		ldrb	r3, [r3]
 1280 0166 0092     		str	r2, [sp]
 1281 0168 2200     		movs	r2, r4
 1282 016a 7D48     		ldr	r0, .L170
 1283 016c 7A32     		adds	r2, r2, #122
 1284 016e 2058     		ldr	r0, [r4, r0]
 1285 0170 09A9     		add	r1, sp, #36
 1286 0172 FFF7FEFF 		bl	rp_task_enqueue
 1287 0176 0028     		cmp	r0, #0
 1288 0178 08D0     		beq	.L154
 1289 017a 0623     		movs	r3, #6
 1290 017c 3022     		movs	r2, #48
 1291 017e 6355     		strb	r3, [r4, r5]
 1292 0180 04AB     		add	r3, sp, #16
 1293 0182 9B18     		adds	r3, r3, r2
 1294 0184 1978     		ldrb	r1, [r3]
 1295 0186 7E48     		ldr	r0, .L170+32
 1296 0188 FFF7FEFF 		bl	smtc_modem_hal_print_trace
 1297              	.L154:
 1298 018c 3DB0     		add	sp, sp, #244
 1299              		@ sp needed
 1300 018e F0BD     		pop	{r4, r5, r6, r7, pc}
 1301              	.L155:
 1302 0190 039B     		ldr	r3, [sp, #12]
 1303 0192 012B     		cmp	r3, #1
 1304 0194 66D1     		bne	.L157
 1305 0196 049B     		ldr	r3, [sp, #16]
 1306 0198 04AA     		add	r2, sp, #16
 1307 019a 1978     		ldrb	r1, [r3]
 1308 019c 0F23     		movs	r3, #15
 1309 019e 9B18     		adds	r3, r3, r2
 1310 01a0 10AD     		add	r5, sp, #64
ARM GAS  /tmp/ccSzR2eS.s 			page 24


 1311 01a2 1A00     		movs	r2, r3
 1312 01a4 2000     		movs	r0, r4
 1313 01a6 FFF7FEFF 		bl	smtc_real_fsk_dr_to_bitrate
 1314 01aa 3900     		movs	r1, r7
 1315 01ac 2C22     		movs	r2, #44
 1316 01ae 2800     		movs	r0, r5
 1317 01b0 FFF7FEFF 		bl	memset
 1318 01b4 5A23     		movs	r3, #90
 1319 01b6 04AA     		add	r2, sp, #16
 1320 01b8 9B18     		adds	r3, r3, r2
 1321 01ba 039A     		ldr	r2, [sp, #12]
 1322 01bc 2000     		movs	r0, r4
 1323 01be 1A70     		strb	r2, [r3]
 1324 01c0 704B     		ldr	r3, .L170+36
 1325 01c2 2B85     		strh	r3, [r5, #40]
 1326 01c4 704B     		ldr	r3, .L170+40
 1327 01c6 1993     		str	r3, [sp, #100]
 1328 01c8 9623     		movs	r3, #150
 1329 01ca DB00     		lsls	r3, r3, #3
 1330 01cc E158     		ldr	r1, [r4, r3]
 1331 01ce 0591     		str	r1, [sp, #20]
 1332 01d0 1891     		str	r1, [sp, #96]
 1333 01d2 FFF7FEFF 		bl	smtc_real_get_gfsk_sync_word
 1334 01d6 0499     		ldr	r1, [sp, #16]
 1335 01d8 1790     		str	r0, [sp, #92]
 1336 01da 9622     		movs	r2, #150
 1337 01dc 0B78     		ldrb	r3, [r1]
 1338 01de 5021     		movs	r1, #80
 1339 01e0 D200     		lsls	r2, r2, #3
 1340 01e2 6156     		ldrsb	r1, [r4, r1]
 1341 01e4 A258     		ldr	r2, [r4, r2]
 1342 01e6 2000     		movs	r0, r4
 1343 01e8 FFF7FEFF 		bl	smtc_real_clamp_output_power_eirp_vs_freq_and_dr
 1344 01ec 5B23     		movs	r3, #91
 1345 01ee 04AA     		add	r2, sp, #16
 1346 01f0 9B18     		adds	r3, r3, r2
 1347 01f2 1870     		strb	r0, [r3]
 1348 01f4 039B     		ldr	r3, [sp, #12]
 1349 01f6 0422     		movs	r2, #4
 1350 01f8 6B75     		strb	r3, [r5, #21]
 1351 01fa 2300     		movs	r3, r4
 1352 01fc 7933     		adds	r3, r3, #121
 1353 01fe 1B78     		ldrb	r3, [r3]
 1354 0200 EA75     		strb	r2, [r5, #23]
 1355 0202 AB75     		strb	r3, [r5, #22]
 1356 0204 2823     		movs	r3, #40
 1357 0206 2B82     		strh	r3, [r5, #16]
 1358 0208 103B     		subs	r3, r3, #16
 1359 020a EB74     		strb	r3, [r5, #19]
 1360 020c 039B     		ldr	r3, [sp, #12]
 1361 020e 2B76     		strb	r3, [r5, #24]
 1362 0210 5E4B     		ldr	r3, .L170+44
 1363 0212 1193     		str	r3, [sp, #68]
 1364 0214 04AB     		add	r3, sp, #16
 1365 0216 D97B     		ldrb	r1, [r3, #15]
 1366 0218 FA23     		movs	r3, #250
 1367 021a 9B00     		lsls	r3, r3, #2
ARM GAS  /tmp/ccSzR2eS.s 			page 25


 1368 021c 4B43     		muls	r3, r1
 1369 021e 1093     		str	r3, [sp, #64]
 1370 0220 5B4B     		ldr	r3, .L170+48
 1371 0222 1293     		str	r3, [sp, #72]
 1372 0224 2A73     		strb	r2, [r5, #12]
 1373 0226 04AB     		add	r3, sp, #16
 1374 0228 5832     		adds	r2, r2, #88
 1375 022a 9B18     		adds	r3, r3, r2
 1376 022c 2A00     		movs	r2, r5
 1377 022e 1F70     		strb	r7, [r3]
 1378 0230 1CAB     		add	r3, sp, #112
 1379 0232 83CA     		ldmia	r2!, {r0, r1, r7}
 1380 0234 83C3     		stmia	r3!, {r0, r1, r7}
 1381 0236 83CA     		ldmia	r2!, {r0, r1, r7}
 1382 0238 83C3     		stmia	r3!, {r0, r1, r7}
 1383 023a 83CA     		ldmia	r2!, {r0, r1, r7}
 1384 023c 83C3     		stmia	r3!, {r0, r1, r7}
 1385 023e 03CA     		ldmia	r2!, {r0, r1}
 1386 0240 03C3     		stmia	r3!, {r0, r1}
 1387 0242 474B     		ldr	r3, .L170
 1388 0244 2900     		movs	r1, r5
 1389 0246 E358     		ldr	r3, [r4, r3]
 1390 0248 14A8     		add	r0, sp, #80
 1391 024a 0393     		str	r3, [sp, #12]
 1392 024c 9C23     		movs	r3, #156
 1393 024e 039A     		ldr	r2, [sp, #12]
 1394 0250 1B01     		lsls	r3, r3, #4
 1395 0252 D358     		ldr	r3, [r2, r3]
 1396 0254 A433     		adds	r3, r3, #164
 1397 0256 1B68     		ldr	r3, [r3]
 1398 0258 9847     		blx	r3
 1399 025a 0323     		movs	r3, #3
 1400 025c 0890     		str	r0, [sp, #32]
 1401 025e 7370     		strb	r3, [r6, #1]
 1402 0260 4C4B     		ldr	r3, .L170+52
 1403 0262 41E7     		b	.L169
 1404              	.L157:
 1405 0264 039B     		ldr	r3, [sp, #12]
 1406 0266 022B     		cmp	r3, #2
 1407 0268 61D1     		bne	.L158
 1408 026a 049B     		ldr	r3, [sp, #16]
 1409 026c 04AA     		add	r2, sp, #16
 1410 026e 1978     		ldrb	r1, [r3]
 1411 0270 0F23     		movs	r3, #15
 1412 0272 9B18     		adds	r3, r3, r2
 1413 0274 0E22     		movs	r2, #14
 1414 0276 04A8     		add	r0, sp, #16
 1415 0278 10AD     		add	r5, sp, #64
 1416 027a 1218     		adds	r2, r2, r0
 1417 027c 2000     		movs	r0, r4
 1418 027e FFF7FEFF 		bl	smtc_real_lr_fhss_dr_to_cr_bw
 1419 0282 3900     		movs	r1, r7
 1420 0284 1822     		movs	r2, #24
 1421 0286 2800     		movs	r0, r5
 1422 0288 FFF7FEFF 		bl	memset
 1423 028c 9622     		movs	r2, #150
 1424 028e 5021     		movs	r1, #80
ARM GAS  /tmp/ccSzR2eS.s 			page 26


 1425 0290 049B     		ldr	r3, [sp, #16]
 1426 0292 D200     		lsls	r2, r2, #3
 1427 0294 1B78     		ldrb	r3, [r3]
 1428 0296 6156     		ldrsb	r1, [r4, r1]
 1429 0298 A258     		ldr	r2, [r4, r2]
 1430 029a 2000     		movs	r0, r4
 1431 029c FFF7FEFF 		bl	smtc_real_clamp_output_power_eirp_vs_freq_and_dr
 1432 02a0 2F4B     		ldr	r3, .L170
 1433 02a2 2875     		strb	r0, [r5, #20]
 1434 02a4 E158     		ldr	r1, [r4, r3]
 1435 02a6 0800     		movs	r0, r1
 1436 02a8 0391     		str	r1, [sp, #12]
 1437 02aa 9C21     		movs	r1, #156
 1438 02ac 0901     		lsls	r1, r1, #4
 1439 02ae 4358     		ldr	r3, [r0, r1]
 1440 02b0 2900     		movs	r1, r5
 1441 02b2 1800     		movs	r0, r3
 1442 02b4 D830     		adds	r0, r0, #216
 1443 02b6 0268     		ldr	r2, [r0]
 1444 02b8 1868     		ldr	r0, [r3]
 1445 02ba 9047     		blx	r2
 1446 02bc 0100     		movs	r1, r0
 1447 02be 3800     		movs	r0, r7
 1448 02c0 FFF7FEFF 		bl	smtc_modem_hal_get_random_nb_in_range
 1449 02c4 E882     		strh	r0, [r5, #22]
 1450 02c6 04A8     		add	r0, sp, #16
 1451 02c8 837B     		ldrb	r3, [r0, #14]
 1452 02ca 2F71     		strb	r7, [r5, #4]
 1453 02cc 6B71     		strb	r3, [r5, #5]
 1454 02ce 2000     		movs	r0, r4
 1455 02d0 FFF7FEFF 		bl	smtc_real_lr_fhss_get_grid
 1456 02d4 0123     		movs	r3, #1
 1457 02d6 A871     		strb	r0, [r5, #6]
 1458 02d8 04A8     		add	r0, sp, #16
 1459 02da 2B72     		strb	r3, [r5, #8]
 1460 02dc C37B     		ldrb	r3, [r0, #15]
 1461 02de 807B     		ldrb	r0, [r0, #14]
 1462 02e0 EB71     		strb	r3, [r5, #7]
 1463 02e2 FFF7FEFF 		bl	smtc_real_lr_fhss_get_header_count
 1464 02e6 6872     		strb	r0, [r5, #9]
 1465 02e8 2000     		movs	r0, r4
 1466 02ea FFF7FEFF 		bl	smtc_real_get_lr_fhss_sync_word
 1467 02ee 9622     		movs	r2, #150
 1468 02f0 D200     		lsls	r2, r2, #3
 1469 02f2 A258     		ldr	r2, [r4, r2]
 1470 02f4 1090     		str	r0, [sp, #64]
 1471 02f6 1392     		str	r2, [sp, #76]
 1472 02f8 2A00     		movs	r2, r5
 1473 02fa 2F74     		strb	r7, [r5, #16]
 1474 02fc 1CAB     		add	r3, sp, #112
 1475 02fe 83CA     		ldmia	r2!, {r0, r1, r7}
 1476 0300 83C3     		stmia	r3!, {r0, r1, r7}
 1477 0302 83CA     		ldmia	r2!, {r0, r1, r7}
 1478 0304 83C3     		stmia	r3!, {r0, r1, r7}
 1479 0306 9C21     		movs	r1, #156
 1480 0308 154B     		ldr	r3, .L170
 1481 030a 0901     		lsls	r1, r1, #4
ARM GAS  /tmp/ccSzR2eS.s 			page 27


 1482 030c E358     		ldr	r3, [r4, r3]
 1483 030e 5858     		ldr	r0, [r3, r1]
 1484 0310 0393     		str	r3, [sp, #12]
 1485 0312 2300     		movs	r3, r4
 1486 0314 7933     		adds	r3, r3, #121
 1487 0316 1A78     		ldrb	r2, [r3]
 1488 0318 0300     		movs	r3, r0
 1489 031a D433     		adds	r3, r3, #212
 1490 031c 1F68     		ldr	r7, [r3]
 1491 031e 2900     		movs	r1, r5
 1492 0320 08AB     		add	r3, sp, #32
 1493 0322 0068     		ldr	r0, [r0]
 1494 0324 B847     		blx	r7
 1495 0326 0423     		movs	r3, #4
 1496 0328 7370     		strb	r3, [r6, #1]
 1497 032a 1B4B     		ldr	r3, .L170+56
 1498 032c DCE6     		b	.L169
 1499              	.L158:
 1500 032e 0E4D     		ldr	r5, .L170+8
 1501 0330 2800     		movs	r0, r5
 1502 0332 FFF7FEFF 		bl	smtc_modem_hal_store_crashlog
 1503 0336 0120     		movs	r0, #1
 1504 0338 FFF7FEFF 		bl	smtc_modem_hal_set_crashlog_status
 1505 033c 2900     		movs	r1, r5
 1506 033e 0B48     		ldr	r0, .L170+12
 1507 0340 FFF7FEFF 		bl	smtc_modem_hal_print_trace
 1508 0344 0A4D     		ldr	r5, .L170+16
 1509 0346 2800     		movs	r0, r5
 1510 0348 FFF7FEFF 		bl	smtc_modem_hal_print_trace
 1511 034c 1348     		ldr	r0, .L170+60
 1512 034e FFF7FEFF 		bl	smtc_modem_hal_print_trace
 1513 0352 2800     		movs	r0, r5
 1514 0354 FFF7FEFF 		bl	smtc_modem_hal_print_trace
 1515 0358 FFF7FEFF 		bl	smtc_modem_hal_reset_mcu
 1516 035c C5E6     		b	.L156
 1517              	.L171:
 1518 035e C046     		.align	2
 1519              	.L170:
 1520 0360 BC040000 		.word	1212
 1521 0364 00000000 		.word	lr1_stack_mac_tx_lora_launch_callback_for_rp
 1522 0368 00000000 		.word	.LANCHOR6
 1523 036c 00000000 		.word	.LC6
 1524 0370 1D000000 		.word	.LC8
 1525 0374 2E000000 		.word	.LC22
 1526 0378 14050000 		.word	1300
 1527 037c BB040000 		.word	1211
 1528 0380 40000000 		.word	.LC24
 1529 0384 FF010000 		.word	511
 1530 0388 0F1D2110 		.word	270605583
 1531 038c A8610000 		.word	25000
 1532 0390 A0860100 		.word	100000
 1533 0394 00000000 		.word	lr1_stack_mac_tx_gfsk_launch_callback_for_rp
 1534 0398 00000000 		.word	lr1_stack_mac_tx_lr_fhss_launch_callback_for_rp
 1535 039c 00000000 		.word	.LC20
 1537              		.section	.text.lr1_stack_mac_tx_radio_free_lbt,"ax",%progbits
 1538              		.align	1
 1539              		.global	lr1_stack_mac_tx_radio_free_lbt
ARM GAS  /tmp/ccSzR2eS.s 			page 28


 1540              		.syntax unified
 1541              		.code	16
 1542              		.thumb_func
 1543              		.fpu softvfp
 1545              	lr1_stack_mac_tx_radio_free_lbt:
 1546              		@ args = 0, pretend = 0, frame = 0
 1547              		@ frame_needed = 0, uses_anonymous_args = 0
 1548 0000 0222     		movs	r2, #2
 1549 0002 10B5     		push	{r4, lr}
 1550 0004 0400     		movs	r4, r0
 1551              		@ sp needed
 1552 0006 094B     		ldr	r3, .L173
 1553 0008 C254     		strb	r2, [r0, r3]
 1554 000a FFF7FEFF 		bl	smtc_modem_hal_get_time_in_ms
 1555 000e 084B     		ldr	r3, .L173+4
 1556 0010 E258     		ldr	r2, [r4, r3]
 1557 0012 084B     		ldr	r3, .L173+8
 1558 0014 D358     		ldr	r3, [r2, r3]
 1559 0016 084A     		ldr	r2, .L173+12
 1560 0018 1B18     		adds	r3, r3, r0
 1561 001a A350     		str	r3, [r4, r2]
 1562 001c A323     		movs	r3, #163
 1563 001e 0122     		movs	r2, #1
 1564 0020 DB00     		lsls	r3, r3, #3
 1565 0022 2000     		movs	r0, r4
 1566 0024 E254     		strb	r2, [r4, r3]
 1567 0026 FFF7FEFF 		bl	lr1_stack_mac_tx_radio_start
 1568 002a 10BD     		pop	{r4, pc}
 1569              	.L174:
 1570              		.align	2
 1571              	.L173:
 1572 002c BB040000 		.word	1211
 1573 0030 BC040000 		.word	1212
 1574 0034 C4090000 		.word	2500
 1575 0038 14050000 		.word	1300
 1577              		.section	.rodata.lr1_stack_mac_rx_radio_start.str1.1,"aMS",%progbits,1
 1578              	.LC31:
 1579 0000 1B5B303B 		.ascii	"\033[0;31mERROR: -> RX windows unknow\012\000"
 1579      33316D45 
 1579      52524F52 
 1579      3A202D3E 
 1579      20525820 
 1580              	.LC33:
 1581 0024 1B5B303B 		.ascii	"\033[0;31mERROR: -> MODULATION NOT SUPPORTED\012\000"
 1581      33316D45 
 1581      52524F52 
 1581      3A202D3E 
 1581      204D4F44 
 1582              	.LC36:
 1583 004f 0A20204F 		.ascii	"\012  Open RX%d for Hook Id = %d\000"
 1583      70656E20 
 1583      52582564 
 1583      20666F72 
 1583      20486F6F 
 1584              	.LC40:
 1585 006d 20202573 		.ascii	"  %s LoRa at %u ms: freq:%u, SF%u, %s, sync word = "
 1585      204C6F52 
ARM GAS  /tmp/ccSzR2eS.s 			page 29


 1585      61206174 
 1585      20257520 
 1585      6D733A20 
 1586 00a0 30782530 		.ascii	"0x%02x\012\000"
 1586      32780A00 
 1587              	.LC42:
 1588 00a8 20202573 		.ascii	"  %s FSK freq:%d\012\000"
 1588      2046534B 
 1588      20667265 
 1588      713A2564 
 1588      0A00
 1589              		.section	.text.lr1_stack_mac_rx_radio_start,"ax",%progbits
 1590              		.align	1
 1591              		.global	lr1_stack_mac_rx_radio_start
 1592              		.syntax unified
 1593              		.code	16
 1594              		.thumb_func
 1595              		.fpu softvfp
 1597              	lr1_stack_mac_rx_radio_start:
 1598              		@ args = 0, pretend = 0, frame = 200
 1599              		@ frame_needed = 0, uses_anonymous_args = 0
 1600 0000 9723     		movs	r3, #151
 1601 0002 F0B5     		push	{r4, r5, r6, r7, lr}
 1602 0004 B7B0     		sub	sp, sp, #220
 1603 0006 DB00     		lsls	r3, r3, #3
 1604 0008 0591     		str	r1, [sp, #20]
 1605 000a 0692     		str	r2, [sp, #24]
 1606 000c C65C     		ldrb	r6, [r0, r3]
 1607 000e 0400     		movs	r4, r0
 1608 0010 3100     		movs	r1, r6
 1609 0012 FFF7FEFF 		bl	smtc_real_get_modulation_type_from_datarate
 1610 0016 8422     		movs	r2, #132
 1611 0018 0500     		movs	r5, r0
 1612 001a 0021     		movs	r1, #0
 1613 001c 15A8     		add	r0, sp, #84
 1614 001e FFF7FEFF 		bl	memset
 1615 0022 9D4B     		ldr	r3, .L194
 1616 0024 059A     		ldr	r2, [sp, #20]
 1617 0026 E254     		strb	r2, [r4, r3]
 1618 0028 002A     		cmp	r2, #0
 1619 002a 1BD0     		beq	.L176
 1620 002c 012A     		cmp	r2, #1
 1621 002e 00D1     		bne	.LCB1690
 1622 0030 CCE0     		b	.L177	@long jump
 1623              	.LCB1690:
 1624 0032 9A4F     		ldr	r7, .L194+4
 1625 0034 3800     		movs	r0, r7
 1626 0036 FFF7FEFF 		bl	smtc_modem_hal_store_crashlog
 1627 003a 0120     		movs	r0, #1
 1628 003c FFF7FEFF 		bl	smtc_modem_hal_set_crashlog_status
 1629 0040 3900     		movs	r1, r7
 1630 0042 9748     		ldr	r0, .L194+8
 1631 0044 FFF7FEFF 		bl	smtc_modem_hal_print_trace
 1632 0048 964F     		ldr	r7, .L194+12
 1633 004a 3800     		movs	r0, r7
 1634 004c FFF7FEFF 		bl	smtc_modem_hal_print_trace
 1635 0050 9548     		ldr	r0, .L194+16
ARM GAS  /tmp/ccSzR2eS.s 			page 30


 1636 0052 FFF7FEFF 		bl	smtc_modem_hal_print_trace
 1637 0056 3800     		movs	r0, r7
 1638 0058 FFF7FEFF 		bl	smtc_modem_hal_print_trace
 1639 005c 0027     		movs	r7, #0
 1640 005e FFF7FEFF 		bl	smtc_modem_hal_reset_mcu
 1641 0062 01E0     		b	.L179
 1642              	.L176:
 1643 0064 914B     		ldr	r3, .L194+20
 1644 0066 E758     		ldr	r7, [r4, r3]
 1645              	.L179:
 1646 0068 002D     		cmp	r5, #0
 1647 006a 00D0     		beq	.LCB1718
 1648 006c B0E0     		b	.L180	@long jump
 1649              	.LCB1718:
 1650 006e 1723     		movs	r3, #23
 1651 0070 04AA     		add	r2, sp, #16
 1652 0072 9B18     		adds	r3, r3, r2
 1653 0074 1622     		movs	r2, #22
 1654 0076 04A9     		add	r1, sp, #16
 1655 0078 5218     		adds	r2, r2, r1
 1656 007a 2000     		movs	r0, r4
 1657 007c 3100     		movs	r1, r6
 1658 007e 0AAE     		add	r6, sp, #40
 1659 0080 FFF7FEFF 		bl	smtc_real_lora_dr_to_sf_bw
 1660 0084 1422     		movs	r2, #20
 1661 0086 2900     		movs	r1, r5
 1662 0088 3000     		movs	r0, r6
 1663 008a FFF7FEFF 		bl	memset
 1664 008e 2000     		movs	r0, r4
 1665 0090 FFF7FEFF 		bl	smtc_real_get_sync_word
 1666 0094 864B     		ldr	r3, .L194+24
 1667 0096 7074     		strb	r0, [r6, #17]
 1668 0098 E35A     		ldrh	r3, [r4, r3]
 1669 009a 2000     		movs	r0, r4
 1670 009c B374     		strb	r3, [r6, #18]
 1671 009e 0D97     		str	r7, [sp, #52]
 1672 00a0 FFF7FEFF 		bl	smtc_real_get_coding_rate
 1673 00a4 04AB     		add	r3, sp, #16
 1674 00a6 9D7D     		ldrb	r5, [r3, #22]
 1675 00a8 D97D     		ldrb	r1, [r3, #23]
 1676 00aa B070     		strb	r0, [r6, #2]
 1677 00ac 7170     		strb	r1, [r6, #1]
 1678 00ae 2800     		movs	r0, r5
 1679 00b0 3570     		strb	r5, [r6]
 1680 00b2 FFF7FEFF 		bl	ral_compute_lora_ldro
 1681 00b6 7F4B     		ldr	r3, .L194+28
 1682 00b8 2900     		movs	r1, r5
 1683 00ba F380     		strh	r3, [r6, #6]
 1684 00bc 8023     		movs	r3, #128
 1685 00be 5B00     		lsls	r3, r3, #1
 1686 00c0 F070     		strb	r0, [r6, #3]
 1687 00c2 3381     		strh	r3, [r6, #8]
 1688 00c4 2000     		movs	r0, r4
 1689 00c6 FFF7FEFF 		bl	smtc_real_get_preamble_len
 1690 00ca 0123     		movs	r3, #1
 1691 00cc 15AA     		add	r2, sp, #84
 1692 00ce 1370     		strb	r3, [r2]
ARM GAS  /tmp/ccSzR2eS.s 			page 31


 1693 00d0 B080     		strh	r0, [r6, #4]
 1694 00d2 21AB     		add	r3, sp, #132
 1695 00d4 23CE     		ldmia	r6!, {r0, r1, r5}
 1696 00d6 23C3     		stmia	r3!, {r0, r1, r5}
 1697 00d8 03CE     		ldmia	r6!, {r0, r1}
 1698 00da 03C3     		stmia	r3!, {r0, r1}
 1699 00dc 764B     		ldr	r3, .L194+32
 1700              	.L193:
 1701 00de E358     		ldr	r3, [r4, r3]
 1702 00e0 2C93     		str	r3, [sp, #176]
 1703              	.L181:
 1704 00e2 1725     		movs	r5, #23
 1705 00e4 754F     		ldr	r7, .L194+36
 1706 00e6 04AB     		add	r3, sp, #16
 1707 00e8 ED18     		adds	r5, r5, r3
 1708 00ea 2A00     		movs	r2, r5
 1709 00ec 2100     		movs	r1, r4
 1710 00ee E059     		ldr	r0, [r4, r7]
 1711 00f0 FFF7FEFF 		bl	rp_hook_get_id
 1712 00f4 0028     		cmp	r0, #0
 1713 00f6 16D0     		beq	.L183
 1714 00f8 684E     		ldr	r6, .L194+4
 1715 00fa 3000     		movs	r0, r6
 1716 00fc FFF7FEFF 		bl	smtc_modem_hal_store_crashlog
 1717 0100 0120     		movs	r0, #1
 1718 0102 FFF7FEFF 		bl	smtc_modem_hal_set_crashlog_status
 1719 0106 3100     		movs	r1, r6
 1720 0108 6548     		ldr	r0, .L194+8
 1721 010a FFF7FEFF 		bl	smtc_modem_hal_print_trace
 1722 010e 654E     		ldr	r6, .L194+12
 1723 0110 3000     		movs	r0, r6
 1724 0112 FFF7FEFF 		bl	smtc_modem_hal_print_trace
 1725 0116 6A48     		ldr	r0, .L194+40
 1726 0118 FFF7FEFF 		bl	smtc_modem_hal_print_trace
 1727 011c 3000     		movs	r0, r6
 1728 011e FFF7FEFF 		bl	smtc_modem_hal_print_trace
 1729 0122 FFF7FEFF 		bl	smtc_modem_hal_reset_mcu
 1730              	.L183:
 1731 0126 0021     		movs	r1, #0
 1732 0128 1822     		movs	r2, #24
 1733 012a 0AA8     		add	r0, sp, #40
 1734 012c FFF7FEFF 		bl	memset
 1735 0130 2B78     		ldrb	r3, [r5]
 1736 0132 04AA     		add	r2, sp, #16
 1737 0134 1376     		strb	r3, [r2, #24]
 1738 0136 15AB     		add	r3, sp, #84
 1739 0138 1A78     		ldrb	r2, [r3]
 1740 013a 531E     		subs	r3, r2, #1
 1741 013c 591E     		subs	r1, r3, #1
 1742 013e 8B41     		sbcs	r3, r3, r1
 1743 0140 04A9     		add	r1, sp, #16
 1744 0142 4B76     		strb	r3, [r1, #25]
 1745 0144 5F4B     		ldr	r3, .L194+44
 1746 0146 012A     		cmp	r2, #1
 1747 0148 00D0     		beq	.L184
 1748 014a 5F4B     		ldr	r3, .L194+48
 1749              	.L184:
ARM GAS  /tmp/ccSzR2eS.s 			page 32


 1750 014c 0B93     		str	r3, [sp, #44]
 1751 014e 069B     		ldr	r3, [sp, #24]
 1752 0150 8422     		movs	r2, #132
 1753 0152 0D93     		str	r3, [sp, #52]
 1754 0154 9923     		movs	r3, #153
 1755 0156 DB00     		lsls	r3, r3, #3
 1756 0158 E358     		ldr	r3, [r4, r3]
 1757 015a 15AE     		add	r6, sp, #84
 1758 015c 9200     		lsls	r2, r2, #2
 1759 015e 0793     		str	r3, [sp, #28]
 1760 0160 1093     		str	r3, [sp, #64]
 1761 0162 E059     		ldr	r0, [r4, r7]
 1762 0164 FF23     		movs	r3, #255
 1763 0166 0096     		str	r6, [sp]
 1764 0168 A218     		adds	r2, r4, r2
 1765 016a 0AA9     		add	r1, sp, #40
 1766 016c FFF7FEFF 		bl	rp_task_enqueue
 1767 0170 564B     		ldr	r3, .L194+52
 1768 0172 0028     		cmp	r0, #0
 1769 0174 00D0     		beq	.LCB1848
 1770 0176 88E0     		b	.L185	@long jump
 1771              	.LCB1848:
 1772 0178 0422     		movs	r2, #4
 1773 017a E254     		strb	r2, [r4, r3]
 1774 017c 059B     		ldr	r3, [sp, #20]
 1775 017e 2A78     		ldrb	r2, [r5]
 1776 0180 591C     		adds	r1, r3, #1
 1777 0182 5348     		ldr	r0, .L194+56
 1778 0184 FFF7FEFF 		bl	smtc_modem_hal_print_trace
 1779 0188 059B     		ldr	r3, [sp, #20]
 1780 018a 9900     		lsls	r1, r3, #2
 1781 018c 514B     		ldr	r3, .L194+60
 1782 018e CD58     		ldr	r5, [r1, r3]
 1783 0190 3378     		ldrb	r3, [r6]
 1784 0192 012B     		cmp	r3, #1
 1785 0194 00D0     		beq	.LCB1862
 1786 0196 72E0     		b	.L186	@long jump
 1787              	.LCB1862:
 1788 0198 21AB     		add	r3, sp, #132
 1789 019a 1B78     		ldrb	r3, [r3]
 1790 019c 04AA     		add	r2, sp, #16
 1791 019e 0593     		str	r3, [sp, #20]
 1792 01a0 7523     		movs	r3, #117
 1793 01a2 9B18     		adds	r3, r3, r2
 1794 01a4 1B78     		ldrb	r3, [r3]
 1795 01a6 4C4A     		ldr	r2, .L194+64
 1796 01a8 9B00     		lsls	r3, r3, #2
 1797 01aa 2000     		movs	r0, r4
 1798 01ac 9F58     		ldr	r7, [r3, r2]
 1799 01ae F66B     		ldr	r6, [r6, #60]
 1800 01b0 FFF7FEFF 		bl	smtc_real_get_sync_word
 1801 01b4 059B     		ldr	r3, [sp, #20]
 1802 01b6 0290     		str	r0, [sp, #8]
 1803 01b8 0093     		str	r3, [sp]
 1804 01ba 2900     		movs	r1, r5
 1805 01bc 3300     		movs	r3, r6
 1806 01be 069A     		ldr	r2, [sp, #24]
ARM GAS  /tmp/ccSzR2eS.s 			page 33


 1807 01c0 4648     		ldr	r0, .L194+68
 1808 01c2 0197     		str	r7, [sp, #4]
 1809 01c4 FFF7FEFF 		bl	smtc_modem_hal_print_trace
 1810              	.L175:
 1811 01c8 37B0     		add	sp, sp, #220
 1812              		@ sp needed
 1813 01ca F0BD     		pop	{r4, r5, r6, r7, pc}
 1814              	.L177:
 1815 01cc 676D     		ldr	r7, [r4, #84]
 1816 01ce 4BE7     		b	.L179
 1817              	.L180:
 1818 01d0 012D     		cmp	r5, #1
 1819 01d2 3CD1     		bne	.L182
 1820 01d4 1723     		movs	r3, #23
 1821 01d6 04AA     		add	r2, sp, #16
 1822 01d8 9B18     		adds	r3, r3, r2
 1823 01da 1A00     		movs	r2, r3
 1824 01dc 3100     		movs	r1, r6
 1825 01de 2000     		movs	r0, r4
 1826 01e0 0AAE     		add	r6, sp, #40
 1827 01e2 FFF7FEFF 		bl	smtc_real_fsk_dr_to_bitrate
 1828 01e6 0021     		movs	r1, #0
 1829 01e8 2C22     		movs	r2, #44
 1830 01ea 3000     		movs	r0, r6
 1831 01ec FFF7FEFF 		bl	memset
 1832 01f0 2000     		movs	r0, r4
 1833 01f2 1297     		str	r7, [sp, #72]
 1834 01f4 FFF7FEFF 		bl	smtc_real_get_gfsk_sync_word
 1835 01f8 4223     		movs	r3, #66
 1836 01fa 04AA     		add	r2, sp, #16
 1837 01fc 9B18     		adds	r3, r3, r2
 1838 01fe 1190     		str	r0, [sp, #68]
 1839 0200 1D70     		strb	r5, [r3]
 1840 0202 374B     		ldr	r3, .L194+72
 1841 0204 D27D     		ldrb	r2, [r2, #23]
 1842 0206 3385     		strh	r3, [r6, #40]
 1843 0208 364B     		ldr	r3, .L194+76
 1844 020a 1393     		str	r3, [sp, #76]
 1845 020c 2823     		movs	r3, #40
 1846 020e 3382     		strh	r3, [r6, #16]
 1847 0210 103B     		subs	r3, r3, #16
 1848 0212 F374     		strb	r3, [r6, #19]
 1849 0214 344B     		ldr	r3, .L194+80
 1850 0216 7575     		strb	r5, [r6, #21]
 1851 0218 F382     		strh	r3, [r6, #22]
 1852 021a 344B     		ldr	r3, .L194+84
 1853 021c 3576     		strb	r5, [r6, #24]
 1854 021e 0B93     		str	r3, [sp, #44]
 1855 0220 334B     		ldr	r3, .L194+88
 1856 0222 0C93     		str	r3, [sp, #48]
 1857 0224 0423     		movs	r3, #4
 1858 0226 3373     		strb	r3, [r6, #12]
 1859 0228 FA23     		movs	r3, #250
 1860 022a 9B00     		lsls	r3, r3, #2
 1861 022c 5343     		muls	r3, r2
 1862 022e 0A93     		str	r3, [sp, #40]
 1863 0230 0023     		movs	r3, #0
ARM GAS  /tmp/ccSzR2eS.s 			page 34


 1864 0232 15AA     		add	r2, sp, #84
 1865 0234 1370     		strb	r3, [r2]
 1866 0236 21AB     		add	r3, sp, #132
 1867 0238 23CE     		ldmia	r6!, {r0, r1, r5}
 1868 023a 23C3     		stmia	r3!, {r0, r1, r5}
 1869 023c 23CE     		ldmia	r6!, {r0, r1, r5}
 1870 023e 23C3     		stmia	r3!, {r0, r1, r5}
 1871 0240 23CE     		ldmia	r6!, {r0, r1, r5}
 1872 0242 23C3     		stmia	r3!, {r0, r1, r5}
 1873 0244 03CE     		ldmia	r6!, {r0, r1}
 1874 0246 03C3     		stmia	r3!, {r0, r1}
 1875 0248 9923     		movs	r3, #153
 1876 024a DB00     		lsls	r3, r3, #3
 1877 024c 47E7     		b	.L193
 1878              	.L182:
 1879 024e 134D     		ldr	r5, .L194+4
 1880 0250 2800     		movs	r0, r5
 1881 0252 FFF7FEFF 		bl	smtc_modem_hal_store_crashlog
 1882 0256 0120     		movs	r0, #1
 1883 0258 FFF7FEFF 		bl	smtc_modem_hal_set_crashlog_status
 1884 025c 2900     		movs	r1, r5
 1885 025e 1048     		ldr	r0, .L194+8
 1886 0260 FFF7FEFF 		bl	smtc_modem_hal_print_trace
 1887 0264 0F4D     		ldr	r5, .L194+12
 1888 0266 2800     		movs	r0, r5
 1889 0268 FFF7FEFF 		bl	smtc_modem_hal_print_trace
 1890 026c 2148     		ldr	r0, .L194+92
 1891 026e FFF7FEFF 		bl	smtc_modem_hal_print_trace
 1892 0272 2800     		movs	r0, r5
 1893 0274 FFF7FEFF 		bl	smtc_modem_hal_print_trace
 1894 0278 FFF7FEFF 		bl	smtc_modem_hal_reset_mcu
 1895 027c 31E7     		b	.L181
 1896              	.L186:
 1897 027e 2900     		movs	r1, r5
 1898 0280 326D     		ldr	r2, [r6, #80]
 1899 0282 1D48     		ldr	r0, .L194+96
 1900 0284 FFF7FEFF 		bl	smtc_modem_hal_print_trace
 1901 0288 9EE7     		b	.L175
 1902              	.L185:
 1903 028a 0622     		movs	r2, #6
 1904 028c 2978     		ldrb	r1, [r5]
 1905 028e 1B48     		ldr	r0, .L194+100
 1906 0290 E254     		strb	r2, [r4, r3]
 1907 0292 FFF7FEFF 		bl	smtc_modem_hal_print_trace
 1908 0296 97E7     		b	.L175
 1909              	.L195:
 1910              		.align	2
 1911              	.L194:
 1912 0298 BA040000 		.word	1210
 1913 029c 00000000 		.word	.LANCHOR7
 1914 02a0 00000000 		.word	.LC6
 1915 02a4 1D000000 		.word	.LC8
 1916 02a8 00000000 		.word	.LC31
 1917 02ac B4040000 		.word	1204
 1918 02b0 CC040000 		.word	1228
 1919 02b4 00FFFFFF 		.word	-256
 1920 02b8 C4040000 		.word	1220
ARM GAS  /tmp/ccSzR2eS.s 			page 35


 1921 02bc BC040000 		.word	1212
 1922 02c0 2E000000 		.word	.LC22
 1923 02c4 00000000 		.word	lr1_stack_mac_rx_lora_launch_callback_for_rp
 1924 02c8 00000000 		.word	lr1_stack_mac_rx_gfsk_launch_callback_for_rp
 1925 02cc BB040000 		.word	1211
 1926 02d0 4F000000 		.word	.LC36
 1927 02d4 00000000 		.word	.LANCHOR8
 1928 02d8 00000000 		.word	.LANCHOR9
 1929 02dc 6D000000 		.word	.LC40
 1930 02e0 FF010000 		.word	511
 1931 02e4 0F1D2110 		.word	270605583
 1932 02e8 FF040000 		.word	1279
 1933 02ec A8610000 		.word	25000
 1934 02f0 A0860100 		.word	100000
 1935 02f4 24000000 		.word	.LC33
 1936 02f8 A8000000 		.word	.LC42
 1937 02fc 40000000 		.word	.LC24
 1939              		.section	.rodata.lr1_stack_mac_rp_callback.str1.1,"aMS",%progbits,1
 1940              	.LC45:
 1941 0000 20424144 		.ascii	" BAD Ftype = %u for RX Frame\012\000"
 1941      20467479 
 1941      7065203D 
 1941      20257520 
 1941      666F7220 
 1942              	.LC47:
 1943 001e 1B5B303B 		.ascii	"\033[0;32mINFO:  BAD DevAddr = %x for RX Frame and "
 1943      33326D49 
 1943      4E464F3A 
 1943      20204241 
 1943      44204465 
 1944 004e 25780A0A 		.ascii	"%x\012\012\000"
 1944      00
 1945              	.LC50:
 1946 0053 52656365 		.ascii	"Receive a packet But rejected and too late to resta"
 1946      69766520 
 1946      61207061 
 1946      636B6574 
 1946      20427574 
 1947 0086 72740A00 		.ascii	"rt\012\000"
 1948              	.LC52:
 1949 008a 25732573 		.ascii	"%s%s\000"
 1949      00
 1950              	.LC54:
 1951 008f 52505F53 		.ascii	"RP_STATUS_RX_CRC_ERROR\012\000"
 1951      54415455 
 1951      535F5258 
 1951      5F435243 
 1951      5F455252 
 1952              	.LC56:
 1953 00a7 6C72316D 		.ascii	"lr1mac task aborted by the radioplanner\012\000"
 1953      61632074 
 1953      61736B20 
 1953      61626F72 
 1953      74656420 
 1954              	.LC58:
 1955 00d0 72656365 		.ascii	"receive It RADIO error %u\012\000"
 1955      69766520 
ARM GAS  /tmp/ccSzR2eS.s 			page 36


 1955      49742052 
 1955      4144494F 
 1955      20657272 
 1956              	.LC60:
 1957 00eb 1B5B303B 		.ascii	"\033[0;31mERROR: lr1_mac->planner_status %d\000"
 1957      33316D45 
 1957      52524F52 
 1957      3A206C72 
 1957      315F6D61 
 1958              		.section	.text.lr1_stack_mac_rp_callback,"ax",%progbits
 1959              		.align	1
 1960              		.global	lr1_stack_mac_rp_callback
 1961              		.syntax unified
 1962              		.code	16
 1963              		.thumb_func
 1964              		.fpu softvfp
 1966              	lr1_stack_mac_rp_callback:
 1967              		@ args = 0, pretend = 0, frame = 16
 1968              		@ frame_needed = 0, uses_anonymous_args = 0
 1969 0000 F0B5     		push	{r4, r5, r6, r7, lr}
 1970 0002 0400     		movs	r4, r0
 1971 0004 85B0     		sub	sp, sp, #20
 1972 0006 784E     		ldr	r6, .L228
 1973 0008 02AB     		add	r3, sp, #8
 1974 000a 0100     		movs	r1, r0
 1975 000c DA1C     		adds	r2, r3, #3
 1976 000e 8059     		ldr	r0, [r0, r6]
 1977 0010 FFF7FEFF 		bl	rp_hook_get_id
 1978 0014 754B     		ldr	r3, .L228+4
 1979 0016 02AA     		add	r2, sp, #8
 1980 0018 744D     		ldr	r5, .L228+4
 1981 001a D178     		ldrb	r1, [r2, #3]
 1982 001c A059     		ldr	r0, [r4, r6]
 1983 001e E318     		adds	r3, r4, r3
 1984 0020 03AA     		add	r2, sp, #12
 1985 0022 FFF7FEFF 		bl	rp_get_status
 1986 0026 615D     		ldrb	r1, [r4, r5]
 1987 0028 0A29     		cmp	r1, #10
 1988 002a 00D9     		bls	.LCB2056
 1989 002c ACE0     		b	.L197	@long jump
 1990              	.LCB2056:
 1991 002e 0800     		movs	r0, r1
 1992 0030 FFF7FEFF 		bl	__gnu_thumb1_case_uqi
 1993              	.L199:
 1994 0034 66       		.byte	(.L203-.L199)/2
 1995 0035 AA       		.byte	(.L197-.L199)/2
 1996 0036 AA       		.byte	(.L197-.L199)/2
 1997 0037 06       		.byte	(.L202-.L199)/2
 1998 0038 19       		.byte	(.L201-.L199)/2
 1999 0039 6A       		.byte	(.L200-.L199)/2
 2000 003a AA       		.byte	(.L197-.L199)/2
 2001 003b AA       		.byte	(.L197-.L199)/2
 2002 003c AA       		.byte	(.L197-.L199)/2
 2003 003d AA       		.byte	(.L197-.L199)/2
 2004 003e A8       		.byte	(.L198-.L199)/2
 2005 003f 00       		.p2align 1
 2006              	.L202:
ARM GAS  /tmp/ccSzR2eS.s 			page 37


 2007 0040 6B4B     		ldr	r3, .L228+8
 2008 0042 039A     		ldr	r2, [sp, #12]
 2009 0044 E250     		str	r2, [r4, r3]
 2010              	.L204:
 2011 0046 6B4E     		ldr	r6, .L228+12
 2012 0048 A35D     		ldrb	r3, [r4, r6]
 2013 004a 022B     		cmp	r3, #2
 2014 004c 00D1     		bne	.LCB2073
 2015 004e 9FE0     		b	.L212	@long jump
 2016              	.LCB2073:
 2017 0050 042B     		cmp	r3, #4
 2018 0052 00D1     		bne	.LCB2075
 2019 0054 A7E0     		b	.L213	@long jump
 2020              	.LCB2075:
 2021 0056 615D     		ldrb	r1, [r4, r5]
 2022 0058 0A29     		cmp	r1, #10
 2023 005a 00D0     		beq	.LCB2078
 2024 005c A6E0     		b	.L216	@long jump
 2025              	.LCB2078:
 2026              	.L218:
 2027 005e 0623     		movs	r3, #6
 2028 0060 A355     		strb	r3, [r4, r6]
 2029              	.L196:
 2030 0062 05B0     		add	sp, sp, #20
 2031              		@ sp needed
 2032 0064 F0BD     		pop	{r4, r5, r6, r7, pc}
 2033              	.L201:
 2034 0066 9A23     		movs	r3, #154
 2035 0068 039A     		ldr	r2, [sp, #12]
 2036 006a DB00     		lsls	r3, r3, #3
 2037 006c E250     		str	r2, [r4, r3]
 2038 006e 02AB     		add	r3, sp, #8
 2039 0070 DA78     		ldrb	r2, [r3, #3]
 2040 0072 8423     		movs	r3, #132
 2041 0074 5343     		muls	r3, r2
 2042 0076 A159     		ldr	r1, [r4, r6]
 2043 0078 CB18     		adds	r3, r1, r3
 2044 007a 1800     		movs	r0, r3
 2045 007c 7E30     		adds	r0, r0, #126
 2046 007e 0688     		ldrh	r6, [r0]
 2047 0080 5D48     		ldr	r0, .L228+16
 2048 0082 7C33     		adds	r3, r3, #124
 2049 0084 2652     		strh	r6, [r4, r0]
 2050 0086 1888     		ldrh	r0, [r3]
 2051 0088 5C4B     		ldr	r3, .L228+20
 2052 008a 5D4E     		ldr	r6, .L228+24
 2053 008c E052     		strh	r0, [r4, r3]
 2054 008e 433B     		subs	r3, r3, #67
 2055 0090 FF3B     		subs	r3, r3, #255
 2056 0092 D218     		adds	r2, r2, r3
 2057 0094 5200     		lsls	r2, r2, #1
 2058 0096 535A     		ldrh	r3, [r2, r1]
 2059 0098 A355     		strb	r3, [r4, r6]
 2060 009a 8423     		movs	r3, #132
 2061 009c 9B00     		lsls	r3, r3, #2
 2062 009e E15C     		ldrb	r1, [r4, r3]
 2063 00a0 3C3B     		subs	r3, r3, #60
ARM GAS  /tmp/ccSzR2eS.s 			page 38


 2064 00a2 4909     		lsrs	r1, r1, #5
 2065 00a4 FF3B     		subs	r3, r3, #255
 2066 00a6 CB40     		lsrs	r3, r3, r1
 2067 00a8 DB07     		lsls	r3, r3, #31
 2068 00aa 1CD4     		bmi	.L205
 2069 00ac 554B     		ldr	r3, .L228+28
 2070 00ae E35C     		ldrb	r3, [r4, r3]
 2071 00b0 022B     		cmp	r3, #2
 2072 00b2 C8D1     		bne	.L204
 2073 00b4 544B     		ldr	r3, .L228+32
 2074 00b6 E16E     		ldr	r1, [r4, #108]
 2075 00b8 E25C     		ldrb	r2, [r4, r3]
 2076 00ba 544B     		ldr	r3, .L228+36
 2077 00bc 1202     		lsls	r2, r2, #8
 2078 00be E35C     		ldrb	r3, [r4, r3]
 2079 00c0 D218     		adds	r2, r2, r3
 2080 00c2 534B     		ldr	r3, .L228+40
 2081 00c4 E35C     		ldrb	r3, [r4, r3]
 2082 00c6 1B04     		lsls	r3, r3, #16
 2083 00c8 D218     		adds	r2, r2, r3
 2084 00ca 8523     		movs	r3, #133
 2085 00cc 9B00     		lsls	r3, r3, #2
 2086 00ce E35C     		ldrb	r3, [r4, r3]
 2087 00d0 1B06     		lsls	r3, r3, #24
 2088 00d2 D218     		adds	r2, r2, r3
 2089 00d4 8A42     		cmp	r2, r1
 2090 00d6 B6D0     		beq	.L204
 2091 00d8 4E48     		ldr	r0, .L228+44
 2092 00da FFF7FEFF 		bl	smtc_modem_hal_print_trace
 2093 00de 4E48     		ldr	r0, .L228+48
 2094 00e0 FFF7FEFF 		bl	smtc_modem_hal_print_trace
 2095 00e4 02E0     		b	.L207
 2096              	.L205:
 2097 00e6 4D48     		ldr	r0, .L228+52
 2098 00e8 FFF7FEFF 		bl	smtc_modem_hal_print_trace
 2099              	.L207:
 2100 00ec 4C4A     		ldr	r2, .L228+56
 2101 00ee 4A49     		ldr	r1, .L228+48
 2102 00f0 4C48     		ldr	r0, .L228+60
 2103 00f2 FFF7FEFF 		bl	smtc_modem_hal_print_trace
 2104 00f6 0523     		movs	r3, #5
 2105 00f8 6355     		strb	r3, [r4, r5]
 2106 00fa 0023     		movs	r3, #0
 2107 00fc A355     		strb	r3, [r4, r6]
 2108 00fe A2E7     		b	.L204
 2109              	.L203:
 2110 0100 4948     		ldr	r0, .L228+64
 2111              	.L227:
 2112 0102 FFF7FEFF 		bl	smtc_modem_hal_print_trace
 2113 0106 9EE7     		b	.L204
 2114              	.L200:
 2115 0108 2200     		movs	r2, r4
 2116 010a 4849     		ldr	r1, .L228+68
 2117 010c 5932     		adds	r2, r2, #89
 2118 010e 1278     		ldrb	r2, [r2]
 2119 0110 615C     		ldrb	r1, [r4, r1]
 2120 0112 501C     		adds	r0, r2, #1
ARM GAS  /tmp/ccSzR2eS.s 			page 39


 2121 0114 039B     		ldr	r3, [sp, #12]
 2122 0116 0190     		str	r0, [sp, #4]
 2123 0118 0029     		cmp	r1, #0
 2124 011a 00D1     		bne	.L210
 2125 011c 0192     		str	r2, [sp, #4]
 2126              	.L210:
 2127 011e 344A     		ldr	r2, .L228+8
 2128 0120 9727     		movs	r7, #151
 2129 0122 A658     		ldr	r6, [r4, r2]
 2130 0124 1C3A     		subs	r2, r2, #28
 2131 0126 A258     		ldr	r2, [r4, r2]
 2132 0128 FF00     		lsls	r7, r7, #3
 2133 012a B618     		adds	r6, r6, r2
 2134 012c 9E1B     		subs	r6, r3, r6
 2135 012e A123     		movs	r3, #161
 2136 0130 9D22     		movs	r2, #157
 2137 0132 DB00     		lsls	r3, r3, #3
 2138 0134 E358     		ldr	r3, [r4, r3]
 2139 0136 9200     		lsls	r2, r2, #2
 2140 0138 F61A     		subs	r6, r6, r3
 2141 013a E35D     		ldrb	r3, [r4, r7]
 2142 013c 9B18     		adds	r3, r3, r2
 2143 013e 5B00     		lsls	r3, r3, #1
 2144 0140 1B5F     		ldrsh	r3, [r3, r4]
 2145 0142 F61A     		subs	r6, r6, r3
 2146 0144 FFF7FEFF 		bl	smtc_modem_hal_get_radio_tcxo_startup_delay_ms
 2147 0148 361A     		subs	r6, r6, r0
 2148 014a FA20     		movs	r0, #250
 2149 014c 019B     		ldr	r3, [sp, #4]
 2150 014e 8000     		lsls	r0, r0, #2
 2151 0150 5843     		muls	r0, r3
 2152 0152 361A     		subs	r6, r6, r0
 2153 0154 FFF7FEFF 		bl	smtc_modem_hal_get_board_delay_ms
 2154 0158 301A     		subs	r0, r6, r0
 2155 015a 08D5     		bpl	.L211
 2156 015c 9D21     		movs	r1, #157
 2157 015e E35D     		ldrb	r3, [r4, r7]
 2158 0160 C900     		lsls	r1, r1, #3
 2159 0162 5B00     		lsls	r3, r3, #1
 2160 0164 E318     		adds	r3, r4, r3
 2161 0166 5A5A     		ldrh	r2, [r3, r1]
 2162 0168 013A     		subs	r2, r2, #1
 2163              	.L226:
 2164 016a 5A52     		strh	r2, [r3, r1]
 2165 016c 6BE7     		b	.L204
 2166              	.L211:
 2167 016e 0028     		cmp	r0, #0
 2168 0170 00D1     		bne	.LCB2251
 2169 0172 68E7     		b	.L204	@long jump
 2170              	.LCB2251:
 2171 0174 9D21     		movs	r1, #157
 2172 0176 E35D     		ldrb	r3, [r4, r7]
 2173 0178 C900     		lsls	r1, r1, #3
 2174 017a 5B00     		lsls	r3, r3, #1
 2175 017c E318     		adds	r3, r4, r3
 2176 017e 5A5A     		ldrh	r2, [r3, r1]
 2177 0180 0132     		adds	r2, r2, #1
ARM GAS  /tmp/ccSzR2eS.s 			page 40


 2178 0182 F2E7     		b	.L226
 2179              	.L198:
 2180 0184 2A48     		ldr	r0, .L228+72
 2181 0186 BCE7     		b	.L227
 2182              	.L197:
 2183 0188 2A48     		ldr	r0, .L228+76
 2184 018a FFF7FEFF 		bl	smtc_modem_hal_print_trace
 2185 018e 5AE7     		b	.L204
 2186              	.L212:
 2187 0190 0323     		movs	r3, #3
 2188 0192 A355     		strb	r3, [r4, r6]
 2189 0194 C423     		movs	r3, #196
 2190 0196 0022     		movs	r2, #0
 2191 0198 9B00     		lsls	r3, r3, #2
 2192 019a E254     		strb	r2, [r4, r3]
 2193              	.L215:
 2194 019c 635D     		ldrb	r3, [r4, r5]
 2195 019e 0A2B     		cmp	r3, #10
 2196 01a0 00D0     		beq	.LCB2284
 2197 01a2 5EE7     		b	.L196	@long jump
 2198              	.LCB2284:
 2199 01a4 5BE7     		b	.L218
 2200              	.L213:
 2201 01a6 0523     		movs	r3, #5
 2202 01a8 A355     		strb	r3, [r4, r6]
 2203 01aa F7E7     		b	.L215
 2204              	.L216:
 2205 01ac 2248     		ldr	r0, .L228+80
 2206 01ae FFF7FEFF 		bl	smtc_modem_hal_print_trace
 2207 01b2 194F     		ldr	r7, .L228+48
 2208 01b4 3800     		movs	r0, r7
 2209 01b6 FFF7FEFF 		bl	smtc_modem_hal_print_trace
 2210 01ba 2048     		ldr	r0, .L228+84
 2211 01bc FFF7FEFF 		bl	smtc_modem_hal_store_crashlog
 2212 01c0 0120     		movs	r0, #1
 2213 01c2 FFF7FEFF 		bl	smtc_modem_hal_set_crashlog_status
 2214 01c6 1D49     		ldr	r1, .L228+84
 2215 01c8 1D48     		ldr	r0, .L228+88
 2216 01ca FFF7FEFF 		bl	smtc_modem_hal_print_trace
 2217 01ce 3800     		movs	r0, r7
 2218 01d0 FFF7FEFF 		bl	smtc_modem_hal_print_trace
 2219 01d4 1B48     		ldr	r0, .L228+92
 2220 01d6 FFF7FEFF 		bl	smtc_modem_hal_print_trace
 2221 01da 3800     		movs	r0, r7
 2222 01dc FFF7FEFF 		bl	smtc_modem_hal_print_trace
 2223 01e0 FFF7FEFF 		bl	smtc_modem_hal_reset_mcu
 2224 01e4 DAE7     		b	.L215
 2225              	.L229:
 2226 01e6 C046     		.align	2
 2227              	.L228:
 2228 01e8 BC040000 		.word	1212
 2229 01ec CF040000 		.word	1231
 2230 01f0 E4040000 		.word	1252
 2231 01f4 BB040000 		.word	1211
 2232 01f8 D4040000 		.word	1236
 2233 01fc D6040000 		.word	1238
 2234 0200 0F020000 		.word	527
ARM GAS  /tmp/ccSzR2eS.s 			page 41


 2235 0204 CE040000 		.word	1230
 2236 0208 12020000 		.word	530
 2237 020c 11020000 		.word	529
 2238 0210 13020000 		.word	531
 2239 0214 1E000000 		.word	.LC47
 2240 0218 1D000000 		.word	.LC8
 2241 021c 00000000 		.word	.LC45
 2242 0220 53000000 		.word	.LC50
 2243 0224 8A000000 		.word	.LC52
 2244 0228 8F000000 		.word	.LC54
 2245 022c BA040000 		.word	1210
 2246 0230 A7000000 		.word	.LC56
 2247 0234 D0000000 		.word	.LC58
 2248 0238 EB000000 		.word	.LC60
 2249 023c 00000000 		.word	.LANCHOR10
 2250 0240 00000000 		.word	.LC6
 2251 0244 2E000000 		.word	.LC22
 2253              		.section	.rodata.lr1_stack_mac_rx_timer_configure.str1.1,"aMS",%progbits,1
 2254              	.LC70:
 2255 0000 20205469 		.ascii	"  Timer will expire in %d ms\012\000"
 2255      6D657220 
 2255      77696C6C 
 2255      20657870 
 2255      69726520 
 2256              		.section	.text.lr1_stack_mac_rx_timer_configure,"ax",%progbits
 2257              		.align	1
 2258              		.global	lr1_stack_mac_rx_timer_configure
 2259              		.syntax unified
 2260              		.code	16
 2261              		.thumb_func
 2262              		.fpu softvfp
 2264              	lr1_stack_mac_rx_timer_configure:
 2265              		@ args = 0, pretend = 0, frame = 16
 2266              		@ frame_needed = 0, uses_anonymous_args = 0
 2267 0000 F0B5     		push	{r4, r5, r6, r7, lr}
 2268 0002 89B0     		sub	sp, sp, #36
 2269 0004 0E00     		movs	r6, r1
 2270 0006 0400     		movs	r4, r0
 2271 0008 FFF7FEFF 		bl	smtc_modem_hal_get_time_in_ms
 2272 000c 3100     		movs	r1, r6
 2273 000e 0590     		str	r0, [sp, #20]
 2274 0010 2000     		movs	r0, r4
 2275 0012 FFF7FEFF 		bl	smtc_real_set_rx_config
 2276 0016 002E     		cmp	r6, #0
 2277 0018 1BD0     		beq	.L231
 2278 001a 012E     		cmp	r6, #1
 2279 001c 00D1     		bne	.LCB2363
 2280 001e 68E0     		b	.L232	@long jump
 2281              	.LCB2363:
 2282 0020 4D4C     		ldr	r4, .L242
 2283 0022 2000     		movs	r0, r4
 2284 0024 FFF7FEFF 		bl	smtc_modem_hal_store_crashlog
 2285 0028 0120     		movs	r0, #1
 2286 002a FFF7FEFF 		bl	smtc_modem_hal_set_crashlog_status
 2287 002e 2100     		movs	r1, r4
 2288 0030 4A48     		ldr	r0, .L242+4
 2289 0032 FFF7FEFF 		bl	smtc_modem_hal_print_trace
ARM GAS  /tmp/ccSzR2eS.s 			page 42


 2290 0036 4A4C     		ldr	r4, .L242+8
 2291 0038 2000     		movs	r0, r4
 2292 003a FFF7FEFF 		bl	smtc_modem_hal_print_trace
 2293 003e 4948     		ldr	r0, .L242+12
 2294 0040 FFF7FEFF 		bl	smtc_modem_hal_print_trace
 2295 0044 2000     		movs	r0, r4
 2296 0046 FFF7FEFF 		bl	smtc_modem_hal_print_trace
 2297 004a FFF7FEFF 		bl	smtc_modem_hal_reset_mcu
 2298              	.L230:
 2299 004e 09B0     		add	sp, sp, #36
 2300              		@ sp needed
 2301 0050 F0BD     		pop	{r4, r5, r6, r7, pc}
 2302              	.L231:
 2303 0052 2300     		movs	r3, r4
 2304 0054 5933     		adds	r3, r3, #89
 2305 0056 1D78     		ldrb	r5, [r3]
 2306              	.L234:
 2307 0058 9727     		movs	r7, #151
 2308 005a FF00     		lsls	r7, r7, #3
 2309 005c 2000     		movs	r0, r4
 2310 005e E15D     		ldrb	r1, [r4, r7]
 2311 0060 FFF7FEFF 		bl	smtc_real_get_modulation_type_from_datarate
 2312 0064 0028     		cmp	r0, #0
 2313 0066 49D1     		bne	.L236
 2314 0068 1623     		movs	r3, #22
 2315 006a 02AA     		add	r2, sp, #8
 2316 006c 9B18     		adds	r3, r3, r2
 2317 006e 1522     		movs	r2, #21
 2318 0070 02A8     		add	r0, sp, #8
 2319 0072 1218     		adds	r2, r2, r0
 2320 0074 E15D     		ldrb	r1, [r4, r7]
 2321 0076 2000     		movs	r0, r4
 2322 0078 FFF7FEFF 		bl	smtc_real_lora_dr_to_sf_bw
 2323              	.L237:
 2324 007c FA22     		movs	r2, #250
 2325 007e 9200     		lsls	r2, r2, #2
 2326 0080 5543     		muls	r5, r2
 2327 0082 FFF7FEFF 		bl	smtc_modem_hal_get_radio_tcxo_startup_delay_ms
 2328 0086 0700     		movs	r7, r0
 2329 0088 FFF7FEFF 		bl	smtc_modem_hal_get_board_delay_ms
 2330 008c 9723     		movs	r3, #151
 2331 008e 9D22     		movs	r2, #157
 2332 0090 DB00     		lsls	r3, r3, #3
 2333 0092 E15C     		ldrb	r1, [r4, r3]
 2334 0094 9200     		lsls	r2, r2, #2
 2335 0096 8B18     		adds	r3, r1, r2
 2336 0098 5B00     		lsls	r3, r3, #1
 2337 009a 1A5F     		ldrsh	r2, [r3, r4]
 2338 009c 0023     		movs	r3, #0
 2339 009e D719     		adds	r7, r2, r7
 2340 00a0 314A     		ldr	r2, .L242+16
 2341 00a2 0293     		str	r3, [sp, #8]
 2342 00a4 A318     		adds	r3, r4, r2
 2343 00a6 0432     		adds	r2, r2, #4
 2344 00a8 0193     		str	r3, [sp, #4]
 2345 00aa A318     		adds	r3, r4, r2
 2346 00ac 2F4A     		ldr	r2, .L242+20
ARM GAS  /tmp/ccSzR2eS.s 			page 43


 2347 00ae 3F18     		adds	r7, r7, r0
 2348 00b0 0093     		str	r3, [sp]
 2349 00b2 2000     		movs	r0, r4
 2350 00b4 A318     		adds	r3, r4, r2
 2351 00b6 2A00     		movs	r2, r5
 2352 00b8 FFF7FEFF 		bl	smtc_real_get_rx_window_parameters
 2353 00bc A120     		movs	r0, #161
 2354 00be 9721     		movs	r1, #151
 2355 00c0 2A4B     		ldr	r3, .L242+20
 2356 00c2 C000     		lsls	r0, r0, #3
 2357 00c4 2018     		adds	r0, r4, r0
 2358 00c6 C900     		lsls	r1, r1, #3
 2359 00c8 E35A     		ldrh	r3, [r4, r3]
 2360 00ca 615C     		ldrb	r1, [r4, r1]
 2361 00cc 7AB2     		sxtb	r2, r7
 2362 00ce 0090     		str	r0, [sp]
 2363 00d0 2000     		movs	r0, r4
 2364 00d2 FFF7FEFF 		bl	smtc_real_get_rx_start_time_offset_ms
 2365 00d6 264B     		ldr	r3, .L242+24
 2366 00d8 E258     		ldr	r2, [r4, r3]
 2367 00da 059B     		ldr	r3, [sp, #20]
 2368 00dc AA18     		adds	r2, r5, r2
 2369 00de A125     		movs	r5, #161
 2370 00e0 ED00     		lsls	r5, r5, #3
 2371 00e2 D71A     		subs	r7, r2, r3
 2372 00e4 6359     		ldr	r3, [r4, r5]
 2373 00e6 F91A     		subs	r1, r7, r3
 2374 00e8 2AD5     		bpl	.L239
 2375 00ea 0522     		movs	r2, #5
 2376 00ec 214B     		ldr	r3, .L242+28
 2377 00ee E254     		strb	r2, [r4, r3]
 2378 00f0 ADE7     		b	.L230
 2379              	.L232:
 2380 00f2 2300     		movs	r3, r4
 2381 00f4 5933     		adds	r3, r3, #89
 2382 00f6 1D78     		ldrb	r5, [r3]
 2383 00f8 0135     		adds	r5, r5, #1
 2384 00fa ADE7     		b	.L234
 2385              	.L236:
 2386 00fc 0128     		cmp	r0, #1
 2387 00fe 07D1     		bne	.L238
 2388 0100 1722     		movs	r2, #23
 2389 0102 02AB     		add	r3, sp, #8
 2390 0104 2000     		movs	r0, r4
 2391 0106 E15D     		ldrb	r1, [r4, r7]
 2392 0108 D218     		adds	r2, r2, r3
 2393 010a FFF7FEFF 		bl	smtc_real_fsk_dr_to_bitrate
 2394 010e B5E7     		b	.L237
 2395              	.L238:
 2396 0110 114F     		ldr	r7, .L242
 2397 0112 3800     		movs	r0, r7
 2398 0114 FFF7FEFF 		bl	smtc_modem_hal_store_crashlog
 2399 0118 0120     		movs	r0, #1
 2400 011a FFF7FEFF 		bl	smtc_modem_hal_set_crashlog_status
 2401 011e 3900     		movs	r1, r7
 2402 0120 0E48     		ldr	r0, .L242+4
 2403 0122 FFF7FEFF 		bl	smtc_modem_hal_print_trace
ARM GAS  /tmp/ccSzR2eS.s 			page 44


 2404 0126 0E4F     		ldr	r7, .L242+8
 2405 0128 3800     		movs	r0, r7
 2406 012a FFF7FEFF 		bl	smtc_modem_hal_print_trace
 2407 012e 1248     		ldr	r0, .L242+32
 2408 0130 FFF7FEFF 		bl	smtc_modem_hal_print_trace
 2409 0134 3800     		movs	r0, r7
 2410 0136 FFF7FEFF 		bl	smtc_modem_hal_print_trace
 2411 013a FFF7FEFF 		bl	smtc_modem_hal_reset_mcu
 2412 013e 9DE7     		b	.L237
 2413              	.L239:
 2414 0140 3100     		movs	r1, r6
 2415 0142 2000     		movs	r0, r4
 2416 0144 D218     		adds	r2, r2, r3
 2417 0146 FFF7FEFF 		bl	lr1_stack_mac_rx_radio_start
 2418 014a 6159     		ldr	r1, [r4, r5]
 2419 014c 0B48     		ldr	r0, .L242+36
 2420 014e 7918     		adds	r1, r7, r1
 2421 0150 FFF7FEFF 		bl	smtc_modem_hal_print_trace
 2422 0154 7BE7     		b	.L230
 2423              	.L243:
 2424 0156 C046     		.align	2
 2425              	.L242:
 2426 0158 00000000 		.word	.LANCHOR11
 2427 015c 00000000 		.word	.LC6
 2428 0160 1D000000 		.word	.LC8
 2429 0164 00000000 		.word	.LC31
 2430 0168 C4040000 		.word	1220
 2431 016c CC040000 		.word	1228
 2432 0170 E4040000 		.word	1252
 2433 0174 BB040000 		.word	1211
 2434 0178 24000000 		.word	.LC33
 2435 017c 00000000 		.word	.LC70
 2437              		.section	.text.lr1_stack_mac_update_tx_done,"ax",%progbits
 2438              		.align	1
 2439              		.global	lr1_stack_mac_update_tx_done
 2440              		.syntax unified
 2441              		.code	16
 2442              		.thumb_func
 2443              		.fpu softvfp
 2445              	lr1_stack_mac_update_tx_done:
 2446              		@ args = 0, pretend = 0, frame = 0
 2447              		@ frame_needed = 0, uses_anonymous_args = 0
 2448 0000 9422     		movs	r2, #148
 2449 0002 D200     		lsls	r2, r2, #3
 2450 0004 835A     		ldrh	r3, [r0, r2]
 2451 0006 1349     		ldr	r1, .L253
 2452 0008 10B5     		push	{r4, lr}
 2453 000a 8B42     		cmp	r3, r1
 2454 000c 05D0     		beq	.L245
 2455 000e 124C     		ldr	r4, .L253+4
 2456 0010 045D     		ldrb	r4, [r0, r4]
 2457 0012 002C     		cmp	r4, #0
 2458 0014 01D0     		beq	.L245
 2459 0016 0133     		adds	r3, r3, #1
 2460 0018 8352     		strh	r3, [r0, r2]
 2461              	.L245:
 2462 001a 104A     		ldr	r2, .L253+8
ARM GAS  /tmp/ccSzR2eS.s 			page 45


 2463 001c 835A     		ldrh	r3, [r0, r2]
 2464 001e 8B42     		cmp	r3, r1
 2465 0020 01D0     		beq	.L246
 2466 0022 0133     		adds	r3, r3, #1
 2467 0024 8352     		strh	r3, [r0, r2]
 2468              	.L246:
 2469 0026 0E4B     		ldr	r3, .L253+12
 2470 0028 C25C     		ldrb	r2, [r0, r3]
 2471 002a 012A     		cmp	r2, #1
 2472 002c 01D1     		bne	.L247
 2473 002e 0132     		adds	r2, r2, #1
 2474 0030 C254     		strb	r2, [r0, r3]
 2475              	.L247:
 2476 0032 0C4B     		ldr	r3, .L253+16
 2477 0034 C25C     		ldrb	r2, [r0, r3]
 2478 0036 012A     		cmp	r2, #1
 2479 0038 05D1     		bne	.L248
 2480 003a 0132     		adds	r2, r2, #1
 2481 003c C254     		strb	r2, [r0, r3]
 2482 003e 0A4B     		ldr	r3, .L253+20
 2483 0040 C258     		ldr	r2, [r0, r3]
 2484 0042 4C33     		adds	r3, r3, #76
 2485 0044 C250     		str	r2, [r0, r3]
 2486              	.L248:
 2487 0046 094B     		ldr	r3, .L253+24
 2488 0048 C25C     		ldrb	r2, [r0, r3]
 2489 004a 012A     		cmp	r2, #1
 2490 004c 01D1     		bne	.L244
 2491 004e 0132     		adds	r2, r2, #1
 2492 0050 C254     		strb	r2, [r0, r3]
 2493              	.L244:
 2494              		@ sp needed
 2495 0052 10BD     		pop	{r4, pc}
 2496              	.L254:
 2497              		.align	2
 2498              	.L253:
 2499 0054 FFFF0000 		.word	65535
 2500 0058 92040000 		.word	1170
 2501 005c 9E040000 		.word	1182
 2502 0060 44050000 		.word	1348
 2503 0064 45050000 		.word	1349
 2504 0068 E4040000 		.word	1252
 2505 006c 46050000 		.word	1350
 2507              		.section	.rodata.lr1_stack_mac_cmd_parse.str1.1,"aMS",%progbits,1
 2508              	.LC72:
 2509 0000 1B5B303B 		.ascii	"\033[0;33mWARN: too much cmd in the payload\012\000"
 2509      33336D57 
 2509      41524E3A 
 2509      20746F6F 
 2509      206D7563 
 2510              	.LC75:
 2511 002a 204D6172 		.ascii	" Margin = %d, GwCnt = %d\012\000"
 2511      67696E20 
 2511      3D202564 
 2511      2C204777 
 2511      436E7420 
 2512              	.LC77:
ARM GAS  /tmp/ccSzR2eS.s 			page 46


 2513 0044 25752F25 		.ascii	"%u/%u - Cmd link_adr_parser = %02x %02x %02x %02x\012"
 2513      75202D20 
 2513      436D6420 
 2513      6C696E6B 
 2513      5F616472 
 2514 0076 00       		.ascii	"\000"
 2515              	.LC79:
 2516 0077 2575202D 		.ascii	"%u - MULTIPLE LINK ADR REQ , channel mask = 0x%x , "
 2516      204D554C 
 2516      5449504C 
 2516      45204C49 
 2516      4E4B2041 
 2517 00aa 43684D41 		.ascii	"ChMAstCntl = 0x%x\012\000"
 2517      7374436E 
 2517      746C203D 
 2517      20307825 
 2517      780A00
 2518              	.LC81:
 2519 00bd 1B5B303B 		.ascii	"\033[0;33mWARN: INVALID CHANNEL CNTL\012\000"
 2519      33336D57 
 2519      41524E3A 
 2519      20494E56 
 2519      414C4944 
 2520              	.LC83:
 2521 00e0 1B5B303B 		.ascii	"\033[0;33mWARN: INVALID CHANNEL MASK in Mobile Mode"
 2521      33336D57 
 2521      41524E3A 
 2521      20494E56 
 2521      414C4944 
 2522 0110 0A00     		.ascii	"\012\000"
 2523              	.LC85:
 2524 0112 1B5B303B 		.ascii	"\033[0;33mWARN: INVALID CHANNEL MASK\012\000"
 2524      33336D57 
 2524      41524E3A 
 2524      20494E56 
 2524      414C4944 
 2525              	.LC87:
 2526 0135 1B5B303B 		.ascii	"\033[0;33mWARN: INVALID DATARATE\012\000"
 2526      33336D57 
 2526      41524E3A 
 2526      20494E56 
 2526      414C4944 
 2527              	.LC89:
 2528 0154 1B5B303B 		.ascii	"\033[0;33mWARN: INVALID TXPOWER\012\000"
 2528      33336D57 
 2528      41524E3A 
 2528      20494E56 
 2528      414C4944 
 2529              	.LC91:
 2530 0172 4D616354 		.ascii	"MacTxDataRateAdr = %d\012\000"
 2530      78446174 
 2530      61526174 
 2530      65416472 
 2530      203D2025 
 2531              	.LC93:
 2532 0189 4D616354 		.ascii	"MacTxPower = %d\012\000"
 2532      78506F77 
ARM GAS  /tmp/ccSzR2eS.s 			page 47


 2532      6572203D 
 2532      2025640A 
 2532      00
 2533              	.LC95:
 2534 019a 4D61634E 		.ascii	"MacNbTrans = %d\012\000"
 2534      62547261 
 2534      6E73203D 
 2534      2025640A 
 2534      00
 2535              	.LC97:
 2536 01ab 436D6420 		.ascii	"Cmd duty_cycle_parser %x\012\000"
 2536      64757479 
 2536      5F637963 
 2536      6C655F70 
 2536      61727365 
 2537              	.LC99:
 2538 01c5 20436D64 		.ascii	" Cmd rx_param_setup_parser = %x %x %x %x\012\000"
 2538      2072785F 
 2538      70617261 
 2538      6D5F7365 
 2538      7475705F 
 2539              	.LC101:
 2540 01ef 494E5641 		.ascii	"INVALID RX1DROFFSET\012\000"
 2540      4C494420 
 2540      52583144 
 2540      524F4646 
 2540      5345540A 
 2541              	.LC104:
 2542 0204 494E5641 		.ascii	"INVALID RX2DR\012\000"
 2542      4C494420 
 2542      52583244 
 2542      520A00
 2543              	.LC106:
 2544 0213 494E5641 		.ascii	"INVALID RX2 FREQUENCY\012\000"
 2544      4C494420 
 2544      52583220 
 2544      46524551 
 2544      55454E43 
 2545              	.LC108:
 2546 022a 4D616352 		.ascii	"MacRx1DataRateOffset = %d\012\000"
 2546      78314461 
 2546      74615261 
 2546      74654F66 
 2546      66736574 
 2547              	.LC110:
 2548 0245 4D616352 		.ascii	"MacRx2DataRate = %d\012\000"
 2548      78324461 
 2548      74615261 
 2548      7465203D 
 2548      2025640A 
 2549              	.LC112:
 2550 025a 4D616352 		.ascii	"MacRx2Frequency = %d\012\000"
 2550      78324672 
 2550      65717565 
 2550      6E637920 
 2550      3D202564 
 2551              	.LC114:
ARM GAS  /tmp/ccSzR2eS.s 			page 48


 2552 0270 52656365 		.ascii	"Receive a dev status req\012\000"
 2552      69766520 
 2552      61206465 
 2552      76207374 
 2552      61747573 
 2553              	.LC116:
 2554 028a 20436D64 		.ascii	" Cmd new_channel_parser = %x %x %x %x %x\012\000"
 2554      206E6577 
 2554      5F636861 
 2554      6E6E656C 
 2554      5F706172 
 2555              	.LC118:
 2556 02b4 1B5B303B 		.ascii	"\033[0;33mWARN: NewChannelReq is not supported for "
 2556      33336D57 
 2556      41524E3A 
 2556      204E6577 
 2556      4368616E 
 2557 02e4 74686973 		.ascii	"this region\012\000"
 2557      20726567 
 2557      696F6E0A 
 2557      00
 2558              	.LC120:
 2559 02f1 494E5641 		.ascii	"INVALID CHANNEL INDEX\012\000"
 2559      4C494420 
 2559      4348414E 
 2559      4E454C20 
 2559      494E4445 
 2560              	.LC122:
 2561 0308 494E5641 		.ascii	"INVALID FREQUENCY\012\000"
 2561      4C494420 
 2561      46524551 
 2561      55454E43 
 2561      590A00
 2562              	.LC124:
 2563 031b 494E5641 		.ascii	"INVALID DR MIN\012\000"
 2563      4C494420 
 2563      4452204D 
 2563      494E0A00 
 2564              	.LC126:
 2565 032b 494E5641 		.ascii	"INVALID DR MAX\012\000"
 2565      4C494420 
 2565      4452204D 
 2565      41580A00 
 2566              	.LC128:
 2567 033b 494E5641 		.ascii	"INVALID DR MAX < DR MIN\012\000"
 2567      4C494420 
 2567      4452204D 
 2567      4158203C 
 2567      20445220 
 2568              	.LC130:
 2569 0354 4D616354 		.ascii	"MacTxFrequency [ %d ] = %d, DrMin = %d, DrMax = %d\012"
 2569      78467265 
 2569      7175656E 
 2569      6379205B 
 2569      20256420 
 2570 0387 00       		.ascii	"\000"
 2571              	.LC132:
ARM GAS  /tmp/ccSzR2eS.s 			page 49


 2572 0388 436D6420 		.ascii	"Cmd rx_timing_setup_parser = %x\012\000"
 2572      72785F74 
 2572      696D696E 
 2572      675F7365 
 2572      7475705F 
 2573              	.LC134:
 2574 03a9 436D6420 		.ascii	"Cmd tx_param_setup_parser = %x\012\000"
 2574      74785F70 
 2574      6172616D 
 2574      5F736574 
 2574      75705F70 
 2575              	.LC136:
 2576 03c9 1B5B303B 		.ascii	"\033[0;33mWARN: TxParamSetupReq is not supported fo"
 2576      33336D57 
 2576      41524E3A 
 2576      20547850 
 2576      6172616D 
 2577 03f9 72207468 		.ascii	"r this region\012\000"
 2577      69732072 
 2577      6567696F 
 2577      6E0A00
 2578              	.LC139:
 2579 0408 436D6420 		.ascii	"Cmd dl_channel_parser = %x %x %x %x \012\000"
 2579      646C5F63 
 2579      68616E6E 
 2579      656C5F70 
 2579      61727365 
 2580              	.LC141:
 2581 042e 1B5B303B 		.ascii	"\033[0;33mWARN: DlChannelReq is not supported for t"
 2581      33336D57 
 2581      41524E3A 
 2581      20446C43 
 2581      68616E6E 
 2582 045e 68697320 		.ascii	"his region\012\000"
 2582      72656769 
 2582      6F6E0A00 
 2583              	.LC143:
 2584 046a 4D616352 		.ascii	"MacRx1Frequency [ %u ] = %d\012\000"
 2584      78314672 
 2584      65717565 
 2584      6E637920 
 2584      5B202575 
 2585              	.LC145:
 2586 0487 436D6420 		.ascii	"Cmd device_time_ans_parser = %x %x %x %x %x\012\000"
 2586      64657669 
 2586      63655F74 
 2586      696D655F 
 2586      616E735F 
 2587              	.LC147:
 2588 04b4 5365636F 		.ascii	"SecondsSinceEpoch %u, FractionalSecond %u\012\000"
 2588      6E647353 
 2588      696E6365 
 2588      45706F63 
 2588      68202575 
 2589              	.LC149:
 2590 04df 2050696E 		.ascii	" PingSlotInfoAns\012\000"
 2590      67536C6F 
ARM GAS  /tmp/ccSzR2eS.s 			page 50


 2590      74496E66 
 2590      6F416E73 
 2590      0A00
 2591              	.LC151:
 2592 04f1 20436D64 		.ascii	" Cmd ping_slot_channel_req_parser = %x %x %x %x\012"
 2592      2070696E 
 2592      675F736C 
 2592      6F745F63 
 2592      68616E6E 
 2593 0521 00       		.ascii	"\000"
 2594              	.LC153:
 2595 0522 494E5641 		.ascii	"INVALID PING SLOT FREQUENCY\012\000"
 2595      4C494420 
 2595      50494E47 
 2595      20534C4F 
 2595      54204652 
 2596              	.LC155:
 2597 053f 494E5641 		.ascii	"INVALID PING SLOT DR\012\000"
 2597      4C494420 
 2597      50494E47 
 2597      20534C4F 
 2597      54204452 
 2598              	.LC157:
 2599 0555 4D616350 		.ascii	"MacPingSlotDataRate = %d\012\000"
 2599      696E6753 
 2599      6C6F7444 
 2599      61746152 
 2599      61746520 
 2600              	.LC159:
 2601 056f 4D616350 		.ascii	"MacPingSlotFrequency = %d\012\000"
 2601      696E6753 
 2601      6C6F7446 
 2601      72657175 
 2601      656E6379 
 2602              	.LC161:
 2603 058a 436D6420 		.ascii	"Cmd beacon_freq_req_parser = %x %x %x %x\012\000"
 2603      62656163 
 2603      6F6E5F66 
 2603      7265715F 
 2603      7265715F 
 2604              	.LC163:
 2605 05b4 494E5641 		.ascii	"INVALID BEACON FREQUENCY\012\000"
 2605      4C494420 
 2605      42454143 
 2605      4F4E2046 
 2605      52455155 
 2606              	.LC165:
 2607 05ce 4D616342 		.ascii	"MacBeaconFrequency %d\012\000"
 2607      6561636F 
 2607      6E467265 
 2607      7175656E 
 2607      63792025 
 2608              	.LC167:
 2609 05e5 20556E6B 		.ascii	" Unknown mac command %02x\012\000"
 2609      6E6F776E 
 2609      206D6163 
 2609      20636F6D 
ARM GAS  /tmp/ccSzR2eS.s 			page 51


 2609      6D616E64 
 2610              		.section	.text.lr1_stack_mac_cmd_parse,"ax",%progbits
 2611              		.align	1
 2612              		.global	lr1_stack_mac_cmd_parse
 2613              		.syntax unified
 2614              		.code	16
 2615              		.thumb_func
 2616              		.fpu softvfp
 2618              	lr1_stack_mac_cmd_parse:
 2619              		@ args = 0, pretend = 0, frame = 24
 2620              		@ frame_needed = 0, uses_anonymous_args = 0
 2621 0000 0023     		movs	r3, #0
 2622 0002 F0B5     		push	{r4, r5, r6, r7, lr}
 2623 0004 C04A     		ldr	r2, .L375
 2624 0006 C14F     		ldr	r7, .L375+4
 2625 0008 0400     		movs	r4, r0
 2626 000a C355     		strb	r3, [r0, r7]
 2627 000c 8354     		strb	r3, [r0, r2]
 2628 000e 7A22     		movs	r2, #122
 2629 0010 FF32     		adds	r2, r2, #255
 2630 0012 8354     		strb	r3, [r0, r2]
 2631 0014 8BB0     		sub	sp, sp, #44
 2632 0016 6132     		adds	r2, r2, #97
 2633              	.L361:
 2634 0018 A354     		strb	r3, [r4, r2]
 2635              	.L256:
 2636 001a BD4B     		ldr	r3, .L375+8
 2637 001c E25C     		ldrb	r2, [r4, r3]
 2638 001e E35D     		ldrb	r3, [r4, r7]
 2639 0020 9A42     		cmp	r2, r3
 2640 0022 01D8     		bhi	.L326
 2641 0024 0020     		movs	r0, #0
 2642 0026 0CE0     		b	.L258
 2643              	.L326:
 2644 0028 7A21     		movs	r1, #122
 2645 002a FF31     		adds	r1, r1, #255
 2646 002c 615C     		ldrb	r1, [r4, r1]
 2647 002e 6029     		cmp	r1, #96
 2648 0030 09D9     		bls	.L257
 2649 0032 B848     		ldr	r0, .L375+12
 2650 0034 FFF7FEFF 		bl	smtc_modem_hal_print_trace
 2651 0038 B748     		ldr	r0, .L375+16
 2652 003a FFF7FEFF 		bl	smtc_modem_hal_print_trace
 2653 003e 0120     		movs	r0, #1
 2654 0040 4042     		rsbs	r0, r0, #0
 2655              	.L258:
 2656 0042 0BB0     		add	sp, sp, #44
 2657              		@ sp needed
 2658 0044 F0BD     		pop	{r4, r5, r6, r7, pc}
 2659              	.L257:
 2660 0046 CD21     		movs	r1, #205
 2661 0048 E618     		adds	r6, r4, r3
 2662 004a 8900     		lsls	r1, r1, #2
 2663 004c 7118     		adds	r1, r6, r1
 2664 004e 0978     		ldrb	r1, [r1]
 2665 0050 881E     		subs	r0, r1, #2
 2666 0052 1128     		cmp	r0, #17
ARM GAS  /tmp/ccSzR2eS.s 			page 52


 2667 0054 01D9     		bls	.LCB2687
 2668 0056 00F0D8FD 		bl	.L259	@far jump
 2669              	.LCB2687:
 2670 005a FFF7FEFF 		bl	__gnu_thumb1_case_uhi
 2671              	.L261:
 2672 005e 1200     		.2byte	(.L273-.L261)/2
 2673 0060 BA00     		.2byte	(.L327-.L261)/2
 2674 0062 8301     		.2byte	(.L271-.L261)/2
 2675 0064 AA01     		.2byte	(.L270-.L261)/2
 2676 0066 3D02     		.2byte	(.L269-.L261)/2
 2677 0068 7902     		.2byte	(.L268-.L261)/2
 2678 006a 7103     		.2byte	(.L267-.L261)/2
 2679 006c A803     		.2byte	(.L266-.L261)/2
 2680 006e F203     		.2byte	(.L265-.L261)/2
 2681 0070 D605     		.2byte	(.L259-.L261)/2
 2682 0072 D605     		.2byte	(.L259-.L261)/2
 2683 0074 6304     		.2byte	(.L264-.L261)/2
 2684 0076 D605     		.2byte	(.L259-.L261)/2
 2685 0078 D605     		.2byte	(.L259-.L261)/2
 2686 007a C204     		.2byte	(.L263-.L261)/2
 2687 007c D604     		.2byte	(.L262-.L261)/2
 2688 007e D605     		.2byte	(.L259-.L261)/2
 2689 0080 8105     		.2byte	(.L260-.L261)/2
 2690              		.p2align 1
 2691              	.L273:
 2692 0082 A649     		ldr	r1, .L375+20
 2693 0084 605C     		ldrb	r0, [r4, r1]
 2694 0086 0228     		cmp	r0, #2
 2695 0088 C7D1     		bne	.L256
 2696 008a 0130     		adds	r0, r0, #1
 2697 008c 0233     		adds	r3, r3, #2
 2698 008e 6054     		strb	r0, [r4, r1]
 2699 0090 9342     		cmp	r3, r2
 2700 0092 02DB     		blt	.L276
 2701              	.L279:
 2702 0094 0023     		movs	r3, #0
 2703 0096 9E4A     		ldr	r2, .L375+8
 2704 0098 BEE7     		b	.L361
 2705              	.L276:
 2706 009a CD22     		movs	r2, #205
 2707 009c A04D     		ldr	r5, .L375+24
 2708 009e 9200     		lsls	r2, r2, #2
 2709 00a0 E318     		adds	r3, r4, r3
 2710 00a2 9B18     		adds	r3, r3, r2
 2711 00a4 7619     		adds	r6, r6, r5
 2712 00a6 1A78     		ldrb	r2, [r3]
 2713 00a8 3178     		ldrb	r1, [r6]
 2714 00aa 9E48     		ldr	r0, .L375+28
 2715 00ac FFF7FEFF 		bl	smtc_modem_hal_print_trace
 2716 00b0 E35D     		ldrb	r3, [r4, r7]
 2717 00b2 E218     		adds	r2, r4, r3
 2718 00b4 5119     		adds	r1, r2, r5
 2719 00b6 0878     		ldrb	r0, [r1]
 2720 00b8 A421     		movs	r1, #164
 2721 00ba C900     		lsls	r1, r1, #3
 2722 00bc 6054     		strb	r0, [r4, r1]
 2723 00be 9A49     		ldr	r1, .L375+32
ARM GAS  /tmp/ccSzR2eS.s 			page 53


 2724 00c0 0333     		adds	r3, r3, #3
 2725 00c2 5218     		adds	r2, r2, r1
 2726 00c4 1178     		ldrb	r1, [r2]
 2727 00c6 994A     		ldr	r2, .L375+36
 2728 00c8 A154     		strb	r1, [r4, r2]
 2729              	.L362:
 2730 00ca E355     		strb	r3, [r4, r7]
 2731 00cc A5E7     		b	.L256
 2732              	.L278:
 2733 00ce 0599     		ldr	r1, [sp, #20]
 2734 00d0 0131     		adds	r1, r1, #1
 2735 00d2 C9B2     		uxtb	r1, r1
 2736 00d4 0591     		str	r1, [sp, #20]
 2737              	.L272:
 2738 00d6 6046     		mov	r0, ip
 2739 00d8 CD25     		movs	r5, #205
 2740 00da 0599     		ldr	r1, [sp, #20]
 2741 00dc AD00     		lsls	r5, r5, #2
 2742 00de 4143     		muls	r1, r0
 2743 00e0 7018     		adds	r0, r6, r1
 2744 00e2 4019     		adds	r0, r0, r5
 2745 00e4 0078     		ldrb	r0, [r0]
 2746 00e6 0328     		cmp	r0, #3
 2747 00e8 03D1     		bne	.L277
 2748 00ea 0531     		adds	r1, r1, #5
 2749 00ec C918     		adds	r1, r1, r3
 2750 00ee 9142     		cmp	r1, r2
 2751 00f0 EDDD     		ble	.L278
 2752              	.L277:
 2753 00f2 059B     		ldr	r3, [sp, #20]
 2754 00f4 002B     		cmp	r3, #0
 2755 00f6 CDD0     		beq	.L279
 2756 00f8 0025     		movs	r5, #0
 2757 00fa 0526     		movs	r6, #5
 2758              	.L280:
 2759 00fc 3300     		movs	r3, r6
 2760 00fe CE21     		movs	r1, #206
 2761 0100 6B43     		muls	r3, r5
 2762 0102 E25D     		ldrb	r2, [r4, r7]
 2763 0104 8900     		lsls	r1, r1, #2
 2764 0106 D218     		adds	r2, r2, r3
 2765 0108 A218     		adds	r2, r4, r2
 2766 010a 5118     		adds	r1, r2, r1
 2767 010c 844B     		ldr	r3, .L375+24
 2768 010e 0978     		ldrb	r1, [r1]
 2769 0110 D318     		adds	r3, r2, r3
 2770 0112 1B78     		ldrb	r3, [r3]
 2771 0114 0291     		str	r1, [sp, #8]
 2772 0116 8649     		ldr	r1, .L375+40
 2773 0118 8648     		ldr	r0, .L375+44
 2774 011a 5118     		adds	r1, r2, r1
 2775 011c 0978     		ldrb	r1, [r1]
 2776 011e 0191     		str	r1, [sp, #4]
 2777 0120 8149     		ldr	r1, .L375+32
 2778 0122 5218     		adds	r2, r2, r1
 2779 0124 1278     		ldrb	r2, [r2]
 2780 0126 2900     		movs	r1, r5
ARM GAS  /tmp/ccSzR2eS.s 			page 54


 2781 0128 0092     		str	r2, [sp]
 2782 012a 059A     		ldr	r2, [sp, #20]
 2783 012c FFF7FEFF 		bl	smtc_modem_hal_print_trace
 2784 0130 0135     		adds	r5, r5, #1
 2785 0132 059A     		ldr	r2, [sp, #20]
 2786 0134 EBB2     		uxtb	r3, r5
 2787 0136 9A42     		cmp	r2, r3
 2788 0138 E0D8     		bhi	.L280
 2789 013a 0023     		movs	r3, #0
 2790 013c 0793     		str	r3, [sp, #28]
 2791 013e 0733     		adds	r3, r3, #7
 2792 0140 0693     		str	r3, [sp, #24]
 2793              	.L282:
 2794 0142 0522     		movs	r2, #5
 2795 0144 0799     		ldr	r1, [sp, #28]
 2796 0146 E35D     		ldrb	r3, [r4, r7]
 2797 0148 4A43     		muls	r2, r1
 2798 014a 9B18     		adds	r3, r3, r2
 2799 014c 784A     		ldr	r2, .L375+40
 2800 014e E318     		adds	r3, r4, r3
 2801 0150 7549     		ldr	r1, .L375+32
 2802 0152 9A18     		adds	r2, r3, r2
 2803 0154 5918     		adds	r1, r3, r1
 2804 0156 1278     		ldrb	r2, [r2]
 2805 0158 0E78     		ldrb	r6, [r1]
 2806 015a 1202     		lsls	r2, r2, #8
 2807 015c B618     		adds	r6, r6, r2
 2808 015e CE22     		movs	r2, #206
 2809 0160 9200     		lsls	r2, r2, #2
 2810 0162 9B18     		adds	r3, r3, r2
 2811 0164 1D78     		ldrb	r5, [r3]
 2812 0166 0723     		movs	r3, #7
 2813 0168 2D11     		asrs	r5, r5, #4
 2814 016a B6B2     		uxth	r6, r6
 2815 016c 1D40     		ands	r5, r3
 2816 016e 2B00     		movs	r3, r5
 2817 0170 3200     		movs	r2, r6
 2818 0172 0799     		ldr	r1, [sp, #28]
 2819 0174 7048     		ldr	r0, .L375+48
 2820 0176 FFF7FEFF 		bl	smtc_modem_hal_print_trace
 2821 017a 3200     		movs	r2, r6
 2822 017c 2900     		movs	r1, r5
 2823 017e 2000     		movs	r0, r4
 2824 0180 FFF7FEFF 		bl	smtc_real_build_channel_mask
 2825 0184 831C     		adds	r3, r0, #2
 2826 0186 07D1     		bne	.L281
 2827 0188 6C48     		ldr	r0, .L375+52
 2828 018a FFF7FEFF 		bl	smtc_modem_hal_print_trace
 2829 018e 6248     		ldr	r0, .L375+16
 2830 0190 FFF7FEFF 		bl	smtc_modem_hal_print_trace
 2831 0194 0623     		movs	r3, #6
 2832 0196 0693     		str	r3, [sp, #24]
 2833              	.L281:
 2834 0198 079B     		ldr	r3, [sp, #28]
 2835 019a 059A     		ldr	r2, [sp, #20]
 2836 019c 0133     		adds	r3, r3, #1
 2837 019e 0793     		str	r3, [sp, #28]
ARM GAS  /tmp/ccSzR2eS.s 			page 55


 2838 01a0 6B46     		mov	r3, sp
 2839 01a2 1B7F     		ldrb	r3, [r3, #28]
 2840 01a4 9A42     		cmp	r2, r3
 2841 01a6 CCD8     		bhi	.L282
 2842 01a8 654B     		ldr	r3, .L375+56
 2843 01aa E35C     		ldrb	r3, [r4, r3]
 2844 01ac 002B     		cmp	r3, #0
 2845 01ae 40D0     		beq	.L283
 2846 01b0 069B     		ldr	r3, [sp, #24]
 2847 01b2 6448     		ldr	r0, .L375+60
 2848 01b4 072B     		cmp	r3, #7
 2849 01b6 05D1     		bne	.L367
 2850 01b8 2000     		movs	r0, r4
 2851 01ba FFF7FEFF 		bl	smtc_real_is_channel_mask_for_mobile_mode
 2852 01be 431C     		adds	r3, r0, #1
 2853 01c0 0CD1     		bne	.L285
 2854 01c2 6148     		ldr	r0, .L375+64
 2855              	.L367:
 2856 01c4 FFF7FEFF 		bl	smtc_modem_hal_print_trace
 2857 01c8 5348     		ldr	r0, .L375+16
 2858 01ca FFF7FEFF 		bl	smtc_modem_hal_print_trace
 2859 01ce 0023     		movs	r3, #0
 2860 01d0 0AE0     		b	.L358
 2861              	.L327:
 2862 01d2 0021     		movs	r1, #0
 2863 01d4 0591     		str	r1, [sp, #20]
 2864 01d6 0531     		adds	r1, r1, #5
 2865 01d8 8C46     		mov	ip, r1
 2866 01da 7CE7     		b	.L272
 2867              	.L285:
 2868 01dc 2000     		movs	r0, r4
 2869 01de FFF7FEFF 		bl	smtc_real_set_channel_mask
 2870 01e2 0123     		movs	r3, #1
 2871 01e4 594A     		ldr	r2, .L375+68
 2872 01e6 A354     		strb	r3, [r4, r2]
 2873              	.L358:
 2874 01e8 0693     		str	r3, [sp, #24]
 2875              	.L286:
 2876 01ea 0522     		movs	r2, #5
 2877 01ec 059B     		ldr	r3, [sp, #20]
 2878 01ee 5A43     		muls	r2, r3
 2879 01f0 E35D     		ldrb	r3, [r4, r7]
 2880 01f2 9B18     		adds	r3, r3, r2
 2881 01f4 DBB2     		uxtb	r3, r3
 2882 01f6 464A     		ldr	r2, .L375+8
 2883 01f8 E355     		strb	r3, [r4, r7]
 2884 01fa A25C     		ldrb	r2, [r4, r2]
 2885 01fc 9A42     		cmp	r2, r3
 2886 01fe 00D2     		bcs	.LCB2910
 2887 0200 0BE7     		b	.L256	@long jump
 2888              	.LCB2910:
 2889 0202 7A23     		movs	r3, #122
 2890 0204 FF33     		adds	r3, r3, #255
 2891 0206 E05C     		ldrb	r0, [r4, r3]
 2892 0208 0021     		movs	r1, #0
 2893 020a 0200     		movs	r2, r0
 2894 020c 7B32     		adds	r2, r2, #123
ARM GAS  /tmp/ccSzR2eS.s 			page 56


 2895 020e FF32     		adds	r2, r2, #255
 2896 0210 773B     		subs	r3, r3, #119
 2897 0212 A218     		adds	r2, r4, r2
 2898 0214 FF3B     		subs	r3, r3, #255
 2899              	.L293:
 2900 0216 069D     		ldr	r5, [sp, #24]
 2901 0218 0131     		adds	r1, r1, #1
 2902 021a 5570     		strb	r5, [r2, #1]
 2903 021c 059D     		ldr	r5, [sp, #20]
 2904 021e C9B2     		uxtb	r1, r1
 2905 0220 1370     		strb	r3, [r2]
 2906 0222 0232     		adds	r2, r2, #2
 2907 0224 8D42     		cmp	r5, r1
 2908 0226 F6D1     		bne	.L293
 2909 0228 7A22     		movs	r2, #122
 2910 022a 6B00     		lsls	r3, r5, #1
 2911 022c C318     		adds	r3, r0, r3
 2912 022e FF32     		adds	r2, r2, #255
 2913 0230 F2E6     		b	.L361
 2914              	.L283:
 2915 0232 0526     		movs	r6, #5
 2916 0234 059B     		ldr	r3, [sp, #20]
 2917 0236 3A4A     		ldr	r2, .L375+24
 2918 0238 5D1E     		subs	r5, r3, #1
 2919 023a 7543     		muls	r5, r6
 2920 023c E35D     		ldrb	r3, [r4, r7]
 2921 023e 6519     		adds	r5, r4, r5
 2922 0240 EB18     		adds	r3, r5, r3
 2923 0242 9B18     		adds	r3, r3, r2
 2924 0244 1B78     		ldrb	r3, [r3]
 2925 0246 1B09     		lsrs	r3, r3, #4
 2926 0248 0793     		str	r3, [sp, #28]
 2927 024a 0F2B     		cmp	r3, #15
 2928 024c 0FD0     		beq	.L287
 2929 024e 1900     		movs	r1, r3
 2930 0250 0122     		movs	r2, #1
 2931 0252 2000     		movs	r0, r4
 2932 0254 FFF7FEFF 		bl	smtc_real_is_tx_dr_acceptable
 2933 0258 431C     		adds	r3, r0, #1
 2934 025a 08D1     		bne	.L287
 2935 025c 069B     		ldr	r3, [sp, #24]
 2936 025e 3C48     		ldr	r0, .L375+72
 2937 0260 3340     		ands	r3, r6
 2938 0262 0693     		str	r3, [sp, #24]
 2939 0264 FFF7FEFF 		bl	smtc_modem_hal_print_trace
 2940 0268 2B48     		ldr	r0, .L375+16
 2941 026a FFF7FEFF 		bl	smtc_modem_hal_print_trace
 2942              	.L287:
 2943 026e E35D     		ldrb	r3, [r4, r7]
 2944 0270 2B4A     		ldr	r2, .L375+24
 2945 0272 EB18     		adds	r3, r5, r3
 2946 0274 9B18     		adds	r3, r3, r2
 2947 0276 1E78     		ldrb	r6, [r3]
 2948 0278 0F23     		movs	r3, #15
 2949 027a 1E40     		ands	r6, r3
 2950 027c 9E42     		cmp	r6, r3
 2951 027e 10D0     		beq	.L288
ARM GAS  /tmp/ccSzR2eS.s 			page 57


 2952 0280 3100     		movs	r1, r6
 2953 0282 2000     		movs	r0, r4
 2954 0284 FFF7FEFF 		bl	smtc_real_is_tx_power_valid
 2955 0288 431C     		adds	r3, r0, #1
 2956 028a 0AD1     		bne	.L288
 2957 028c 0323     		movs	r3, #3
 2958 028e 069A     		ldr	r2, [sp, #24]
 2959 0290 3048     		ldr	r0, .L375+76
 2960 0292 1A40     		ands	r2, r3
 2961 0294 0692     		str	r2, [sp, #24]
 2962 0296 FFF7FEFF 		bl	smtc_modem_hal_print_trace
 2963 029a 1F48     		ldr	r0, .L375+16
 2964 029c FFF7FEFF 		bl	smtc_modem_hal_print_trace
 2965 02a0 A3E7     		b	.L286
 2966              	.L288:
 2967 02a2 069B     		ldr	r3, [sp, #24]
 2968 02a4 072B     		cmp	r3, #7
 2969 02a6 A0D1     		bne	.L286
 2970 02a8 E35D     		ldrb	r3, [r4, r7]
 2971 02aa 2000     		movs	r0, r4
 2972 02ac ED18     		adds	r5, r5, r3
 2973 02ae CE23     		movs	r3, #206
 2974 02b0 9B00     		lsls	r3, r3, #2
 2975 02b2 ED18     		adds	r5, r5, r3
 2976 02b4 2D78     		ldrb	r5, [r5]
 2977 02b6 FFF7FEFF 		bl	smtc_real_set_channel_mask
 2978 02ba 0F2E     		cmp	r6, #15
 2979 02bc 03D0     		beq	.L289
 2980 02be 3100     		movs	r1, r6
 2981 02c0 2000     		movs	r0, r4
 2982 02c2 FFF7FEFF 		bl	smtc_real_set_power
 2983              	.L289:
 2984 02c6 0F23     		movs	r3, #15
 2985 02c8 1D40     		ands	r5, r3
 2986 02ca 2B1C     		adds	r3, r5, #0
 2987 02cc 002D     		cmp	r5, #0
 2988 02ce 00D1     		bne	.L290
 2989 02d0 0123     		movs	r3, #1
 2990              	.L290:
 2991 02d2 2500     		movs	r5, r4
 2992 02d4 5135     		adds	r5, r5, #81
 2993 02d6 2B70     		strb	r3, [r5]
 2994 02d8 2300     		movs	r3, r4
 2995 02da 079A     		ldr	r2, [sp, #28]
 2996 02dc 4F33     		adds	r3, r3, #79
 2997 02de 0F2A     		cmp	r2, #15
 2998 02e0 00D0     		beq	.L291
 2999 02e2 1A70     		strb	r2, [r3]
 3000              	.L291:
 3001 02e4 0121     		movs	r1, #1
 3002 02e6 194A     		ldr	r2, .L375+68
 3003 02e8 1B48     		ldr	r0, .L375+80
 3004 02ea A154     		strb	r1, [r4, r2]
 3005 02ec 1978     		ldrb	r1, [r3]
 3006 02ee FFF7FEFF 		bl	smtc_modem_hal_print_trace
 3007 02f2 5021     		movs	r1, #80
 3008 02f4 1948     		ldr	r0, .L375+84
ARM GAS  /tmp/ccSzR2eS.s 			page 58


 3009 02f6 6156     		ldrsb	r1, [r4, r1]
 3010 02f8 FFF7FEFF 		bl	smtc_modem_hal_print_trace
 3011 02fc 2978     		ldrb	r1, [r5]
 3012 02fe 1848     		ldr	r0, .L375+88
 3013 0300 FFF7FEFF 		bl	smtc_modem_hal_print_trace
 3014 0304 71E7     		b	.L286
 3015              	.L376:
 3016 0306 C046     		.align	2
 3017              	.L375:
 3018 0308 87040000 		.word	1159
 3019 030c 11050000 		.word	1297
 3020 0310 26040000 		.word	1062
 3021 0314 00000000 		.word	.LC72
 3022 0318 1D000000 		.word	.LC8
 3023 031c 44050000 		.word	1348
 3024 0320 35030000 		.word	821
 3025 0324 2A000000 		.word	.LC75
 3026 0328 36030000 		.word	822
 3027 032c 21050000 		.word	1313
 3028 0330 37030000 		.word	823
 3029 0334 44000000 		.word	.LC77
 3030 0338 77000000 		.word	.LC79
 3031 033c BD000000 		.word	.LC81
 3032 0340 92040000 		.word	1170
 3033 0344 12010000 		.word	.LC85
 3034 0348 E0000000 		.word	.LC83
 3035 034c 19050000 		.word	1305
 3036 0350 35010000 		.word	.LC87
 3037 0354 54010000 		.word	.LC89
 3038 0358 72010000 		.word	.LC91
 3039 035c 89010000 		.word	.LC93
 3040 0360 9A010000 		.word	.LC95
 3041              	.L271:
 3042 0364 0133     		adds	r3, r3, #1
 3043 0366 9342     		cmp	r3, r2
 3044 0368 00DB     		blt	.LCB3086
 3045 036a 93E6     		b	.L279	@long jump
 3046              	.LCB3086:
 3047 036c CD22     		movs	r2, #205
 3048 036e E318     		adds	r3, r4, r3
 3049 0370 9200     		lsls	r2, r2, #2
 3050 0372 9B18     		adds	r3, r3, r2
 3051 0374 1978     		ldrb	r1, [r3]
 3052 0376 D948     		ldr	r0, .L377
 3053 0378 FFF7FEFF 		bl	smtc_modem_hal_print_trace
 3054 037c E35D     		ldrb	r3, [r4, r7]
 3055 037e D849     		ldr	r1, .L377+4
 3056 0380 E218     		adds	r2, r4, r3
 3057 0382 5218     		adds	r2, r2, r1
 3058 0384 0F21     		movs	r1, #15
 3059 0386 1278     		ldrb	r2, [r2]
 3060 0388 0233     		adds	r3, r3, #2
 3061 038a 0A40     		ands	r2, r1
 3062 038c 2266     		str	r2, [r4, #96]
 3063 038e DBB2     		uxtb	r3, r3
 3064 0390 D44A     		ldr	r2, .L377+8
 3065 0392 E355     		strb	r3, [r4, r7]
ARM GAS  /tmp/ccSzR2eS.s 			page 59


 3066 0394 A25C     		ldrb	r2, [r4, r2]
 3067 0396 9A42     		cmp	r2, r3
 3068 0398 00D2     		bcs	.LCB3109
 3069 039a 3EE6     		b	.L256	@long jump
 3070              	.LCB3109:
 3071 039c 7A20     		movs	r0, #122
 3072 039e FF30     		adds	r0, r0, #255
 3073 03a0 235C     		ldrb	r3, [r4, r0]
 3074 03a2 0B39     		subs	r1, r1, #11
 3075 03a4 E218     		adds	r2, r4, r3
 3076 03a6 7B32     		adds	r2, r2, #123
 3077 03a8 FF32     		adds	r2, r2, #255
 3078              	.L371:
 3079 03aa 1170     		strb	r1, [r2]
 3080 03ac 0133     		adds	r3, r3, #1
 3081              	.L364:
 3082 03ae 2354     		strb	r3, [r4, r0]
 3083 03b0 33E6     		b	.L256
 3084              	.L270:
 3085 03b2 181D     		adds	r0, r3, #4
 3086 03b4 9042     		cmp	r0, r2
 3087 03b6 00DB     		blt	.LCB3130
 3088 03b8 6CE6     		b	.L279	@long jump
 3089              	.LCB3130:
 3090 03ba C94D     		ldr	r5, .L377+4
 3091 03bc CA4B     		ldr	r3, .L377+12
 3092 03be CB4A     		ldr	r2, .L377+16
 3093 03c0 F318     		adds	r3, r6, r3
 3094 03c2 B218     		adds	r2, r6, r2
 3095 03c4 7619     		adds	r6, r6, r5
 3096 03c6 3178     		ldrb	r1, [r6]
 3097 03c8 CD26     		movs	r6, #205
 3098 03ca 2018     		adds	r0, r4, r0
 3099 03cc B600     		lsls	r6, r6, #2
 3100 03ce 8019     		adds	r0, r0, r6
 3101 03d0 0078     		ldrb	r0, [r0]
 3102 03d2 1B78     		ldrb	r3, [r3]
 3103 03d4 1278     		ldrb	r2, [r2]
 3104 03d6 0090     		str	r0, [sp]
 3105 03d8 C548     		ldr	r0, .L377+20
 3106 03da FFF7FEFF 		bl	smtc_modem_hal_print_trace
 3107 03de E35D     		ldrb	r3, [r4, r7]
 3108 03e0 2000     		movs	r0, r4
 3109 03e2 E318     		adds	r3, r4, r3
 3110 03e4 5B19     		adds	r3, r3, r5
 3111 03e6 0725     		movs	r5, #7
 3112 03e8 1E78     		ldrb	r6, [r3]
 3113 03ea 3611     		asrs	r6, r6, #4
 3114 03ec 2E40     		ands	r6, r5
 3115 03ee 3100     		movs	r1, r6
 3116 03f0 FFF7FEFF 		bl	smtc_real_is_rx1_dr_offset_valid
 3117 03f4 431C     		adds	r3, r0, #1
 3118 03f6 05D1     		bne	.L294
 3119 03f8 BE4A     		ldr	r2, .L377+24
 3120 03fa BF49     		ldr	r1, .L377+28
 3121 03fc BF48     		ldr	r0, .L377+32
 3122 03fe FFF7FEFF 		bl	smtc_modem_hal_print_trace
ARM GAS  /tmp/ccSzR2eS.s 			page 60


 3123 0402 013D     		subs	r5, r5, #1
 3124              	.L294:
 3125 0404 E35D     		ldrb	r3, [r4, r7]
 3126 0406 B64A     		ldr	r2, .L377+4
 3127 0408 E318     		adds	r3, r4, r3
 3128 040a 9B18     		adds	r3, r3, r2
 3129 040c 1A78     		ldrb	r2, [r3]
 3130 040e 0F23     		movs	r3, #15
 3131 0410 1A40     		ands	r2, r3
 3132 0412 1100     		movs	r1, r2
 3133 0414 2000     		movs	r0, r4
 3134 0416 0592     		str	r2, [sp, #20]
 3135 0418 FFF7FEFF 		bl	smtc_real_is_rx_dr_valid
 3136 041c 431C     		adds	r3, r0, #1
 3137 041e 06D1     		bne	.L295
 3138 0420 0523     		movs	r3, #5
 3139 0422 B74A     		ldr	r2, .L377+36
 3140 0424 B449     		ldr	r1, .L377+28
 3141 0426 B548     		ldr	r0, .L377+32
 3142 0428 1D40     		ands	r5, r3
 3143 042a FFF7FEFF 		bl	smtc_modem_hal_print_trace
 3144              	.L295:
 3145 042e AF4B     		ldr	r3, .L377+16
 3146 0430 E15D     		ldrb	r1, [r4, r7]
 3147 0432 2000     		movs	r0, r4
 3148 0434 C918     		adds	r1, r1, r3
 3149 0436 6118     		adds	r1, r4, r1
 3150 0438 FFF7FEFF 		bl	smtc_real_decode_freq_from_buf
 3151 043c 0100     		movs	r1, r0
 3152 043e 0690     		str	r0, [sp, #24]
 3153 0440 2000     		movs	r0, r4
 3154 0442 FFF7FEFF 		bl	smtc_real_is_frequency_valid
 3155 0446 431C     		adds	r3, r0, #1
 3156 0448 2DD1     		bne	.L296
 3157 044a 0323     		movs	r3, #3
 3158 044c AD4A     		ldr	r2, .L377+40
 3159 044e AA49     		ldr	r1, .L377+28
 3160 0450 AA48     		ldr	r0, .L377+32
 3161 0452 1D40     		ands	r5, r3
 3162 0454 FFF7FEFF 		bl	smtc_modem_hal_print_trace
 3163              	.L297:
 3164 0458 E35D     		ldrb	r3, [r4, r7]
 3165 045a A24A     		ldr	r2, .L377+8
 3166 045c 0533     		adds	r3, r3, #5
 3167 045e DBB2     		uxtb	r3, r3
 3168 0460 E355     		strb	r3, [r4, r7]
 3169 0462 A25C     		ldrb	r2, [r4, r2]
 3170 0464 9A42     		cmp	r2, r3
 3171 0466 00D2     		bcs	.LCB3223
 3172 0468 D7E5     		b	.L256	@long jump
 3173              	.LCB3223:
 3174 046a 7A26     		movs	r6, #122
 3175 046c FF36     		adds	r6, r6, #255
 3176 046e A35D     		ldrb	r3, [r4, r6]
 3177 0470 0521     		movs	r1, #5
 3178 0472 E218     		adds	r2, r4, r3
 3179 0474 1000     		movs	r0, r2
ARM GAS  /tmp/ccSzR2eS.s 			page 61


 3180 0476 7B30     		adds	r0, r0, #123
 3181 0478 FF30     		adds	r0, r0, #255
 3182              	.L369:
 3183 047a 0170     		strb	r1, [r0]
 3184 047c ED20     		movs	r0, #237
 3185 047e 7C32     		adds	r2, r2, #124
 3186 0480 0233     		adds	r3, r3, #2
 3187 0482 FF32     		adds	r2, r2, #255
 3188 0484 1570     		strb	r5, [r2]
 3189 0486 4000     		lsls	r0, r0, #1
 3190 0488 A355     		strb	r3, [r4, r6]
 3191 048a 235C     		ldrb	r3, [r4, r0]
 3192 048c 0D2B     		cmp	r3, #13
 3193 048e 00D9     		bls	.LCB3245
 3194 0490 C3E5     		b	.L256	@long jump
 3195              	.LCB3245:
 3196 0492 E218     		adds	r2, r4, r3
 3197 0494 1600     		movs	r6, r2
 3198 0496 DD32     		adds	r2, r2, #221
 3199 0498 DC36     		adds	r6, r6, #220
 3200 049a FF36     		adds	r6, r6, #255
 3201 049c FF32     		adds	r2, r2, #255
 3202 049e 3170     		strb	r1, [r6]
 3203 04a0 0233     		adds	r3, r3, #2
 3204 04a2 1570     		strb	r5, [r2]
 3205 04a4 83E7     		b	.L364
 3206              	.L296:
 3207 04a6 072D     		cmp	r5, #7
 3208 04a8 D6D1     		bne	.L297
 3209 04aa 2300     		movs	r3, r4
 3210 04ac 059A     		ldr	r2, [sp, #20]
 3211 04ae 5833     		adds	r3, r3, #88
 3212 04b0 1E70     		strb	r6, [r3]
 3213 04b2 053B     		subs	r3, r3, #5
 3214 04b4 1A70     		strb	r2, [r3]
 3215 04b6 0793     		str	r3, [sp, #28]
 3216 04b8 069B     		ldr	r3, [sp, #24]
 3217 04ba 3100     		movs	r1, r6
 3218 04bc 6365     		str	r3, [r4, #84]
 3219 04be 9248     		ldr	r0, .L377+44
 3220 04c0 FFF7FEFF 		bl	smtc_modem_hal_print_trace
 3221 04c4 079B     		ldr	r3, [sp, #28]
 3222 04c6 9148     		ldr	r0, .L377+48
 3223 04c8 1978     		ldrb	r1, [r3]
 3224 04ca FFF7FEFF 		bl	smtc_modem_hal_print_trace
 3225 04ce 616D     		ldr	r1, [r4, #84]
 3226 04d0 8F48     		ldr	r0, .L377+52
 3227 04d2 FFF7FEFF 		bl	smtc_modem_hal_print_trace
 3228 04d6 BFE7     		b	.L297
 3229              	.L269:
 3230 04d8 1726     		movs	r6, #23
 3231 04da 04AB     		add	r3, sp, #16
 3232 04dc F618     		adds	r6, r6, r3
 3233 04de 8D4B     		ldr	r3, .L377+56
 3234 04e0 3200     		movs	r2, r6
 3235 04e2 E058     		ldr	r0, [r4, r3]
 3236 04e4 2100     		movs	r1, r4
ARM GAS  /tmp/ccSzR2eS.s 			page 62


 3237 04e6 FFF7FEFF 		bl	rp_hook_get_id
 3238 04ea 8B4A     		ldr	r2, .L377+60
 3239 04ec 8249     		ldr	r1, .L377+28
 3240 04ee 8348     		ldr	r0, .L377+32
 3241 04f0 FFF7FEFF 		bl	smtc_modem_hal_print_trace
 3242 04f4 E35D     		ldrb	r3, [r4, r7]
 3243 04f6 7B4A     		ldr	r2, .L377+8
 3244 04f8 0133     		adds	r3, r3, #1
 3245 04fa DBB2     		uxtb	r3, r3
 3246 04fc E355     		strb	r3, [r4, r7]
 3247 04fe A25C     		ldrb	r2, [r4, r2]
 3248 0500 9A42     		cmp	r2, r3
 3249 0502 00D2     		bcs	.LCB3304
 3250 0504 89E5     		b	.L256	@long jump
 3251              	.LCB3304:
 3252 0506 7A23     		movs	r3, #122
 3253 0508 FF33     		adds	r3, r3, #255
 3254 050a E55C     		ldrb	r5, [r4, r3]
 3255 050c 6519     		adds	r5, r4, r5
 3256 050e 2A00     		movs	r2, r5
 3257 0510 7B32     		adds	r2, r2, #123
 3258 0512 FF32     		adds	r2, r2, #255
 3259 0514 1300     		movs	r3, r2
 3260 0516 0622     		movs	r2, #6
 3261 0518 1A70     		strb	r2, [r3]
 3262 051a FFF7FEFF 		bl	smtc_modem_hal_get_battery_level
 3263 051e 7C35     		adds	r5, r5, #124
 3264 0520 FF35     		adds	r5, r5, #255
 3265 0522 7A23     		movs	r3, #122
 3266 0524 2870     		strb	r0, [r5]
 3267 0526 7B48     		ldr	r0, .L377+56
 3268 0528 FF33     		adds	r3, r3, #255
 3269 052a 2558     		ldr	r5, [r4, r0]
 3270 052c 8420     		movs	r0, #132
 3271 052e E25C     		ldrb	r2, [r4, r3]
 3272 0530 3378     		ldrb	r3, [r6]
 3273 0532 A118     		adds	r1, r4, r2
 3274 0534 4343     		muls	r3, r0
 3275 0536 EB18     		adds	r3, r5, r3
 3276 0538 7E33     		adds	r3, r3, #126
 3277 053a 1B88     		ldrh	r3, [r3]
 3278 053c 7D31     		adds	r1, r1, #125
 3279 053e 4538     		subs	r0, r0, #69
 3280 0540 0340     		ands	r3, r0
 3281 0542 FF31     		adds	r1, r1, #255
 3282 0544 0B70     		strb	r3, [r1]
 3283 0546 7A23     		movs	r3, #122
 3284 0548 0332     		adds	r2, r2, #3
 3285 054a FF33     		adds	r3, r3, #255
 3286 054c E254     		strb	r2, [r4, r3]
 3287 054e 64E5     		b	.L256
 3288              	.L268:
 3289 0550 581D     		adds	r0, r3, #5
 3290 0552 9042     		cmp	r0, r2
 3291 0554 00DB     		blt	.LCB3359
 3292 0556 9DE5     		b	.L279	@long jump
 3293              	.LCB3359:
ARM GAS  /tmp/ccSzR2eS.s 			page 63


 3294 0558 CD25     		movs	r5, #205
 3295 055a 2018     		adds	r0, r4, r0
 3296 055c AD00     		lsls	r5, r5, #2
 3297 055e 624B     		ldr	r3, .L377+12
 3298 0560 624A     		ldr	r2, .L377+16
 3299 0562 5F49     		ldr	r1, .L377+4
 3300 0564 4019     		adds	r0, r0, r5
 3301 0566 0078     		ldrb	r0, [r0]
 3302 0568 F318     		adds	r3, r6, r3
 3303 056a B218     		adds	r2, r6, r2
 3304 056c 7118     		adds	r1, r6, r1
 3305 056e 1B78     		ldrb	r3, [r3]
 3306 0570 1278     		ldrb	r2, [r2]
 3307 0572 0978     		ldrb	r1, [r1]
 3308 0574 0190     		str	r0, [sp, #4]
 3309 0576 CE20     		movs	r0, #206
 3310 0578 8000     		lsls	r0, r0, #2
 3311 057a 3618     		adds	r6, r6, r0
 3312 057c 3078     		ldrb	r0, [r6]
 3313 057e 0090     		str	r0, [sp]
 3314 0580 6648     		ldr	r0, .L377+64
 3315 0582 FFF7FEFF 		bl	smtc_modem_hal_print_trace
 3316 0586 2000     		movs	r0, r4
 3317 0588 FFF7FEFF 		bl	smtc_real_is_new_channel_req_supported
 3318 058c 0028     		cmp	r0, #0
 3319 058e 08D1     		bne	.L299
 3320 0590 6348     		ldr	r0, .L377+68
 3321 0592 FFF7FEFF 		bl	smtc_modem_hal_print_trace
 3322 0596 5848     		ldr	r0, .L377+28
 3323 0598 FFF7FEFF 		bl	smtc_modem_hal_print_trace
 3324 059c E35D     		ldrb	r3, [r4, r7]
 3325 059e 0633     		adds	r3, r3, #6
 3326 05a0 93E5     		b	.L362
 3327              	.L299:
 3328 05a2 E35D     		ldrb	r3, [r4, r7]
 3329 05a4 4E4A     		ldr	r2, .L377+4
 3330 05a6 E318     		adds	r3, r4, r3
 3331 05a8 9B18     		adds	r3, r3, r2
 3332 05aa 1D78     		ldrb	r5, [r3]
 3333 05ac 2000     		movs	r0, r4
 3334 05ae 2900     		movs	r1, r5
 3335 05b0 FFF7FEFF 		bl	smtc_real_is_channel_index_valid
 3336 05b4 0326     		movs	r6, #3
 3337 05b6 431C     		adds	r3, r0, #1
 3338 05b8 05D1     		bne	.L300
 3339 05ba 5A4A     		ldr	r2, .L377+72
 3340 05bc 4E49     		ldr	r1, .L377+28
 3341 05be 4F48     		ldr	r0, .L377+32
 3342 05c0 FFF7FEFF 		bl	smtc_modem_hal_print_trace
 3343 05c4 0026     		movs	r6, #0
 3344              	.L300:
 3345 05c6 494B     		ldr	r3, .L377+16
 3346 05c8 E15D     		ldrb	r1, [r4, r7]
 3347 05ca 2000     		movs	r0, r4
 3348 05cc C918     		adds	r1, r1, r3
 3349 05ce 6118     		adds	r1, r4, r1
 3350 05d0 FFF7FEFF 		bl	smtc_real_decode_freq_from_buf
ARM GAS  /tmp/ccSzR2eS.s 			page 64


 3351 05d4 0100     		movs	r1, r0
 3352 05d6 0590     		str	r0, [sp, #20]
 3353 05d8 2000     		movs	r0, r4
 3354 05da FFF7FEFF 		bl	smtc_real_is_nwk_received_tx_frequency_valid
 3355 05de 431C     		adds	r3, r0, #1
 3356 05e0 06D1     		bne	.L301
 3357 05e2 0223     		movs	r3, #2
 3358 05e4 504A     		ldr	r2, .L377+76
 3359 05e6 4449     		ldr	r1, .L377+28
 3360 05e8 4448     		ldr	r0, .L377+32
 3361 05ea 1E40     		ands	r6, r3
 3362 05ec FFF7FEFF 		bl	smtc_modem_hal_print_trace
 3363              	.L301:
 3364 05f0 E35D     		ldrb	r3, [r4, r7]
 3365 05f2 4E4A     		ldr	r2, .L377+80
 3366 05f4 E318     		adds	r3, r4, r3
 3367 05f6 9B18     		adds	r3, r3, r2
 3368 05f8 1A78     		ldrb	r2, [r3]
 3369 05fa 0F23     		movs	r3, #15
 3370 05fc 1A40     		ands	r2, r3
 3371 05fe 1100     		movs	r1, r2
 3372 0600 2000     		movs	r0, r4
 3373 0602 0692     		str	r2, [sp, #24]
 3374 0604 FFF7FEFF 		bl	smtc_real_is_tx_dr_valid
 3375 0608 431C     		adds	r3, r0, #1
 3376 060a 06D1     		bne	.L302
 3377 060c 0123     		movs	r3, #1
 3378 060e 484A     		ldr	r2, .L377+84
 3379 0610 3949     		ldr	r1, .L377+28
 3380 0612 3A48     		ldr	r0, .L377+32
 3381 0614 1E40     		ands	r6, r3
 3382 0616 FFF7FEFF 		bl	smtc_modem_hal_print_trace
 3383              	.L302:
 3384 061a E35D     		ldrb	r3, [r4, r7]
 3385 061c 434A     		ldr	r2, .L377+80
 3386 061e E318     		adds	r3, r4, r3
 3387 0620 9B18     		adds	r3, r3, r2
 3388 0622 1B78     		ldrb	r3, [r3]
 3389 0624 2000     		movs	r0, r4
 3390 0626 1B09     		lsrs	r3, r3, #4
 3391 0628 1900     		movs	r1, r3
 3392 062a 0793     		str	r3, [sp, #28]
 3393 062c FFF7FEFF 		bl	smtc_real_is_tx_dr_valid
 3394 0630 431C     		adds	r3, r0, #1
 3395 0632 28D1     		bne	.L303
 3396 0634 0123     		movs	r3, #1
 3397 0636 3F4A     		ldr	r2, .L377+88
 3398 0638 2F49     		ldr	r1, .L377+28
 3399 063a 3048     		ldr	r0, .L377+32
 3400 063c 1E40     		ands	r6, r3
 3401 063e FFF7FEFF 		bl	smtc_modem_hal_print_trace
 3402 0642 069B     		ldr	r3, [sp, #24]
 3403 0644 079A     		ldr	r2, [sp, #28]
 3404 0646 9342     		cmp	r3, r2
 3405 0648 06D9     		bls	.L305
 3406              	.L304:
 3407 064a 0123     		movs	r3, #1
ARM GAS  /tmp/ccSzR2eS.s 			page 65


 3408 064c 3A4A     		ldr	r2, .L377+92
 3409 064e 2A49     		ldr	r1, .L377+28
 3410 0650 2A48     		ldr	r0, .L377+32
 3411 0652 1E40     		ands	r6, r3
 3412 0654 FFF7FEFF 		bl	smtc_modem_hal_print_trace
 3413              	.L305:
 3414 0658 E35D     		ldrb	r3, [r4, r7]
 3415 065a 224A     		ldr	r2, .L377+8
 3416 065c 0633     		adds	r3, r3, #6
 3417 065e DBB2     		uxtb	r3, r3
 3418 0660 E355     		strb	r3, [r4, r7]
 3419 0662 A25C     		ldrb	r2, [r4, r2]
 3420 0664 9A42     		cmp	r2, r3
 3421 0666 00D2     		bcs	.LCB3504
 3422 0668 D7E4     		b	.L256	@long jump
 3423              	.LCB3504:
 3424 066a 7A25     		movs	r5, #122
 3425 066c FF35     		adds	r5, r5, #255
 3426 066e 635D     		ldrb	r3, [r4, r5]
 3427 0670 0720     		movs	r0, #7
 3428 0672 E218     		adds	r2, r4, r3
 3429 0674 1100     		movs	r1, r2
 3430 0676 7C32     		adds	r2, r2, #124
 3431 0678 7B31     		adds	r1, r1, #123
 3432 067a FF31     		adds	r1, r1, #255
 3433 067c FF32     		adds	r2, r2, #255
 3434 067e 0870     		strb	r0, [r1]
 3435 0680 1670     		strb	r6, [r2]
 3436              	.L366:
 3437 0682 0233     		adds	r3, r3, #2
 3438 0684 BEE1     		b	.L363
 3439              	.L303:
 3440 0686 069B     		ldr	r3, [sp, #24]
 3441 0688 079A     		ldr	r2, [sp, #28]
 3442 068a 9342     		cmp	r3, r2
 3443 068c DDD8     		bhi	.L304
 3444 068e 032E     		cmp	r6, #3
 3445 0690 E2D1     		bne	.L305
 3446 0692 2A00     		movs	r2, r5
 3447 0694 2000     		movs	r0, r4
 3448 0696 0599     		ldr	r1, [sp, #20]
 3449 0698 FFF7FEFF 		bl	smtc_real_set_tx_frequency_channel
 3450 069c 2A00     		movs	r2, r5
 3451 069e 0599     		ldr	r1, [sp, #20]
 3452 06a0 2000     		movs	r0, r4
 3453 06a2 FFF7FEFF 		bl	smtc_real_set_rx1_frequency_channel
 3454 06a6 2900     		movs	r1, r5
 3455 06a8 079B     		ldr	r3, [sp, #28]
 3456 06aa 069A     		ldr	r2, [sp, #24]
 3457 06ac 2000     		movs	r0, r4
 3458 06ae FFF7FEFF 		bl	smtc_real_set_channel_dr
 3459 06b2 059B     		ldr	r3, [sp, #20]
 3460 06b4 2A00     		movs	r2, r5
 3461 06b6 191E     		subs	r1, r3, #0
 3462 06b8 00D0     		beq	.L359
 3463 06ba 0121     		movs	r1, #1
 3464              	.L359:
ARM GAS  /tmp/ccSzR2eS.s 			page 66


 3465 06bc 2000     		movs	r0, r4
 3466 06be FFF7FEFF 		bl	smtc_real_set_channel_enabled
 3467 06c2 2900     		movs	r1, r5
 3468 06c4 2000     		movs	r0, r4
 3469 06c6 FFF7FEFF 		bl	smtc_real_get_tx_channel_frequency
 3470 06ca 079B     		ldr	r3, [sp, #28]
 3471 06cc 0200     		movs	r2, r0
 3472 06ce 0093     		str	r3, [sp]
 3473 06d0 2900     		movs	r1, r5
 3474 06d2 069B     		ldr	r3, [sp, #24]
 3475 06d4 1948     		ldr	r0, .L377+96
 3476 06d6 FFF7FEFF 		bl	smtc_modem_hal_print_trace
 3477 06da BDE7     		b	.L305
 3478              	.L378:
 3479              		.align	2
 3480              	.L377:
 3481 06dc AB010000 		.word	.LC97
 3482 06e0 35030000 		.word	821
 3483 06e4 26040000 		.word	1062
 3484 06e8 37030000 		.word	823
 3485 06ec 36030000 		.word	822
 3486 06f0 C5010000 		.word	.LC99
 3487 06f4 EF010000 		.word	.LC101
 3488 06f8 1D000000 		.word	.LC8
 3489 06fc 8A000000 		.word	.LC52
 3490 0700 04020000 		.word	.LC104
 3491 0704 13020000 		.word	.LC106
 3492 0708 2A020000 		.word	.LC108
 3493 070c 45020000 		.word	.LC110
 3494 0710 5A020000 		.word	.LC112
 3495 0714 BC040000 		.word	1212
 3496 0718 70020000 		.word	.LC114
 3497 071c 8A020000 		.word	.LC116
 3498 0720 B4020000 		.word	.LC118
 3499 0724 F1020000 		.word	.LC120
 3500 0728 08030000 		.word	.LC122
 3501 072c 39030000 		.word	825
 3502 0730 1B030000 		.word	.LC124
 3503 0734 2B030000 		.word	.LC126
 3504 0738 3B030000 		.word	.LC128
 3505 073c 54030000 		.word	.LC130
 3506              	.L267:
 3507 0740 0133     		adds	r3, r3, #1
 3508 0742 9342     		cmp	r3, r2
 3509 0744 00DB     		blt	.LCB3599
 3510 0746 A5E4     		b	.L279	@long jump
 3511              	.LCB3599:
 3512 0748 CD22     		movs	r2, #205
 3513 074a E318     		adds	r3, r4, r3
 3514 074c 9200     		lsls	r2, r2, #2
 3515 074e 9B18     		adds	r3, r3, r2
 3516 0750 1978     		ldrb	r1, [r3]
 3517 0752 E248     		ldr	r0, .L379
 3518 0754 FFF7FEFF 		bl	smtc_modem_hal_print_trace
 3519 0758 E35D     		ldrb	r3, [r4, r7]
 3520 075a E149     		ldr	r1, .L379+4
 3521 075c E218     		adds	r2, r4, r3
ARM GAS  /tmp/ccSzR2eS.s 			page 67


 3522 075e 5218     		adds	r2, r2, r1
 3523 0760 1078     		ldrb	r0, [r2]
 3524 0762 0F21     		movs	r1, #15
 3525 0764 0500     		movs	r5, r0
 3526 0766 2200     		movs	r2, r4
 3527 0768 0D40     		ands	r5, r1
 3528 076a 5932     		adds	r2, r2, #89
 3529 076c 0842     		tst	r0, r1
 3530 076e 1BD0     		beq	.L309
 3531 0770 1570     		strb	r5, [r2]
 3532              	.L310:
 3533 0772 0233     		adds	r3, r3, #2
 3534 0774 DB4A     		ldr	r2, .L379+8
 3535 0776 DBB2     		uxtb	r3, r3
 3536 0778 E355     		strb	r3, [r4, r7]
 3537 077a A25C     		ldrb	r2, [r4, r2]
 3538 077c 9A42     		cmp	r2, r3
 3539 077e 00D2     		bcs	.LCB3629
 3540 0780 4BE4     		b	.L256	@long jump
 3541              	.LCB3629:
 3542 0782 7A20     		movs	r0, #122
 3543 0784 0821     		movs	r1, #8
 3544 0786 FF30     		adds	r0, r0, #255
 3545 0788 235C     		ldrb	r3, [r4, r0]
 3546 078a E218     		adds	r2, r4, r3
 3547 078c 7B32     		adds	r2, r2, #123
 3548 078e FF32     		adds	r2, r2, #255
 3549              	.L374:
 3550 0790 0133     		adds	r3, r3, #1
 3551 0792 1170     		strb	r1, [r2]
 3552 0794 2354     		strb	r3, [r4, r0]
 3553 0796 6130     		adds	r0, r0, #97
 3554 0798 235C     		ldrb	r3, [r4, r0]
 3555 079a 0E2B     		cmp	r3, #14
 3556 079c 00D9     		bls	.LCB3646
 3557 079e 3CE4     		b	.L256	@long jump
 3558              	.LCB3646:
 3559 07a0 E218     		adds	r2, r4, r3
 3560 07a2 DC32     		adds	r2, r2, #220
 3561 07a4 FF32     		adds	r2, r2, #255
 3562 07a6 00E6     		b	.L371
 3563              	.L309:
 3564 07a8 0121     		movs	r1, #1
 3565 07aa 1170     		strb	r1, [r2]
 3566 07ac E1E7     		b	.L310
 3567              	.L266:
 3568 07ae 0133     		adds	r3, r3, #1
 3569 07b0 9342     		cmp	r3, r2
 3570 07b2 00DB     		blt	.LCB3662
 3571 07b4 6EE4     		b	.L279	@long jump
 3572              	.LCB3662:
 3573 07b6 CD22     		movs	r2, #205
 3574 07b8 E318     		adds	r3, r4, r3
 3575 07ba 9200     		lsls	r2, r2, #2
 3576 07bc 9B18     		adds	r3, r3, r2
 3577 07be CA48     		ldr	r0, .L379+12
 3578 07c0 1978     		ldrb	r1, [r3]
ARM GAS  /tmp/ccSzR2eS.s 			page 68


 3579 07c2 FFF7FEFF 		bl	smtc_modem_hal_print_trace
 3580 07c6 2000     		movs	r0, r4
 3581 07c8 FFF7FEFF 		bl	smtc_real_is_tx_param_setup_req_supported
 3582 07cc 0028     		cmp	r0, #0
 3583 07ce 08D1     		bne	.L311
 3584 07d0 C648     		ldr	r0, .L379+16
 3585 07d2 FFF7FEFF 		bl	smtc_modem_hal_print_trace
 3586 07d6 C648     		ldr	r0, .L379+20
 3587 07d8 FFF7FEFF 		bl	smtc_modem_hal_print_trace
 3588 07dc E35D     		ldrb	r3, [r4, r7]
 3589 07de 0233     		adds	r3, r3, #2
 3590 07e0 73E4     		b	.L362
 3591              	.L311:
 3592 07e2 E35D     		ldrb	r3, [r4, r7]
 3593 07e4 BE49     		ldr	r1, .L379+4
 3594 07e6 E218     		adds	r2, r4, r3
 3595 07e8 5218     		adds	r2, r2, r1
 3596 07ea 0F21     		movs	r1, #15
 3597 07ec 1278     		ldrb	r2, [r2]
 3598 07ee C148     		ldr	r0, .L379+24
 3599 07f0 1140     		ands	r1, r2
 3600 07f2 415C     		ldrb	r1, [r0, r1]
 3601 07f4 A06B     		ldr	r0, [r4, #56]
 3602 07f6 0239     		subs	r1, r1, #2
 3603 07f8 857A     		ldrb	r5, [r0, #10]
 3604 07fa 081C     		adds	r0, r1, #0
 3605 07fc C9B2     		uxtb	r1, r1
 3606 07fe A942     		cmp	r1, r5
 3607 0800 00D9     		bls	.L312
 3608 0802 281C     		adds	r0, r5, #0
 3609              	.L312:
 3610 0804 2100     		movs	r1, r4
 3611 0806 5A31     		adds	r1, r1, #90
 3612 0808 0870     		strb	r0, [r1]
 3613 080a 2500     		movs	r5, r4
 3614 080c 0120     		movs	r0, #1
 3615 080e 1111     		asrs	r1, r2, #4
 3616 0810 0140     		ands	r1, r0
 3617 0812 5B35     		adds	r5, r5, #91
 3618 0814 2970     		strb	r1, [r5]
 3619 0816 2100     		movs	r1, r4
 3620 0818 5211     		asrs	r2, r2, #5
 3621 081a 0240     		ands	r2, r0
 3622 081c 5C31     		adds	r1, r1, #92
 3623 081e 0233     		adds	r3, r3, #2
 3624 0820 0A70     		strb	r2, [r1]
 3625 0822 DBB2     		uxtb	r3, r3
 3626 0824 AF4A     		ldr	r2, .L379+8
 3627 0826 E355     		strb	r3, [r4, r7]
 3628 0828 A25C     		ldrb	r2, [r4, r2]
 3629 082a 9A42     		cmp	r2, r3
 3630 082c 01D2     		bcs	.LCB3727
 3631 082e FFF7F4FB 		bl	.L256	@far jump
 3632              	.LCB3727:
 3633 0832 7A20     		movs	r0, #122
 3634 0834 FF30     		adds	r0, r0, #255
 3635 0836 235C     		ldrb	r3, [r4, r0]
ARM GAS  /tmp/ccSzR2eS.s 			page 69


 3636 0838 0921     		movs	r1, #9
 3637 083a E218     		adds	r2, r4, r3
 3638 083c 7B32     		adds	r2, r2, #123
 3639 083e FF32     		adds	r2, r2, #255
 3640 0840 A6E7     		b	.L374
 3641              	.L265:
 3642 0842 181D     		adds	r0, r3, #4
 3643 0844 9042     		cmp	r0, r2
 3644 0846 00DB     		blt	.LCB3741
 3645 0848 24E4     		b	.L279	@long jump
 3646              	.LCB3741:
 3647 084a CD25     		movs	r5, #205
 3648 084c 2018     		adds	r0, r4, r0
 3649 084e AD00     		lsls	r5, r5, #2
 3650 0850 A349     		ldr	r1, .L379+4
 3651 0852 A94B     		ldr	r3, .L379+28
 3652 0854 A94A     		ldr	r2, .L379+32
 3653 0856 4019     		adds	r0, r0, r5
 3654 0858 0078     		ldrb	r0, [r0]
 3655 085a F318     		adds	r3, r6, r3
 3656 085c B218     		adds	r2, r6, r2
 3657 085e 7618     		adds	r6, r6, r1
 3658 0860 1B78     		ldrb	r3, [r3]
 3659 0862 1278     		ldrb	r2, [r2]
 3660 0864 3178     		ldrb	r1, [r6]
 3661 0866 0090     		str	r0, [sp]
 3662 0868 A548     		ldr	r0, .L379+36
 3663 086a FFF7FEFF 		bl	smtc_modem_hal_print_trace
 3664 086e 2000     		movs	r0, r4
 3665 0870 FFF7FEFF 		bl	smtc_real_is_new_channel_req_supported
 3666 0874 0028     		cmp	r0, #0
 3667 0876 08D1     		bne	.L313
 3668 0878 A248     		ldr	r0, .L379+40
 3669 087a FFF7FEFF 		bl	smtc_modem_hal_print_trace
 3670 087e 9C48     		ldr	r0, .L379+20
 3671 0880 FFF7FEFF 		bl	smtc_modem_hal_print_trace
 3672 0884 E35D     		ldrb	r3, [r4, r7]
 3673 0886 0533     		adds	r3, r3, #5
 3674 0888 1FE4     		b	.L362
 3675              	.L313:
 3676 088a E35D     		ldrb	r3, [r4, r7]
 3677 088c 944A     		ldr	r2, .L379+4
 3678 088e E318     		adds	r3, r4, r3
 3679 0890 9B18     		adds	r3, r3, r2
 3680 0892 1E78     		ldrb	r6, [r3]
 3681 0894 2000     		movs	r0, r4
 3682 0896 3100     		movs	r1, r6
 3683 0898 FFF7FEFF 		bl	smtc_real_get_tx_channel_frequency
 3684 089c 0325     		movs	r5, #3
 3685 089e 0028     		cmp	r0, #0
 3686 08a0 05D1     		bne	.L314
 3687 08a2 994A     		ldr	r2, .L379+44
 3688 08a4 9249     		ldr	r1, .L379+20
 3689 08a6 9948     		ldr	r0, .L379+48
 3690 08a8 FFF7FEFF 		bl	smtc_modem_hal_print_trace
 3691 08ac 023D     		subs	r5, r5, #2
 3692              	.L314:
ARM GAS  /tmp/ccSzR2eS.s 			page 70


 3693 08ae 934B     		ldr	r3, .L379+32
 3694 08b0 E15D     		ldrb	r1, [r4, r7]
 3695 08b2 2000     		movs	r0, r4
 3696 08b4 C918     		adds	r1, r1, r3
 3697 08b6 6118     		adds	r1, r4, r1
 3698 08b8 FFF7FEFF 		bl	smtc_real_decode_freq_from_buf
 3699 08bc 0100     		movs	r1, r0
 3700 08be 0590     		str	r0, [sp, #20]
 3701 08c0 2000     		movs	r0, r4
 3702 08c2 FFF7FEFF 		bl	smtc_real_is_frequency_valid
 3703 08c6 431C     		adds	r3, r0, #1
 3704 08c8 19D1     		bne	.L315
 3705 08ca 0223     		movs	r3, #2
 3706 08cc 904A     		ldr	r2, .L379+52
 3707 08ce 8849     		ldr	r1, .L379+20
 3708 08d0 8E48     		ldr	r0, .L379+48
 3709 08d2 1D40     		ands	r5, r3
 3710              	.L360:
 3711 08d4 FFF7FEFF 		bl	smtc_modem_hal_print_trace
 3712              	.L316:
 3713 08d8 E35D     		ldrb	r3, [r4, r7]
 3714 08da 824A     		ldr	r2, .L379+8
 3715 08dc 0533     		adds	r3, r3, #5
 3716 08de DBB2     		uxtb	r3, r3
 3717 08e0 E355     		strb	r3, [r4, r7]
 3718 08e2 A25C     		ldrb	r2, [r4, r2]
 3719 08e4 9A42     		cmp	r2, r3
 3720 08e6 01D2     		bcs	.LCB3824
 3721 08e8 FFF797FB 		bl	.L256	@far jump
 3722              	.LCB3824:
 3723 08ec 7A26     		movs	r6, #122
 3724 08ee FF36     		adds	r6, r6, #255
 3725 08f0 A35D     		ldrb	r3, [r4, r6]
 3726 08f2 0A21     		movs	r1, #10
 3727 08f4 E218     		adds	r2, r4, r3
 3728 08f6 1000     		movs	r0, r2
 3729 08f8 7B30     		adds	r0, r0, #123
 3730 08fa FF30     		adds	r0, r0, #255
 3731 08fc BDE5     		b	.L369
 3732              	.L315:
 3733 08fe 032D     		cmp	r5, #3
 3734 0900 EAD1     		bne	.L316
 3735 0902 3200     		movs	r2, r6
 3736 0904 0599     		ldr	r1, [sp, #20]
 3737 0906 2000     		movs	r0, r4
 3738 0908 FFF7FEFF 		bl	smtc_real_set_rx1_frequency_channel
 3739 090c 4342     		rsbs	r3, r0, #0
 3740 090e 5841     		adcs	r0, r0, r3
 3741 0910 4042     		rsbs	r0, r0, #0
 3742 0912 3100     		movs	r1, r6
 3743 0914 0540     		ands	r5, r0
 3744 0916 2000     		movs	r0, r4
 3745 0918 FFF7FEFF 		bl	smtc_real_get_rx1_channel_frequency
 3746 091c 3100     		movs	r1, r6
 3747 091e 0200     		movs	r2, r0
 3748 0920 7C48     		ldr	r0, .L379+56
 3749 0922 D7E7     		b	.L360
ARM GAS  /tmp/ccSzR2eS.s 			page 71


 3750              	.L264:
 3751 0924 7C49     		ldr	r1, .L379+60
 3752 0926 615C     		ldrb	r1, [r4, r1]
 3753 0928 0229     		cmp	r1, #2
 3754 092a 01D0     		beq	.LCB3861
 3755 092c FFF775FB 		bl	.L256	@far jump
 3756              	.LCB3861:
 3757 0930 581D     		adds	r0, r3, #5
 3758 0932 9042     		cmp	r0, r2
 3759 0934 01DB     		blt	.LCB3864
 3760 0936 FFF7ADFB 		bl	.L279	@far jump
 3761              	.LCB3864:
 3762 093a CD25     		movs	r5, #205
 3763 093c 6F49     		ldr	r1, .L379+32
 3764 093e AD00     		lsls	r5, r5, #2
 3765 0940 2018     		adds	r0, r4, r0
 3766 0942 7218     		adds	r2, r6, r1
 3767 0944 4019     		adds	r0, r0, r5
 3768 0946 6C4B     		ldr	r3, .L379+28
 3769 0948 6549     		ldr	r1, .L379+4
 3770 094a 0078     		ldrb	r0, [r0]
 3771 094c F318     		adds	r3, r6, r3
 3772 094e 7118     		adds	r1, r6, r1
 3773 0950 1B78     		ldrb	r3, [r3]
 3774 0952 1278     		ldrb	r2, [r2]
 3775 0954 0978     		ldrb	r1, [r1]
 3776 0956 0190     		str	r0, [sp, #4]
 3777 0958 CE20     		movs	r0, #206
 3778 095a 8000     		lsls	r0, r0, #2
 3779 095c 0500     		movs	r5, r0
 3780 095e 3618     		adds	r6, r6, r0
 3781 0960 3078     		ldrb	r0, [r6]
 3782 0962 0090     		str	r0, [sp]
 3783 0964 6D48     		ldr	r0, .L379+64
 3784 0966 FFF7FEFF 		bl	smtc_modem_hal_print_trace
 3785 096a E35D     		ldrb	r3, [r4, r7]
 3786 096c 6349     		ldr	r1, .L379+32
 3787 096e E318     		adds	r3, r4, r3
 3788 0970 5A18     		adds	r2, r3, r1
 3789 0972 1178     		ldrb	r1, [r2]
 3790 0974 604A     		ldr	r2, .L379+28
 3791 0976 0902     		lsls	r1, r1, #8
 3792 0978 9A18     		adds	r2, r3, r2
 3793 097a 1278     		ldrb	r2, [r2]
 3794 097c 6848     		ldr	r0, .L379+68
 3795 097e 1204     		lsls	r2, r2, #16
 3796 0980 1143     		orrs	r1, r2
 3797 0982 574A     		ldr	r2, .L379+4
 3798 0984 9A18     		adds	r2, r3, r2
 3799 0986 1278     		ldrb	r2, [r2]
 3800 0988 1143     		orrs	r1, r2
 3801 098a 5A19     		adds	r2, r3, r5
 3802 098c 1278     		ldrb	r2, [r2]
 3803 098e 1206     		lsls	r2, r2, #24
 3804 0990 1143     		orrs	r1, r2
 3805 0992 644A     		ldr	r2, .L379+72
 3806 0994 A150     		str	r1, [r4, r2]
ARM GAS  /tmp/ccSzR2eS.s 			page 72


 3807 0996 644A     		ldr	r2, .L379+76
 3808 0998 9B18     		adds	r3, r3, r2
 3809 099a 1B78     		ldrb	r3, [r3]
 3810 099c AF32     		adds	r2, r2, #175
 3811 099e 5A43     		muls	r2, r3
 3812 09a0 A523     		movs	r3, #165
 3813 09a2 120A     		lsrs	r2, r2, #8
 3814 09a4 DB00     		lsls	r3, r3, #3
 3815 09a6 E250     		str	r2, [r4, r3]
 3816 09a8 FFF7FEFF 		bl	smtc_modem_hal_print_trace
 3817 09ac E35D     		ldrb	r3, [r4, r7]
 3818 09ae 5A4A     		ldr	r2, .L379+60
 3819 09b0 0633     		adds	r3, r3, #6
 3820 09b2 E355     		strb	r3, [r4, r7]
 3821 09b4 0323     		movs	r3, #3
 3822 09b6 A354     		strb	r3, [r4, r2]
 3823 09b8 A623     		movs	r3, #166
 3824 09ba DB00     		lsls	r3, r3, #3
 3825 09bc E258     		ldr	r2, [r4, r3]
 3826 09be 5B4B     		ldr	r3, .L379+80
 3827 09c0 E250     		str	r2, [r4, r3]
 3828 09c2 FFF7FEFF 		bl	smtc_modem_hal_get_time_in_s
 3829 09c6 5A4B     		ldr	r3, .L379+84
 3830 09c8 0100     		movs	r1, r0
 3831 09ca E050     		str	r0, [r4, r3]
 3832 09cc 0433     		adds	r3, r3, #4
 3833 09ce E358     		ldr	r3, [r4, r3]
 3834 09d0 002B     		cmp	r3, #0
 3835 09d2 01D1     		bne	.LCB3957
 3836 09d4 FFF721FB 		bl	.L256	@far jump
 3837              	.LCB3957:
 3838 09d8 564A     		ldr	r2, .L379+88
 3839 09da A058     		ldr	r0, [r4, r2]
 3840 09dc 9847     		blx	r3
 3841 09de FFF71CFB 		bl	.L256	@ far jump
 3842              	.L263:
 3843 09e2 554D     		ldr	r5, .L379+92
 3844 09e4 635D     		ldrb	r3, [r4, r5]
 3845 09e6 022B     		cmp	r3, #2
 3846 09e8 01D0     		beq	.LCB3968
 3847 09ea FFF716FB 		bl	.L256	@far jump
 3848              	.LCB3968:
 3849 09ee 5348     		ldr	r0, .L379+96
 3850 09f0 FFF7FEFF 		bl	smtc_modem_hal_print_trace
 3851 09f4 E35D     		ldrb	r3, [r4, r7]
 3852 09f6 0133     		adds	r3, r3, #1
 3853 09f8 E355     		strb	r3, [r4, r7]
 3854 09fa 514B     		ldr	r3, .L379+100
 3855 09fc E25C     		ldrb	r2, [r4, r3]
 3856 09fe 514B     		ldr	r3, .L379+104
 3857 0a00 E254     		strb	r2, [r4, r3]
 3858 0a02 0323     		movs	r3, #3
 3859              	.L363:
 3860 0a04 6355     		strb	r3, [r4, r5]
 3861 0a06 FFF708FB 		bl	.L256	@ far jump
 3862              	.L262:
 3863 0a0a 181D     		adds	r0, r3, #4
ARM GAS  /tmp/ccSzR2eS.s 			page 73


 3864 0a0c 9042     		cmp	r0, r2
 3865 0a0e 01DB     		blt	.LCB3989
 3866 0a10 FFF740FB 		bl	.L279	@far jump
 3867              	.LCB3989:
 3868 0a14 324D     		ldr	r5, .L379+4
 3869 0a16 384B     		ldr	r3, .L379+28
 3870 0a18 384A     		ldr	r2, .L379+32
 3871 0a1a F318     		adds	r3, r6, r3
 3872 0a1c B218     		adds	r2, r6, r2
 3873 0a1e 7619     		adds	r6, r6, r5
 3874 0a20 3178     		ldrb	r1, [r6]
 3875 0a22 CD26     		movs	r6, #205
 3876 0a24 2018     		adds	r0, r4, r0
 3877 0a26 B600     		lsls	r6, r6, #2
 3878 0a28 8019     		adds	r0, r0, r6
 3879 0a2a 0078     		ldrb	r0, [r0]
 3880 0a2c 1B78     		ldrb	r3, [r3]
 3881 0a2e 1278     		ldrb	r2, [r2]
 3882 0a30 0090     		str	r0, [sp]
 3883 0a32 4548     		ldr	r0, .L379+108
 3884 0a34 FFF7FEFF 		bl	smtc_modem_hal_print_trace
 3885 0a38 E15D     		ldrb	r1, [r4, r7]
 3886 0a3a 2000     		movs	r0, r4
 3887 0a3c 4919     		adds	r1, r1, r5
 3888 0a3e 6118     		adds	r1, r4, r1
 3889 0a40 FFF7FEFF 		bl	smtc_real_decode_freq_from_buf
 3890 0a44 0590     		str	r0, [sp, #20]
 3891 0a46 0028     		cmp	r0, #0
 3892 0a48 28D1     		bne	.L318
 3893              	.L320:
 3894 0a4a 0325     		movs	r5, #3
 3895              	.L319:
 3896 0a4c CE22     		movs	r2, #206
 3897 0a4e E35D     		ldrb	r3, [r4, r7]
 3898 0a50 9200     		lsls	r2, r2, #2
 3899 0a52 E318     		adds	r3, r4, r3
 3900 0a54 9B18     		adds	r3, r3, r2
 3901 0a56 1E78     		ldrb	r6, [r3]
 3902 0a58 0F23     		movs	r3, #15
 3903 0a5a 1E40     		ands	r6, r3
 3904 0a5c 3100     		movs	r1, r6
 3905 0a5e 2000     		movs	r0, r4
 3906 0a60 FFF7FEFF 		bl	smtc_real_is_rx_dr_valid
 3907 0a64 431C     		adds	r3, r0, #1
 3908 0a66 26D1     		bne	.L321
 3909 0a68 0123     		movs	r3, #1
 3910 0a6a 384A     		ldr	r2, .L379+112
 3911 0a6c 2049     		ldr	r1, .L379+20
 3912 0a6e 2748     		ldr	r0, .L379+48
 3913 0a70 1D40     		ands	r5, r3
 3914 0a72 FFF7FEFF 		bl	smtc_modem_hal_print_trace
 3915              	.L322:
 3916 0a76 E35D     		ldrb	r3, [r4, r7]
 3917 0a78 1A4A     		ldr	r2, .L379+8
 3918 0a7a 0533     		adds	r3, r3, #5
 3919 0a7c DBB2     		uxtb	r3, r3
 3920 0a7e E355     		strb	r3, [r4, r7]
ARM GAS  /tmp/ccSzR2eS.s 			page 74


 3921 0a80 A25C     		ldrb	r2, [r4, r2]
 3922 0a82 9A42     		cmp	r2, r3
 3923 0a84 01D2     		bcs	.LCB4051
 3924 0a86 FFF7C8FA 		bl	.L256	@far jump
 3925              	.LCB4051:
 3926 0a8a 7A26     		movs	r6, #122
 3927 0a8c FF36     		adds	r6, r6, #255
 3928 0a8e A35D     		ldrb	r3, [r4, r6]
 3929 0a90 1121     		movs	r1, #17
 3930 0a92 E218     		adds	r2, r4, r3
 3931 0a94 1000     		movs	r0, r2
 3932 0a96 7B30     		adds	r0, r0, #123
 3933 0a98 FF30     		adds	r0, r0, #255
 3934 0a9a EEE4     		b	.L369
 3935              	.L318:
 3936 0a9c 2000     		movs	r0, r4
 3937 0a9e 0599     		ldr	r1, [sp, #20]
 3938 0aa0 FFF7FEFF 		bl	smtc_real_is_frequency_valid
 3939 0aa4 431C     		adds	r3, r0, #1
 3940 0aa6 D0D1     		bne	.L320
 3941 0aa8 294A     		ldr	r2, .L379+116
 3942 0aaa 1149     		ldr	r1, .L379+20
 3943 0aac 1748     		ldr	r0, .L379+48
 3944 0aae FFF7FEFF 		bl	smtc_modem_hal_print_trace
 3945 0ab2 0225     		movs	r5, #2
 3946 0ab4 CAE7     		b	.L319
 3947              	.L321:
 3948 0ab6 032D     		cmp	r5, #3
 3949 0ab8 0ED1     		bne	.L331
 3950 0aba 059A     		ldr	r2, [sp, #20]
 3951 0abc 254B     		ldr	r3, .L379+120
 3952 0abe 3100     		movs	r1, r6
 3953 0ac0 E250     		str	r2, [r4, r3]
 3954 0ac2 0433     		adds	r3, r3, #4
 3955 0ac4 E654     		strb	r6, [r4, r3]
 3956 0ac6 2448     		ldr	r0, .L379+124
 3957 0ac8 FFF7FEFF 		bl	smtc_modem_hal_print_trace
 3958 0acc 214B     		ldr	r3, .L379+120
 3959 0ace 2348     		ldr	r0, .L379+128
 3960 0ad0 E158     		ldr	r1, [r4, r3]
 3961 0ad2 FFF7FEFF 		bl	smtc_modem_hal_print_trace
 3962 0ad6 CEE7     		b	.L322
 3963              	.L331:
 3964 0ad8 0225     		movs	r5, #2
 3965 0ada CCE7     		b	.L322
 3966              	.L380:
 3967              		.align	2
 3968              	.L379:
 3969 0adc 88030000 		.word	.LC132
 3970 0ae0 35030000 		.word	821
 3971 0ae4 26040000 		.word	1062
 3972 0ae8 A9030000 		.word	.LC134
 3973 0aec C9030000 		.word	.LC136
 3974 0af0 1D000000 		.word	.LC8
 3975 0af4 00000000 		.word	.LANCHOR12
 3976 0af8 37030000 		.word	823
 3977 0afc 36030000 		.word	822
ARM GAS  /tmp/ccSzR2eS.s 			page 75


 3978 0b00 08040000 		.word	.LC139
 3979 0b04 2E040000 		.word	.LC141
 3980 0b08 F1020000 		.word	.LC120
 3981 0b0c 8A000000 		.word	.LC52
 3982 0b10 08030000 		.word	.LC122
 3983 0b14 6A040000 		.word	.LC143
 3984 0b18 45050000 		.word	1349
 3985 0b1c 87040000 		.word	.LC145
 3986 0b20 B4040000 		.word	.LC147
 3987 0b24 24050000 		.word	1316
 3988 0b28 39030000 		.word	825
 3989 0b2c 2C050000 		.word	1324
 3990 0b30 34050000 		.word	1332
 3991 0b34 3C050000 		.word	1340
 3992 0b38 46050000 		.word	1350
 3993 0b3c DF040000 		.word	.LC149
 3994 0b40 51050000 		.word	1361
 3995 0b44 52050000 		.word	1362
 3996 0b48 F1040000 		.word	.LC151
 3997 0b4c 3F050000 		.word	.LC155
 3998 0b50 22050000 		.word	.LC153
 3999 0b54 4C050000 		.word	1356
 4000 0b58 55050000 		.word	.LC157
 4001 0b5c 6F050000 		.word	.LC159
 4002              	.L260:
 4003 0b60 0333     		adds	r3, r3, #3
 4004 0b62 9342     		cmp	r3, r2
 4005 0b64 01DB     		blt	.LCB4149
 4006 0b66 FFF795FA 		bl	.L279	@far jump
 4007              	.LCB4149:
 4008 0b6a CD22     		movs	r2, #205
 4009 0b6c CE20     		movs	r0, #206
 4010 0b6e 9200     		lsls	r2, r2, #2
 4011 0b70 E318     		adds	r3, r4, r3
 4012 0b72 2A4D     		ldr	r5, .L381
 4013 0b74 9B18     		adds	r3, r3, r2
 4014 0b76 2A4A     		ldr	r2, .L381+4
 4015 0b78 8000     		lsls	r0, r0, #2
 4016 0b7a 7119     		adds	r1, r6, r5
 4017 0b7c B218     		adds	r2, r6, r2
 4018 0b7e 3618     		adds	r6, r6, r0
 4019 0b80 3078     		ldrb	r0, [r6]
 4020 0b82 1B78     		ldrb	r3, [r3]
 4021 0b84 1278     		ldrb	r2, [r2]
 4022 0b86 0978     		ldrb	r1, [r1]
 4023 0b88 0090     		str	r0, [sp]
 4024 0b8a 2648     		ldr	r0, .L381+8
 4025 0b8c FFF7FEFF 		bl	smtc_modem_hal_print_trace
 4026 0b90 E15D     		ldrb	r1, [r4, r7]
 4027 0b92 2000     		movs	r0, r4
 4028 0b94 4919     		adds	r1, r1, r5
 4029 0b96 6118     		adds	r1, r4, r1
 4030 0b98 FFF7FEFF 		bl	smtc_real_decode_freq_from_buf
 4031 0b9c 051E     		subs	r5, r0, #0
 4032 0b9e 22D0     		beq	.L323
 4033 0ba0 0100     		movs	r1, r0
 4034 0ba2 2000     		movs	r0, r4
ARM GAS  /tmp/ccSzR2eS.s 			page 76


 4035 0ba4 FFF7FEFF 		bl	smtc_real_is_frequency_valid
 4036 0ba8 431C     		adds	r3, r0, #1
 4037 0baa 1CD1     		bne	.L323
 4038 0bac 1E4A     		ldr	r2, .L381+12
 4039 0bae 1F49     		ldr	r1, .L381+16
 4040 0bb0 1F48     		ldr	r0, .L381+20
 4041 0bb2 FFF7FEFF 		bl	smtc_modem_hal_print_trace
 4042 0bb6 0022     		movs	r2, #0
 4043              	.L324:
 4044 0bb8 E35D     		ldrb	r3, [r4, r7]
 4045 0bba 1E49     		ldr	r1, .L381+24
 4046 0bbc 0433     		adds	r3, r3, #4
 4047 0bbe DBB2     		uxtb	r3, r3
 4048 0bc0 E355     		strb	r3, [r4, r7]
 4049 0bc2 615C     		ldrb	r1, [r4, r1]
 4050 0bc4 9942     		cmp	r1, r3
 4051 0bc6 01D2     		bcs	.LCB4197
 4052 0bc8 FFF727FA 		bl	.L256	@far jump
 4053              	.LCB4197:
 4054 0bcc 7A25     		movs	r5, #122
 4055 0bce FF35     		adds	r5, r5, #255
 4056 0bd0 635D     		ldrb	r3, [r4, r5]
 4057 0bd2 1326     		movs	r6, #19
 4058 0bd4 E118     		adds	r1, r4, r3
 4059 0bd6 0800     		movs	r0, r1
 4060 0bd8 7C31     		adds	r1, r1, #124
 4061 0bda 7B30     		adds	r0, r0, #123
 4062 0bdc FF30     		adds	r0, r0, #255
 4063 0bde FF31     		adds	r1, r1, #255
 4064 0be0 0670     		strb	r6, [r0]
 4065 0be2 0A70     		strb	r2, [r1]
 4066 0be4 4DE5     		b	.L366
 4067              	.L323:
 4068 0be6 A923     		movs	r3, #169
 4069 0be8 DB00     		lsls	r3, r3, #3
 4070 0bea E550     		str	r5, [r4, r3]
 4071 0bec 002D     		cmp	r5, #0
 4072 0bee 06D1     		bne	.L325
 4073 0bf0 FFF7FEFF 		bl	smtc_modem_hal_get_time_in_ms
 4074 0bf4 0100     		movs	r1, r0
 4075 0bf6 2000     		movs	r0, r4
 4076 0bf8 FFF7FEFF 		bl	smtc_real_get_beacon_frequency
 4077 0bfc 0500     		movs	r5, r0
 4078              	.L325:
 4079 0bfe 2900     		movs	r1, r5
 4080 0c00 0D48     		ldr	r0, .L381+28
 4081 0c02 FFF7FEFF 		bl	smtc_modem_hal_print_trace
 4082 0c06 0122     		movs	r2, #1
 4083 0c08 D6E7     		b	.L324
 4084              	.L259:
 4085 0c0a 0023     		movs	r3, #0
 4086 0c0c 094A     		ldr	r2, .L381+24
 4087 0c0e 0B48     		ldr	r0, .L381+32
 4088 0c10 A354     		strb	r3, [r4, r2]
 4089 0c12 FFF7FEFF 		bl	smtc_modem_hal_print_trace
 4090 0c16 FFF700FA 		bl	.L256	@ far jump
 4091              	.L382:
ARM GAS  /tmp/ccSzR2eS.s 			page 77


 4092 0c1a C046     		.align	2
 4093              	.L381:
 4094 0c1c 35030000 		.word	821
 4095 0c20 36030000 		.word	822
 4096 0c24 8A050000 		.word	.LC161
 4097 0c28 B4050000 		.word	.LC163
 4098 0c2c 1D000000 		.word	.LC8
 4099 0c30 8A000000 		.word	.LC52
 4100 0c34 26040000 		.word	1062
 4101 0c38 CE050000 		.word	.LC165
 4102 0c3c E5050000 		.word	.LC167
 4104              		.section	.rodata.lr1_stack_mac_join_request_build.str1.1,"aMS",%progbits,1
 4105              	.LC169:
 4106 0000 44657645 		.ascii	"DevEUI\000"
 4106      554900
 4107              	.LC171:
 4108 0007 2573202D 		.ascii	"%s - (%lu bytes):\012\000"
 4108      2028256C 
 4108      75206279 
 4108      74657329 
 4108      3A0A00
 4109              	.LC173:
 4110 001a 20253032 		.ascii	" %02X\000"
 4110      5800
 4111              	.LC175:
 4112 0020 0A00     		.ascii	"\012\000"
 4113              	.LC177:
 4114 0022 4A6F696E 		.ascii	"JoinEUI\000"
 4114      45554900 
 4115              	.LC179:
 4116 002a 4465764E 		.ascii	"DevNonce 0x%x\012\000"
 4116      6F6E6365 
 4116      20307825 
 4116      780A00
 4117              	.LC184:
 4118 0039 1B5B303B 		.ascii	"\033[0;31mERROR: -> Crypto error during join mic co"
 4118      33316D45 
 4118      52524F52 
 4118      3A202D3E 
 4118      20437279 
 4119 0069 6D707574 		.ascii	"mputation\012\000"
 4119      6174696F 
 4119      6E0A00
 4120              		.section	.text.lr1_stack_mac_join_request_build,"ax",%progbits
 4121              		.align	1
 4122              		.global	lr1_stack_mac_join_request_build
 4123              		.syntax unified
 4124              		.code	16
 4125              		.thumb_func
 4126              		.fpu softvfp
 4128              	lr1_stack_mac_join_request_build:
 4129              		@ args = 0, pretend = 0, frame = 24
 4130              		@ frame_needed = 0, uses_anonymous_args = 0
 4131 0000 F0B5     		push	{r4, r5, r6, r7, lr}
 4132 0002 87B0     		sub	sp, sp, #28
 4133 0004 0400     		movs	r4, r0
 4134 0006 04A8     		add	r0, sp, #16
ARM GAS  /tmp/ccSzR2eS.s 			page 78


 4135 0008 FFF7FEFF 		bl	smtc_secure_element_get_joineui
 4136 000c 02A8     		add	r0, sp, #8
 4137 000e FFF7FEFF 		bl	smtc_secure_element_get_deveui
 4138 0012 444F     		ldr	r7, .L395
 4139 0014 0822     		movs	r2, #8
 4140 0016 3800     		movs	r0, r7
 4141 0018 4349     		ldr	r1, .L395+4
 4142 001a FFF7FEFF 		bl	smtc_modem_hal_print_trace
 4143 001e 0025     		movs	r5, #0
 4144              	.L384:
 4145 0020 0822     		movs	r2, #8
 4146 0022 6B46     		mov	r3, sp
 4147 0024 9B18     		adds	r3, r3, r2
 4148 0026 595D     		ldrb	r1, [r3, r5]
 4149 0028 4048     		ldr	r0, .L395+8
 4150 002a 0135     		adds	r5, r5, #1
 4151 002c FFF7FEFF 		bl	smtc_modem_hal_print_trace
 4152 0030 082D     		cmp	r5, #8
 4153 0032 F5D1     		bne	.L384
 4154 0034 3E4E     		ldr	r6, .L395+12
 4155 0036 3000     		movs	r0, r6
 4156 0038 FFF7FEFF 		bl	smtc_modem_hal_print_trace
 4157 003c 2A00     		movs	r2, r5
 4158 003e 3800     		movs	r0, r7
 4159 0040 3C49     		ldr	r1, .L395+16
 4160 0042 FFF7FEFF 		bl	smtc_modem_hal_print_trace
 4161 0046 0025     		movs	r5, #0
 4162              	.L385:
 4163 0048 1022     		movs	r2, #16
 4164 004a 6B46     		mov	r3, sp
 4165 004c 9B18     		adds	r3, r3, r2
 4166 004e 595D     		ldrb	r1, [r3, r5]
 4167 0050 3648     		ldr	r0, .L395+8
 4168 0052 0135     		adds	r5, r5, #1
 4169 0054 FFF7FEFF 		bl	smtc_modem_hal_print_trace
 4170 0058 082D     		cmp	r5, #8
 4171 005a F5D1     		bne	.L385
 4172 005c 3000     		movs	r0, r6
 4173 005e FFF7FEFF 		bl	smtc_modem_hal_print_trace
 4174 0062 C722     		movs	r2, #199
 4175 0064 9200     		lsls	r2, r2, #2
 4176 0066 A35A     		ldrh	r3, [r4, r2]
 4177 0068 3349     		ldr	r1, .L395+20
 4178 006a 8B42     		cmp	r3, r1
 4179 006c 01D0     		beq	.L386
 4180 006e 0133     		adds	r3, r3, #1
 4181 0070 A352     		strh	r3, [r4, r2]
 4182              	.L386:
 4183 0072 A15A     		ldrh	r1, [r4, r2]
 4184 0074 3148     		ldr	r0, .L395+24
 4185 0076 FFF7FEFF 		bl	smtc_modem_hal_print_trace
 4186 007a 2300     		movs	r3, r4
 4187 007c 0022     		movs	r2, #0
 4188 007e 2000     		movs	r0, r4
 4189 0080 7333     		adds	r3, r3, #115
 4190 0082 1A70     		strb	r2, [r3]
 4191 0084 0132     		adds	r2, r2, #1
ARM GAS  /tmp/ccSzR2eS.s 			page 79


 4192 0086 213B     		subs	r3, r3, #33
 4193 0088 1A70     		strb	r2, [r3]
 4194 008a 013B     		subs	r3, r3, #1
 4195 008c 1A70     		strb	r2, [r3]
 4196 008e 2333     		adds	r3, r3, #35
 4197 0090 1B78     		ldrb	r3, [r3]
 4198 0092 0232     		adds	r2, r2, #2
 4199 0094 1340     		ands	r3, r2
 4200 0096 7A30     		adds	r0, r0, #122
 4201 0098 2200     		movs	r2, r4
 4202 009a 0370     		strb	r3, [r0]
 4203 009c 0723     		movs	r3, #7
 4204 009e 7B32     		adds	r2, r2, #123
 4205              	.L387:
 4206 00a0 1025     		movs	r5, #16
 4207 00a2 6946     		mov	r1, sp
 4208 00a4 4919     		adds	r1, r1, r5
 4209 00a6 C95C     		ldrb	r1, [r1, r3]
 4210 00a8 083D     		subs	r5, r5, #8
 4211 00aa 1170     		strb	r1, [r2]
 4212 00ac 6946     		mov	r1, sp
 4213 00ae 4919     		adds	r1, r1, r5
 4214 00b0 C95C     		ldrb	r1, [r1, r3]
 4215 00b2 0132     		adds	r2, r2, #1
 4216 00b4 D171     		strb	r1, [r2, #7]
 4217 00b6 013B     		subs	r3, r3, #1
 4218 00b8 F2D2     		bcs	.L387
 4219 00ba C723     		movs	r3, #199
 4220 00bc 2200     		movs	r2, r4
 4221 00be 9B00     		lsls	r3, r3, #2
 4222 00c0 E35A     		ldrh	r3, [r4, r3]
 4223 00c2 8B32     		adds	r2, r2, #139
 4224 00c4 1370     		strb	r3, [r2]
 4225 00c6 EB40     		lsrs	r3, r3, r5
 4226 00c8 2500     		movs	r5, r4
 4227 00ca 1321     		movs	r1, #19
 4228 00cc 7935     		adds	r5, r5, #121
 4229 00ce 5370     		strb	r3, [r2, #1]
 4230 00d0 2970     		strb	r1, [r5]
 4231 00d2 01AA     		add	r2, sp, #4
 4232 00d4 FFF7FEFF 		bl	smtc_modem_crypto_compute_join_mic
 4233 00d8 0028     		cmp	r0, #0
 4234 00da 16D0     		beq	.L388
 4235 00dc 184E     		ldr	r6, .L395+28
 4236 00de 3000     		movs	r0, r6
 4237 00e0 FFF7FEFF 		bl	smtc_modem_hal_store_crashlog
 4238 00e4 0120     		movs	r0, #1
 4239 00e6 FFF7FEFF 		bl	smtc_modem_hal_set_crashlog_status
 4240 00ea 3100     		movs	r1, r6
 4241 00ec 1548     		ldr	r0, .L395+32
 4242 00ee FFF7FEFF 		bl	smtc_modem_hal_print_trace
 4243 00f2 154E     		ldr	r6, .L395+36
 4244 00f4 3000     		movs	r0, r6
 4245 00f6 FFF7FEFF 		bl	smtc_modem_hal_print_trace
 4246 00fa 1448     		ldr	r0, .L395+40
 4247 00fc FFF7FEFF 		bl	smtc_modem_hal_print_trace
 4248 0100 3000     		movs	r0, r6
ARM GAS  /tmp/ccSzR2eS.s 			page 80


 4249 0102 FFF7FEFF 		bl	smtc_modem_hal_print_trace
 4250 0106 FFF7FEFF 		bl	smtc_modem_hal_reset_mcu
 4251              	.L388:
 4252 010a 2878     		ldrb	r0, [r5]
 4253 010c 0422     		movs	r2, #4
 4254 010e 7A30     		adds	r0, r0, #122
 4255 0110 2018     		adds	r0, r4, r0
 4256 0112 01A9     		add	r1, sp, #4
 4257 0114 FFF7FEFF 		bl	memcpy1
 4258 0118 2B78     		ldrb	r3, [r5]
 4259 011a 0433     		adds	r3, r3, #4
 4260 011c 2B70     		strb	r3, [r5]
 4261 011e 07B0     		add	sp, sp, #28
 4262              		@ sp needed
 4263 0120 F0BD     		pop	{r4, r5, r6, r7, pc}
 4264              	.L396:
 4265 0122 C046     		.align	2
 4266              	.L395:
 4267 0124 07000000 		.word	.LC171
 4268 0128 00000000 		.word	.LC169
 4269 012c 1A000000 		.word	.LC173
 4270 0130 20000000 		.word	.LC175
 4271 0134 22000000 		.word	.LC177
 4272 0138 FFFF0000 		.word	65535
 4273 013c 2A000000 		.word	.LC179
 4274 0140 00000000 		.word	.LANCHOR13
 4275 0144 00000000 		.word	.LC6
 4276 0148 1D000000 		.word	.LC8
 4277 014c 39000000 		.word	.LC184
 4279              		.section	.rodata.lr1_stack_mac_join_accept.str1.1,"aMS",%progbits,1
 4280              	.LC186:
 4281 0000 1B5B303B 		.ascii	"\033[0;33mWARN: JoinNonce invalid (new:%u == prev:%"
 4281      33336D57 
 4281      41524E3A 
 4281      204A6F69 
 4281      6E4E6F6E 
 4282 0030 75290A00 		.ascii	"u)\012\000"
 4283              	.LC189:
 4284 0034 1B5B303B 		.ascii	"\033[0;33mWARN: JoinAccept invalid Rx1DrOffset %d\012"
 4284      33336D57 
 4284      41524E3A 
 4284      204A6F69 
 4284      6E416363 
 4285 0063 00       		.ascii	"\000"
 4286              	.LC191:
 4287 0064 1B5B303B 		.ascii	"\033[0;33mWARN: JoinAccept invalid Rx2Datarate %d\012"
 4287      33336D57 
 4287      41524E3A 
 4287      204A6F69 
 4287      6E416363 
 4288 0093 00       		.ascii	"\000"
 4289              	.LC193:
 4290 0094 20446576 		.ascii	" DevAddr= %x\012\000"
 4290      41646472 
 4290      3D202578 
 4290      0A00
 4291              	.LC195:
ARM GAS  /tmp/ccSzR2eS.s 			page 81


 4292 00a2 204D6163 		.ascii	" MacRx1DataRateOffset= %d\012\000"
 4292      52783144 
 4292      61746152 
 4292      6174654F 
 4292      66667365 
 4293              	.LC197:
 4294 00bd 204D6163 		.ascii	" MacRx2DataRate= %d\012\000"
 4294      52783244 
 4294      61746152 
 4294      6174653D 
 4294      2025640A 
 4295              	.LC199:
 4296 00d2 204D6163 		.ascii	" MacRx1Delay= %d\012\000"
 4296      52783144 
 4296      656C6179 
 4296      3D202564 
 4296      0A00
 4297              	.LC201:
 4298 00e4 20536176 		.ascii	" Save In Flash After Join succeed\012\000"
 4298      6520496E 
 4298      20466C61 
 4298      73682041 
 4298      66746572 
 4299              		.section	.text.lr1_stack_mac_join_accept,"ax",%progbits
 4300              		.align	1
 4301              		.global	lr1_stack_mac_join_accept
 4302              		.syntax unified
 4303              		.code	16
 4304              		.thumb_func
 4305              		.fpu softvfp
 4307              	lr1_stack_mac_join_accept:
 4308              		@ args = 0, pretend = 0, frame = 16
 4309              		@ frame_needed = 0, uses_anonymous_args = 0
 4310 0000 F0B5     		push	{r4, r5, r6, r7, lr}
 4311 0002 0400     		movs	r4, r0
 4312 0004 574B     		ldr	r3, .L410
 4313 0006 85B0     		sub	sp, sp, #20
 4314 0008 C118     		adds	r1, r0, r3
 4315 000a 0622     		movs	r2, #6
 4316 000c 02A8     		add	r0, sp, #8
 4317 000e FFF7FEFF 		bl	memcpy1
 4318 0012 554A     		ldr	r2, .L410+4
 4319 0014 554B     		ldr	r3, .L410+8
 4320 0016 A15C     		ldrb	r1, [r4, r2]
 4321 0018 0132     		adds	r2, r2, #1
 4322 001a A25C     		ldrb	r2, [r4, r2]
 4323 001c E35C     		ldrb	r3, [r4, r3]
 4324 001e 1204     		lsls	r2, r2, #16
 4325 0020 0902     		lsls	r1, r1, #8
 4326 0022 1143     		orrs	r1, r2
 4327 0024 1943     		orrs	r1, r3
 4328 0026 02AA     		add	r2, sp, #8
 4329 0028 02AB     		add	r3, sp, #8
 4330 002a 1878     		ldrb	r0, [r3]
 4331 002c 9278     		ldrb	r2, [r2, #2]
 4332 002e 5B78     		ldrb	r3, [r3, #1]
 4333 0030 1204     		lsls	r2, r2, #16
ARM GAS  /tmp/ccSzR2eS.s 			page 82


 4334 0032 1B02     		lsls	r3, r3, #8
 4335 0034 1343     		orrs	r3, r2
 4336 0036 0343     		orrs	r3, r0
 4337 0038 9942     		cmp	r1, r3
 4338 003a 0BD1     		bne	.L398
 4339 003c 4C48     		ldr	r0, .L410+12
 4340 003e 0A00     		movs	r2, r1
 4341 0040 FFF7FEFF 		bl	smtc_modem_hal_print_trace
 4342 0044 4B48     		ldr	r0, .L410+16
 4343              	.L408:
 4344 0046 0125     		movs	r5, #1
 4345 0048 FFF7FEFF 		bl	smtc_modem_hal_print_trace
 4346 004c 6D42     		rsbs	r5, r5, #0
 4347              	.L399:
 4348 004e 2800     		movs	r0, r5
 4349 0050 05B0     		add	sp, sp, #20
 4350              		@ sp needed
 4351 0052 F0BD     		pop	{r4, r5, r6, r7, pc}
 4352              	.L398:
 4353 0054 454B     		ldr	r3, .L410+8
 4354 0056 0622     		movs	r2, #6
 4355 0058 E018     		adds	r0, r4, r3
 4356 005a 02A9     		add	r1, sp, #8
 4357 005c FFF7FEFF 		bl	memcpy1
 4358 0060 C723     		movs	r3, #199
 4359 0062 9B00     		lsls	r3, r3, #2
 4360 0064 E25A     		ldrh	r2, [r4, r3]
 4361 0066 02AB     		add	r3, sp, #8
 4362 0068 1800     		movs	r0, r3
 4363 006a D91C     		adds	r1, r3, #3
 4364 006c FFF7FEFF 		bl	smtc_modem_crypto_derive_skeys
 4365 0070 414B     		ldr	r3, .L410+20
 4366 0072 E35C     		ldrb	r3, [r4, r3]
 4367 0074 0D2B     		cmp	r3, #13
 4368 0076 42D9     		bls	.L400
 4369 0078 0023     		movs	r3, #0
 4370 007a 404A     		ldr	r2, .L410+24
 4371 007c A018     		adds	r0, r4, r2
 4372 007e 0832     		adds	r2, r2, #8
 4373 0080 FF32     		adds	r2, r2, #255
 4374 0082 A218     		adds	r2, r4, r2
 4375              	.L401:
 4376 0084 C15C     		ldrb	r1, [r0, r3]
 4377 0086 D154     		strb	r1, [r2, r3]
 4378 0088 0133     		adds	r3, r3, #1
 4379 008a 102B     		cmp	r3, #16
 4380 008c FAD1     		bne	.L401
 4381 008e 2000     		movs	r0, r4
 4382 0090 FFF7FEFF 		bl	smtc_real_update_cflist
 4383              	.L402:
 4384 0094 8623     		movs	r3, #134
 4385 0096 3A4A     		ldr	r2, .L410+28
 4386 0098 9B00     		lsls	r3, r3, #2
 4387 009a E35C     		ldrb	r3, [r4, r3]
 4388 009c A25C     		ldrb	r2, [r4, r2]
 4389 009e 1B02     		lsls	r3, r3, #8
 4390 00a0 9B18     		adds	r3, r3, r2
ARM GAS  /tmp/ccSzR2eS.s 			page 83


 4391 00a2 384A     		ldr	r2, .L410+32
 4392 00a4 2600     		movs	r6, r4
 4393 00a6 A25C     		ldrb	r2, [r4, r2]
 4394 00a8 5336     		adds	r6, r6, #83
 4395 00aa 1204     		lsls	r2, r2, #16
 4396 00ac 9B18     		adds	r3, r3, r2
 4397 00ae 364A     		ldr	r2, .L410+36
 4398 00b0 2500     		movs	r5, r4
 4399 00b2 A25C     		ldrb	r2, [r4, r2]
 4400 00b4 5935     		adds	r5, r5, #89
 4401 00b6 1206     		lsls	r2, r2, #24
 4402 00b8 9B18     		adds	r3, r3, r2
 4403 00ba 2200     		movs	r2, r4
 4404 00bc E366     		str	r3, [r4, #108]
 4405 00be 334B     		ldr	r3, .L410+40
 4406 00c0 5832     		adds	r2, r2, #88
 4407 00c2 E35C     		ldrb	r3, [r4, r3]
 4408 00c4 0092     		str	r2, [sp]
 4409 00c6 5906     		lsls	r1, r3, #25
 4410 00c8 490F     		lsrs	r1, r1, #29
 4411 00ca 1170     		strb	r1, [r2]
 4412 00cc 0F22     		movs	r2, #15
 4413 00ce 1340     		ands	r3, r2
 4414 00d0 3370     		strb	r3, [r6]
 4415 00d2 8723     		movs	r3, #135
 4416 00d4 9B00     		lsls	r3, r3, #2
 4417 00d6 E35C     		ldrb	r3, [r4, r3]
 4418 00d8 0195     		str	r5, [sp, #4]
 4419 00da 1800     		movs	r0, r3
 4420 00dc 1040     		ands	r0, r2
 4421 00de 1342     		tst	r3, r2
 4422 00e0 11D0     		beq	.L403
 4423 00e2 2870     		strb	r0, [r5]
 4424              	.L404:
 4425 00e4 2000     		movs	r0, r4
 4426 00e6 FFF7FEFF 		bl	smtc_real_is_rx1_dr_offset_valid
 4427 00ea 224F     		ldr	r7, .L410+16
 4428 00ec 0028     		cmp	r0, #0
 4429 00ee 0ED0     		beq	.L405
 4430 00f0 009B     		ldr	r3, [sp]
 4431 00f2 2748     		ldr	r0, .L410+44
 4432 00f4 1978     		ldrb	r1, [r3]
 4433              	.L409:
 4434 00f6 FFF7FEFF 		bl	smtc_modem_hal_print_trace
 4435 00fa 3800     		movs	r0, r7
 4436 00fc A3E7     		b	.L408
 4437              	.L400:
 4438 00fe 2000     		movs	r0, r4
 4439 0100 FFF7FEFF 		bl	smtc_real_init_after_join_snapshot_channel_mask
 4440 0104 C6E7     		b	.L402
 4441              	.L403:
 4442 0106 0123     		movs	r3, #1
 4443 0108 019A     		ldr	r2, [sp, #4]
 4444 010a 1370     		strb	r3, [r2]
 4445 010c EAE7     		b	.L404
 4446              	.L405:
 4447 010e 2000     		movs	r0, r4
ARM GAS  /tmp/ccSzR2eS.s 			page 84


 4448 0110 3178     		ldrb	r1, [r6]
 4449 0112 FFF7FEFF 		bl	smtc_real_is_rx_dr_valid
 4450 0116 051E     		subs	r5, r0, #0
 4451 0118 02D0     		beq	.L406
 4452 011a 3178     		ldrb	r1, [r6]
 4453 011c 1D48     		ldr	r0, .L410+48
 4454 011e EAE7     		b	.L409
 4455              	.L406:
 4456 0120 0222     		movs	r2, #2
 4457 0122 1D4B     		ldr	r3, .L410+52
 4458 0124 2000     		movs	r0, r4
 4459 0126 E254     		strb	r2, [r4, r3]
 4460 0128 FFF7FEFF 		bl	lr1_stack_mac_session_init
 4461 012c 2000     		movs	r0, r4
 4462 012e FFF7FEFF 		bl	smtc_real_init_session
 4463 0132 E16E     		ldr	r1, [r4, #108]
 4464 0134 1948     		ldr	r0, .L410+56
 4465 0136 FFF7FEFF 		bl	smtc_modem_hal_print_trace
 4466 013a 009B     		ldr	r3, [sp]
 4467 013c 1848     		ldr	r0, .L410+60
 4468 013e 1978     		ldrb	r1, [r3]
 4469 0140 FFF7FEFF 		bl	smtc_modem_hal_print_trace
 4470 0144 3178     		ldrb	r1, [r6]
 4471 0146 1748     		ldr	r0, .L410+64
 4472 0148 FFF7FEFF 		bl	smtc_modem_hal_print_trace
 4473 014c 019B     		ldr	r3, [sp, #4]
 4474 014e 1648     		ldr	r0, .L410+68
 4475 0150 1978     		ldrb	r1, [r3]
 4476 0152 FFF7FEFF 		bl	smtc_modem_hal_print_trace
 4477 0156 3900     		movs	r1, r7
 4478 0158 144A     		ldr	r2, .L410+72
 4479 015a 1548     		ldr	r0, .L410+76
 4480 015c FFF7FEFF 		bl	smtc_modem_hal_print_trace
 4481 0160 75E7     		b	.L399
 4482              	.L411:
 4483 0162 C046     		.align	2
 4484              	.L410:
 4485 0164 11020000 		.word	529
 4486 0168 1F030000 		.word	799
 4487 016c 1E030000 		.word	798
 4488 0170 00000000 		.word	.LC186
 4489 0174 1D000000 		.word	.LC8
 4490 0178 0F020000 		.word	527
 4491 017c 1D020000 		.word	541
 4492 0180 17020000 		.word	535
 4493 0184 19020000 		.word	537
 4494 0188 1A020000 		.word	538
 4495 018c 1B020000 		.word	539
 4496 0190 34000000 		.word	.LC189
 4497 0194 64000000 		.word	.LC191
 4498 0198 CE040000 		.word	1230
 4499 019c 94000000 		.word	.LC193
 4500 01a0 A2000000 		.word	.LC195
 4501 01a4 BD000000 		.word	.LC197
 4502 01a8 D2000000 		.word	.LC199
 4503 01ac E4000000 		.word	.LC201
 4504 01b0 8A000000 		.word	.LC52
ARM GAS  /tmp/ccSzR2eS.s 			page 85


 4506              		.section	.text.lr1_stack_network_next_free_duty_cycle_ms_get,"ax",%progbits
 4507              		.align	1
 4508              		.global	lr1_stack_network_next_free_duty_cycle_ms_get
 4509              		.syntax unified
 4510              		.code	16
 4511              		.thumb_func
 4512              		.fpu softvfp
 4514              	lr1_stack_network_next_free_duty_cycle_ms_get:
 4515              		@ args = 0, pretend = 0, frame = 0
 4516              		@ frame_needed = 0, uses_anonymous_args = 0
 4517 0000 70B5     		push	{r4, r5, r6, lr}
 4518 0002 C525     		movs	r5, #197
 4519 0004 AD00     		lsls	r5, r5, #2
 4520 0006 4359     		ldr	r3, [r0, r5]
 4521 0008 0400     		movs	r4, r0
 4522 000a 002B     		cmp	r3, #0
 4523 000c 01D1     		bne	.L413
 4524              	.L417:
 4525 000e 0020     		movs	r0, #0
 4526              	.L412:
 4527              		@ sp needed
 4528 0010 70BD     		pop	{r4, r5, r6, pc}
 4529              	.L413:
 4530 0012 FFF7FEFF 		bl	smtc_modem_hal_get_time_in_ms
 4531 0016 C622     		movs	r2, #198
 4532 0018 9200     		lsls	r2, r2, #2
 4533 001a 0300     		movs	r3, r0
 4534 001c A058     		ldr	r0, [r4, r2]
 4535 001e 9842     		cmp	r0, r3
 4536 0020 05D8     		bhi	.L415
 4537 0022 1B1A     		subs	r3, r3, r0
 4538              	.L416:
 4539 0024 6059     		ldr	r0, [r4, r5]
 4540 0026 9842     		cmp	r0, r3
 4541 0028 F1D3     		bcc	.L417
 4542 002a C01A     		subs	r0, r0, r3
 4543 002c F0E7     		b	.L412
 4544              	.L415:
 4545 002e C043     		mvns	r0, r0
 4546 0030 1B18     		adds	r3, r3, r0
 4547 0032 F7E7     		b	.L416
 4549              		.section	.text.lr1_stack_toa_get,"ax",%progbits
 4550              		.align	1
 4551              		.global	lr1_stack_toa_get
 4552              		.syntax unified
 4553              		.code	16
 4554              		.thumb_func
 4555              		.fpu softvfp
 4557              	lr1_stack_toa_get:
 4558              		@ args = 0, pretend = 0, frame = 56
 4559              		@ frame_needed = 0, uses_anonymous_args = 0
 4560 0000 F0B5     		push	{r4, r5, r6, r7, lr}
 4561 0002 0500     		movs	r5, r0
 4562 0004 0027     		movs	r7, #0
 4563 0006 8FB0     		sub	sp, sp, #60
 4564 0008 0297     		str	r7, [sp, #8]
 4565 000a 4E35     		adds	r5, r5, #78
ARM GAS  /tmp/ccSzR2eS.s 			page 86


 4566 000c 2978     		ldrb	r1, [r5]
 4567 000e 0400     		movs	r4, r0
 4568 0010 FFF7FEFF 		bl	smtc_real_get_modulation_type_from_datarate
 4569 0014 0600     		movs	r6, r0
 4570 0016 B842     		cmp	r0, r7
 4571 0018 36D1     		bne	.L419
 4572 001a 6B46     		mov	r3, sp
 4573 001c 9F1D     		adds	r7, r3, #6
 4574 001e 3A00     		movs	r2, r7
 4575 0020 2978     		ldrb	r1, [r5]
 4576 0022 0733     		adds	r3, r3, #7
 4577 0024 03AD     		add	r5, sp, #12
 4578 0026 2000     		movs	r0, r4
 4579 0028 FFF7FEFF 		bl	smtc_real_lora_dr_to_sf_bw
 4580 002c 1422     		movs	r2, #20
 4581 002e 3100     		movs	r1, r6
 4582 0030 2800     		movs	r0, r5
 4583 0032 FFF7FEFF 		bl	memset
 4584 0036 3B78     		ldrb	r3, [r7]
 4585 0038 2000     		movs	r0, r4
 4586 003a 2B70     		strb	r3, [r5]
 4587 003c 6B46     		mov	r3, sp
 4588 003e DB79     		ldrb	r3, [r3, #7]
 4589 0040 6B70     		strb	r3, [r5, #1]
 4590 0042 FFF7FEFF 		bl	smtc_real_get_coding_rate
 4591 0046 2F78     		ldrb	r7, [r5]
 4592 0048 6978     		ldrb	r1, [r5, #1]
 4593 004a A870     		strb	r0, [r5, #2]
 4594 004c 3800     		movs	r0, r7
 4595 004e FFF7FEFF 		bl	ral_compute_lora_ldro
 4596 0052 0123     		movs	r3, #1
 4597 0054 2B81     		strh	r3, [r5, #8]
 4598 0056 2300     		movs	r3, r4
 4599 0058 E870     		strb	r0, [r5, #3]
 4600 005a 7933     		adds	r3, r3, #121
 4601 005c 1B78     		ldrb	r3, [r3]
 4602 005e 3900     		movs	r1, r7
 4603 0060 EB71     		strb	r3, [r5, #7]
 4604 0062 2000     		movs	r0, r4
 4605 0064 FFF7FEFF 		bl	smtc_real_get_preamble_len
 4606 0068 454B     		ldr	r3, .L424
 4607 006a 2900     		movs	r1, r5
 4608 006c E258     		ldr	r2, [r4, r3]
 4609 006e 9C23     		movs	r3, #156
 4610 0070 AE71     		strb	r6, [r5, #6]
 4611 0072 1B01     		lsls	r3, r3, #4
 4612 0074 D358     		ldr	r3, [r2, r3]
 4613 0076 A880     		strh	r0, [r5, #4]
 4614 0078 A033     		adds	r3, r3, #160
 4615 007a 1B68     		ldr	r3, [r3]
 4616 007c 04A8     		add	r0, sp, #16
 4617              	.L423:
 4618 007e 9847     		blx	r3
 4619 0080 0290     		str	r0, [sp, #8]
 4620              	.L420:
 4621 0082 0298     		ldr	r0, [sp, #8]
 4622 0084 0FB0     		add	sp, sp, #60
ARM GAS  /tmp/ccSzR2eS.s 			page 87


 4623              		@ sp needed
 4624 0086 F0BD     		pop	{r4, r5, r6, r7, pc}
 4625              	.L419:
 4626 0088 0128     		cmp	r0, #1
 4627 008a 3AD1     		bne	.L421
 4628 008c 6B46     		mov	r3, sp
 4629 008e 2978     		ldrb	r1, [r5]
 4630 0090 DA1D     		adds	r2, r3, #7
 4631 0092 03AD     		add	r5, sp, #12
 4632 0094 2000     		movs	r0, r4
 4633 0096 FFF7FEFF 		bl	smtc_real_fsk_dr_to_bitrate
 4634 009a 2C22     		movs	r2, #44
 4635 009c 3900     		movs	r1, r7
 4636 009e 2800     		movs	r0, r5
 4637 00a0 FFF7FEFF 		bl	memset
 4638 00a4 9623     		movs	r3, #150
 4639 00a6 DB00     		lsls	r3, r3, #3
 4640 00a8 E358     		ldr	r3, [r4, r3]
 4641 00aa 2000     		movs	r0, r4
 4642 00ac 0B93     		str	r3, [sp, #44]
 4643 00ae FFF7FEFF 		bl	smtc_real_get_gfsk_sync_word
 4644 00b2 3623     		movs	r3, #54
 4645 00b4 6B44     		add	r3, r3, sp
 4646 00b6 0A90     		str	r0, [sp, #40]
 4647 00b8 1E70     		strb	r6, [r3]
 4648 00ba 324B     		ldr	r3, .L424+4
 4649 00bc 2900     		movs	r1, r5
 4650 00be 2B85     		strh	r3, [r5, #40]
 4651 00c0 314B     		ldr	r3, .L424+8
 4652 00c2 07A8     		add	r0, sp, #28
 4653 00c4 0C93     		str	r3, [sp, #48]
 4654 00c6 314B     		ldr	r3, .L424+12
 4655 00c8 0493     		str	r3, [sp, #16]
 4656 00ca 6B46     		mov	r3, sp
 4657 00cc DA79     		ldrb	r2, [r3, #7]
 4658 00ce FA23     		movs	r3, #250
 4659 00d0 9B00     		lsls	r3, r3, #2
 4660 00d2 5343     		muls	r3, r2
 4661 00d4 0393     		str	r3, [sp, #12]
 4662 00d6 2E4B     		ldr	r3, .L424+16
 4663 00d8 0593     		str	r3, [sp, #20]
 4664 00da 2300     		movs	r3, r4
 4665 00dc 7933     		adds	r3, r3, #121
 4666 00de 1B78     		ldrb	r3, [r3]
 4667 00e0 6E75     		strb	r6, [r5, #21]
 4668 00e2 AB75     		strb	r3, [r5, #22]
 4669 00e4 2823     		movs	r3, #40
 4670 00e6 2B82     		strh	r3, [r5, #16]
 4671 00e8 103B     		subs	r3, r3, #16
 4672 00ea EB74     		strb	r3, [r5, #19]
 4673 00ec 143B     		subs	r3, r3, #20
 4674 00ee EB75     		strb	r3, [r5, #23]
 4675 00f0 234B     		ldr	r3, .L424
 4676 00f2 2E76     		strb	r6, [r5, #24]
 4677 00f4 E258     		ldr	r2, [r4, r3]
 4678 00f6 9C23     		movs	r3, #156
 4679 00f8 1B01     		lsls	r3, r3, #4
ARM GAS  /tmp/ccSzR2eS.s 			page 88


 4680 00fa D358     		ldr	r3, [r2, r3]
 4681 00fc A433     		adds	r3, r3, #164
 4682 00fe 1B68     		ldr	r3, [r3]
 4683 0100 BDE7     		b	.L423
 4684              	.L421:
 4685 0102 0228     		cmp	r0, #2
 4686 0104 23D1     		bne	.L422
 4687 0106 6B46     		mov	r3, sp
 4688 0108 9E1D     		adds	r6, r3, #6
 4689 010a 3200     		movs	r2, r6
 4690 010c 2000     		movs	r0, r4
 4691 010e 2978     		ldrb	r1, [r5]
 4692 0110 0733     		adds	r3, r3, #7
 4693 0112 03AD     		add	r5, sp, #12
 4694 0114 FFF7FEFF 		bl	smtc_real_lr_fhss_dr_to_cr_bw
 4695 0118 3900     		movs	r1, r7
 4696 011a 1822     		movs	r2, #24
 4697 011c 2800     		movs	r0, r5
 4698 011e FFF7FEFF 		bl	memset
 4699 0122 0123     		movs	r3, #1
 4700 0124 3078     		ldrb	r0, [r6]
 4701 0126 2B72     		strb	r3, [r5, #8]
 4702 0128 6871     		strb	r0, [r5, #5]
 4703 012a FFF7FEFF 		bl	smtc_real_lr_fhss_get_header_count
 4704 012e 144B     		ldr	r3, .L424
 4705 0130 6872     		strb	r0, [r5, #9]
 4706 0132 E258     		ldr	r2, [r4, r3]
 4707 0134 9C23     		movs	r3, #156
 4708 0136 1B01     		lsls	r3, r3, #4
 4709 0138 D058     		ldr	r0, [r2, r3]
 4710 013a 7934     		adds	r4, r4, #121
 4711 013c 0300     		movs	r3, r0
 4712 013e D433     		adds	r3, r3, #212
 4713 0140 2278     		ldrb	r2, [r4]
 4714 0142 2900     		movs	r1, r5
 4715 0144 1C68     		ldr	r4, [r3]
 4716 0146 0068     		ldr	r0, [r0]
 4717 0148 02AB     		add	r3, sp, #8
 4718 014a A047     		blx	r4
 4719 014c 99E7     		b	.L420
 4720              	.L422:
 4721 014e 114C     		ldr	r4, .L424+20
 4722 0150 2000     		movs	r0, r4
 4723 0152 FFF7FEFF 		bl	smtc_modem_hal_store_crashlog
 4724 0156 0120     		movs	r0, #1
 4725 0158 FFF7FEFF 		bl	smtc_modem_hal_set_crashlog_status
 4726 015c 2100     		movs	r1, r4
 4727 015e 0E48     		ldr	r0, .L424+24
 4728 0160 FFF7FEFF 		bl	smtc_modem_hal_print_trace
 4729 0164 0D4C     		ldr	r4, .L424+28
 4730 0166 2000     		movs	r0, r4
 4731 0168 FFF7FEFF 		bl	smtc_modem_hal_print_trace
 4732 016c 0C48     		ldr	r0, .L424+32
 4733 016e FFF7FEFF 		bl	smtc_modem_hal_print_trace
 4734 0172 2000     		movs	r0, r4
 4735 0174 FFF7FEFF 		bl	smtc_modem_hal_print_trace
 4736 0178 FFF7FEFF 		bl	smtc_modem_hal_reset_mcu
ARM GAS  /tmp/ccSzR2eS.s 			page 89


 4737 017c 81E7     		b	.L420
 4738              	.L425:
 4739 017e C046     		.align	2
 4740              	.L424:
 4741 0180 BC040000 		.word	1212
 4742 0184 FF010000 		.word	511
 4743 0188 0F1D2110 		.word	270605583
 4744 018c A8610000 		.word	25000
 4745 0190 A0860100 		.word	100000
 4746 0194 00000000 		.word	.LANCHOR14
 4747 0198 00000000 		.word	.LC6
 4748 019c 1D000000 		.word	.LC8
 4749 01a0 00000000 		.word	.LC20
 4751              		.global	__aeabi_uidiv
 4752              		.section	.rodata.lr1_stack_mac_update.str1.1,"aMS",%progbits,1
 4753              	.LC211:
 4754 0000 1B5B303B 		.ascii	"\033[0;31mERROR: -> Reach max tx frame without dl, "
 4754      33316D45 
 4754      52524F52 
 4754      3A202D3E 
 4754      20526561 
 4755 0030 756C2063 		.ascii	"ul cnt:%d\012\000"
 4755      6E743A25 
 4755      640A00
 4756              	.LC213:
 4757 003b 1B5B303B 		.ascii	"\033[0;31mERROR: ->  Data Rate incompatible with ch"
 4757      33316D45 
 4757      52524F52 
 4757      3A202D3E 
 4757      20204461 
 4758 006b 616E6E65 		.ascii	"annel mask\012\000"
 4758      6C206D61 
 4758      736B0A00 
 4759              		.section	.text.lr1_stack_mac_update,"ax",%progbits
 4760              		.align	1
 4761              		.global	lr1_stack_mac_update
 4762              		.syntax unified
 4763              		.code	16
 4764              		.thumb_func
 4765              		.fpu softvfp
 4767              	lr1_stack_mac_update:
 4768              		@ args = 0, pretend = 0, frame = 8
 4769              		@ frame_needed = 0, uses_anonymous_args = 0
 4770 0000 F7B5     		push	{r0, r1, r2, r4, r5, r6, r7, lr}
 4771 0002 954B     		ldr	r3, .L458
 4772 0004 954E     		ldr	r6, .L458+4
 4773 0006 C35A     		ldrh	r3, [r0, r3]
 4774 0008 0022     		movs	r2, #0
 4775 000a 5BBA     		rev16	r3, r3
 4776 000c 8353     		strh	r3, [r0, r6]
 4777 000e A223     		movs	r3, #162
 4778 0010 DB00     		lsls	r3, r3, #3
 4779 0012 C254     		strb	r2, [r0, r3]
 4780 0014 924B     		ldr	r3, .L458+8
 4781 0016 0400     		movs	r4, r0
 4782 0018 C35C     		ldrb	r3, [r0, r3]
 4783 001a 012B     		cmp	r3, #1
ARM GAS  /tmp/ccSzR2eS.s 			page 90


 4784 001c 1BD1     		bne	.L427
 4785 001e FFF7FEFF 		bl	smtc_modem_hal_get_time_in_s
 4786 0022 9522     		movs	r2, #149
 4787 0024 D200     		lsls	r2, r2, #3
 4788 0026 A358     		ldr	r3, [r4, r2]
 4789 0028 0500     		movs	r5, r0
 4790 002a 0133     		adds	r3, r3, #1
 4791 002c A350     		str	r3, [r4, r2]
 4792 002e E122     		movs	r2, #225
 4793 0030 8C4B     		ldr	r3, .L458+12
 4794 0032 1201     		lsls	r2, r2, #4
 4795 0034 E358     		ldr	r3, [r4, r3]
 4796 0036 8C4F     		ldr	r7, .L458+16
 4797 0038 9A18     		adds	r2, r3, r2
 4798 003a 8242     		cmp	r2, r0
 4799 003c 00D8     		bhi	.LCB4966
 4800 003e E8E0     		b	.L428	@long jump
 4801              	.LCB4966:
 4802 0040 2000     		movs	r0, r4
 4803 0042 FFF7FEFF 		bl	lr1_stack_toa_get
 4804 0046 0A21     		movs	r1, #10
 4805 0048 FFF7FEFF 		bl	__aeabi_uidiv
 4806              	.L457:
 4807 004c 4519     		adds	r5, r0, r5
 4808              	.L456:
 4809 004e 0023     		movs	r3, #0
 4810 0050 834A     		ldr	r2, .L458+8
 4811 0052 E551     		str	r5, [r4, r7]
 4812 0054 A354     		strb	r3, [r4, r2]
 4813              	.L427:
 4814 0056 9120     		movs	r0, #145
 4815 0058 0025     		movs	r5, #0
 4816 005a C000     		lsls	r0, r0, #3
 4817 005c 2258     		ldr	r2, [r4, r0]
 4818 005e A15D     		ldrb	r1, [r4, r6]
 4819 0060 D317     		asrs	r3, r2, #31
 4820 0062 8A42     		cmp	r2, r1
 4821 0064 6B41     		adcs	r3, r3, r5
 4822 0066 9225     		movs	r5, #146
 4823 0068 ED00     		lsls	r5, r5, #3
 4824 006a 6355     		strb	r3, [r4, r5]
 4825 006c 2500     		movs	r5, r4
 4826 006e 5235     		adds	r5, r5, #82
 4827 0070 2B78     		ldrb	r3, [r5]
 4828 0072 012B     		cmp	r3, #1
 4829 0074 00D9     		bls	.LCB4997
 4830 0076 DAE0     		b	.L431	@long jump
 4831              	.LCB4997:
 4832 0078 636E     		ldr	r3, [r4, #100]
 4833 007a 0132     		adds	r2, r2, #1
 4834 007c 0133     		adds	r3, r3, #1
 4835 007e 6366     		str	r3, [r4, #100]
 4836 0080 0123     		movs	r3, #1
 4837 0082 2250     		str	r2, [r4, r0]
 4838              	.L432:
 4839 0084 9127     		movs	r7, #145
 4840 0086 2B70     		strb	r3, [r5]
ARM GAS  /tmp/ccSzR2eS.s 			page 91


 4841 0088 784B     		ldr	r3, .L458+20
 4842 008a FF00     		lsls	r7, r7, #3
 4843 008c E35C     		ldrb	r3, [r4, r3]
 4844 008e 5918     		adds	r1, r3, r1
 4845 0090 E359     		ldr	r3, [r4, r7]
 4846 0092 8B42     		cmp	r3, r1
 4847 0094 18DB     		blt	.L434
 4848 0096 A223     		movs	r3, #162
 4849 0098 DB00     		lsls	r3, r3, #3
 4850 009a E35C     		ldrb	r3, [r4, r3]
 4851 009c 2000     		movs	r0, r4
 4852 009e 032B     		cmp	r3, #3
 4853 00a0 0ED1     		bne	.L435
 4854 00a2 FFF7FEFF 		bl	smtc_real_decrement_dr_simulation
 4855 00a6 2300     		movs	r3, r4
 4856 00a8 2200     		movs	r2, r4
 4857 00aa 5B33     		adds	r3, r3, #91
 4858 00ac 7832     		adds	r2, r2, #120
 4859 00ae 0100     		movs	r1, r0
 4860 00b0 1B78     		ldrb	r3, [r3]
 4861 00b2 2000     		movs	r0, r4
 4862 00b4 1278     		ldrb	r2, [r2]
 4863 00b6 FFF7FEFF 		bl	smtc_real_is_payload_size_valid
 4864 00ba 0028     		cmp	r0, #0
 4865 00bc 04D1     		bne	.L434
 4866 00be 2000     		movs	r0, r4
 4867              	.L435:
 4868 00c0 FFF7FEFF 		bl	smtc_real_decrement_dr
 4869 00c4 A35D     		ldrb	r3, [r4, r6]
 4870 00c6 E351     		str	r3, [r4, r7]
 4871              	.L434:
 4872 00c8 9127     		movs	r7, #145
 4873 00ca 694B     		ldr	r3, .L458+24
 4874 00cc FF00     		lsls	r7, r7, #3
 4875 00ce E35A     		ldrh	r3, [r4, r3]
 4876 00d0 E259     		ldr	r2, [r4, r7]
 4877 00d2 9A42     		cmp	r2, r3
 4878 00d4 19DB     		blt	.L437
 4879 00d6 002B     		cmp	r3, #0
 4880 00d8 17D0     		beq	.L437
 4881 00da 664E     		ldr	r6, .L458+28
 4882 00dc 3000     		movs	r0, r6
 4883 00de FFF7FEFF 		bl	smtc_modem_hal_store_crashlog
 4884 00e2 0120     		movs	r0, #1
 4885 00e4 FFF7FEFF 		bl	smtc_modem_hal_set_crashlog_status
 4886 00e8 3100     		movs	r1, r6
 4887 00ea 6348     		ldr	r0, .L458+32
 4888 00ec FFF7FEFF 		bl	smtc_modem_hal_print_trace
 4889 00f0 624E     		ldr	r6, .L458+36
 4890 00f2 3000     		movs	r0, r6
 4891 00f4 FFF7FEFF 		bl	smtc_modem_hal_print_trace
 4892 00f8 E159     		ldr	r1, [r4, r7]
 4893 00fa 6148     		ldr	r0, .L458+40
 4894 00fc FFF7FEFF 		bl	smtc_modem_hal_print_trace
 4895 0100 3000     		movs	r0, r6
 4896 0102 FFF7FEFF 		bl	smtc_modem_hal_print_trace
 4897 0106 FFF7FEFF 		bl	smtc_modem_hal_reset_mcu
ARM GAS  /tmp/ccSzR2eS.s 			page 92


 4898              	.L437:
 4899 010a 7A26     		movs	r6, #122
 4900 010c ED23     		movs	r3, #237
 4901 010e FF36     		adds	r6, r6, #255
 4902 0110 5B00     		lsls	r3, r3, #1
 4903 0112 A25D     		ldrb	r2, [r4, r6]
 4904 0114 E35C     		ldrb	r3, [r4, r3]
 4905 0116 9A42     		cmp	r2, r3
 4906 0118 00D2     		bcs	.LCB5080
 4907 011a 8FE0     		b	.L438	@long jump
 4908              	.LCB5080:
 4909 011c 002A     		cmp	r2, #0
 4910 011e 00D1     		bne	.LCB5082
 4911 0120 8CE0     		b	.L438	@long jump
 4912              	.LCB5082:
 4913 0122 2100     		movs	r1, r4
 4914 0124 574B     		ldr	r3, .L458+44
 4915 0126 7B31     		adds	r1, r1, #123
 4916 0128 E254     		strb	r2, [r4, r3]
 4917 012a 574B     		ldr	r3, .L458+48
 4918 012c 92B2     		uxth	r2, r2
 4919 012e E018     		adds	r0, r4, r3
 4920 0130 FF31     		adds	r1, r1, #255
 4921 0132 FFF7FEFF 		bl	memcpy1
 4922 0136 A223     		movs	r3, #162
 4923 0138 0122     		movs	r2, #1
 4924 013a DB00     		lsls	r3, r3, #3
 4925 013c E254     		strb	r2, [r4, r3]
 4926 013e 2300     		movs	r3, r4
 4927 0140 5133     		adds	r3, r3, #81
 4928 0142 1B78     		ldrb	r3, [r3]
 4929 0144 2B70     		strb	r3, [r5]
 4930              	.L439:
 4931 0146 0023     		movs	r3, #0
 4932 0148 A355     		strb	r3, [r4, r6]
 4933 014a 454B     		ldr	r3, .L458+8
 4934 014c E35C     		ldrb	r3, [r4, r3]
 4935 014e 022B     		cmp	r3, #2
 4936 0150 20D1     		bne	.L441
 4937 0152 A223     		movs	r3, #162
 4938 0154 DB00     		lsls	r3, r3, #3
 4939 0156 E35C     		ldrb	r3, [r4, r3]
 4940 0158 032B     		cmp	r3, #3
 4941 015a 59D0     		beq	.L426
 4942 015c 2000     		movs	r0, r4
 4943 015e FFF7FEFF 		bl	smtc_real_get_next_dr
 4944 0162 431C     		adds	r3, r0, #1
 4945 0164 16D1     		bne	.L441
 4946 0166 434D     		ldr	r5, .L458+28
 4947 0168 2800     		movs	r0, r5
 4948 016a FFF7FEFF 		bl	smtc_modem_hal_store_crashlog
 4949 016e 0120     		movs	r0, #1
 4950 0170 FFF7FEFF 		bl	smtc_modem_hal_set_crashlog_status
 4951 0174 2900     		movs	r1, r5
 4952 0176 4048     		ldr	r0, .L458+32
 4953 0178 FFF7FEFF 		bl	smtc_modem_hal_print_trace
 4954 017c 3F4D     		ldr	r5, .L458+36
ARM GAS  /tmp/ccSzR2eS.s 			page 93


 4955 017e 2800     		movs	r0, r5
 4956 0180 FFF7FEFF 		bl	smtc_modem_hal_print_trace
 4957 0184 4148     		ldr	r0, .L458+52
 4958 0186 FFF7FEFF 		bl	smtc_modem_hal_print_trace
 4959 018a 2800     		movs	r0, r5
 4960 018c FFF7FEFF 		bl	smtc_modem_hal_print_trace
 4961 0190 FFF7FEFF 		bl	smtc_modem_hal_reset_mcu
 4962              	.L441:
 4963 0194 A223     		movs	r3, #162
 4964 0196 DB00     		lsls	r3, r3, #3
 4965 0198 E35C     		ldrb	r3, [r4, r3]
 4966 019a 012B     		cmp	r3, #1
 4967 019c 38D1     		bne	.L426
 4968 019e 2300     		movs	r3, r4
 4969 01a0 2700     		movs	r7, r4
 4970 01a2 5B33     		adds	r3, r3, #91
 4971 01a4 374D     		ldr	r5, .L458+44
 4972 01a6 0093     		str	r3, [sp]
 4973 01a8 4E37     		adds	r7, r7, #78
 4974 01aa 1B78     		ldrb	r3, [r3]
 4975 01ac 2000     		movs	r0, r4
 4976 01ae 625D     		ldrb	r2, [r4, r5]
 4977 01b0 3978     		ldrb	r1, [r7]
 4978 01b2 FFF7FEFF 		bl	smtc_real_is_payload_size_valid
 4979 01b6 344B     		ldr	r3, .L458+48
 4980 01b8 E618     		adds	r6, r4, r3
 4981 01ba 0028     		cmp	r0, #0
 4982 01bc 0FD0     		beq	.L446
 4983 01be 635D     		ldrb	r3, [r4, r5]
 4984 01c0 2000     		movs	r0, r4
 4985 01c2 0193     		str	r3, [sp, #4]
 4986 01c4 009B     		ldr	r3, [sp]
 4987 01c6 3978     		ldrb	r1, [r7]
 4988 01c8 1A78     		ldrb	r2, [r3]
 4989 01ca FFF7FEFF 		bl	smtc_real_get_max_payload_size
 4990 01ce 0200     		movs	r2, r0
 4991 01d0 083A     		subs	r2, r2, #8
 4992 01d2 3000     		movs	r0, r6
 4993 01d4 0199     		ldr	r1, [sp, #4]
 4994 01d6 D2B2     		uxtb	r2, r2
 4995 01d8 FFF7FEFF 		bl	lr1_stack_mac_cmd_ans_cut
 4996 01dc 6055     		strb	r0, [r4, r5]
 4997              	.L446:
 4998 01de 2300     		movs	r3, r4
 4999 01e0 0122     		movs	r2, #1
 5000 01e2 2000     		movs	r0, r4
 5001 01e4 7233     		adds	r3, r3, #114
 5002 01e6 1A70     		strb	r2, [r3]
 5003 01e8 3100     		movs	r1, r6
 5004 01ea 625D     		ldrb	r2, [r4, r5]
 5005 01ec 8330     		adds	r0, r0, #131
 5006 01ee FFF7FEFF 		bl	memcpy1
 5007 01f2 2300     		movs	r3, r4
 5008 01f4 625D     		ldrb	r2, [r4, r5]
 5009 01f6 7833     		adds	r3, r3, #120
 5010 01f8 1A70     		strb	r2, [r3]
 5011 01fa 0022     		movs	r2, #0
ARM GAS  /tmp/ccSzR2eS.s 			page 94


 5012 01fc 073B     		subs	r3, r3, #7
 5013 01fe 1A70     		strb	r2, [r3]
 5014 0200 0232     		adds	r2, r2, #2
 5015 0202 2000     		movs	r0, r4
 5016 0204 9A70     		strb	r2, [r3, #2]
 5017 0206 FFF7FEFF 		bl	lr1_stack_mac_tx_frame_build
 5018 020a 2000     		movs	r0, r4
 5019 020c FFF7FEFF 		bl	lr1_stack_mac_tx_frame_encrypt
 5020              	.L426:
 5021              		@ sp needed
 5022 0210 F7BD     		pop	{r0, r1, r2, r4, r5, r6, r7, pc}
 5023              	.L428:
 5024 0212 1F4A     		ldr	r2, .L458+56
 5025 0214 2000     		movs	r0, r4
 5026 0216 9B18     		adds	r3, r3, r2
 5027 0218 AB42     		cmp	r3, r5
 5028 021a 02D9     		bls	.L430
 5029 021c FFF7FEFF 		bl	lr1_stack_toa_get
 5030 0220 14E7     		b	.L457
 5031              	.L430:
 5032 0222 FFF7FEFF 		bl	lr1_stack_toa_get
 5033 0226 0A23     		movs	r3, #10
 5034 0228 4343     		muls	r3, r0
 5035 022a 5D19     		adds	r5, r3, r5
 5036 022c 0FE7     		b	.L456
 5037              	.L431:
 5038 022e A222     		movs	r2, #162
 5039 0230 0320     		movs	r0, #3
 5040 0232 D200     		lsls	r2, r2, #3
 5041 0234 013B     		subs	r3, r3, #1
 5042 0236 A054     		strb	r0, [r4, r2]
 5043 0238 DBB2     		uxtb	r3, r3
 5044 023a 23E7     		b	.L432
 5045              	.L438:
 5046 023c 2100     		movs	r1, r4
 5047 023e 2000     		movs	r0, r4
 5048 0240 F522     		movs	r2, #245
 5049 0242 DC31     		adds	r1, r1, #220
 5050 0244 5200     		lsls	r2, r2, #1
 5051 0246 EC30     		adds	r0, r0, #236
 5052 0248 A354     		strb	r3, [r4, r2]
 5053 024a FF31     		adds	r1, r1, #255
 5054 024c 9AB2     		uxth	r2, r3
 5055 024e FF30     		adds	r0, r0, #255
 5056 0250 FFF7FEFF 		bl	memcpy1
 5057 0254 77E7     		b	.L439
 5058              	.L459:
 5059 0256 C046     		.align	2
 5060              	.L458:
 5061 0258 8C040000 		.word	1164
 5062 025c 8E040000 		.word	1166
 5063 0260 CE040000 		.word	1230
 5064 0264 AC040000 		.word	1196
 5065 0268 A4040000 		.word	1188
 5066 026c 8F040000 		.word	1167
 5067 0270 9C040000 		.word	1180
 5068 0274 00000000 		.word	.LANCHOR15
ARM GAS  /tmp/ccSzR2eS.s 			page 95


 5069 0278 00000000 		.word	.LC6
 5070 027c 1D000000 		.word	.LC8
 5071 0280 00000000 		.word	.LC211
 5072 0284 87040000 		.word	1159
 5073 0288 27040000 		.word	1063
 5074 028c 3B000000 		.word	.LC213
 5075 0290 B09A0000 		.word	39600
 5077              		.section	.text.lr1_stack_nb_trans_get,"ax",%progbits
 5078              		.align	1
 5079              		.global	lr1_stack_nb_trans_get
 5080              		.syntax unified
 5081              		.code	16
 5082              		.thumb_func
 5083              		.fpu softvfp
 5085              	lr1_stack_nb_trans_get:
 5086              		@ args = 0, pretend = 0, frame = 0
 5087              		@ frame_needed = 0, uses_anonymous_args = 0
 5088              		@ link register save eliminated.
 5089 0000 5130     		adds	r0, r0, #81
 5090 0002 0078     		ldrb	r0, [r0]
 5091              		@ sp needed
 5092 0004 7047     		bx	lr
 5094              		.section	.text.lr1_stack_nb_trans_set,"ax",%progbits
 5095              		.align	1
 5096              		.global	lr1_stack_nb_trans_set
 5097              		.syntax unified
 5098              		.code	16
 5099              		.thumb_func
 5100              		.fpu softvfp
 5102              	lr1_stack_nb_trans_set:
 5103              		@ args = 0, pretend = 0, frame = 0
 5104              		@ frame_needed = 0, uses_anonymous_args = 0
 5105              		@ link register save eliminated.
 5106 0000 064B     		ldr	r3, .L465
 5107 0002 C35C     		ldrb	r3, [r0, r3]
 5108 0004 002B     		cmp	r3, #0
 5109 0006 06D0     		beq	.L464
 5110 0008 4B1E     		subs	r3, r1, #1
 5111 000a 0E2B     		cmp	r3, #14
 5112 000c 03D8     		bhi	.L464
 5113 000e 5130     		adds	r0, r0, #81
 5114 0010 0170     		strb	r1, [r0]
 5115 0012 0020     		movs	r0, #0
 5116              	.L462:
 5117              		@ sp needed
 5118 0014 7047     		bx	lr
 5119              	.L464:
 5120 0016 0120     		movs	r0, #1
 5121 0018 4042     		rsbs	r0, r0, #0
 5122 001a FBE7     		b	.L462
 5123              	.L466:
 5124              		.align	2
 5125              	.L465:
 5126 001c 92040000 		.word	1170
 5128              		.section	.text.lr1_stack_get_crystal_error,"ax",%progbits
 5129              		.align	1
 5130              		.global	lr1_stack_get_crystal_error
ARM GAS  /tmp/ccSzR2eS.s 			page 96


 5131              		.syntax unified
 5132              		.code	16
 5133              		.thumb_func
 5134              		.fpu softvfp
 5136              	lr1_stack_get_crystal_error:
 5137              		@ args = 0, pretend = 0, frame = 0
 5138              		@ frame_needed = 0, uses_anonymous_args = 0
 5139              		@ link register save eliminated.
 5140 0000 014B     		ldr	r3, .L468
 5141              		@ sp needed
 5142 0002 C058     		ldr	r0, [r0, r3]
 5143 0004 7047     		bx	lr
 5144              	.L469:
 5145 0006 C046     		.align	2
 5146              	.L468:
 5147 0008 1C050000 		.word	1308
 5149              		.section	.text.lr1_stack_set_crystal_error,"ax",%progbits
 5150              		.align	1
 5151              		.global	lr1_stack_set_crystal_error
 5152              		.syntax unified
 5153              		.code	16
 5154              		.thumb_func
 5155              		.fpu softvfp
 5157              	lr1_stack_set_crystal_error:
 5158              		@ args = 0, pretend = 0, frame = 0
 5159              		@ frame_needed = 0, uses_anonymous_args = 0
 5160              		@ link register save eliminated.
 5161 0000 014B     		ldr	r3, .L471
 5162              		@ sp needed
 5163 0002 C150     		str	r1, [r0, r3]
 5164 0004 7047     		bx	lr
 5165              	.L472:
 5166 0006 C046     		.align	2
 5167              	.L471:
 5168 0008 1C050000 		.word	1308
 5170              		.section	.rodata.lr1mac_rx_payload_max_size_check.str1.1,"aMS",%progbits,1
 5171              	.LC215:
 5172 0000 73697A65 		.ascii	"size (%d)> size_max (%d)\000"
 5172      20282564 
 5172      293E2073 
 5172      697A655F 
 5172      6D617820 
 5173              		.section	.text.lr1mac_rx_payload_max_size_check,"ax",%progbits
 5174              		.align	1
 5175              		.global	lr1mac_rx_payload_max_size_check
 5176              		.syntax unified
 5177              		.code	16
 5178              		.thumb_func
 5179              		.fpu softvfp
 5181              	lr1mac_rx_payload_max_size_check:
 5182              		@ args = 0, pretend = 0, frame = 0
 5183              		@ frame_needed = 0, uses_anonymous_args = 0
 5184 0000 0300     		movs	r3, r0
 5185 0002 10B5     		push	{r4, lr}
 5186 0004 5C33     		adds	r3, r3, #92
 5187 0006 0C00     		movs	r4, r1
 5188 0008 1100     		movs	r1, r2
ARM GAS  /tmp/ccSzR2eS.s 			page 97


 5189 000a 1A78     		ldrb	r2, [r3]
 5190 000c FFF7FEFF 		bl	smtc_real_get_max_payload_size
 5191 0010 0530     		adds	r0, r0, #5
 5192 0012 C2B2     		uxtb	r2, r0
 5193 0014 0020     		movs	r0, #0
 5194 0016 A242     		cmp	r2, r4
 5195 0018 05D2     		bcs	.L474
 5196 001a 0348     		ldr	r0, .L476
 5197 001c 2100     		movs	r1, r4
 5198 001e FFF7FEFF 		bl	smtc_modem_hal_print_trace
 5199 0022 0120     		movs	r0, #1
 5200 0024 4042     		rsbs	r0, r0, #0
 5201              	.L474:
 5202              		@ sp needed
 5203 0026 10BD     		pop	{r4, pc}
 5204              	.L477:
 5205              		.align	2
 5206              	.L476:
 5207 0028 00000000 		.word	.LC215
 5209              		.section	.rodata.lr1_stack_mac_rx_frame_decode.str1.1,"aMS",%progbits,1
 5210              	.LC217:
 5211 0000 1B5B303B 		.ascii	"\033[0;31mERROR:  Process join accept failed with c"
 5211      33316D45 
 5211      52524F52 
 5211      3A202050 
 5211      726F6365 
 5212 0030 6F646520 		.ascii	"ode = %d\012\000"
 5212      3D202564 
 5212      0A00
 5213              	.LC222:
 5214 003a 1B5B303B 		.ascii	"\033[0;31mERROR: -> Rx Window invalid\012\000"
 5214      33316D45 
 5214      52524F52 
 5214      3A202D3E 
 5214      20527820 
 5215              	.LC224:
 5216 005e 1B5B303B 		.ascii	"\033[0;31mERROR: -> Crypto error during payload dec"
 5216      33316D45 
 5216      52524F52 
 5216      3A202D3E 
 5216      20437279 
 5217 008e 72797074 		.ascii	"ryption\012\000"
 5217      696F6E0A 
 5217      00
 5218              	.LC226:
 5219 0097 1B5B303B 		.ascii	"\033[0;33mWARN:  Receive too many nwk frames\012\000"
 5219      33336D57 
 5219      41524E3A 
 5219      20205265 
 5219      63656976 
 5220              	.LC228:
 5221 00c2 1B5B303B 		.ascii	"\033[0;33mWARN:  Receive an not valid packet with F"
 5221      33336D57 
 5221      41524E3A 
 5221      20205265 
 5221      63656976 
 5222 00f2 4F707473 		.ascii	"Opts bytes on port zero\012\000"
ARM GAS  /tmp/ccSzR2eS.s 			page 98


 5222      20627974 
 5222      6573206F 
 5222      6E20706F 
 5222      7274207A 
 5223              	.LC230:
 5224 010b 2072785F 		.ascii	" rx_packet_type = %d\012\000"
 5224      7061636B 
 5224      65745F74 
 5224      79706520 
 5224      3D202564 
 5225              		.section	.text.lr1_stack_mac_rx_frame_decode,"ax",%progbits
 5226              		.align	1
 5227              		.global	lr1_stack_mac_rx_frame_decode
 5228              		.syntax unified
 5229              		.code	16
 5230              		.thumb_func
 5231              		.fpu softvfp
 5233              	lr1_stack_mac_rx_frame_decode:
 5234              		@ args = 0, pretend = 0, frame = 24
 5235              		@ frame_needed = 0, uses_anonymous_args = 0
 5236 0000 0023     		movs	r3, #0
 5237 0002 F0B5     		push	{r4, r5, r6, r7, lr}
 5238 0004 C44E     		ldr	r6, .L513
 5239 0006 8DB0     		sub	sp, sp, #52
 5240 0008 0B93     		str	r3, [sp, #44]
 5241 000a 0400     		movs	r4, r0
 5242 000c 805D     		ldrb	r0, [r0, r6]
 5243 000e FFF7FEFF 		bl	lr1mac_rx_payload_min_size_check
 5244 0012 9723     		movs	r3, #151
 5245 0014 DB00     		lsls	r3, r3, #3
 5246 0016 0500     		movs	r5, r0
 5247 0018 E25C     		ldrb	r2, [r4, r3]
 5248 001a 2000     		movs	r0, r4
 5249 001c A15D     		ldrb	r1, [r4, r6]
 5250 001e FFF7FEFF 		bl	lr1mac_rx_payload_max_size_check
 5251 0022 2D18     		adds	r5, r5, r0
 5252 0024 002D     		cmp	r5, #0
 5253 0026 03D0     		beq	.L479
 5254              	.L481:
 5255 0028 0026     		movs	r6, #0
 5256              	.L510:
 5257 002a 3000     		movs	r0, r6
 5258 002c 0DB0     		add	sp, sp, #52
 5259              		@ sp needed
 5260 002e F0BD     		pop	{r4, r5, r6, r7, pc}
 5261              	.L479:
 5262 0030 8423     		movs	r3, #132
 5263 0032 1B26     		movs	r6, #27
 5264 0034 9B00     		lsls	r3, r3, #2
 5265 0036 E718     		adds	r7, r4, r3
 5266 0038 02AB     		add	r3, sp, #8
 5267 003a F618     		adds	r6, r6, r3
 5268 003c 1D23     		movs	r3, #29
 5269 003e 02AA     		add	r2, sp, #8
 5270 0040 9B18     		adds	r3, r3, r2
 5271 0042 3100     		movs	r1, r6
 5272 0044 3800     		movs	r0, r7
ARM GAS  /tmp/ccSzR2eS.s 			page 99


 5273 0046 09AA     		add	r2, sp, #36
 5274 0048 FFF7FEFF 		bl	lr1mac_rx_mhdr_extract
 5275 004c 051E     		subs	r5, r0, #0
 5276 004e EBD1     		bne	.L481
 5277 0050 B14B     		ldr	r3, .L513
 5278 0052 E15C     		ldrb	r1, [r4, r3]
 5279 0054 3378     		ldrb	r3, [r6]
 5280 0056 012B     		cmp	r3, #1
 5281 0058 36D1     		bne	.L482
 5282 005a 89B2     		uxth	r1, r1
 5283 005c 3A00     		movs	r2, r7
 5284 005e 3800     		movs	r0, r7
 5285 0060 FFF7FEFF 		bl	smtc_modem_crypto_process_join_accept
 5286 0064 011E     		subs	r1, r0, #0
 5287 0066 28D1     		bne	.L483
 5288 0068 AB4A     		ldr	r2, .L513
 5289 006a 0435     		adds	r5, r5, #4
 5290 006c A35C     		ldrb	r3, [r4, r2]
 5291 006e 043B     		subs	r3, r3, #4
 5292 0070 A354     		strb	r3, [r4, r2]
 5293              	.L484:
 5294 0072 1B23     		movs	r3, #27
 5295 0074 02AA     		add	r2, sp, #8
 5296 0076 9B18     		adds	r3, r3, r2
 5297 0078 1A78     		ldrb	r2, [r3]
 5298 007a FD23     		movs	r3, #253
 5299 007c 5B00     		lsls	r3, r3, #1
 5300 007e E254     		strb	r2, [r4, r3]
 5301 0080 02AB     		add	r3, sp, #8
 5302 0082 1A7F     		ldrb	r2, [r3, #28]
 5303 0084 FC23     		movs	r3, #252
 5304 0086 FF33     		adds	r3, r3, #255
 5305 0088 E254     		strb	r2, [r4, r3]
 5306 008a 1D22     		movs	r2, #29
 5307 008c 2300     		movs	r3, r4
 5308 008e 02A9     		add	r1, sp, #8
 5309 0090 5218     		adds	r2, r2, r1
 5310 0092 1278     		ldrb	r2, [r2]
 5311 0094 7633     		adds	r3, r3, #118
 5312 0096 1A70     		strb	r2, [r3]
 5313 0098 0B9B     		ldr	r3, [sp, #44]
 5314 009a 9122     		movs	r2, #145
 5315 009c A366     		str	r3, [r4, #104]
 5316 009e 0023     		movs	r3, #0
 5317 00a0 D200     		lsls	r2, r2, #3
 5318 00a2 A350     		str	r3, [r4, r2]
 5319 00a4 1832     		adds	r2, r2, #24
 5320 00a6 A352     		strh	r3, [r4, r2]
 5321 00a8 9C4A     		ldr	r2, .L513+4
 5322 00aa 2E00     		movs	r6, r5
 5323 00ac A352     		strh	r3, [r4, r2]
 5324 00ae F522     		movs	r2, #245
 5325 00b0 5200     		lsls	r2, r2, #1
 5326 00b2 A354     		strb	r3, [r4, r2]
 5327 00b4 103A     		subs	r2, r2, #16
 5328 00b6 A354     		strb	r3, [r4, r2]
 5329 00b8 47E0     		b	.L487
ARM GAS  /tmp/ccSzR2eS.s 			page 100


 5330              	.L483:
 5331 00ba 9948     		ldr	r0, .L513+8
 5332 00bc FFF7FEFF 		bl	smtc_modem_hal_print_trace
 5333              	.L512:
 5334 00c0 9848     		ldr	r0, .L513+12
 5335 00c2 FFF7FEFF 		bl	smtc_modem_hal_print_trace
 5336 00c6 D4E7     		b	.L484
 5337              	.L482:
 5338 00c8 02AB     		add	r3, sp, #8
 5339 00ca D883     		strh	r0, [r3, #30]
 5340 00cc A36E     		ldr	r3, [r4, #104]
 5341 00ce 02AA     		add	r2, sp, #8
 5342 00d0 0B93     		str	r3, [sp, #44]
 5343 00d2 8023     		movs	r3, #128
 5344 00d4 9B00     		lsls	r3, r3, #2
 5345 00d6 E318     		adds	r3, r4, r3
 5346 00d8 0793     		str	r3, [sp, #28]
 5347 00da 0493     		str	r3, [sp, #16]
 5348 00dc 043B     		subs	r3, r3, #4
 5349 00de 0393     		str	r3, [sp, #12]
 5350 00e0 914B     		ldr	r3, .L513+16
 5351 00e2 3800     		movs	r0, r7
 5352 00e4 E318     		adds	r3, r4, r3
 5353 00e6 0293     		str	r3, [sp, #8]
 5354 00e8 9B23     		movs	r3, #155
 5355 00ea DB00     		lsls	r3, r3, #3
 5356 00ec E318     		adds	r3, r4, r3
 5357 00ee 0193     		str	r3, [sp, #4]
 5358 00f0 E36E     		ldr	r3, [r4, #108]
 5359 00f2 0093     		str	r3, [sp]
 5360 00f4 1E23     		movs	r3, #30
 5361 00f6 9B18     		adds	r3, r3, r2
 5362 00f8 8C4A     		ldr	r2, .L513+20
 5363 00fa A218     		adds	r2, r4, r2
 5364 00fc FFF7FEFF 		bl	lr1mac_rx_fhdr_extract
 5365 0100 0028     		cmp	r0, #0
 5366 0102 21D1     		bne	.L488
 5367 0104 02AB     		add	r3, sp, #8
 5368 0106 D88B     		ldrh	r0, [r3, #30]
 5369 0108 0BA9     		add	r1, sp, #44
 5370 010a FFF7FEFF 		bl	lr1mac_fcnt_dwn_accept
 5371 010e 0028     		cmp	r0, #0
 5372 0110 1AD1     		bne	.L488
 5373 0112 8423     		movs	r3, #132
 5374 0114 804D     		ldr	r5, .L513
 5375 0116 9B00     		lsls	r3, r3, #2
 5376 0118 615D     		ldrb	r1, [r4, r5]
 5377 011a 0422     		movs	r2, #4
 5378 011c 0439     		subs	r1, r1, #4
 5379 011e C9B2     		uxtb	r1, r1
 5380 0120 6155     		strb	r1, [r4, r5]
 5381 0122 C918     		adds	r1, r1, r3
 5382 0124 6118     		adds	r1, r4, r1
 5383 0126 0AA8     		add	r0, sp, #40
 5384 0128 FFF7FEFF 		bl	memcpy1
 5385 012c 615D     		ldrb	r1, [r4, r5]
 5386 012e 0125     		movs	r5, #1
ARM GAS  /tmp/ccSzR2eS.s 			page 101


 5387 0130 0A9B     		ldr	r3, [sp, #40]
 5388 0132 0622     		movs	r2, #6
 5389 0134 0293     		str	r3, [sp, #8]
 5390 0136 0B9B     		ldr	r3, [sp, #44]
 5391 0138 3800     		movs	r0, r7
 5392 013a 0193     		str	r3, [sp, #4]
 5393 013c 0095     		str	r5, [sp]
 5394 013e E36E     		ldr	r3, [r4, #108]
 5395 0140 FFF7FEFF 		bl	smtc_modem_crypto_verify_mic
 5396 0144 0028     		cmp	r0, #0
 5397 0146 7AD0     		beq	.L486
 5398              	.L488:
 5399 0148 0026     		movs	r6, #0
 5400              	.L487:
 5401 014a 3100     		movs	r1, r6
 5402 014c 7848     		ldr	r0, .L513+24
 5403 014e FFF7FEFF 		bl	smtc_modem_hal_print_trace
 5404 0152 6AE7     		b	.L510
 5405              	.L490:
 5406 0154 012B     		cmp	r3, #1
 5407 0156 02D1     		bne	.L492
 5408 0158 764B     		ldr	r3, .L513+28
 5409 015a 626D     		ldr	r2, [r4, #84]
 5410 015c 90E0     		b	.L511
 5411              	.L492:
 5412 015e 764D     		ldr	r5, .L513+32
 5413 0160 2800     		movs	r0, r5
 5414 0162 FFF7FEFF 		bl	smtc_modem_hal_store_crashlog
 5415 0166 3000     		movs	r0, r6
 5416 0168 FFF7FEFF 		bl	smtc_modem_hal_set_crashlog_status
 5417 016c 2900     		movs	r1, r5
 5418 016e 7348     		ldr	r0, .L513+36
 5419 0170 FFF7FEFF 		bl	smtc_modem_hal_print_trace
 5420 0174 6B4D     		ldr	r5, .L513+12
 5421 0176 2800     		movs	r0, r5
 5422 0178 FFF7FEFF 		bl	smtc_modem_hal_print_trace
 5423 017c 7048     		ldr	r0, .L513+40
 5424 017e FFF7FEFF 		bl	smtc_modem_hal_print_trace
 5425 0182 2800     		movs	r0, r5
 5426 0184 FFF7FEFF 		bl	smtc_modem_hal_print_trace
 5427 0188 FFF7FEFF 		bl	smtc_modem_hal_reset_mcu
 5428 018c 79E0     		b	.L491
 5429              	.L497:
 5430 018e 6D4A     		ldr	r2, .L513+44
 5431 0190 0325     		movs	r5, #3
 5432 0192 A354     		strb	r3, [r4, r2]
 5433 0194 6DE7     		b	.L484
 5434              	.L495:
 5435 0196 6C48     		ldr	r0, .L513+48
 5436 0198 FFF7FEFF 		bl	smtc_modem_hal_print_trace
 5437 019c 6148     		ldr	r0, .L513+12
 5438 019e FFF7FEFF 		bl	smtc_modem_hal_print_trace
 5439 01a2 D2E7     		b	.L487
 5440              	.L494:
 5441 01a4 0126     		movs	r6, #1
 5442 01a6 694B     		ldr	r3, .L513+52
 5443 01a8 0722     		movs	r2, #7
ARM GAS  /tmp/ccSzR2eS.s 			page 102


 5444 01aa E818     		adds	r0, r5, r3
 5445 01ac 0B9B     		ldr	r3, [sp, #44]
 5446 01ae 89B2     		uxth	r1, r1
 5447 01b0 0193     		str	r3, [sp, #4]
 5448 01b2 2018     		adds	r0, r4, r0
 5449 01b4 E36E     		ldr	r3, [r4, #108]
 5450 01b6 0297     		str	r7, [sp, #8]
 5451 01b8 0096     		str	r6, [sp]
 5452 01ba FFF7FEFF 		bl	smtc_modem_crypto_payload_decrypt
 5453 01be 0028     		cmp	r0, #0
 5454 01c0 16D0     		beq	.L498
 5455 01c2 5D4D     		ldr	r5, .L513+32
 5456 01c4 2800     		movs	r0, r5
 5457 01c6 FFF7FEFF 		bl	smtc_modem_hal_store_crashlog
 5458 01ca 3000     		movs	r0, r6
 5459 01cc FFF7FEFF 		bl	smtc_modem_hal_set_crashlog_status
 5460 01d0 2900     		movs	r1, r5
 5461 01d2 5A48     		ldr	r0, .L513+36
 5462 01d4 FFF7FEFF 		bl	smtc_modem_hal_print_trace
 5463 01d8 524D     		ldr	r5, .L513+12
 5464 01da 2800     		movs	r0, r5
 5465 01dc FFF7FEFF 		bl	smtc_modem_hal_print_trace
 5466 01e0 5B48     		ldr	r0, .L513+56
 5467 01e2 FFF7FEFF 		bl	smtc_modem_hal_print_trace
 5468 01e6 2800     		movs	r0, r5
 5469 01e8 FFF7FEFF 		bl	smtc_modem_hal_print_trace
 5470 01ec FFF7FEFF 		bl	smtc_modem_hal_reset_mcu
 5471              	.L498:
 5472 01f0 4E4B     		ldr	r3, .L513+20
 5473 01f2 0125     		movs	r5, #1
 5474 01f4 E25C     		ldrb	r2, [r4, r3]
 5475 01f6 002A     		cmp	r2, #0
 5476 01f8 0BD0     		beq	.L499
 5477 01fa 3633     		adds	r3, r3, #54
 5478 01fc FF33     		adds	r3, r3, #255
 5479 01fe 92B2     		uxth	r2, r2
 5480 0200 E018     		adds	r0, r4, r3
 5481 0202 0799     		ldr	r1, [sp, #28]
 5482 0204 FFF7FEFF 		bl	memcpy1
 5483 0208 484B     		ldr	r3, .L513+20
 5484 020a 6D19     		adds	r5, r5, r5
 5485 020c E25C     		ldrb	r2, [r4, r3]
 5486 020e 4D4B     		ldr	r3, .L513+44
 5487 0210 E254     		strb	r2, [r4, r3]
 5488              	.L499:
 5489 0212 C423     		movs	r3, #196
 5490 0214 0122     		movs	r2, #1
 5491 0216 9B00     		lsls	r3, r3, #2
 5492 0218 E254     		strb	r2, [r4, r3]
 5493 021a 2AE7     		b	.L484
 5494              	.L493:
 5495 021c 002D     		cmp	r5, #0
 5496 021e 01D1     		bne	.L500
 5497 0220 0135     		adds	r5, r5, #1
 5498 0222 26E7     		b	.L484
 5499              	.L500:
 5500 0224 CD23     		movs	r3, #205
ARM GAS  /tmp/ccSzR2eS.s 			page 103


 5501 0226 9B00     		lsls	r3, r3, #2
 5502 0228 AAB2     		uxth	r2, r5
 5503 022a E018     		adds	r0, r4, r3
 5504 022c 0799     		ldr	r1, [sp, #28]
 5505 022e FFF7FEFF 		bl	memcpy1
 5506 0232 3E4B     		ldr	r3, .L513+20
 5507 0234 0225     		movs	r5, #2
 5508 0236 E25C     		ldrb	r2, [r4, r3]
 5509 0238 424B     		ldr	r3, .L513+44
 5510 023a E254     		strb	r2, [r4, r3]
 5511 023c 19E7     		b	.L484
 5512              	.L486:
 5513 023e 2300     		movs	r3, r4
 5514 0240 5233     		adds	r3, r3, #82
 5515 0242 1D70     		strb	r5, [r3]
 5516 0244 FE23     		movs	r3, #254
 5517 0246 5B00     		lsls	r3, r3, #1
 5518 0248 E35C     		ldrb	r3, [r4, r3]
 5519 024a 5A09     		lsrs	r2, r3, #5
 5520 024c 2A42     		tst	r2, r5
 5521 024e 07D0     		beq	.L489
 5522 0250 2200     		movs	r2, r4
 5523 0252 7332     		adds	r2, r2, #115
 5524 0254 1278     		ldrb	r2, [r2]
 5525 0256 042A     		cmp	r2, #4
 5526 0258 02D1     		bne	.L489
 5527 025a FE22     		movs	r2, #254
 5528 025c FF32     		adds	r2, r2, #255
 5529 025e A554     		strb	r5, [r4, r2]
 5530              	.L489:
 5531 0260 0126     		movs	r6, #1
 5532 0262 FF22     		movs	r2, #255
 5533 0264 1B09     		lsrs	r3, r3, #4
 5534 0266 3340     		ands	r3, r6
 5535 0268 5200     		lsls	r2, r2, #1
 5536 026a A354     		strb	r3, [r4, r2]
 5537 026c 394A     		ldr	r2, .L513+60
 5538 026e A354     		strb	r3, [r4, r2]
 5539 0270 394B     		ldr	r3, .L513+64
 5540 0272 E35C     		ldrb	r3, [r4, r3]
 5541 0274 002B     		cmp	r3, #0
 5542 0276 00D0     		beq	.LCB5772
 5543 0278 6CE7     		b	.L490	@long jump
 5544              	.LCB5772:
 5545 027a 384B     		ldr	r3, .L513+68
 5546 027c E258     		ldr	r2, [r4, r3]
 5547 027e 2D4B     		ldr	r3, .L513+28
 5548              	.L511:
 5549 0280 E250     		str	r2, [r4, r3]
 5550              	.L491:
 5551 0282 9723     		movs	r3, #151
 5552 0284 DB00     		lsls	r3, r3, #3
 5553 0286 E25C     		ldrb	r2, [r4, r3]
 5554 0288 2833     		adds	r3, r3, #40
 5555 028a E254     		strb	r2, [r4, r3]
 5556 028c 274B     		ldr	r3, .L513+20
 5557 028e E55C     		ldrb	r5, [r4, r3]
ARM GAS  /tmp/ccSzR2eS.s 			page 104


 5558 0290 254B     		ldr	r3, .L513+16
 5559 0292 E35C     		ldrb	r3, [r4, r3]
 5560 0294 002B     		cmp	r3, #0
 5561 0296 C1D1     		bne	.L493
 5562 0298 1F4B     		ldr	r3, .L513
 5563 029a E15C     		ldrb	r1, [r4, r3]
 5564 029c 0939     		subs	r1, r1, #9
 5565 029e 491B     		subs	r1, r1, r5
 5566 02a0 C9B2     		uxtb	r1, r1
 5567 02a2 E154     		strb	r1, [r4, r3]
 5568 02a4 9B23     		movs	r3, #155
 5569 02a6 DB00     		lsls	r3, r3, #3
 5570 02a8 E65C     		ldrb	r6, [r4, r3]
 5571 02aa 002E     		cmp	r6, #0
 5572 02ac 00D0     		beq	.LCB5804
 5573 02ae 79E7     		b	.L494	@long jump
 5574              	.LCB5804:
 5575 02b0 002D     		cmp	r5, #0
 5576 02b2 00D0     		beq	.LCB5806
 5577 02b4 6FE7     		b	.L495	@long jump
 5578              	.LCB5806:
 5579 02b6 0127     		movs	r7, #1
 5580 02b8 A53B     		subs	r3, r3, #165
 5581 02ba FF3B     		subs	r3, r3, #255
 5582 02bc E318     		adds	r3, r4, r3
 5583 02be 2348     		ldr	r0, .L513+52
 5584 02c0 0293     		str	r3, [sp, #8]
 5585 02c2 0B9B     		ldr	r3, [sp, #44]
 5586 02c4 0622     		movs	r2, #6
 5587 02c6 0193     		str	r3, [sp, #4]
 5588 02c8 89B2     		uxth	r1, r1
 5589 02ca E36E     		ldr	r3, [r4, #108]
 5590 02cc 0097     		str	r7, [sp]
 5591 02ce 2018     		adds	r0, r4, r0
 5592 02d0 FFF7FEFF 		bl	smtc_modem_crypto_payload_decrypt
 5593 02d4 0028     		cmp	r0, #0
 5594 02d6 16D0     		beq	.L496
 5595 02d8 174E     		ldr	r6, .L513+32
 5596 02da 3000     		movs	r0, r6
 5597 02dc FFF7FEFF 		bl	smtc_modem_hal_store_crashlog
 5598 02e0 3800     		movs	r0, r7
 5599 02e2 FFF7FEFF 		bl	smtc_modem_hal_set_crashlog_status
 5600 02e6 3100     		movs	r1, r6
 5601 02e8 1448     		ldr	r0, .L513+36
 5602 02ea FFF7FEFF 		bl	smtc_modem_hal_print_trace
 5603 02ee 0D4E     		ldr	r6, .L513+12
 5604 02f0 3000     		movs	r0, r6
 5605 02f2 FFF7FEFF 		bl	smtc_modem_hal_print_trace
 5606 02f6 1648     		ldr	r0, .L513+56
 5607 02f8 FFF7FEFF 		bl	smtc_modem_hal_print_trace
 5608 02fc 3000     		movs	r0, r6
 5609 02fe FFF7FEFF 		bl	smtc_modem_hal_print_trace
 5610 0302 FFF7FEFF 		bl	smtc_modem_hal_reset_mcu
 5611              	.L496:
 5612 0306 044B     		ldr	r3, .L513
 5613 0308 E35C     		ldrb	r3, [r4, r3]
 5614 030a F22B     		cmp	r3, #242
ARM GAS  /tmp/ccSzR2eS.s 			page 105


 5615 030c 00D8     		bhi	.LCB5846
 5616 030e 3EE7     		b	.L497	@long jump
 5617              	.LCB5846:
 5618 0310 1348     		ldr	r0, .L513+72
 5619 0312 FFF7FEFF 		bl	smtc_modem_hal_print_trace
 5620 0316 D3E6     		b	.L512
 5621              	.L514:
 5622              		.align	2
 5623              	.L513:
 5624 0318 0F020000 		.word	527
 5625 031c 9E040000 		.word	1182
 5626 0320 00000000 		.word	.LC217
 5627 0324 1D000000 		.word	.LC8
 5628 0328 0F030000 		.word	783
 5629 032c FF010000 		.word	511
 5630 0330 0B010000 		.word	.LC230
 5631 0334 DC040000 		.word	1244
 5632 0338 00000000 		.word	.LANCHOR16
 5633 033c 00000000 		.word	.LC6
 5634 0340 3A000000 		.word	.LC222
 5635 0344 26040000 		.word	1062
 5636 0348 C2000000 		.word	.LC228
 5637 034c 19020000 		.word	537
 5638 0350 5E000000 		.word	.LC224
 5639 0354 DA040000 		.word	1242
 5640 0358 BA040000 		.word	1210
 5641 035c B4040000 		.word	1204
 5642 0360 97000000 		.word	.LC226
 5644              		.section	.rodata.str1.1,"aMS",%progbits,1
 5645              	.LC232:
 5646 0000 42573030 		.ascii	"BW007\000"
 5646      3700
 5647              	.LC233:
 5648 0006 42573031 		.ascii	"BW010\000"
 5648      3000
 5649              	.LC234:
 5650 000c 42573031 		.ascii	"BW015\000"
 5650      3500
 5651              	.LC235:
 5652 0012 42573032 		.ascii	"BW020\000"
 5652      3000
 5653              	.LC236:
 5654 0018 42573033 		.ascii	"BW031\000"
 5654      3100
 5655              	.LC237:
 5656 001e 42573034 		.ascii	"BW041\000"
 5656      3100
 5657              	.LC238:
 5658 0024 42573036 		.ascii	"BW062\000"
 5658      3200
 5659              	.LC239:
 5660 002a 42573132 		.ascii	"BW125\000"
 5660      3500
 5661              	.LC240:
 5662 0030 42573230 		.ascii	"BW200\000"
 5662      3000
 5663              	.LC241:
ARM GAS  /tmp/ccSzR2eS.s 			page 106


 5664 0036 42573235 		.ascii	"BW250\000"
 5664      3000
 5665              	.LC242:
 5666 003c 42573430 		.ascii	"BW400\000"
 5666      3000
 5667              	.LC243:
 5668 0042 42573530 		.ascii	"BW500\000"
 5668      3000
 5669              	.LC244:
 5670 0048 42573830 		.ascii	"BW800\000"
 5670      3000
 5671              	.LC245:
 5672 004e 42573136 		.ascii	"BW1600\000"
 5672      303000
 5673              	.LC246:
 5674 0055 52583100 		.ascii	"RX1\000"
 5675              	.LC247:
 5676 0059 52583200 		.ascii	"RX2\000"
 5677              		.section	.rodata.__func__.0,"a"
 5678              		.set	.LANCHOR14,. + 0
 5681              	__func__.0:
 5682 0000 6C72315F 		.ascii	"lr1_stack_toa_get\000"
 5682      73746163 
 5682      6B5F746F 
 5682      615F6765 
 5682      7400
 5683              		.section	.rodata.__func__.1,"a"
 5684              		.set	.LANCHOR13,. + 0
 5687              	__func__.1:
 5688 0000 6C72315F 		.ascii	"lr1_stack_mac_join_request_build\000"
 5688      73746163 
 5688      6B5F6D61 
 5688      635F6A6F 
 5688      696E5F72 
 5689              		.section	.rodata.__func__.10,"a"
 5690              		.set	.LANCHOR3,. + 0
 5693              	__func__.10:
 5694 0000 6C72315F 		.ascii	"lr1_stack_mac_tx_lr_fhss_launch_callback_for_rp\000"
 5694      73746163 
 5694      6B5F6D61 
 5694      635F7478 
 5694      5F6C725F 
 5695              		.section	.rodata.__func__.11,"a"
 5696              		.set	.LANCHOR4,. + 0
 5699              	__func__.11:
 5700 0000 6C72315F 		.ascii	"lr1_stack_mac_tx_gfsk_launch_callback_for_rp\000"
 5700      73746163 
 5700      6B5F6D61 
 5700      635F7478 
 5700      5F676673 
 5701              		.section	.rodata.__func__.12,"a"
 5702              		.set	.LANCHOR0,. + 0
 5705              	__func__.12:
 5706 0000 6C72315F 		.ascii	"lr1_stack_mac_tx_lora_launch_callback_for_rp\000"
 5706      73746163 
 5706      6B5F6D61 
 5706      635F7478 
ARM GAS  /tmp/ccSzR2eS.s 			page 107


 5706      5F6C6F72 
 5707              		.section	.rodata.__func__.13,"a"
 5708              		.set	.LANCHOR5,. + 0
 5711              	__func__.13:
 5712 0000 6C72315F 		.ascii	"lr1_stack_mac_tx_frame_encrypt\000"
 5712      73746163 
 5712      6B5F6D61 
 5712      635F7478 
 5712      5F667261 
 5713              		.section	.rodata.__func__.2,"a"
 5714              		.set	.LANCHOR15,. + 0
 5717              	__func__.2:
 5718 0000 6C72315F 		.ascii	"lr1_stack_mac_update\000"
 5718      73746163 
 5718      6B5F6D61 
 5718      635F7570 
 5718      64617465 
 5719              		.section	.rodata.__func__.3,"a"
 5720              		.set	.LANCHOR16,. + 0
 5723              	__func__.3:
 5724 0000 6C72315F 		.ascii	"lr1_stack_mac_rx_frame_decode\000"
 5724      73746163 
 5724      6B5F6D61 
 5724      635F7278 
 5724      5F667261 
 5725              		.section	.rodata.__func__.4,"a"
 5726              		.set	.LANCHOR11,. + 0
 5729              	__func__.4:
 5730 0000 6C72315F 		.ascii	"lr1_stack_mac_rx_timer_configure\000"
 5730      73746163 
 5730      6B5F6D61 
 5730      635F7278 
 5730      5F74696D 
 5731              		.section	.rodata.__func__.5,"a"
 5732              		.set	.LANCHOR10,. + 0
 5735              	__func__.5:
 5736 0000 6C72315F 		.ascii	"lr1_stack_mac_rp_callback\000"
 5736      73746163 
 5736      6B5F6D61 
 5736      635F7270 
 5736      5F63616C 
 5737              		.section	.rodata.__func__.6,"a"
 5738              		.set	.LANCHOR7,. + 0
 5741              	__func__.6:
 5742 0000 6C72315F 		.ascii	"lr1_stack_mac_rx_radio_start\000"
 5742      73746163 
 5742      6B5F6D61 
 5742      635F7278 
 5742      5F726164 
 5743              		.section	.rodata.__func__.7,"a"
 5744              		.set	.LANCHOR6,. + 0
 5747              	__func__.7:
 5748 0000 6C72315F 		.ascii	"lr1_stack_mac_tx_radio_start\000"
 5748      73746163 
 5748      6B5F6D61 
 5748      635F7478 
 5748      5F726164 
ARM GAS  /tmp/ccSzR2eS.s 			page 108


 5749              		.section	.rodata.__func__.8,"a"
 5750              		.set	.LANCHOR2,. + 0
 5753              	__func__.8:
 5754 0000 6C72315F 		.ascii	"lr1_stack_mac_rx_gfsk_launch_callback_for_rp\000"
 5754      73746163 
 5754      6B5F6D61 
 5754      635F7278 
 5754      5F676673 
 5755              		.section	.rodata.__func__.9,"a"
 5756              		.set	.LANCHOR1,. + 0
 5759              	__func__.9:
 5760 0000 6C72315F 		.ascii	"lr1_stack_mac_rx_lora_launch_callback_for_rp\000"
 5760      73746163 
 5760      6B5F6D61 
 5760      635F7278 
 5760      5F6C6F72 
 5761              		.section	.rodata.smtc_name_bw,"a"
 5762              		.align	2
 5763              		.set	.LANCHOR9,. + 0
 5766              	smtc_name_bw:
 5767 0000 00000000 		.word	.LC232
 5768 0004 06000000 		.word	.LC233
 5769 0008 0C000000 		.word	.LC234
 5770 000c 12000000 		.word	.LC235
 5771 0010 18000000 		.word	.LC236
 5772 0014 1E000000 		.word	.LC237
 5773 0018 24000000 		.word	.LC238
 5774 001c 2A000000 		.word	.LC239
 5775 0020 30000000 		.word	.LC240
 5776 0024 36000000 		.word	.LC241
 5777 0028 3C000000 		.word	.LC242
 5778 002c 42000000 		.word	.LC243
 5779 0030 48000000 		.word	.LC244
 5780 0034 4E000000 		.word	.LC245
 5781              		.section	.rodata.smtc_name_rx_windows,"a"
 5782              		.align	2
 5783              		.set	.LANCHOR8,. + 0
 5786              	smtc_name_rx_windows:
 5787 0000 55000000 		.word	.LC246
 5788 0004 59000000 		.word	.LC247
 5789              		.section	.rodata.smtc_real_max_eirp_dbm_from_idx,"a"
 5790              		.align	2
 5791              		.set	.LANCHOR12,. + 0
 5794              	smtc_real_max_eirp_dbm_from_idx:
 5795 0000 080A0C0D 		.ascii	"\010\012\014\015\016\020\022\024\025\030\032\033\035"
 5795      0E101214 
 5795      15181A1B 
 5795      1D
 5796 000d 1E2124   		.ascii	"\036!$"
 5797              		.ident	"GCC: (15:10.3-2021.07-4) 10.3.1 20210621 (release)"
ARM GAS  /tmp/ccSzR2eS.s 			page 109

