ARM GAS  /tmp/ccqGV7VH.s 			page 1


   1              		.cpu cortex-m0
   2              		.eabi_attribute 23, 1
   3              		.eabi_attribute 24, 1
   4              		.eabi_attribute 25, 1
   5              		.eabi_attribute 26, 1
   6              		.eabi_attribute 30, 4
   7              		.eabi_attribute 34, 0
   8              		.eabi_attribute 18, 4
   9              		.file	"lr1mac_core.c"
  10              		.text
  11              		.section	.rodata.lr1mac_core_join.str1.1,"aMS",%progbits,1
  12              	.LC1:
  13 0000 1B5B303B 		.ascii	"\033[0;31mERROR: LP STATE NOT EQUAL TO IDLE\015\012"
  13      33316D45 
  13      52524F52 
  13      3A204C50 
  13      20535441 
  14 002a 00       		.ascii	"\000"
  15              	.LC3:
  16 002b 1B5B306D 		.ascii	"\033[0m\000"
  16      00
  17              	.LC5:
  18 0030 1B5B303B 		.ascii	"\033[0;31mERROR: ABP DEVICE CAN'T PROCCED A JOIN RE"
  18      33316D45 
  18      52524F52 
  18      3A204142 
  18      50204445 
  19 0060 51554553 		.ascii	"QUEST\015\012\000"
  19      540D0A00 
  20              		.section	.text.lr1mac_core_join,"ax",%progbits
  21              		.align	1
  22              		.global	lr1mac_core_join
  23              		.arch armv6s-m
  24              		.syntax unified
  25              		.code	16
  26              		.thumb_func
  27              		.fpu softvfp
  29              	lr1mac_core_join:
  30              		@ args = 0, pretend = 0, frame = 0
  31              		@ frame_needed = 0, uses_anonymous_args = 0
  32 0000 F8B5     		push	{r3, r4, r5, r6, r7, lr}
  33 0002 2C4F     		ldr	r7, .L10
  34 0004 0400     		movs	r4, r0
  35 0006 C35D     		ldrb	r3, [r0, r7]
  36 0008 0D00     		movs	r5, r1
  37 000a 2B48     		ldr	r0, .L10+4
  38 000c 002B     		cmp	r3, #0
  39 000e 05D1     		bne	.L9
  40 0010 2300     		movs	r3, r4
  41 0012 7033     		adds	r3, r3, #112
  42 0014 1B78     		ldrb	r3, [r3]
  43 0016 012B     		cmp	r3, #1
  44 0018 08D1     		bne	.L4
  45 001a 2848     		ldr	r0, .L10+8
  46              	.L9:
  47 001c FFF7FEFF 		bl	smtc_modem_hal_print_trace
  48 0020 2748     		ldr	r0, .L10+12
ARM GAS  /tmp/ccqGV7VH.s 			page 2


  49 0022 FFF7FEFF 		bl	smtc_modem_hal_print_trace
  50              	.L8:
  51 0026 0125     		movs	r5, #1
  52 0028 6D42     		rsbs	r5, r5, #0
  53 002a 40E0     		b	.L3
  54              	.L4:
  55 002c FFF7FEFF 		bl	smtc_modem_hal_get_time_in_s
  56 0030 0122     		movs	r2, #1
  57 0032 244B     		ldr	r3, .L10+16
  58 0034 0600     		movs	r6, r0
  59 0036 E050     		str	r0, [r4, r3]
  60 0038 234B     		ldr	r3, .L10+20
  61 003a 2000     		movs	r0, r4
  62 003c E550     		str	r5, [r4, r3]
  63 003e 234B     		ldr	r3, .L10+24
  64 0040 234D     		ldr	r5, .L10+28
  65 0042 E254     		strb	r2, [r4, r3]
  66 0044 FFF7FEFF 		bl	smtc_real_init
  67 0048 635D     		ldrb	r3, [r4, r5]
  68 004a 042B     		cmp	r3, #4
  69 004c 04D1     		bne	.L5
  70 004e 9522     		movs	r2, #149
  71 0050 D200     		lsls	r2, r2, #3
  72 0052 A258     		ldr	r2, [r4, r2]
  73 0054 002A     		cmp	r2, #0
  74 0056 07D1     		bne	.L6
  75              	.L5:
  76 0058 1E4A     		ldr	r2, .L10+32
  77 005a 0421     		movs	r1, #4
  78 005c A354     		strb	r3, [r4, r2]
  79 005e 2000     		movs	r0, r4
  80 0060 FFF7FEFF 		bl	smtc_real_set_dr_distribution
  81 0064 0423     		movs	r3, #4
  82 0066 6355     		strb	r3, [r4, r5]
  83              	.L6:
  84 0068 2000     		movs	r0, r4
  85 006a FFF7FEFF 		bl	smtc_real_get_next_dr
  86 006e E06B     		ldr	r0, [r4, #60]
  87 0070 FFF7FEFF 		bl	smtc_duty_cycle_update
  88 0074 2000     		movs	r0, r4
  89 0076 FFF7FEFF 		bl	smtc_real_get_join_next_channel
  90 007a 051E     		subs	r5, r0, #0
  91 007c D3D1     		bne	.L8
  92 007e 2000     		movs	r0, r4
  93 0080 FFF7FEFF 		bl	lr1_stack_mac_join_request_build
  94 0084 2000     		movs	r0, r4
  95 0086 FFF7FEFF 		bl	smtc_real_get_rx1_join_delay
  96 008a 2300     		movs	r3, r4
  97 008c 5933     		adds	r3, r3, #89
  98 008e 1870     		strb	r0, [r3]
  99 0090 2000     		movs	r0, r4
 100 0092 FFF7FEFF 		bl	smtc_real_get_rx2_join_dr
 101 0096 2300     		movs	r3, r4
 102 0098 5333     		adds	r3, r3, #83
 103 009a 1870     		strb	r0, [r3]
 104 009c 9523     		movs	r3, #149
 105 009e DB00     		lsls	r3, r3, #3
ARM GAS  /tmp/ccqGV7VH.s 			page 3


 106 00a0 E358     		ldr	r3, [r4, r3]
 107 00a2 002B     		cmp	r3, #0
 108 00a4 01D1     		bne	.L7
 109 00a6 0C4B     		ldr	r3, .L10+36
 110 00a8 E650     		str	r6, [r4, r3]
 111              	.L7:
 112 00aa 0123     		movs	r3, #1
 113 00ac E355     		strb	r3, [r4, r7]
 114              	.L3:
 115 00ae 2800     		movs	r0, r5
 116              		@ sp needed
 117 00b0 F8BD     		pop	{r3, r4, r5, r6, r7, pc}
 118              	.L11:
 119 00b2 C046     		.align	2
 120              	.L10:
 121 00b4 12050000 		.word	1298
 122 00b8 00000000 		.word	.LC1
 123 00bc 30000000 		.word	.LC5
 124 00c0 2B000000 		.word	.LC3
 125 00c4 0C050000 		.word	1292
 126 00c8 14050000 		.word	1300
 127 00cc CE040000 		.word	1230
 128 00d0 92040000 		.word	1170
 129 00d4 93040000 		.word	1171
 130 00d8 AC040000 		.word	1196
 132              		.section	.text.lr1_mac_joined_status_get,"ax",%progbits
 133              		.align	1
 134              		.global	lr1_mac_joined_status_get
 135              		.syntax unified
 136              		.code	16
 137              		.thumb_func
 138              		.fpu softvfp
 140              	lr1_mac_joined_status_get:
 141              		@ args = 0, pretend = 0, frame = 0
 142              		@ frame_needed = 0, uses_anonymous_args = 0
 143              		@ link register save eliminated.
 144 0000 014B     		ldr	r3, .L13
 145              		@ sp needed
 146 0002 C05C     		ldrb	r0, [r0, r3]
 147 0004 7047     		bx	lr
 148              	.L14:
 149 0006 C046     		.align	2
 150              	.L13:
 151 0008 CE040000 		.word	1230
 153              		.section	.text.lr1mac_core_dr_strategy_set,"ax",%progbits
 154              		.align	1
 155              		.global	lr1mac_core_dr_strategy_set
 156              		.syntax unified
 157              		.code	16
 158              		.thumb_func
 159              		.fpu softvfp
 161              	lr1mac_core_dr_strategy_set:
 162              		@ args = 0, pretend = 0, frame = 0
 163              		@ frame_needed = 0, uses_anonymous_args = 0
 164 0000 F8B5     		push	{r3, r4, r5, r6, r7, lr}
 165 0002 124E     		ldr	r6, .L20
 166 0004 0400     		movs	r4, r0
ARM GAS  /tmp/ccqGV7VH.s 			page 4


 167 0006 875D     		ldrb	r7, [r0, r6]
 168 0008 0D1E     		subs	r5, r1, #0
 169 000a 8155     		strb	r1, [r0, r6]
 170 000c 18D1     		bne	.L16
 171 000e FFF7FEFF 		bl	smtc_real_get_min_tx_channel_dr
 172 0012 2300     		movs	r3, r4
 173 0014 4F33     		adds	r3, r3, #79
 174              	.L19:
 175 0016 2900     		movs	r1, r5
 176 0018 1870     		strb	r0, [r3]
 177 001a 2000     		movs	r0, r4
 178 001c FFF7FEFF 		bl	smtc_real_set_dr_distribution
 179 0020 2000     		movs	r0, r4
 180 0022 FFF7FEFF 		bl	smtc_real_get_next_dr
 181 0026 0500     		movs	r5, r0
 182 0028 431C     		adds	r3, r0, #1
 183 002a 07D1     		bne	.L18
 184 002c 2000     		movs	r0, r4
 185 002e 3900     		movs	r1, r7
 186 0030 A755     		strb	r7, [r4, r6]
 187 0032 FFF7FEFF 		bl	smtc_real_set_dr_distribution
 188 0036 2000     		movs	r0, r4
 189 0038 FFF7FEFF 		bl	smtc_real_get_next_dr
 190              	.L18:
 191              		@ sp needed
 192 003c 2800     		movs	r0, r5
 193 003e F8BD     		pop	{r3, r4, r5, r6, r7, pc}
 194              	.L16:
 195 0040 FFF7FEFF 		bl	smtc_real_get_default_max_eirp
 196 0044 2300     		movs	r3, r4
 197 0046 5033     		adds	r3, r3, #80
 198 0048 E5E7     		b	.L19
 199              	.L21:
 200 004a C046     		.align	2
 201              	.L20:
 202 004c 92040000 		.word	1170
 204              		.section	.text.lr1mac_core_dr_strategy_get,"ax",%progbits
 205              		.align	1
 206              		.global	lr1mac_core_dr_strategy_get
 207              		.syntax unified
 208              		.code	16
 209              		.thumb_func
 210              		.fpu softvfp
 212              	lr1mac_core_dr_strategy_get:
 213              		@ args = 0, pretend = 0, frame = 0
 214              		@ frame_needed = 0, uses_anonymous_args = 0
 215              		@ link register save eliminated.
 216 0000 014B     		ldr	r3, .L23
 217              		@ sp needed
 218 0002 C05C     		ldrb	r0, [r0, r3]
 219 0004 7047     		bx	lr
 220              	.L24:
 221 0006 C046     		.align	2
 222              	.L23:
 223 0008 92040000 		.word	1170
 225              		.section	.text.lr1mac_core_devaddr_get,"ax",%progbits
 226              		.align	1
ARM GAS  /tmp/ccqGV7VH.s 			page 5


 227              		.global	lr1mac_core_devaddr_get
 228              		.syntax unified
 229              		.code	16
 230              		.thumb_func
 231              		.fpu softvfp
 233              	lr1mac_core_devaddr_get:
 234              		@ args = 0, pretend = 0, frame = 0
 235              		@ frame_needed = 0, uses_anonymous_args = 0
 236              		@ link register save eliminated.
 237 0000 C06E     		ldr	r0, [r0, #108]
 238              		@ sp needed
 239 0002 7047     		bx	lr
 241              		.section	.text.lr1mac_core_next_power_get,"ax",%progbits
 242              		.align	1
 243              		.global	lr1mac_core_next_power_get
 244              		.syntax unified
 245              		.code	16
 246              		.thumb_func
 247              		.fpu softvfp
 249              	lr1mac_core_next_power_get:
 250              		@ args = 0, pretend = 0, frame = 0
 251              		@ frame_needed = 0, uses_anonymous_args = 0
 252              		@ link register save eliminated.
 253 0000 5030     		adds	r0, r0, #80
 254 0002 0078     		ldrb	r0, [r0]
 255              		@ sp needed
 256 0004 7047     		bx	lr
 258              		.section	.text.lr1mac_core_state_get,"ax",%progbits
 259              		.align	1
 260              		.global	lr1mac_core_state_get
 261              		.syntax unified
 262              		.code	16
 263              		.thumb_func
 264              		.fpu softvfp
 266              	lr1mac_core_state_get:
 267              		@ args = 0, pretend = 0, frame = 0
 268              		@ frame_needed = 0, uses_anonymous_args = 0
 269              		@ link register save eliminated.
 270 0000 014B     		ldr	r3, .L28
 271              		@ sp needed
 272 0002 C05C     		ldrb	r0, [r0, r3]
 273 0004 7047     		bx	lr
 274              	.L29:
 275 0006 C046     		.align	2
 276              	.L28:
 277 0008 12050000 		.word	1298
 279              		.section	.text.lr1mac_core_context_save,"ax",%progbits
 280              		.align	1
 281              		.global	lr1mac_core_context_save
 282              		.syntax unified
 283              		.code	16
 284              		.thumb_func
 285              		.fpu softvfp
 287              	lr1mac_core_context_save:
 288              		@ args = 0, pretend = 0, frame = 56
 289              		@ frame_needed = 0, uses_anonymous_args = 0
 290 0000 70B5     		push	{r4, r5, r6, lr}
ARM GAS  /tmp/ccqGV7VH.s 			page 6


 291 0002 0400     		movs	r4, r0
 292 0004 154B     		ldr	r3, .L33
 293 0006 266A     		ldr	r6, [r4, #32]
 294 0008 C558     		ldr	r5, [r0, r3]
 295 000a 836B     		ldr	r3, [r0, #56]
 296 000c 8EB0     		sub	sp, sp, #56
 297 000e 1878     		ldrb	r0, [r3]
 298 0010 134B     		ldr	r3, .L33+4
 299 0012 611D     		adds	r1, r4, #5
 300 0014 E25C     		ldrb	r2, [r4, r3]
 301 0016 A31D     		adds	r3, r4, #6
 302 0018 AE42     		cmp	r6, r5
 303 001a 05D1     		bne	.L31
 304 001c CE7F     		ldrb	r6, [r1, #31]
 305 001e 8642     		cmp	r6, r0
 306 0020 02D1     		bne	.L31
 307 0022 DE7F     		ldrb	r6, [r3, #31]
 308 0024 9642     		cmp	r6, r2
 309 0026 16D0     		beq	.L30
 310              	.L31:
 311 0028 2562     		str	r5, [r4, #32]
 312 002a C877     		strb	r0, [r1, #31]
 313 002c DA77     		strb	r2, [r3, #31]
 314 002e 3421     		movs	r1, #52
 315 0030 2000     		movs	r0, r4
 316 0032 FFF7FEFF 		bl	lr1mac_utilities_crc
 317 0036 3822     		movs	r2, #56
 318 0038 2100     		movs	r1, r4
 319 003a 6063     		str	r0, [r4, #52]
 320 003c 0120     		movs	r0, #1
 321 003e FFF7FEFF 		bl	smtc_modem_hal_context_store
 322 0042 3822     		movs	r2, #56
 323 0044 0021     		movs	r1, #0
 324 0046 6846     		mov	r0, sp
 325 0048 FFF7FEFF 		bl	memset
 326 004c 3822     		movs	r2, #56
 327 004e 6946     		mov	r1, sp
 328 0050 0120     		movs	r0, #1
 329 0052 FFF7FEFF 		bl	smtc_modem_hal_context_restore
 330              	.L30:
 331 0056 0EB0     		add	sp, sp, #56
 332              		@ sp needed
 333 0058 70BD     		pop	{r4, r5, r6, pc}
 334              	.L34:
 335 005a C046     		.align	2
 336              	.L33:
 337 005c 94040000 		.word	1172
 338 0060 1A050000 		.word	1306
 340              		.section	.text.lr1mac_core_dr_custom_set,"ax",%progbits
 341              		.align	1
 342              		.global	lr1mac_core_dr_custom_set
 343              		.syntax unified
 344              		.code	16
 345              		.thumb_func
 346              		.fpu softvfp
 348              	lr1mac_core_dr_custom_set:
 349              		@ args = 0, pretend = 0, frame = 0
ARM GAS  /tmp/ccqGV7VH.s 			page 7


 350              		@ frame_needed = 0, uses_anonymous_args = 0
 351 0000 0A68     		ldr	r2, [r1]
 352 0002 044B     		ldr	r3, .L36
 353 0004 10B5     		push	{r4, lr}
 354 0006 C250     		str	r2, [r0, r3]
 355 0008 4A68     		ldr	r2, [r1, #4]
 356 000a 0433     		adds	r3, r3, #4
 357 000c C250     		str	r2, [r0, r3]
 358 000e FFF7FEFF 		bl	lr1mac_core_context_save
 359              		@ sp needed
 360 0012 10BD     		pop	{r4, pc}
 361              	.L37:
 362              		.align	2
 363              	.L36:
 364 0014 94040000 		.word	1172
 366              		.section	.text.lr1mac_core_next_max_payload_length_get,"ax",%progbits
 367              		.align	1
 368              		.global	lr1mac_core_next_max_payload_length_get
 369              		.syntax unified
 370              		.code	16
 371              		.thumb_func
 372              		.fpu softvfp
 374              	lr1mac_core_next_max_payload_length_get:
 375              		@ args = 0, pretend = 0, frame = 0
 376              		@ frame_needed = 0, uses_anonymous_args = 0
 377 0000 0300     		movs	r3, r0
 378 0002 10B5     		push	{r4, lr}
 379 0004 5B33     		adds	r3, r3, #91
 380 0006 1A78     		ldrb	r2, [r3]
 381 0008 0D3B     		subs	r3, r3, #13
 382 000a 1978     		ldrb	r1, [r3]
 383 000c 0400     		movs	r4, r0
 384              		@ sp needed
 385 000e FFF7FEFF 		bl	smtc_real_get_max_payload_size
 386 0012 F523     		movs	r3, #245
 387 0014 5B00     		lsls	r3, r3, #1
 388 0016 E35C     		ldrb	r3, [r4, r3]
 389 0018 C01A     		subs	r0, r0, r3
 390 001a 0838     		subs	r0, r0, #8
 391 001c 10BD     		pop	{r4, pc}
 393              		.section	.text.lr1mac_core_next_dr_get,"ax",%progbits
 394              		.align	1
 395              		.global	lr1mac_core_next_dr_get
 396              		.syntax unified
 397              		.code	16
 398              		.thumb_func
 399              		.fpu softvfp
 401              	lr1mac_core_next_dr_get:
 402              		@ args = 0, pretend = 0, frame = 0
 403              		@ frame_needed = 0, uses_anonymous_args = 0
 404              		@ link register save eliminated.
 405 0000 4E30     		adds	r0, r0, #78
 406 0002 0078     		ldrb	r0, [r0]
 407              		@ sp needed
 408 0004 7047     		bx	lr
 410              		.section	.text.lr1mac_core_next_frequency_get,"ax",%progbits
 411              		.align	1
ARM GAS  /tmp/ccqGV7VH.s 			page 8


 412              		.global	lr1mac_core_next_frequency_get
 413              		.syntax unified
 414              		.code	16
 415              		.thumb_func
 416              		.fpu softvfp
 418              	lr1mac_core_next_frequency_get:
 419              		@ args = 0, pretend = 0, frame = 0
 420              		@ frame_needed = 0, uses_anonymous_args = 0
 421              		@ link register save eliminated.
 422 0000 9623     		movs	r3, #150
 423              		@ sp needed
 424 0002 DB00     		lsls	r3, r3, #3
 425 0004 C058     		ldr	r0, [r0, r3]
 426 0006 7047     		bx	lr
 428              		.section	.text.lr1mac_core_factory_reset,"ax",%progbits
 429              		.align	1
 430              		.global	lr1mac_core_factory_reset
 431              		.syntax unified
 432              		.code	16
 433              		.thumb_func
 434              		.fpu softvfp
 436              	lr1mac_core_factory_reset:
 437              		@ args = 0, pretend = 0, frame = 56
 438              		@ frame_needed = 0, uses_anonymous_args = 0
 439 0000 124B     		ldr	r3, .L42
 440 0002 826B     		ldr	r2, [r0, #56]
 441 0004 10B5     		push	{r4, lr}
 442 0006 C358     		ldr	r3, [r0, r3]
 443 0008 1278     		ldrb	r2, [r2]
 444 000a 0362     		str	r3, [r0, #32]
 445 000c 431D     		adds	r3, r0, #5
 446 000e DA77     		strb	r2, [r3, #31]
 447 0010 0F4A     		ldr	r2, .L42+4
 448 0012 831D     		adds	r3, r0, #6
 449 0014 825C     		ldrb	r2, [r0, r2]
 450 0016 8EB0     		sub	sp, sp, #56
 451 0018 DA77     		strb	r2, [r3, #31]
 452 001a 3421     		movs	r1, #52
 453 001c 0400     		movs	r4, r0
 454 001e FFF7FEFF 		bl	lr1mac_utilities_crc
 455 0022 0130     		adds	r0, r0, #1
 456 0024 2100     		movs	r1, r4
 457 0026 6063     		str	r0, [r4, #52]
 458 0028 3824     		movs	r4, #56
 459 002a 3822     		movs	r2, #56
 460 002c 0120     		movs	r0, #1
 461 002e FFF7FEFF 		bl	smtc_modem_hal_context_store
 462 0032 2200     		movs	r2, r4
 463 0034 0021     		movs	r1, #0
 464 0036 6846     		mov	r0, sp
 465 0038 FFF7FEFF 		bl	memset
 466 003c 2200     		movs	r2, r4
 467 003e 6946     		mov	r1, sp
 468 0040 0120     		movs	r0, #1
 469 0042 FFF7FEFF 		bl	smtc_modem_hal_context_restore
 470 0046 0EB0     		add	sp, sp, #56
 471              		@ sp needed
ARM GAS  /tmp/ccqGV7VH.s 			page 9


 472 0048 10BD     		pop	{r4, pc}
 473              	.L43:
 474 004a C046     		.align	2
 475              	.L42:
 476 004c 94040000 		.word	1172
 477 0050 1A050000 		.word	1306
 479              		.section	.text.lr1mac_core_get_activation_mode,"ax",%progbits
 480              		.align	1
 481              		.global	lr1mac_core_get_activation_mode
 482              		.syntax unified
 483              		.code	16
 484              		.thumb_func
 485              		.fpu softvfp
 487              	lr1mac_core_get_activation_mode:
 488              		@ args = 0, pretend = 0, frame = 0
 489              		@ frame_needed = 0, uses_anonymous_args = 0
 490              		@ link register save eliminated.
 491 0000 7030     		adds	r0, r0, #112
 492 0002 0078     		ldrb	r0, [r0]
 493              		@ sp needed
 494 0004 7047     		bx	lr
 496              		.section	.text.lr1mac_core_set_activation_mode,"ax",%progbits
 497              		.align	1
 498              		.global	lr1mac_core_set_activation_mode
 499              		.syntax unified
 500              		.code	16
 501              		.thumb_func
 502              		.fpu softvfp
 504              	lr1mac_core_set_activation_mode:
 505              		@ args = 0, pretend = 0, frame = 0
 506              		@ frame_needed = 0, uses_anonymous_args = 0
 507              		@ link register save eliminated.
 508 0000 7030     		adds	r0, r0, #112
 509 0002 0170     		strb	r1, [r0]
 510              		@ sp needed
 511 0004 7047     		bx	lr
 513              		.section	.text.lr1mac_core_rp_get,"ax",%progbits
 514              		.align	1
 515              		.global	lr1mac_core_rp_get
 516              		.syntax unified
 517              		.code	16
 518              		.thumb_func
 519              		.fpu softvfp
 521              	lr1mac_core_rp_get:
 522              		@ args = 0, pretend = 0, frame = 0
 523              		@ frame_needed = 0, uses_anonymous_args = 0
 524              		@ link register save eliminated.
 525 0000 014B     		ldr	r3, .L47
 526              		@ sp needed
 527 0002 C058     		ldr	r0, [r0, r3]
 528 0004 7047     		bx	lr
 529              	.L48:
 530 0006 C046     		.align	2
 531              	.L47:
 532 0008 BC040000 		.word	1212
 534              		.section	.text.lr1mac_core_nb_reset_get,"ax",%progbits
 535              		.align	1
ARM GAS  /tmp/ccqGV7VH.s 			page 10


 536              		.global	lr1mac_core_nb_reset_get
 537              		.syntax unified
 538              		.code	16
 539              		.thumb_func
 540              		.fpu softvfp
 542              	lr1mac_core_nb_reset_get:
 543              		@ args = 0, pretend = 0, frame = 0
 544              		@ frame_needed = 0, uses_anonymous_args = 0
 545              		@ link register save eliminated.
 546 0000 4C30     		adds	r0, r0, #76
 547 0002 0088     		ldrh	r0, [r0]
 548              		@ sp needed
 549 0004 7047     		bx	lr
 551              		.section	.text.lr1mac_core_devnonce_get,"ax",%progbits
 552              		.align	1
 553              		.global	lr1mac_core_devnonce_get
 554              		.syntax unified
 555              		.code	16
 556              		.thumb_func
 557              		.fpu softvfp
 559              	lr1mac_core_devnonce_get:
 560              		@ args = 0, pretend = 0, frame = 0
 561              		@ frame_needed = 0, uses_anonymous_args = 0
 562              		@ link register save eliminated.
 563 0000 C723     		movs	r3, #199
 564              		@ sp needed
 565 0002 9B00     		lsls	r3, r3, #2
 566 0004 C05A     		ldrh	r0, [r0, r3]
 567 0006 7047     		bx	lr
 569              		.section	.text.lr1mac_core_last_snr_get,"ax",%progbits
 570              		.align	1
 571              		.global	lr1mac_core_last_snr_get
 572              		.syntax unified
 573              		.code	16
 574              		.thumb_func
 575              		.fpu softvfp
 577              	lr1mac_core_last_snr_get:
 578              		@ args = 0, pretend = 0, frame = 0
 579              		@ frame_needed = 0, uses_anonymous_args = 0
 580              		@ link register save eliminated.
 581 0000 014B     		ldr	r3, .L52
 582              		@ sp needed
 583 0002 C05E     		ldrsh	r0, [r0, r3]
 584 0004 7047     		bx	lr
 585              	.L53:
 586 0006 C046     		.align	2
 587              	.L52:
 588 0008 D4040000 		.word	1236
 590              		.section	.text.lr1mac_core_last_rssi_get,"ax",%progbits
 591              		.align	1
 592              		.global	lr1mac_core_last_rssi_get
 593              		.syntax unified
 594              		.code	16
 595              		.thumb_func
 596              		.fpu softvfp
 598              	lr1mac_core_last_rssi_get:
 599              		@ args = 0, pretend = 0, frame = 0
ARM GAS  /tmp/ccqGV7VH.s 			page 11


 600              		@ frame_needed = 0, uses_anonymous_args = 0
 601              		@ link register save eliminated.
 602 0000 014B     		ldr	r3, .L55
 603              		@ sp needed
 604 0002 C05E     		ldrsh	r0, [r0, r3]
 605 0004 7047     		bx	lr
 606              	.L56:
 607 0006 C046     		.align	2
 608              	.L55:
 609 0008 D6040000 		.word	1238
 611              		.section	.text.lr1mac_core_context_load,"ax",%progbits
 612              		.align	1
 613              		.global	lr1mac_core_context_load
 614              		.syntax unified
 615              		.code	16
 616              		.thumb_func
 617              		.fpu softvfp
 619              	lr1mac_core_context_load:
 620              		@ args = 0, pretend = 0, frame = 0
 621              		@ frame_needed = 0, uses_anonymous_args = 0
 622 0000 10B5     		push	{r4, lr}
 623 0002 0400     		movs	r4, r0
 624 0004 0100     		movs	r1, r0
 625 0006 3822     		movs	r2, #56
 626 0008 0120     		movs	r0, #1
 627 000a FFF7FEFF 		bl	smtc_modem_hal_context_restore
 628 000e 3421     		movs	r1, #52
 629 0010 2000     		movs	r0, r4
 630 0012 FFF7FEFF 		bl	lr1mac_utilities_crc
 631 0016 636B     		ldr	r3, [r4, #52]
 632 0018 9842     		cmp	r0, r3
 633 001a 0CD1     		bne	.L59
 634 001c 0020     		movs	r0, #0
 635 001e 226A     		ldr	r2, [r4, #32]
 636 0020 064B     		ldr	r3, .L60
 637 0022 E250     		str	r2, [r4, r3]
 638 0024 631D     		adds	r3, r4, #5
 639 0026 DB7F     		ldrb	r3, [r3, #31]
 640 0028 A26B     		ldr	r2, [r4, #56]
 641 002a 1370     		strb	r3, [r2]
 642 002c A31D     		adds	r3, r4, #6
 643 002e DA7F     		ldrb	r2, [r3, #31]
 644 0030 034B     		ldr	r3, .L60+4
 645 0032 E254     		strb	r2, [r4, r3]
 646              	.L58:
 647              		@ sp needed
 648 0034 10BD     		pop	{r4, pc}
 649              	.L59:
 650 0036 0120     		movs	r0, #1
 651 0038 4042     		rsbs	r0, r0, #0
 652 003a FBE7     		b	.L58
 653              	.L61:
 654              		.align	2
 655              	.L60:
 656 003c 94040000 		.word	1172
 657 0040 1A050000 		.word	1306
 659              		.section	.rodata.lr1mac_core_init.str1.1,"aMS",%progbits,1
ARM GAS  /tmp/ccqGV7VH.s 			page 12


 660              	.LC7:
 661 0000 4C72316D 		.ascii	"Lr1mac context : Try recover NVM\015\012\000"
 661      61632063 
 661      6F6E7465 
 661      7874203A 
 661      20547279 
 662              	.LC9:
 663 0023 5265636F 		.ascii	"Recover success from 1.0.7 !\015\012\000"
 663      76657220 
 663      73756363 
 663      65737320 
 663      66726F6D 
 664              	.LC11:
 665 0042 1B5B303B 		.ascii	"\033[0;33mWARN: Fail to recover\015\012\000"
 665      33336D57 
 665      41524E3A 
 665      20466169 
 665      6C20746F 
 666              	.LC14:
 667 0061 1B5B303B 		.ascii	"\033[0;33mWARN: No valid lr1mac context --> Use def"
 667      33336D57 
 667      41524E3A 
 667      204E6F20 
 667      76616C69 
 668 0091 61756C74 		.ascii	"ault value\015\012\000"
 668      2076616C 
 668      75650D0A 
 668      00
 669              	.LC16:
 670 009e 1B5B303B 		.ascii	"\033[0;33mWARN: No valid DevNonce in NVM, use defau"
 670      33336D57 
 670      41524E3A 
 670      204E6F20 
 670      76616C69 
 671 00ce 6C742028 		.ascii	"lt (0)\015\012\000"
 671      30290D0A 
 671      00
 672              		.section	.text.lr1mac_core_init,"ax",%progbits
 673              		.align	1
 674              		.global	lr1mac_core_init
 675              		.syntax unified
 676              		.code	16
 677              		.thumb_func
 678              		.fpu softvfp
 680              	lr1mac_core_init:
 681              		@ args = 20, pretend = 0, frame = 128
 682              		@ frame_needed = 0, uses_anonymous_args = 0
 683 0000 F0B5     		push	{r4, r5, r6, r7, lr}
 684 0002 0400     		movs	r4, r0
 685 0004 A1B0     		sub	sp, sp, #132
 686 0006 0025     		movs	r5, #0
 687 0008 0393     		str	r3, [sp, #12]
 688 000a 26AB     		add	r3, sp, #152
 689 000c 0292     		str	r2, [sp, #8]
 690 000e 04CB     		ldmia	r3!, {r2}
 691 0010 0091     		str	r1, [sp]
 692 0012 1F78     		ldrb	r7, [r3]
ARM GAS  /tmp/ccqGV7VH.s 			page 13


 693 0014 0021     		movs	r1, #0
 694 0016 28AB     		add	r3, sp, #160
 695 0018 0192     		str	r2, [sp, #4]
 696 001a 794A     		ldr	r2, .L83
 697 001c 1E78     		ldrb	r6, [r3]
 698 001e FFF7FEFF 		bl	memset
 699 0022 0322     		movs	r2, #3
 700 0024 774B     		ldr	r3, .L83+4
 701 0026 3900     		movs	r1, r7
 702 0028 E554     		strb	r5, [r4, r3]
 703 002a 774B     		ldr	r3, .L83+8
 704 002c 2000     		movs	r0, r4
 705 002e E554     		strb	r5, [r4, r3]
 706 0030 764B     		ldr	r3, .L83+12
 707 0032 2700     		movs	r7, r4
 708 0034 E554     		strb	r5, [r4, r3]
 709 0036 193B     		subs	r3, r3, #25
 710 0038 E254     		strb	r2, [r4, r3]
 711 003a 009B     		ldr	r3, [sp]
 712 003c 0732     		adds	r2, r2, #7
 713 003e A363     		str	r3, [r4, #56]
 714 0040 029B     		ldr	r3, [sp, #8]
 715 0042 4C37     		adds	r7, r7, #76
 716 0044 2364     		str	r3, [r4, #64]
 717 0046 039B     		ldr	r3, [sp, #12]
 718 0048 E363     		str	r3, [r4, #60]
 719 004a A323     		movs	r3, #163
 720 004c DB00     		lsls	r3, r3, #3
 721 004e E554     		strb	r5, [r4, r3]
 722 0050 299B     		ldr	r3, [sp, #164]
 723 0052 6364     		str	r3, [r4, #68]
 724 0054 2A9B     		ldr	r3, [sp, #168]
 725 0056 A364     		str	r3, [r4, #72]
 726 0058 6D4B     		ldr	r3, .L83+16
 727 005a E250     		str	r2, [r4, r3]
 728 005c 6D4A     		ldr	r2, .L83+20
 729 005e 2433     		adds	r3, r3, #36
 730 0060 E250     		str	r2, [r4, r3]
 731 0062 3200     		movs	r2, r6
 732 0064 FFF7FEFF 		bl	lr1_stack_mac_init
 733 0068 2000     		movs	r0, r4
 734 006a FFF7FEFF 		bl	lr1mac_core_context_load
 735 006e A842     		cmp	r0, r5
 736 0070 5DD1     		bne	.L63
 737              	.L68:
 738 0072 A36B     		ldr	r3, [r4, #56]
 739 0074 1878     		ldrb	r0, [r3]
 740 0076 FFF7FEFF 		bl	smtc_real_is_supported_region
 741 007a 0028     		cmp	r0, #0
 742 007c 12D0     		beq	.L70
 743              	.L65:
 744 007e 6648     		ldr	r0, .L83+24
 745 0080 FFF7FEFF 		bl	smtc_modem_hal_print_trace
 746 0084 6548     		ldr	r0, .L83+28
 747 0086 FFF7FEFF 		bl	smtc_modem_hal_print_trace
 748 008a 8022     		movs	r2, #128
 749 008c 644B     		ldr	r3, .L83+32
ARM GAS  /tmp/ccqGV7VH.s 			page 14


 750 008e 5205     		lsls	r2, r2, #21
 751 0090 E250     		str	r2, [r4, r3]
 752 0092 0022     		movs	r2, #0
 753 0094 0433     		adds	r3, r3, #4
 754 0096 E250     		str	r2, [r4, r3]
 755 0098 0123     		movs	r3, #1
 756 009a A26B     		ldr	r2, [r4, #56]
 757 009c 2000     		movs	r0, r4
 758 009e 1370     		strb	r3, [r2]
 759 00a0 FFF7FEFF 		bl	lr1mac_core_context_save
 760              	.L70:
 761 00a4 2022     		movs	r2, #32
 762 00a6 0021     		movs	r1, #0
 763 00a8 14A8     		add	r0, sp, #80
 764 00aa FFF7FEFF 		bl	memset
 765 00ae 2022     		movs	r2, #32
 766 00b0 0220     		movs	r0, #2
 767 00b2 14A9     		add	r1, sp, #80
 768 00b4 FFF7FEFF 		bl	smtc_modem_hal_context_restore
 769 00b8 1C21     		movs	r1, #28
 770 00ba 14A8     		add	r0, sp, #80
 771 00bc FFF7FEFF 		bl	lr1mac_utilities_crc
 772 00c0 1B9B     		ldr	r3, [sp, #108]
 773 00c2 0093     		str	r3, [sp]
 774 00c4 9842     		cmp	r0, r3
 775 00c6 00D0     		beq	.LCB755
 776 00c8 93E0     		b	.L71	@long jump
 777              	.LCB755:
 778 00ca 4022     		movs	r2, #64
 779 00cc 04AB     		add	r3, sp, #16
 780 00ce 9B18     		adds	r3, r3, r2
 781 00d0 1A88     		ldrh	r2, [r3]
 782 00d2 C723     		movs	r3, #199
 783 00d4 9B00     		lsls	r3, r3, #2
 784 00d6 E252     		strh	r2, [r4, r3]
 785 00d8 159B     		ldr	r3, [sp, #84]
 786 00da 0622     		movs	r2, #6
 787 00dc 3B80     		strh	r3, [r7]
 788 00de 514B     		ldr	r3, .L83+36
 789 00e0 16A9     		add	r1, sp, #88
 790 00e2 E018     		adds	r0, r4, r3
 791 00e4 FFF7FEFF 		bl	memcpy
 792              	.L72:
 793 00e8 3B88     		ldrh	r3, [r7]
 794 00ea 019A     		ldr	r2, [sp, #4]
 795 00ec 0133     		adds	r3, r3, #1
 796 00ee 3B80     		strh	r3, [r7]
 797 00f0 4D4B     		ldr	r3, .L83+40
 798 00f2 0198     		ldr	r0, [sp, #4]
 799 00f4 E250     		str	r2, [r4, r3]
 800 00f6 9622     		movs	r2, #150
 801 00f8 4C4B     		ldr	r3, .L83+44
 802 00fa 1201     		lsls	r2, r2, #4
 803 00fc E252     		strh	r2, [r4, r3]
 804 00fe 2433     		adds	r3, r3, #36
 805 0100 E15C     		ldrb	r1, [r4, r3]
 806 0102 4B4A     		ldr	r2, .L83+48
ARM GAS  /tmp/ccqGV7VH.s 			page 15


 807 0104 2300     		movs	r3, r4
 808 0106 FFF7FEFF 		bl	rp_hook_init
 809 010a 2000     		movs	r0, r4
 810 010c FFF7FEFF 		bl	smtc_real_config
 811 0110 2000     		movs	r0, r4
 812 0112 FFF7FEFF 		bl	smtc_real_init
 813 0116 2000     		movs	r0, r4
 814 0118 FFF7FEFF 		bl	smtc_real_get_adr_ack_limit
 815 011c 454B     		ldr	r3, .L83+52
 816 011e E054     		strb	r0, [r4, r3]
 817 0120 2000     		movs	r0, r4
 818 0122 FFF7FEFF 		bl	smtc_real_get_adr_ack_delay
 819 0126 444B     		ldr	r3, .L83+56
 820 0128 E054     		strb	r0, [r4, r3]
 821 012a 21B0     		add	sp, sp, #132
 822              		@ sp needed
 823 012c F0BD     		pop	{r4, r5, r6, r7, pc}
 824              	.L63:
 825 012e 4348     		ldr	r0, .L83+60
 826 0130 FFF7FEFF 		bl	smtc_modem_hal_print_trace
 827 0134 3022     		movs	r2, #48
 828 0136 0120     		movs	r0, #1
 829 0138 14A9     		add	r1, sp, #80
 830 013a FFF7FEFF 		bl	smtc_modem_hal_context_restore
 831 013e 2C21     		movs	r1, #44
 832 0140 14A8     		add	r0, sp, #80
 833 0142 FFF7FEFF 		bl	lr1mac_utilities_crc
 834 0146 1F9B     		ldr	r3, [sp, #124]
 835 0148 0093     		str	r3, [sp]
 836 014a 9842     		cmp	r0, r3
 837 014c 4AD1     		bne	.L66
 838 014e 3C48     		ldr	r0, .L83+64
 839 0150 FFF7FEFF 		bl	smtc_modem_hal_print_trace
 840 0154 6022     		movs	r2, #96
 841 0156 04AB     		add	r3, sp, #16
 842 0158 9B18     		adds	r3, r3, r2
 843 015a 1E88     		ldrh	r6, [r3]
 844 015c C723     		movs	r3, #199
 845 015e 0A36     		adds	r6, r6, #10
 846 0160 B6B2     		uxth	r6, r6
 847 0162 9B00     		lsls	r3, r3, #2
 848 0164 E652     		strh	r6, [r4, r3]
 849 0166 1D9B     		ldr	r3, [sp, #116]
 850 0168 2900     		movs	r1, r5
 851 016a 0093     		str	r3, [sp]
 852 016c 009A     		ldr	r2, [sp]
 853 016e 2C4B     		ldr	r3, .L83+32
 854 0170 04A8     		add	r0, sp, #16
 855 0172 E250     		str	r2, [r4, r3]
 856 0174 6222     		movs	r2, #98
 857 0176 04AB     		add	r3, sp, #16
 858 0178 9B18     		adds	r3, r3, r2
 859 017a 1B88     		ldrh	r3, [r3]
 860 017c A26B     		ldr	r2, [r4, #56]
 861 017e 3B80     		strh	r3, [r7]
 862 0180 0093     		str	r3, [sp]
 863 0182 1EAB     		add	r3, sp, #120
ARM GAS  /tmp/ccqGV7VH.s 			page 16


 864 0184 1B78     		ldrb	r3, [r3]
 865 0186 1370     		strb	r3, [r2]
 866 0188 2022     		movs	r2, #32
 867 018a FFF7FEFF 		bl	memset
 868 018e 04AB     		add	r3, sp, #16
 869 0190 1E80     		strh	r6, [r3]
 870 0192 009B     		ldr	r3, [sp]
 871 0194 0622     		movs	r2, #6
 872 0196 0593     		str	r3, [sp, #20]
 873 0198 224B     		ldr	r3, .L83+36
 874 019a 06A8     		add	r0, sp, #24
 875 019c E118     		adds	r1, r4, r3
 876 019e FFF7FEFF 		bl	memcpy
 877 01a2 1C21     		movs	r1, #28
 878 01a4 04A8     		add	r0, sp, #16
 879 01a6 FFF7FEFF 		bl	lr1mac_utilities_crc
 880 01aa 2022     		movs	r2, #32
 881 01ac 0B90     		str	r0, [sp, #44]
 882 01ae 04A9     		add	r1, sp, #16
 883 01b0 0220     		movs	r0, #2
 884 01b2 FFF7FEFF 		bl	smtc_modem_hal_context_store
 885 01b6 2022     		movs	r2, #32
 886 01b8 2900     		movs	r1, r5
 887 01ba 0CA8     		add	r0, sp, #48
 888 01bc FFF7FEFF 		bl	memset
 889 01c0 0220     		movs	r0, #2
 890 01c2 2022     		movs	r2, #32
 891 01c4 0CA9     		add	r1, sp, #48
 892 01c6 FFF7FEFF 		bl	smtc_modem_hal_context_restore
 893 01ca 2000     		movs	r0, r4
 894 01cc FFF7FEFF 		bl	lr1mac_core_context_save
 895              	.L67:
 896 01d0 2000     		movs	r0, r4
 897 01d2 FFF7FEFF 		bl	lr1mac_core_context_load
 898 01d6 0028     		cmp	r0, #0
 899 01d8 00D1     		bne	.LCB894
 900 01da 4AE7     		b	.L68	@long jump
 901              	.LCB894:
 902 01dc 431C     		adds	r3, r0, #1
 903 01de 00D0     		beq	.LCB896
 904 01e0 60E7     		b	.L70	@long jump
 905              	.LCB896:
 906 01e2 4CE7     		b	.L65
 907              	.L66:
 908 01e4 1748     		ldr	r0, .L83+68
 909 01e6 FFF7FEFF 		bl	smtc_modem_hal_print_trace
 910 01ea 0C48     		ldr	r0, .L83+28
 911 01ec FFF7FEFF 		bl	smtc_modem_hal_print_trace
 912 01f0 EEE7     		b	.L67
 913              	.L71:
 914 01f2 1548     		ldr	r0, .L83+72
 915 01f4 FFF7FEFF 		bl	smtc_modem_hal_print_trace
 916 01f8 0848     		ldr	r0, .L83+28
 917 01fa FFF7FEFF 		bl	smtc_modem_hal_print_trace
 918 01fe 73E7     		b	.L72
 919              	.L84:
 920              		.align	2
ARM GAS  /tmp/ccqGV7VH.s 			page 17


 921              	.L83:
 922 0200 54050000 		.word	1364
 923 0204 12050000 		.word	1298
 924 0208 11030000 		.word	785
 925 020c D9040000 		.word	1241
 926 0210 1C050000 		.word	1308
 927 0214 80994000 		.word	4233600
 928 0218 61000000 		.word	.LC14
 929 021c 2B000000 		.word	.LC3
 930 0220 94040000 		.word	1172
 931 0224 1E030000 		.word	798
 932 0228 BC040000 		.word	1212
 933 022c 9C040000 		.word	1180
 934 0230 00000000 		.word	lr1_stack_mac_rp_callback
 935 0234 8D040000 		.word	1165
 936 0238 8C040000 		.word	1164
 937 023c 00000000 		.word	.LC7
 938 0240 23000000 		.word	.LC9
 939 0244 42000000 		.word	.LC11
 940 0248 9E000000 		.word	.LC16
 942              		.section	.text.lr1mac_core_rx_window_get,"ax",%progbits
 943              		.align	1
 944              		.global	lr1mac_core_rx_window_get
 945              		.syntax unified
 946              		.code	16
 947              		.thumb_func
 948              		.fpu softvfp
 950              	lr1mac_core_rx_window_get:
 951              		@ args = 0, pretend = 0, frame = 0
 952              		@ frame_needed = 0, uses_anonymous_args = 0
 953              		@ link register save eliminated.
 954 0000 014B     		ldr	r3, .L86
 955              		@ sp needed
 956 0002 C05C     		ldrb	r0, [r0, r3]
 957 0004 7047     		bx	lr
 958              	.L87:
 959 0006 C046     		.align	2
 960              	.L86:
 961 0008 D9040000 		.word	1241
 963              		.section	.text.lr1mac_core_fcnt_up_get,"ax",%progbits
 964              		.align	1
 965              		.global	lr1mac_core_fcnt_up_get
 966              		.syntax unified
 967              		.code	16
 968              		.thumb_func
 969              		.fpu softvfp
 971              	lr1mac_core_fcnt_up_get:
 972              		@ args = 0, pretend = 0, frame = 0
 973              		@ frame_needed = 0, uses_anonymous_args = 0
 974              		@ link register save eliminated.
 975 0000 406E     		ldr	r0, [r0, #100]
 976              		@ sp needed
 977 0002 7047     		bx	lr
 979              		.section	.text.lr1mac_core_next_join_time_second_get,"ax",%progbits
 980              		.align	1
 981              		.global	lr1mac_core_next_join_time_second_get
 982              		.syntax unified
ARM GAS  /tmp/ccqGV7VH.s 			page 18


 983              		.code	16
 984              		.thumb_func
 985              		.fpu softvfp
 987              	lr1mac_core_next_join_time_second_get:
 988              		@ args = 0, pretend = 0, frame = 0
 989              		@ frame_needed = 0, uses_anonymous_args = 0
 990              		@ link register save eliminated.
 991 0000 014B     		ldr	r3, .L90
 992              		@ sp needed
 993 0002 C058     		ldr	r0, [r0, r3]
 994 0004 7047     		bx	lr
 995              	.L91:
 996 0006 C046     		.align	2
 997              	.L90:
 998 0008 A4040000 		.word	1188
 1000              		.section	.text.lr1mac_core_next_free_duty_cycle_ms_get,"ax",%progbits
 1001              		.align	1
 1002              		.global	lr1mac_core_next_free_duty_cycle_ms_get
 1003              		.syntax unified
 1004              		.code	16
 1005              		.thumb_func
 1006              		.fpu softvfp
 1008              	lr1mac_core_next_free_duty_cycle_ms_get:
 1009              		@ args = 0, pretend = 0, frame = 72
 1010              		@ frame_needed = 0, uses_anonymous_args = 0
 1011 0000 30B5     		push	{r4, r5, lr}
 1012 0002 93B0     		sub	sp, sp, #76
 1013 0004 0400     		movs	r4, r0
 1014 0006 0021     		movs	r1, #0
 1015 0008 6B46     		mov	r3, sp
 1016 000a 4022     		movs	r2, #64
 1017 000c 02A8     		add	r0, sp, #8
 1018 000e D971     		strb	r1, [r3, #7]
 1019 0010 FFF7FEFF 		bl	memset
 1020 0014 2000     		movs	r0, r4
 1021 0016 FFF7FEFF 		bl	lr1_stack_network_next_free_duty_cycle_ms_get
 1022 001a 0500     		movs	r5, r0
 1023 001c 2000     		movs	r0, r4
 1024 001e FFF7FEFF 		bl	smtc_real_is_dtc_supported
 1025 0022 0028     		cmp	r0, #0
 1026 0024 07D1     		bne	.L93
 1027              	.L95:
 1028 0026 0020     		movs	r0, #0
 1029              	.L94:
 1030 0028 002D     		cmp	r5, #0
 1031 002a 02D0     		beq	.L92
 1032 002c A842     		cmp	r0, r5
 1033 002e 00DA     		bge	.L92
 1034 0030 2800     		movs	r0, r5
 1035              	.L92:
 1036 0032 13B0     		add	sp, sp, #76
 1037              		@ sp needed
 1038 0034 30BD     		pop	{r4, r5, pc}
 1039              	.L93:
 1040 0036 6946     		mov	r1, sp
 1041 0038 1023     		movs	r3, #16
 1042 003a 2000     		movs	r0, r4
ARM GAS  /tmp/ccqGV7VH.s 			page 19


 1043 003c 02AA     		add	r2, sp, #8
 1044 003e 0731     		adds	r1, r1, #7
 1045 0040 FFF7FEFF 		bl	smtc_real_get_current_enabled_frequency_list
 1046 0044 0128     		cmp	r0, #1
 1047 0046 EED1     		bne	.L95
 1048 0048 6B46     		mov	r3, sp
 1049 004a E06B     		ldr	r0, [r4, #60]
 1050 004c D979     		ldrb	r1, [r3, #7]
 1051 004e 02AA     		add	r2, sp, #8
 1052 0050 FFF7FEFF 		bl	smtc_duty_cycle_get_next_free_time_ms
 1053 0054 E8E7     		b	.L94
 1055              		.section	.rodata.lr1mac_core_payload_send.str1.1,"aMS",%progbits,1
 1056              	.LC19:
 1057 0000 1B5B303B 		.ascii	"\033[0;31mERROR: PAYLOAD SIZE TOO HIGH\015\012\000"
 1057      33316D45 
 1057      52524F52 
 1057      3A205041 
 1057      594C4F41 
 1058              	.LC22:
 1059 0026 1B5B303B 		.ascii	"\033[0;31mERROR: PAYLOAD PACKET TYPE INVALID\015\012"
 1059      33316D45 
 1059      52524F52 
 1059      3A205041 
 1059      594C4F41 
 1060 0051 00       		.ascii	"\000"
 1061              	.LC24:
 1062 0052 1B5B303B 		.ascii	"\033[0;31mERROR: OTAA DEVICE NOT JOINED YET\015\012"
 1062      33316D45 
 1062      52524F52 
 1062      3A204F54 
 1062      41412044 
 1063 007c 00       		.ascii	"\000"
 1064              	.LC27:
 1065 007d 1B5B303B 		.ascii	"\033[0;33mWARN: Duty Cycle is full\015\012\000"
 1065      33336D57 
 1065      41524E3A 
 1065      20447574 
 1065      79204379 
 1066              		.section	.text.lr1mac_core_payload_send,"ax",%progbits
 1067              		.align	1
 1068              		.global	lr1mac_core_payload_send
 1069              		.syntax unified
 1070              		.code	16
 1071              		.thumb_func
 1072              		.fpu softvfp
 1074              	lr1mac_core_payload_send:
 1075              		@ args = 12, pretend = 0, frame = 16
 1076              		@ frame_needed = 0, uses_anonymous_args = 0
 1077 0000 F0B5     		push	{r4, r5, r6, r7, lr}
 1078 0002 85B0     		sub	sp, sp, #20
 1079 0004 0393     		str	r3, [sp, #12]
 1080 0006 0AAB     		add	r3, sp, #40
 1081 0008 1F78     		ldrb	r7, [r3]
 1082 000a 0BAB     		add	r3, sp, #44
 1083 000c 1B78     		ldrb	r3, [r3]
 1084 000e 0192     		str	r2, [sp, #4]
 1085 0010 0293     		str	r3, [sp, #8]
ARM GAS  /tmp/ccqGV7VH.s 			page 20


 1086 0012 1300     		movs	r3, r2
 1087 0014 5A1E     		subs	r2, r3, #1
 1088 0016 9341     		sbcs	r3, r3, r2
 1089 0018 5B42     		rsbs	r3, r3, #0
 1090 001a 0200     		movs	r2, r0
 1091 001c 1F40     		ands	r7, r3
 1092 001e 0300     		movs	r3, r0
 1093 0020 4E32     		adds	r2, r2, #78
 1094 0022 5B33     		adds	r3, r3, #91
 1095 0024 0E00     		movs	r6, r1
 1096 0026 1B78     		ldrb	r3, [r3]
 1097 0028 1178     		ldrb	r1, [r2]
 1098 002a 3A00     		movs	r2, r7
 1099 002c 0400     		movs	r4, r0
 1100 002e FFF7FEFF 		bl	smtc_real_is_payload_size_valid
 1101 0032 0500     		movs	r5, r0
 1102 0034 431C     		adds	r3, r0, #1
 1103 0036 08D1     		bne	.L103
 1104 0038 3648     		ldr	r0, .L118
 1105 003a FFF7FEFF 		bl	smtc_modem_hal_print_trace
 1106 003e 3648     		ldr	r0, .L118+4
 1107 0040 FFF7FEFF 		bl	smtc_modem_hal_print_trace
 1108              	.L104:
 1109 0044 2800     		movs	r0, r5
 1110 0046 05B0     		add	sp, sp, #20
 1111              		@ sp needed
 1112 0048 F0BD     		pop	{r4, r5, r6, r7, pc}
 1113              	.L103:
 1114 004a FD22     		movs	r2, #253
 1115 004c 029B     		ldr	r3, [sp, #8]
 1116 004e 3348     		ldr	r0, .L118+8
 1117 0050 023B     		subs	r3, r3, #2
 1118 0052 1342     		tst	r3, r2
 1119 0054 09D1     		bne	.L117
 1120 0056 2300     		movs	r3, r4
 1121 0058 7033     		adds	r3, r3, #112
 1122 005a 1B78     		ldrb	r3, [r3]
 1123 005c 002B     		cmp	r3, #0
 1124 005e 0CD1     		bne	.L106
 1125 0060 2F4B     		ldr	r3, .L118+12
 1126 0062 E35C     		ldrb	r3, [r4, r3]
 1127 0064 022B     		cmp	r3, #2
 1128 0066 08D0     		beq	.L106
 1129 0068 2E48     		ldr	r0, .L118+16
 1130              	.L117:
 1131 006a FFF7FEFF 		bl	smtc_modem_hal_print_trace
 1132 006e 2A48     		ldr	r0, .L118+4
 1133 0070 FFF7FEFF 		bl	smtc_modem_hal_print_trace
 1134              	.L110:
 1135 0074 0125     		movs	r5, #1
 1136 0076 6D42     		rsbs	r5, r5, #0
 1137 0078 E4E7     		b	.L104
 1138              	.L106:
 1139 007a 2B4B     		ldr	r3, .L118+20
 1140 007c 2B48     		ldr	r0, .L118+24
 1141 007e E35C     		ldrb	r3, [r4, r3]
 1142 0080 002B     		cmp	r3, #0
ARM GAS  /tmp/ccqGV7VH.s 			page 21


 1143 0082 F2D1     		bne	.L117
 1144 0084 E06B     		ldr	r0, [r4, #60]
 1145 0086 FFF7FEFF 		bl	smtc_duty_cycle_update
 1146 008a 2000     		movs	r0, r4
 1147 008c FFF7FEFF 		bl	smtc_real_get_next_channel
 1148 0090 051E     		subs	r5, r0, #0
 1149 0092 EFD1     		bne	.L110
 1150 0094 2000     		movs	r0, r4
 1151 0096 FFF7FEFF 		bl	lr1mac_core_next_free_duty_cycle_ms_get
 1152 009a 0028     		cmp	r0, #0
 1153 009c 07DD     		ble	.L108
 1154 009e 2448     		ldr	r0, .L118+28
 1155 00a0 FFF7FEFF 		bl	smtc_modem_hal_print_trace
 1156 00a4 1C48     		ldr	r0, .L118+4
 1157 00a6 FFF7FEFF 		bl	smtc_modem_hal_print_trace
 1158 00aa 013D     		subs	r5, r5, #1
 1159 00ac CAE7     		b	.L104
 1160              	.L108:
 1161 00ae FFF7FEFF 		bl	smtc_modem_hal_get_time_in_s
 1162 00b2 204B     		ldr	r3, .L118+32
 1163 00b4 0C9A     		ldr	r2, [sp, #48]
 1164 00b6 E050     		str	r0, [r4, r3]
 1165 00b8 1F4B     		ldr	r3, .L118+36
 1166 00ba E250     		str	r2, [r4, r3]
 1167 00bc 2300     		movs	r3, r4
 1168 00be 019A     		ldr	r2, [sp, #4]
 1169 00c0 7833     		adds	r3, r3, #120
 1170 00c2 1F70     		strb	r7, [r3]
 1171 00c4 073B     		subs	r3, r3, #7
 1172 00c6 5A70     		strb	r2, [r3, #1]
 1173 00c8 029A     		ldr	r2, [sp, #8]
 1174 00ca 1E70     		strb	r6, [r3]
 1175 00cc 9A70     		strb	r2, [r3, #2]
 1176 00ce FE23     		movs	r3, #254
 1177 00d0 FF33     		adds	r3, r3, #255
 1178 00d2 E554     		strb	r5, [r4, r3]
 1179 00d4 002E     		cmp	r6, #0
 1180 00d6 01D0     		beq	.L109
 1181 00d8 133B     		subs	r3, r3, #19
 1182 00da E65C     		ldrb	r6, [r4, r3]
 1183              	.L109:
 1184 00dc 019B     		ldr	r3, [sp, #4]
 1185 00de BAB2     		uxth	r2, r7
 1186 00e0 F018     		adds	r0, r6, r3
 1187 00e2 8230     		adds	r0, r0, #130
 1188 00e4 0399     		ldr	r1, [sp, #12]
 1189 00e6 2018     		adds	r0, r4, r0
 1190 00e8 FFF7FEFF 		bl	memcpy1
 1191 00ec 2000     		movs	r0, r4
 1192 00ee FFF7FEFF 		bl	lr1_stack_mac_tx_frame_build
 1193 00f2 2000     		movs	r0, r4
 1194 00f4 FFF7FEFF 		bl	lr1_stack_mac_tx_frame_encrypt
 1195 00f8 0022     		movs	r2, #0
 1196 00fa 104B     		ldr	r3, .L118+40
 1197 00fc E254     		strb	r2, [r4, r3]
 1198 00fe 2200     		movs	r2, r4
 1199 0100 2300     		movs	r3, r4
ARM GAS  /tmp/ccqGV7VH.s 			page 22


 1200 0102 5132     		adds	r2, r2, #81
 1201 0104 1278     		ldrb	r2, [r2]
 1202 0106 5233     		adds	r3, r3, #82
 1203 0108 1A70     		strb	r2, [r3]
 1204 010a 0123     		movs	r3, #1
 1205 010c 064A     		ldr	r2, .L118+20
 1206 010e A354     		strb	r3, [r4, r2]
 1207 0110 98E7     		b	.L104
 1208              	.L119:
 1209 0112 C046     		.align	2
 1210              	.L118:
 1211 0114 00000000 		.word	.LC19
 1212 0118 2B000000 		.word	.LC3
 1213 011c 26000000 		.word	.LC22
 1214 0120 CE040000 		.word	1230
 1215 0124 52000000 		.word	.LC24
 1216 0128 12050000 		.word	1298
 1217 012c 00000000 		.word	.LC1
 1218 0130 7D000000 		.word	.LC27
 1219 0134 0C050000 		.word	1292
 1220 0138 14050000 		.word	1300
 1221 013c D9040000 		.word	1241
 1223              		.section	.text.lr1mac_core_send_stack_cid_req,"ax",%progbits
 1224              		.align	1
 1225              		.global	lr1mac_core_send_stack_cid_req
 1226              		.syntax unified
 1227              		.code	16
 1228              		.thumb_func
 1229              		.fpu softvfp
 1231              	lr1mac_core_send_stack_cid_req:
 1232              		@ args = 0, pretend = 0, frame = 256
 1233              		@ frame_needed = 0, uses_anonymous_args = 0
 1234 0000 F0B5     		push	{r4, r5, r6, r7, lr}
 1235 0002 C5B0     		sub	sp, sp, #276
 1236 0004 0500     		movs	r5, r0
 1237 0006 0E00     		movs	r6, r1
 1238 0008 FFF7FEFF 		bl	smtc_modem_hal_get_time_in_ms
 1239 000c 0321     		movs	r1, #3
 1240 000e 0400     		movs	r4, r0
 1241 0010 0120     		movs	r0, #1
 1242 0012 FFF7FEFF 		bl	smtc_modem_hal_get_random_nb_in_range
 1243 0016 FA23     		movs	r3, #250
 1244 0018 9B00     		lsls	r3, r3, #2
 1245 001a 4343     		muls	r3, r0
 1246 001c 2D4F     		ldr	r7, .L143
 1247 001e 1B19     		adds	r3, r3, r4
 1248 0020 0593     		str	r3, [sp, #20]
 1249 0022 EB5D     		ldrb	r3, [r5, r7]
 1250 0024 0024     		movs	r4, #0
 1251 0026 012B     		cmp	r3, #1
 1252 0028 13D0     		beq	.L121
 1253 002a 2B4B     		ldr	r3, .L143+4
 1254 002c EB5C     		ldrb	r3, [r5, r3]
 1255 002e 012B     		cmp	r3, #1
 1256 0030 0FD0     		beq	.L121
 1257 0032 2A4B     		ldr	r3, .L143+8
 1258 0034 EB5C     		ldrb	r3, [r5, r3]
ARM GAS  /tmp/ccqGV7VH.s 			page 23


 1259 0036 012B     		cmp	r3, #1
 1260 0038 0BD0     		beq	.L121
 1261 003a F523     		movs	r3, #245
 1262 003c 5B00     		lsls	r3, r3, #1
 1263 003e EC5C     		ldrb	r4, [r5, r3]
 1264 0040 002C     		cmp	r4, #0
 1265 0042 06D0     		beq	.L121
 1266 0044 2900     		movs	r1, r5
 1267 0046 EC31     		adds	r1, r1, #236
 1268 0048 A2B2     		uxth	r2, r4
 1269 004a FF31     		adds	r1, r1, #255
 1270 004c 07A8     		add	r0, sp, #28
 1271 004e FFF7FEFF 		bl	memcpy1
 1272              	.L121:
 1273 0052 0D2E     		cmp	r6, #13
 1274 0054 1DD0     		beq	.L122
 1275 0056 102E     		cmp	r6, #16
 1276 0058 23D0     		beq	.L123
 1277 005a 022E     		cmp	r6, #2
 1278 005c 37D1     		bne	.L129
 1279 005e EB5D     		ldrb	r3, [r5, r7]
 1280 0060 012B     		cmp	r3, #1
 1281 0062 09D0     		beq	.L125
 1282 0064 0123     		movs	r3, #1
 1283 0066 EB55     		strb	r3, [r5, r7]
 1284 0068 A423     		movs	r3, #164
 1285 006a 0022     		movs	r2, #0
 1286 006c DB00     		lsls	r3, r3, #3
 1287 006e EA52     		strh	r2, [r5, r3]
 1288 0070 631C     		adds	r3, r4, #1
 1289              	.L142:
 1290 0072 07AA     		add	r2, sp, #28
 1291 0074 1655     		strb	r6, [r2, r4]
 1292 0076 DCB2     		uxtb	r4, r3
 1293              	.L125:
 1294 0078 059B     		ldr	r3, [sp, #20]
 1295 007a 0122     		movs	r2, #1
 1296 007c 0293     		str	r3, [sp, #8]
 1297 007e 0223     		movs	r3, #2
 1298 0080 0021     		movs	r1, #0
 1299 0082 0193     		str	r3, [sp, #4]
 1300 0084 2800     		movs	r0, r5
 1301 0086 0094     		str	r4, [sp]
 1302 0088 07AB     		add	r3, sp, #28
 1303 008a FFF7FEFF 		bl	lr1mac_core_payload_send
 1304              	.L124:
 1305 008e 45B0     		add	sp, sp, #276
 1306              		@ sp needed
 1307 0090 F0BD     		pop	{r4, r5, r6, r7, pc}
 1308              	.L122:
 1309 0092 114B     		ldr	r3, .L143+4
 1310 0094 EA5C     		ldrb	r2, [r5, r3]
 1311 0096 012A     		cmp	r2, #1
 1312 0098 EED0     		beq	.L125
 1313 009a 0122     		movs	r2, #1
 1314 009c EA54     		strb	r2, [r5, r3]
 1315 009e A318     		adds	r3, r4, r2
ARM GAS  /tmp/ccqGV7VH.s 			page 24


 1316 00a0 E7E7     		b	.L142
 1317              	.L123:
 1318 00a2 0E4B     		ldr	r3, .L143+8
 1319 00a4 EA5C     		ldrb	r2, [r5, r3]
 1320 00a6 012A     		cmp	r2, #1
 1321 00a8 E6D0     		beq	.L125
 1322 00aa 0122     		movs	r2, #1
 1323 00ac 0720     		movs	r0, #7
 1324 00ae EA54     		strb	r2, [r5, r3]
 1325 00b0 07A9     		add	r1, sp, #28
 1326 00b2 A318     		adds	r3, r4, r2
 1327 00b4 0A4A     		ldr	r2, .L143+12
 1328 00b6 0E55     		strb	r6, [r1, r4]
 1329 00b8 AA5C     		ldrb	r2, [r5, r2]
 1330 00ba DBB2     		uxtb	r3, r3
 1331 00bc 0240     		ands	r2, r0
 1332 00be CA54     		strb	r2, [r1, r3]
 1333 00c0 2B00     		movs	r3, r5
 1334 00c2 0022     		movs	r2, #0
 1335 00c4 0234     		adds	r4, r4, #2
 1336 00c6 7733     		adds	r3, r3, #119
 1337 00c8 E4B2     		uxtb	r4, r4
 1338 00ca 1A70     		strb	r2, [r3]
 1339 00cc D4E7     		b	.L125
 1340              	.L129:
 1341 00ce 0120     		movs	r0, #1
 1342 00d0 4042     		rsbs	r0, r0, #0
 1343 00d2 DCE7     		b	.L124
 1344              	.L144:
 1345              		.align	2
 1346              	.L143:
 1347 00d4 44050000 		.word	1348
 1348 00d8 45050000 		.word	1349
 1349 00dc 46050000 		.word	1350
 1350 00e0 51050000 		.word	1361
 1352              		.section	.text.lr1mac_core_payload_send_at_time,"ax",%progbits
 1353              		.align	1
 1354              		.global	lr1mac_core_payload_send_at_time
 1355              		.syntax unified
 1356              		.code	16
 1357              		.thumb_func
 1358              		.fpu softvfp
 1360              	lr1mac_core_payload_send_at_time:
 1361              		@ args = 12, pretend = 0, frame = 0
 1362              		@ frame_needed = 0, uses_anonymous_args = 0
 1363 0000 7FB5     		push	{r0, r1, r2, r3, r4, r5, r6, lr}
 1364 0002 0400     		movs	r4, r0
 1365 0004 09AD     		add	r5, sp, #36
 1366 0006 08A8     		add	r0, sp, #32
 1367 0008 0078     		ldrb	r0, [r0]
 1368 000a 2D78     		ldrb	r5, [r5]
 1369 000c 0A9E     		ldr	r6, [sp, #40]
 1370 000e 0090     		str	r0, [sp]
 1371 0010 0296     		str	r6, [sp, #8]
 1372 0012 2000     		movs	r0, r4
 1373 0014 0195     		str	r5, [sp, #4]
 1374 0016 FFF7FEFF 		bl	lr1mac_core_payload_send
ARM GAS  /tmp/ccqGV7VH.s 			page 25


 1375 001a 0028     		cmp	r0, #0
 1376 001c 05D1     		bne	.L146
 1377 001e A322     		movs	r2, #163
 1378 0020 0123     		movs	r3, #1
 1379 0022 D200     		lsls	r2, r2, #3
 1380 0024 A354     		strb	r3, [r4, r2]
 1381 0026 5234     		adds	r4, r4, #82
 1382 0028 2370     		strb	r3, [r4]
 1383              	.L146:
 1384 002a 04B0     		add	sp, sp, #16
 1385              		@ sp needed
 1386 002c 70BD     		pop	{r4, r5, r6, pc}
 1388              		.section	.text.lr1mac_core_rx_ack_bit_get,"ax",%progbits
 1389              		.align	1
 1390              		.global	lr1mac_core_rx_ack_bit_get
 1391              		.syntax unified
 1392              		.code	16
 1393              		.thumb_func
 1394              		.fpu softvfp
 1396              	lr1mac_core_rx_ack_bit_get:
 1397              		@ args = 0, pretend = 0, frame = 0
 1398              		@ frame_needed = 0, uses_anonymous_args = 0
 1399              		@ link register save eliminated.
 1400 0000 FE23     		movs	r3, #254
 1401              		@ sp needed
 1402 0002 FF33     		adds	r3, r3, #255
 1403 0004 C05C     		ldrb	r0, [r0, r3]
 1404 0006 7047     		bx	lr
 1406              		.section	.text.lr1mac_core_rx_fpending_bit_get,"ax",%progbits
 1407              		.align	1
 1408              		.global	lr1mac_core_rx_fpending_bit_get
 1409              		.syntax unified
 1410              		.code	16
 1411              		.thumb_func
 1412              		.fpu softvfp
 1414              	lr1mac_core_rx_fpending_bit_get:
 1415              		@ args = 0, pretend = 0, frame = 0
 1416              		@ frame_needed = 0, uses_anonymous_args = 0
 1417              		@ link register save eliminated.
 1418 0000 FF23     		movs	r3, #255
 1419              		@ sp needed
 1420 0002 5B00     		lsls	r3, r3, #1
 1421 0004 C05C     		ldrb	r0, [r0, r3]
 1422 0006 7047     		bx	lr
 1424              		.section	.text.lr1mac_core_get_region,"ax",%progbits
 1425              		.align	1
 1426              		.global	lr1mac_core_get_region
 1427              		.syntax unified
 1428              		.code	16
 1429              		.thumb_func
 1430              		.fpu softvfp
 1432              	lr1mac_core_get_region:
 1433              		@ args = 0, pretend = 0, frame = 0
 1434              		@ frame_needed = 0, uses_anonymous_args = 0
 1435              		@ link register save eliminated.
 1436 0000 836B     		ldr	r3, [r0, #56]
 1437              		@ sp needed
ARM GAS  /tmp/ccqGV7VH.s 			page 26


 1438 0002 1878     		ldrb	r0, [r3]
 1439 0004 7047     		bx	lr
 1441              		.section	.text.lr1mac_core_set_region,"ax",%progbits
 1442              		.align	1
 1443              		.global	lr1mac_core_set_region
 1444              		.syntax unified
 1445              		.code	16
 1446              		.thumb_func
 1447              		.fpu softvfp
 1449              	lr1mac_core_set_region:
 1450              		@ args = 0, pretend = 0, frame = 0
 1451              		@ frame_needed = 0, uses_anonymous_args = 0
 1452 0000 70B5     		push	{r4, r5, r6, lr}
 1453 0002 0500     		movs	r5, r0
 1454 0004 0800     		movs	r0, r1
 1455 0006 0E00     		movs	r6, r1
 1456 0008 FFF7FEFF 		bl	smtc_real_is_supported_region
 1457 000c 041E     		subs	r4, r0, #0
 1458 000e 0FD1     		bne	.L152
 1459 0010 AB6B     		ldr	r3, [r5, #56]
 1460 0012 2800     		movs	r0, r5
 1461 0014 1E70     		strb	r6, [r3]
 1462 0016 FFF7FEFF 		bl	lr1mac_core_context_save
 1463 001a 2800     		movs	r0, r5
 1464 001c FFF7FEFF 		bl	smtc_real_config
 1465 0020 2800     		movs	r0, r5
 1466 0022 FFF7FEFF 		bl	smtc_real_init
 1467 0026 9523     		movs	r3, #149
 1468 0028 2000     		movs	r0, r4
 1469 002a DB00     		lsls	r3, r3, #3
 1470 002c EC50     		str	r4, [r5, r3]
 1471              	.L151:
 1472              		@ sp needed
 1473 002e 70BD     		pop	{r4, r5, r6, pc}
 1474              	.L152:
 1475 0030 0120     		movs	r0, #1
 1476 0032 4042     		rsbs	r0, r0, #0
 1477 0034 FBE7     		b	.L151
 1479              		.section	.text.lr1mac_core_set_no_rx_packet_threshold,"ax",%progbits
 1480              		.align	1
 1481              		.global	lr1mac_core_set_no_rx_packet_threshold
 1482              		.syntax unified
 1483              		.code	16
 1484              		.thumb_func
 1485              		.fpu softvfp
 1487              	lr1mac_core_set_no_rx_packet_threshold:
 1488              		@ args = 0, pretend = 0, frame = 0
 1489              		@ frame_needed = 0, uses_anonymous_args = 0
 1490              		@ link register save eliminated.
 1491 0000 014B     		ldr	r3, .L154
 1492              		@ sp needed
 1493 0002 C152     		strh	r1, [r0, r3]
 1494 0004 7047     		bx	lr
 1495              	.L155:
 1496 0006 C046     		.align	2
 1497              	.L154:
 1498 0008 9C040000 		.word	1180
ARM GAS  /tmp/ccqGV7VH.s 			page 27


 1500              		.section	.text.lr1mac_core_get_no_rx_packet_threshold,"ax",%progbits
 1501              		.align	1
 1502              		.global	lr1mac_core_get_no_rx_packet_threshold
 1503              		.syntax unified
 1504              		.code	16
 1505              		.thumb_func
 1506              		.fpu softvfp
 1508              	lr1mac_core_get_no_rx_packet_threshold:
 1509              		@ args = 0, pretend = 0, frame = 0
 1510              		@ frame_needed = 0, uses_anonymous_args = 0
 1511              		@ link register save eliminated.
 1512 0000 014B     		ldr	r3, .L157
 1513              		@ sp needed
 1514 0002 C05A     		ldrh	r0, [r0, r3]
 1515 0004 7047     		bx	lr
 1516              	.L158:
 1517 0006 C046     		.align	2
 1518              	.L157:
 1519 0008 9C040000 		.word	1180
 1521              		.section	.text.lr1mac_core_get_current_adr_ack_cnt,"ax",%progbits
 1522              		.align	1
 1523              		.global	lr1mac_core_get_current_adr_ack_cnt
 1524              		.syntax unified
 1525              		.code	16
 1526              		.thumb_func
 1527              		.fpu softvfp
 1529              	lr1mac_core_get_current_adr_ack_cnt:
 1530              		@ args = 0, pretend = 0, frame = 0
 1531              		@ frame_needed = 0, uses_anonymous_args = 0
 1532              		@ link register save eliminated.
 1533 0000 9123     		movs	r3, #145
 1534              		@ sp needed
 1535 0002 DB00     		lsls	r3, r3, #3
 1536 0004 C058     		ldr	r0, [r0, r3]
 1537 0006 80B2     		uxth	r0, r0
 1538 0008 7047     		bx	lr
 1540              		.section	.text.lr1mac_core_get_current_no_rx_packet_in_mobile_mode,"ax",%progbits
 1541              		.align	1
 1542              		.global	lr1mac_core_get_current_no_rx_packet_in_mobile_mode
 1543              		.syntax unified
 1544              		.code	16
 1545              		.thumb_func
 1546              		.fpu softvfp
 1548              	lr1mac_core_get_current_no_rx_packet_in_mobile_mode:
 1549              		@ args = 0, pretend = 0, frame = 0
 1550              		@ frame_needed = 0, uses_anonymous_args = 0
 1551              		@ link register save eliminated.
 1552 0000 9423     		movs	r3, #148
 1553              		@ sp needed
 1554 0002 DB00     		lsls	r3, r3, #3
 1555 0004 C05A     		ldrh	r0, [r0, r3]
 1556 0006 7047     		bx	lr
 1558              		.section	.text.lr1mac_core_reset_no_rx_packet_in_mobile_mode_cnt,"ax",%progbits
 1559              		.align	1
 1560              		.global	lr1mac_core_reset_no_rx_packet_in_mobile_mode_cnt
 1561              		.syntax unified
 1562              		.code	16
ARM GAS  /tmp/ccqGV7VH.s 			page 28


 1563              		.thumb_func
 1564              		.fpu softvfp
 1566              	lr1mac_core_reset_no_rx_packet_in_mobile_mode_cnt:
 1567              		@ args = 0, pretend = 0, frame = 0
 1568              		@ frame_needed = 0, uses_anonymous_args = 0
 1569              		@ link register save eliminated.
 1570 0000 9423     		movs	r3, #148
 1571              		@ sp needed
 1572 0002 0022     		movs	r2, #0
 1573 0004 DB00     		lsls	r3, r3, #3
 1574 0006 C252     		strh	r2, [r0, r3]
 1575 0008 7047     		bx	lr
 1577              		.section	.text.lr1mac_core_get_current_no_rx_packet_cnt,"ax",%progbits
 1578              		.align	1
 1579              		.global	lr1mac_core_get_current_no_rx_packet_cnt
 1580              		.syntax unified
 1581              		.code	16
 1582              		.thumb_func
 1583              		.fpu softvfp
 1585              	lr1mac_core_get_current_no_rx_packet_cnt:
 1586              		@ args = 0, pretend = 0, frame = 0
 1587              		@ frame_needed = 0, uses_anonymous_args = 0
 1588              		@ link register save eliminated.
 1589 0000 014B     		ldr	r3, .L163
 1590              		@ sp needed
 1591 0002 C05A     		ldrh	r0, [r0, r3]
 1592 0004 7047     		bx	lr
 1593              	.L164:
 1594 0006 C046     		.align	2
 1595              	.L163:
 1596 0008 9E040000 		.word	1182
 1598              		.section	.text.lr1mac_core_available_link_adr_get,"ax",%progbits
 1599              		.align	1
 1600              		.global	lr1mac_core_available_link_adr_get
 1601              		.syntax unified
 1602              		.code	16
 1603              		.thumb_func
 1604              		.fpu softvfp
 1606              	lr1mac_core_available_link_adr_get:
 1607              		@ args = 0, pretend = 0, frame = 0
 1608              		@ frame_needed = 0, uses_anonymous_args = 0
 1609              		@ link register save eliminated.
 1610 0000 034A     		ldr	r2, .L170
 1611 0002 0300     		movs	r3, r0
 1612 0004 805C     		ldrb	r0, [r0, r2]
 1613 0006 0028     		cmp	r0, #0
 1614 0008 01D0     		beq	.L166
 1615 000a 0021     		movs	r1, #0
 1616 000c 9954     		strb	r1, [r3, r2]
 1617              	.L166:
 1618              		@ sp needed
 1619 000e 7047     		bx	lr
 1620              	.L171:
 1621              		.align	2
 1622              	.L170:
 1623 0010 19050000 		.word	1305
 1625              		.section	.text.lr1mac_core_certification_set,"ax",%progbits
ARM GAS  /tmp/ccqGV7VH.s 			page 29


 1626              		.align	1
 1627              		.global	lr1mac_core_certification_set
 1628              		.syntax unified
 1629              		.code	16
 1630              		.thumb_func
 1631              		.fpu softvfp
 1633              	lr1mac_core_certification_set:
 1634              		@ args = 0, pretend = 0, frame = 0
 1635              		@ frame_needed = 0, uses_anonymous_args = 0
 1636 0000 10B5     		push	{r4, lr}
 1637 0002 024B     		ldr	r3, .L173
 1638              		@ sp needed
 1639 0004 C154     		strb	r1, [r0, r3]
 1640 0006 FFF7FEFF 		bl	lr1mac_core_context_save
 1641 000a 10BD     		pop	{r4, pc}
 1642              	.L174:
 1643              		.align	2
 1644              	.L173:
 1645 000c 1A050000 		.word	1306
 1647              		.section	.text.lr1mac_core_certification_get,"ax",%progbits
 1648              		.align	1
 1649              		.global	lr1mac_core_certification_get
 1650              		.syntax unified
 1651              		.code	16
 1652              		.thumb_func
 1653              		.fpu softvfp
 1655              	lr1mac_core_certification_get:
 1656              		@ args = 0, pretend = 0, frame = 0
 1657              		@ frame_needed = 0, uses_anonymous_args = 0
 1658              		@ link register save eliminated.
 1659 0000 014B     		ldr	r3, .L176
 1660              		@ sp needed
 1661 0002 C05C     		ldrb	r0, [r0, r3]
 1662 0004 7047     		bx	lr
 1663              	.L177:
 1664 0006 C046     		.align	2
 1665              	.L176:
 1666 0008 1A050000 		.word	1306
 1668              		.section	.text.lr1mac_core_get_lorawan_version,"ax",%progbits
 1669              		.align	1
 1670              		.global	lr1mac_core_get_lorawan_version
 1671              		.syntax unified
 1672              		.code	16
 1673              		.thumb_func
 1674              		.fpu softvfp
 1676              	lr1mac_core_get_lorawan_version:
 1677              		@ args = 0, pretend = 0, frame = 8
 1678              		@ frame_needed = 0, uses_anonymous_args = 0
 1679              		@ link register save eliminated.
 1680 0000 0148     		ldr	r0, .L179
 1681 0002 82B0     		sub	sp, sp, #8
 1682 0004 02B0     		add	sp, sp, #8
 1683              		@ sp needed
 1684 0006 7047     		bx	lr
 1685              	.L180:
 1686              		.align	2
 1687              	.L179:
ARM GAS  /tmp/ccqGV7VH.s 			page 30


 1688 0008 01000401 		.word	17039361
 1690              		.section	.text.lr1mac_core_is_time_valid,"ax",%progbits
 1691              		.align	1
 1692              		.global	lr1mac_core_is_time_valid
 1693              		.syntax unified
 1694              		.code	16
 1695              		.thumb_func
 1696              		.fpu softvfp
 1698              	lr1mac_core_is_time_valid:
 1699              		@ args = 0, pretend = 0, frame = 0
 1700              		@ frame_needed = 0, uses_anonymous_args = 0
 1701 0000 10B5     		push	{r4, lr}
 1702 0002 0400     		movs	r4, r0
 1703 0004 FFF7FEFF 		bl	smtc_modem_hal_get_time_in_s
 1704 0008 0300     		movs	r3, r0
 1705 000a 0020     		movs	r0, #0
 1706 000c 054A     		ldr	r2, .L185
 1707 000e A258     		ldr	r2, [r4, r2]
 1708 0010 8242     		cmp	r2, r0
 1709 0012 05D0     		beq	.L182
 1710 0014 A821     		movs	r1, #168
 1711 0016 C900     		lsls	r1, r1, #3
 1712 0018 6058     		ldr	r0, [r4, r1]
 1713 001a 1218     		adds	r2, r2, r0
 1714 001c 9B1A     		subs	r3, r3, r2
 1715 001e D80F     		lsrs	r0, r3, #31
 1716              	.L182:
 1717              		@ sp needed
 1718 0020 10BD     		pop	{r4, pc}
 1719              	.L186:
 1720 0022 C046     		.align	2
 1721              	.L185:
 1722 0024 34050000 		.word	1332
 1724              		.global	__aeabi_uidiv
 1725              		.global	__aeabi_uidivmod
 1726              		.section	.text.lr1mac_core_convert_rtc_to_gps_epoch_time,"ax",%progbits
 1727              		.align	1
 1728              		.global	lr1mac_core_convert_rtc_to_gps_epoch_time
 1729              		.syntax unified
 1730              		.code	16
 1731              		.thumb_func
 1732              		.fpu softvfp
 1734              	lr1mac_core_convert_rtc_to_gps_epoch_time:
 1735              		@ args = 0, pretend = 0, frame = 0
 1736              		@ frame_needed = 0, uses_anonymous_args = 0
 1737 0000 F8B5     		push	{r3, r4, r5, r6, r7, lr}
 1738 0002 1E00     		movs	r6, r3
 1739              		@ sp needed
 1740 0004 A523     		movs	r3, #165
 1741 0006 DB00     		lsls	r3, r3, #3
 1742 0008 C558     		ldr	r5, [r0, r3]
 1743 000a 0C4B     		ldr	r3, .L188
 1744 000c 4919     		adds	r1, r1, r5
 1745 000e C558     		ldr	r5, [r0, r3]
 1746 0010 0400     		movs	r4, r0
 1747 0012 4D1B     		subs	r5, r1, r5
 1748 0014 FA21     		movs	r1, #250
ARM GAS  /tmp/ccqGV7VH.s 			page 31


 1749 0016 2800     		movs	r0, r5
 1750 0018 8900     		lsls	r1, r1, #2
 1751 001a 1700     		movs	r7, r2
 1752 001c FFF7FEFF 		bl	__aeabi_uidiv
 1753 0020 FA21     		movs	r1, #250
 1754 0022 074B     		ldr	r3, .L188+4
 1755 0024 8900     		lsls	r1, r1, #2
 1756 0026 E358     		ldr	r3, [r4, r3]
 1757 0028 1B18     		adds	r3, r3, r0
 1758 002a 3B60     		str	r3, [r7]
 1759 002c 2800     		movs	r0, r5
 1760 002e FFF7FEFF 		bl	__aeabi_uidivmod
 1761 0032 2000     		movs	r0, r4
 1762 0034 3160     		str	r1, [r6]
 1763 0036 FFF7FEFF 		bl	lr1mac_core_is_time_valid
 1764 003a F8BD     		pop	{r3, r4, r5, r6, r7, pc}
 1765              	.L189:
 1766              		.align	2
 1767              	.L188:
 1768 003c 2C050000 		.word	1324
 1769 0040 24050000 		.word	1316
 1771              		.section	.text.lr1mac_core_get_timestamp_last_device_time_ans_s,"ax",%progbits
 1772              		.align	1
 1773              		.global	lr1mac_core_get_timestamp_last_device_time_ans_s
 1774              		.syntax unified
 1775              		.code	16
 1776              		.thumb_func
 1777              		.fpu softvfp
 1779              	lr1mac_core_get_timestamp_last_device_time_ans_s:
 1780              		@ args = 0, pretend = 0, frame = 0
 1781              		@ frame_needed = 0, uses_anonymous_args = 0
 1782              		@ link register save eliminated.
 1783 0000 014B     		ldr	r3, .L191
 1784              		@ sp needed
 1785 0002 C058     		ldr	r0, [r0, r3]
 1786 0004 7047     		bx	lr
 1787              	.L192:
 1788 0006 C046     		.align	2
 1789              	.L191:
 1790 0008 34050000 		.word	1332
 1792              		.section	.text.lr1mac_core_get_time_left_connection_lost,"ax",%progbits
 1793              		.align	1
 1794              		.global	lr1mac_core_get_time_left_connection_lost
 1795              		.syntax unified
 1796              		.code	16
 1797              		.thumb_func
 1798              		.fpu softvfp
 1800              	lr1mac_core_get_time_left_connection_lost:
 1801              		@ args = 0, pretend = 0, frame = 0
 1802              		@ frame_needed = 0, uses_anonymous_args = 0
 1803 0000 10B5     		push	{r4, lr}
 1804 0002 0400     		movs	r4, r0
 1805 0004 FFF7FEFF 		bl	smtc_modem_hal_get_time_in_s
 1806 0008 A823     		movs	r3, #168
 1807 000a DB00     		lsls	r3, r3, #3
 1808 000c 0200     		movs	r2, r0
 1809 000e E058     		ldr	r0, [r4, r3]
ARM GAS  /tmp/ccqGV7VH.s 			page 32


 1810 0010 074B     		ldr	r3, .L199
 1811 0012 E358     		ldr	r3, [r4, r3]
 1812 0014 002B     		cmp	r3, #0
 1813 0016 08D0     		beq	.L193
 1814 0018 D11A     		subs	r1, r2, r3
 1815 001a 8842     		cmp	r0, r1
 1816 001c 05D3     		bcc	.L193
 1817 001e 1B18     		adds	r3, r3, r0
 1818 0020 9B1A     		subs	r3, r3, r2
 1819 0022 9842     		cmp	r0, r3
 1820 0024 02D2     		bcs	.L195
 1821 0026 E120     		movs	r0, #225
 1822 0028 0001     		lsls	r0, r0, #4
 1823              	.L193:
 1824              		@ sp needed
 1825 002a 10BD     		pop	{r4, pc}
 1826              	.L195:
 1827 002c 1800     		movs	r0, r3
 1828 002e FCE7     		b	.L193
 1829              	.L200:
 1830              		.align	2
 1831              	.L199:
 1832 0030 34050000 		.word	1332
 1834              		.section	.text.lr1mac_core_set_device_time_callback,"ax",%progbits
 1835              		.align	1
 1836              		.global	lr1mac_core_set_device_time_callback
 1837              		.syntax unified
 1838              		.code	16
 1839              		.thumb_func
 1840              		.fpu softvfp
 1842              	lr1mac_core_set_device_time_callback:
 1843              		@ args = 0, pretend = 0, frame = 0
 1844              		@ frame_needed = 0, uses_anonymous_args = 0
 1845              		@ link register save eliminated.
 1846 0000 0029     		cmp	r1, #0
 1847 0002 04D0     		beq	.L201
 1848 0004 A723     		movs	r3, #167
 1849 0006 DB00     		lsls	r3, r3, #3
 1850 0008 C150     		str	r1, [r0, r3]
 1851 000a 014B     		ldr	r3, .L206
 1852 000c C250     		str	r2, [r0, r3]
 1853              	.L201:
 1854              		@ sp needed
 1855 000e 7047     		bx	lr
 1856              	.L207:
 1857              		.align	2
 1858              	.L206:
 1859 0010 3C050000 		.word	1340
 1861              		.section	.text.lr1_mac_core_set_device_time_invalid_delay_s,"ax",%progbits
 1862              		.align	1
 1863              		.global	lr1_mac_core_set_device_time_invalid_delay_s
 1864              		.syntax unified
 1865              		.code	16
 1866              		.thumb_func
 1867              		.fpu softvfp
 1869              	lr1_mac_core_set_device_time_invalid_delay_s:
 1870              		@ args = 0, pretend = 0, frame = 0
ARM GAS  /tmp/ccqGV7VH.s 			page 33


 1871              		@ frame_needed = 0, uses_anonymous_args = 0
 1872              		@ link register save eliminated.
 1873 0000 054B     		ldr	r3, .L211
 1874 0002 9942     		cmp	r1, r3
 1875 0004 04D8     		bhi	.L210
 1876 0006 A823     		movs	r3, #168
 1877 0008 DB00     		lsls	r3, r3, #3
 1878 000a C150     		str	r1, [r0, r3]
 1879 000c 0020     		movs	r0, #0
 1880              	.L209:
 1881              		@ sp needed
 1882 000e 7047     		bx	lr
 1883              	.L210:
 1884 0010 0120     		movs	r0, #1
 1885 0012 4042     		rsbs	r0, r0, #0
 1886 0014 FBE7     		b	.L209
 1887              	.L212:
 1888 0016 C046     		.align	2
 1889              	.L211:
 1890 0018 80994000 		.word	4233600
 1892              		.section	.text.lr1_mac_core_get_device_time_invalid_delay_s,"ax",%progbits
 1893              		.align	1
 1894              		.global	lr1_mac_core_get_device_time_invalid_delay_s
 1895              		.syntax unified
 1896              		.code	16
 1897              		.thumb_func
 1898              		.fpu softvfp
 1900              	lr1_mac_core_get_device_time_invalid_delay_s:
 1901              		@ args = 0, pretend = 0, frame = 0
 1902              		@ frame_needed = 0, uses_anonymous_args = 0
 1903              		@ link register save eliminated.
 1904 0000 A823     		movs	r3, #168
 1905              		@ sp needed
 1906 0002 DB00     		lsls	r3, r3, #3
 1907 0004 C058     		ldr	r0, [r0, r3]
 1908 0006 7047     		bx	lr
 1910              		.section	.text.lr1mac_core_set_ping_slot_periodicity,"ax",%progbits
 1911              		.align	1
 1912              		.global	lr1mac_core_set_ping_slot_periodicity
 1913              		.syntax unified
 1914              		.code	16
 1915              		.thumb_func
 1916              		.fpu softvfp
 1918              	lr1mac_core_set_ping_slot_periodicity:
 1919              		@ args = 0, pretend = 0, frame = 0
 1920              		@ frame_needed = 0, uses_anonymous_args = 0
 1921              		@ link register save eliminated.
 1922 0000 0729     		cmp	r1, #7
 1923 0002 08D8     		bhi	.L217
 1924 0004 054B     		ldr	r3, .L218
 1925 0006 C35C     		ldrb	r3, [r0, r3]
 1926 0008 013B     		subs	r3, r3, #1
 1927 000a 012B     		cmp	r3, #1
 1928 000c 03D9     		bls	.L217
 1929 000e 044B     		ldr	r3, .L218+4
 1930 0010 C154     		strb	r1, [r0, r3]
 1931 0012 0020     		movs	r0, #0
ARM GAS  /tmp/ccqGV7VH.s 			page 34


 1932              	.L215:
 1933              		@ sp needed
 1934 0014 7047     		bx	lr
 1935              	.L217:
 1936 0016 0120     		movs	r0, #1
 1937 0018 4042     		rsbs	r0, r0, #0
 1938 001a FBE7     		b	.L215
 1939              	.L219:
 1940              		.align	2
 1941              	.L218:
 1942 001c 46050000 		.word	1350
 1943 0020 51050000 		.word	1361
 1945              		.section	.text.lr1mac_core_get_ping_slot_periodicity,"ax",%progbits
 1946              		.align	1
 1947              		.global	lr1mac_core_get_ping_slot_periodicity
 1948              		.syntax unified
 1949              		.code	16
 1950              		.thumb_func
 1951              		.fpu softvfp
 1953              	lr1mac_core_get_ping_slot_periodicity:
 1954              		@ args = 0, pretend = 0, frame = 0
 1955              		@ frame_needed = 0, uses_anonymous_args = 0
 1956              		@ link register save eliminated.
 1957 0000 014B     		ldr	r3, .L221
 1958              		@ sp needed
 1959 0002 C05C     		ldrb	r0, [r0, r3]
 1960 0004 7047     		bx	lr
 1961              	.L222:
 1962 0006 C046     		.align	2
 1963              	.L221:
 1964 0008 51050000 		.word	1361
 1966              		.section	.text.lr1mac_core_get_class_b_status,"ax",%progbits
 1967              		.align	1
 1968              		.global	lr1mac_core_get_class_b_status
 1969              		.syntax unified
 1970              		.code	16
 1971              		.thumb_func
 1972              		.fpu softvfp
 1974              	lr1mac_core_get_class_b_status:
 1975              		@ args = 0, pretend = 0, frame = 0
 1976              		@ frame_needed = 0, uses_anonymous_args = 0
 1977              		@ link register save eliminated.
 1978 0000 7730     		adds	r0, r0, #119
 1979 0002 0078     		ldrb	r0, [r0]
 1980              		@ sp needed
 1981 0004 431E     		subs	r3, r0, #1
 1982 0006 9841     		sbcs	r0, r0, r3
 1983 0008 C0B2     		uxtb	r0, r0
 1984 000a 7047     		bx	lr
 1986              		.section	.text.lr1_mac_core_get_link_check_ans,"ax",%progbits
 1987              		.align	1
 1988              		.global	lr1_mac_core_get_link_check_ans
 1989              		.syntax unified
 1990              		.code	16
 1991              		.thumb_func
 1992              		.fpu softvfp
 1994              	lr1_mac_core_get_link_check_ans:
ARM GAS  /tmp/ccqGV7VH.s 			page 35


 1995              		@ args = 0, pretend = 0, frame = 0
 1996              		@ frame_needed = 0, uses_anonymous_args = 0
 1997              		@ link register save eliminated.
 1998 0000 094B     		ldr	r3, .L227
 1999 0002 C35C     		ldrb	r3, [r0, r3]
 2000 0004 032B     		cmp	r3, #3
 2001 0006 08D1     		bne	.L225
 2002 0008 A423     		movs	r3, #164
 2003 000a DB00     		lsls	r3, r3, #3
 2004 000c C35C     		ldrb	r3, [r0, r3]
 2005 000e 0B70     		strb	r3, [r1]
 2006 0010 064B     		ldr	r3, .L227+4
 2007 0012 C35C     		ldrb	r3, [r0, r3]
 2008 0014 0020     		movs	r0, #0
 2009 0016 1370     		strb	r3, [r2]
 2010              	.L226:
 2011              		@ sp needed
 2012 0018 7047     		bx	lr
 2013              	.L225:
 2014 001a 0023     		movs	r3, #0
 2015 001c 0120     		movs	r0, #1
 2016 001e 0B70     		strb	r3, [r1]
 2017 0020 4042     		rsbs	r0, r0, #0
 2018 0022 1370     		strb	r3, [r2]
 2019 0024 F8E7     		b	.L226
 2020              	.L228:
 2021 0026 C046     		.align	2
 2022              	.L227:
 2023 0028 44050000 		.word	1348
 2024 002c 21050000 		.word	1313
 2026              		.section	.text.lr1_mac_core_get_device_time_req_status,"ax",%progbits
 2027              		.align	1
 2028              		.global	lr1_mac_core_get_device_time_req_status
 2029              		.syntax unified
 2030              		.code	16
 2031              		.thumb_func
 2032              		.fpu softvfp
 2034              	lr1_mac_core_get_device_time_req_status:
 2035              		@ args = 0, pretend = 0, frame = 0
 2036              		@ frame_needed = 0, uses_anonymous_args = 0
 2037              		@ link register save eliminated.
 2038 0000 034B     		ldr	r3, .L230
 2039              		@ sp needed
 2040 0002 C05C     		ldrb	r0, [r0, r3]
 2041 0004 0338     		subs	r0, r0, #3
 2042 0006 431E     		subs	r3, r0, #1
 2043 0008 9841     		sbcs	r0, r0, r3
 2044 000a 4042     		rsbs	r0, r0, #0
 2045 000c 7047     		bx	lr
 2046              	.L231:
 2047 000e C046     		.align	2
 2048              	.L230:
 2049 0010 45050000 		.word	1349
 2051              		.section	.text.lr1_mac_core_get_ping_slot_info_req_status,"ax",%progbits
 2052              		.align	1
 2053              		.global	lr1_mac_core_get_ping_slot_info_req_status
 2054              		.syntax unified
ARM GAS  /tmp/ccqGV7VH.s 			page 36


 2055              		.code	16
 2056              		.thumb_func
 2057              		.fpu softvfp
 2059              	lr1_mac_core_get_ping_slot_info_req_status:
 2060              		@ args = 0, pretend = 0, frame = 0
 2061              		@ frame_needed = 0, uses_anonymous_args = 0
 2062              		@ link register save eliminated.
 2063 0000 034B     		ldr	r3, .L233
 2064              		@ sp needed
 2065 0002 C05C     		ldrb	r0, [r0, r3]
 2066 0004 0338     		subs	r0, r0, #3
 2067 0006 431E     		subs	r3, r0, #1
 2068 0008 9841     		sbcs	r0, r0, r3
 2069 000a 4042     		rsbs	r0, r0, #0
 2070 000c 7047     		bx	lr
 2071              	.L234:
 2072 000e C046     		.align	2
 2073              	.L233:
 2074 0010 46050000 		.word	1350
 2076              		.section	.text.lr1mac_core_get_status_push_network_downlink_to_user,"ax",%progbits
 2077              		.align	1
 2078              		.global	lr1mac_core_get_status_push_network_downlink_to_user
 2079              		.syntax unified
 2080              		.code	16
 2081              		.thumb_func
 2082              		.fpu softvfp
 2084              	lr1mac_core_get_status_push_network_downlink_to_user:
 2085              		@ args = 0, pretend = 0, frame = 0
 2086              		@ frame_needed = 0, uses_anonymous_args = 0
 2087              		@ link register save eliminated.
 2088 0000 014B     		ldr	r3, .L236
 2089              		@ sp needed
 2090 0002 C05C     		ldrb	r0, [r0, r3]
 2091 0004 7047     		bx	lr
 2092              	.L237:
 2093 0006 C046     		.align	2
 2094              	.L236:
 2095 0008 53050000 		.word	1363
 2097              		.section	.text.lr1mac_core_set_status_push_network_downlink_to_user,"ax",%progbits
 2098              		.align	1
 2099              		.global	lr1mac_core_set_status_push_network_downlink_to_user
 2100              		.syntax unified
 2101              		.code	16
 2102              		.thumb_func
 2103              		.fpu softvfp
 2105              	lr1mac_core_set_status_push_network_downlink_to_user:
 2106              		@ args = 0, pretend = 0, frame = 0
 2107              		@ frame_needed = 0, uses_anonymous_args = 0
 2108              		@ link register save eliminated.
 2109 0000 014B     		ldr	r3, .L239
 2110              		@ sp needed
 2111 0002 C154     		strb	r1, [r0, r3]
 2112 0004 7047     		bx	lr
 2113              	.L240:
 2114 0006 C046     		.align	2
 2115              	.L239:
 2116 0008 53050000 		.word	1363
ARM GAS  /tmp/ccqGV7VH.s 			page 37


 2118              		.section	.text.lr1mac_core_set_adr_ack_limit_delay,"ax",%progbits
 2119              		.align	1
 2120              		.global	lr1mac_core_set_adr_ack_limit_delay
 2121              		.syntax unified
 2122              		.code	16
 2123              		.thumb_func
 2124              		.fpu softvfp
 2126              	lr1mac_core_set_adr_ack_limit_delay:
 2127              		@ args = 0, pretend = 0, frame = 0
 2128              		@ frame_needed = 0, uses_anonymous_args = 0
 2129              		@ link register save eliminated.
 2130 0000 0300     		movs	r3, r0
 2131 0002 881E     		subs	r0, r1, #2
 2132 0004 7D28     		cmp	r0, #125
 2133 0006 0BD8     		bhi	.L244
 2134 0008 901E     		subs	r0, r2, #2
 2135 000a 7D28     		cmp	r0, #125
 2136 000c 08D8     		bhi	.L244
 2137 000e 0648     		ldr	r0, .L245
 2138 0010 1954     		strb	r1, [r3, r0]
 2139 0012 0649     		ldr	r1, .L245+4
 2140 0014 0020     		movs	r0, #0
 2141 0016 5A54     		strb	r2, [r3, r1]
 2142 0018 9122     		movs	r2, #145
 2143 001a D200     		lsls	r2, r2, #3
 2144 001c 9850     		str	r0, [r3, r2]
 2145              	.L242:
 2146              		@ sp needed
 2147 001e 7047     		bx	lr
 2148              	.L244:
 2149 0020 0120     		movs	r0, #1
 2150 0022 4042     		rsbs	r0, r0, #0
 2151 0024 FBE7     		b	.L242
 2152              	.L246:
 2153 0026 C046     		.align	2
 2154              	.L245:
 2155 0028 8D040000 		.word	1165
 2156 002c 8C040000 		.word	1164
 2158              		.section	.text.lr1mac_core_get_adr_ack_limit_delay,"ax",%progbits
 2159              		.align	1
 2160              		.global	lr1mac_core_get_adr_ack_limit_delay
 2161              		.syntax unified
 2162              		.code	16
 2163              		.thumb_func
 2164              		.fpu softvfp
 2166              	lr1mac_core_get_adr_ack_limit_delay:
 2167              		@ args = 0, pretend = 0, frame = 0
 2168              		@ frame_needed = 0, uses_anonymous_args = 0
 2169              		@ link register save eliminated.
 2170 0000 034B     		ldr	r3, .L248
 2171              		@ sp needed
 2172 0002 C35C     		ldrb	r3, [r0, r3]
 2173 0004 0B70     		strb	r3, [r1]
 2174 0006 034B     		ldr	r3, .L248+4
 2175 0008 C35C     		ldrb	r3, [r0, r3]
 2176 000a 1370     		strb	r3, [r2]
 2177 000c 7047     		bx	lr
ARM GAS  /tmp/ccqGV7VH.s 			page 38


 2178              	.L249:
 2179 000e C046     		.align	2
 2180              	.L248:
 2181 0010 8D040000 		.word	1165
 2182 0014 8C040000 		.word	1164
 2184              		.section	.text.lr1mac_core_abort,"ax",%progbits
 2185              		.align	1
 2186              		.global	lr1mac_core_abort
 2187              		.syntax unified
 2188              		.code	16
 2189              		.thumb_func
 2190              		.fpu softvfp
 2192              	lr1mac_core_abort:
 2193              		@ args = 0, pretend = 0, frame = 0
 2194              		@ frame_needed = 0, uses_anonymous_args = 0
 2195 0000 0023     		movs	r3, #0
 2196 0002 0A4A     		ldr	r2, .L251
 2197 0004 10B5     		push	{r4, lr}
 2198 0006 8354     		strb	r3, [r0, r2]
 2199 0008 A222     		movs	r2, #162
 2200              		@ sp needed
 2201 000a D200     		lsls	r2, r2, #3
 2202 000c 8354     		strb	r3, [r0, r2]
 2203 000e 084A     		ldr	r2, .L251+4
 2204 0010 8354     		strb	r3, [r0, r2]
 2205 0012 0300     		movs	r3, r0
 2206 0014 0122     		movs	r2, #1
 2207 0016 5233     		adds	r3, r3, #82
 2208 0018 1A70     		strb	r2, [r3]
 2209 001a 9823     		movs	r3, #152
 2210 001c DB00     		lsls	r3, r3, #3
 2211 001e C15C     		ldrb	r1, [r0, r3]
 2212 0020 044B     		ldr	r3, .L251+8
 2213 0022 C058     		ldr	r0, [r0, r3]
 2214 0024 FFF7FEFF 		bl	rp_task_abort
 2215 0028 10BD     		pop	{r4, pc}
 2216              	.L252:
 2217 002a C046     		.align	2
 2218              	.L251:
 2219 002c 11030000 		.word	785
 2220 0030 D9040000 		.word	1241
 2221 0034 BC040000 		.word	1212
 2223              		.section	.text.lr1mac_core_join_status_clear,"ax",%progbits
 2224              		.align	1
 2225              		.global	lr1mac_core_join_status_clear
 2226              		.syntax unified
 2227              		.code	16
 2228              		.thumb_func
 2229              		.fpu softvfp
 2231              	lr1mac_core_join_status_clear:
 2232              		@ args = 0, pretend = 0, frame = 0
 2233              		@ frame_needed = 0, uses_anonymous_args = 0
 2234 0000 70B5     		push	{r4, r5, r6, lr}
 2235 0002 0025     		movs	r5, #0
 2236              		@ sp needed
 2237 0004 0400     		movs	r4, r0
 2238 0006 054B     		ldr	r3, .L254
ARM GAS  /tmp/ccqGV7VH.s 			page 39


 2239 0008 C554     		strb	r5, [r0, r3]
 2240 000a FFF7FEFF 		bl	lr1mac_core_abort
 2241 000e 2000     		movs	r0, r4
 2242 0010 FFF7FEFF 		bl	smtc_real_init_join_snapshot_channel_mask
 2243 0014 9523     		movs	r3, #149
 2244 0016 DB00     		lsls	r3, r3, #3
 2245 0018 E550     		str	r5, [r4, r3]
 2246 001a 70BD     		pop	{r4, r5, r6, pc}
 2247              	.L255:
 2248              		.align	2
 2249              	.L254:
 2250 001c CE040000 		.word	1230
 2252              		.ident	"GCC: (15:10.3-2021.07-4) 10.3.1 20210621 (release)"
ARM GAS  /tmp/ccqGV7VH.s 			page 40

