ARM GAS  /tmp/ccdSEGyb.s 			page 1


   1              		.cpu cortex-m0
   2              		.eabi_attribute 23, 1
   3              		.eabi_attribute 24, 1
   4              		.eabi_attribute 25, 1
   5              		.eabi_attribute 26, 1
   6              		.eabi_attribute 30, 4
   7              		.eabi_attribute 34, 0
   8              		.eabi_attribute 18, 4
   9              		.file	"modem_context.c"
  10              		.text
  11              		.section	.text.modem_context_empty_callback,"ax",%progbits
  12              		.align	1
  13              		.global	modem_context_empty_callback
  14              		.arch armv6s-m
  15              		.syntax unified
  16              		.code	16
  17              		.thumb_func
  18              		.fpu softvfp
  20              	modem_context_empty_callback:
  21              		@ args = 0, pretend = 0, frame = 0
  22              		@ frame_needed = 0, uses_anonymous_args = 0
  23              		@ link register save eliminated.
  24              		@ sp needed
  25 0000 7047     		bx	lr
  27              		.section	.text.modem_context_init,"ax",%progbits
  28              		.align	1
  29              		.global	modem_context_init
  30              		.syntax unified
  31              		.code	16
  32              		.thumb_func
  33              		.fpu softvfp
  35              	modem_context_init:
  36              		@ args = 0, pretend = 0, frame = 0
  37              		@ frame_needed = 0, uses_anonymous_args = 0
  38 0000 10B5     		push	{r4, lr}
  39 0002 0024     		movs	r4, #0
  40              		@ sp needed
  41 0004 8122     		movs	r2, #129
  42 0006 334B     		ldr	r3, .L3
  43 0008 1C70     		strb	r4, [r3]
  44 000a 334B     		ldr	r3, .L3+4
  45 000c 1A70     		strb	r2, [r3]
  46 000e 334B     		ldr	r3, .L3+8
  47 0010 4632     		adds	r2, r2, #70
  48 0012 1A70     		strb	r2, [r3]
  49 0014 324B     		ldr	r3, .L3+12
  50 0016 1C70     		strb	r4, [r3]
  51 0018 324B     		ldr	r3, .L3+16
  52 001a 1C70     		strb	r4, [r3]
  53 001c 324B     		ldr	r3, .L3+20
  54 001e 1C60     		str	r4, [r3]
  55 0020 324B     		ldr	r3, .L3+24
  56 0022 1C70     		strb	r4, [r3]
  57 0024 324B     		ldr	r3, .L3+28
  58 0026 1C70     		strb	r4, [r3]
  59 0028 324B     		ldr	r3, .L3+32
  60 002a 1A80     		strh	r2, [r3]
ARM GAS  /tmp/ccdSEGyb.s 			page 2


  61 002c 9C70     		strb	r4, [r3, #2]
  62 002e 324B     		ldr	r3, .L3+36
  63 0030 4C3A     		subs	r2, r2, #76
  64 0032 1A60     		str	r2, [r3]
  65 0034 314B     		ldr	r3, .L3+40
  66 0036 1C60     		str	r4, [r3]
  67 0038 314B     		ldr	r3, .L3+44
  68 003a 1C70     		strb	r4, [r3]
  69 003c 314B     		ldr	r3, .L3+48
  70 003e 1C70     		strb	r4, [r3]
  71 0040 314B     		ldr	r3, .L3+52
  72 0042 1C70     		strb	r4, [r3]
  73 0044 314B     		ldr	r3, .L3+56
  74 0046 1C80     		strh	r4, [r3]
  75 0048 314B     		ldr	r3, .L3+60
  76 004a 1C60     		str	r4, [r3]
  77 004c 314B     		ldr	r3, .L3+64
  78 004e 1C70     		strb	r4, [r3]
  79 0050 314B     		ldr	r3, .L3+68
  80 0052 1C70     		strb	r4, [r3]
  81 0054 314B     		ldr	r3, .L3+72
  82 0056 1C60     		str	r4, [r3]
  83 0058 314B     		ldr	r3, .L3+76
  84 005a 1C70     		strb	r4, [r3]
  85 005c 314B     		ldr	r3, .L3+80
  86 005e 1C80     		strh	r4, [r3]
  87 0060 314B     		ldr	r3, .L3+84
  88 0062 1C70     		strb	r4, [r3]
  89 0064 314B     		ldr	r3, .L3+88
  90 0066 1C70     		strb	r4, [r3]
  91 0068 314B     		ldr	r3, .L3+92
  92 006a 1C70     		strb	r4, [r3]
  93 006c FFF7FEFF 		bl	compute_crc_fw
  94 0070 0122     		movs	r2, #1
  95 0072 304B     		ldr	r3, .L3+96
  96 0074 2100     		movs	r1, r4
  97 0076 1C70     		strb	r4, [r3]
  98 0078 2F4B     		ldr	r3, .L3+100
  99 007a 3048     		ldr	r0, .L3+104
 100 007c 1C80     		strh	r4, [r3]
 101 007e 304B     		ldr	r3, .L3+108
 102 0080 1C70     		strb	r4, [r3]
 103 0082 304B     		ldr	r3, .L3+112
 104 0084 1C70     		strb	r4, [r3]
 105 0086 304B     		ldr	r3, .L3+116
 106 0088 1C70     		strb	r4, [r3]
 107 008a 304B     		ldr	r3, .L3+120
 108 008c 1C60     		str	r4, [r3]
 109 008e 304B     		ldr	r3, .L3+124
 110 0090 1A80     		strh	r2, [r3]
 111 0092 304B     		ldr	r3, .L3+128
 112 0094 0732     		adds	r2, r2, #7
 113 0096 1C60     		str	r4, [r3]
 114 0098 FFF7FEFF 		bl	memset
 115 009c 1922     		movs	r2, #25
 116 009e 2100     		movs	r1, r4
 117 00a0 2D48     		ldr	r0, .L3+132
ARM GAS  /tmp/ccdSEGyb.s 			page 3


 118 00a2 FFF7FEFF 		bl	memset
 119 00a6 1922     		movs	r2, #25
 120 00a8 2100     		movs	r1, r4
 121 00aa 2C48     		ldr	r0, .L3+136
 122 00ac FFF7FEFF 		bl	memset
 123 00b0 1922     		movs	r2, #25
 124 00b2 2100     		movs	r1, r4
 125 00b4 2A48     		ldr	r0, .L3+140
 126 00b6 FFF7FEFF 		bl	memset
 127 00ba 8422     		movs	r2, #132
 128 00bc 2100     		movs	r1, r4
 129 00be 5200     		lsls	r2, r2, #1
 130 00c0 2848     		ldr	r0, .L3+144
 131 00c2 FFF7FEFF 		bl	memset
 132 00c6 1E22     		movs	r2, #30
 133 00c8 8021     		movs	r1, #128
 134 00ca 2748     		ldr	r0, .L3+148
 135 00cc FFF7FEFF 		bl	memset
 136 00d0 10BD     		pop	{r4, pc}
 137              	.L4:
 138 00d2 C046     		.align	2
 139              	.L3:
 140 00d4 00000000 		.word	.LANCHOR0
 141 00d8 00000000 		.word	.LANCHOR1
 142 00dc 00000000 		.word	.LANCHOR2
 143 00e0 00000000 		.word	.LANCHOR3
 144 00e4 00000000 		.word	.LANCHOR4
 145 00e8 00000000 		.word	.LANCHOR5
 146 00ec 00000000 		.word	.LANCHOR6
 147 00f0 00000000 		.word	.LANCHOR7
 148 00f4 00000000 		.word	.LANCHOR8
 149 00f8 00000000 		.word	.LANCHOR9
 150 00fc 00000000 		.word	.LANCHOR10
 151 0100 00000000 		.word	.LANCHOR11
 152 0104 00000000 		.word	.LANCHOR12
 153 0108 00000000 		.word	.LANCHOR13
 154 010c 00000000 		.word	.LANCHOR14
 155 0110 00000000 		.word	.LANCHOR15
 156 0114 00000000 		.word	.LANCHOR16
 157 0118 00000000 		.word	.LANCHOR17
 158 011c 00000000 		.word	.LANCHOR18
 159 0120 00000000 		.word	.LANCHOR19
 160 0124 00000000 		.word	.LANCHOR20
 161 0128 00000000 		.word	.LANCHOR21
 162 012c 00000000 		.word	.LANCHOR22
 163 0130 00000000 		.word	.LANCHOR23
 164 0134 00000000 		.word	.LANCHOR24
 165 0138 00000000 		.word	.LANCHOR25
 166 013c 00000000 		.word	.LANCHOR32
 167 0140 00000000 		.word	.LANCHOR26
 168 0144 00000000 		.word	.LANCHOR27
 169 0148 00000000 		.word	.LANCHOR28
 170 014c 00000000 		.word	.LANCHOR29
 171 0150 00000000 		.word	.LANCHOR30
 172 0154 00000000 		.word	.LANCHOR31
 173 0158 00000000 		.word	.LANCHOR33
 174 015c 00000000 		.word	.LANCHOR34
ARM GAS  /tmp/ccdSEGyb.s 			page 4


 175 0160 00000000 		.word	.LANCHOR35
 176 0164 00000000 		.word	modem_dwn_pkt
 177 0168 00000000 		.word	.LANCHOR36
 179              		.section	.rodata.get_modem_event_count.str1.1,"aMS",%progbits,1
 180              	.LC39:
 181 0000 1B5B303B 		.ascii	"\033[0;31mERROR: crash log :%s\012\000"
 181      33316D45 
 181      52524F52 
 181      3A206372 
 181      61736820 
 182              	.LC41:
 183 001d 1B5B306D 		.ascii	"\033[0m\000"
 183      00
 184              	.LC43:
 185 0022 1B5B303B 		.ascii	"\033[0;31mERROR: -> \000"
 185      33316D45 
 185      52524F52 
 185      3A202D3E 
 185      2000
 186              		.section	.text.get_modem_event_count,"ax",%progbits
 187              		.align	1
 188              		.global	get_modem_event_count
 189              		.syntax unified
 190              		.code	16
 191              		.thumb_func
 192              		.fpu softvfp
 194              	get_modem_event_count:
 195              		@ args = 0, pretend = 0, frame = 0
 196              		@ frame_needed = 0, uses_anonymous_args = 0
 197 0000 70B5     		push	{r4, r5, r6, lr}
 198 0002 0400     		movs	r4, r0
 199 0004 1828     		cmp	r0, #24
 200 0006 16D9     		bls	.L6
 201 0008 0C4D     		ldr	r5, .L7
 202 000a 2800     		movs	r0, r5
 203 000c FFF7FEFF 		bl	smtc_modem_hal_store_crashlog
 204 0010 0120     		movs	r0, #1
 205 0012 FFF7FEFF 		bl	smtc_modem_hal_set_crashlog_status
 206 0016 2900     		movs	r1, r5
 207 0018 0948     		ldr	r0, .L7+4
 208 001a FFF7FEFF 		bl	smtc_modem_hal_print_trace
 209 001e 094D     		ldr	r5, .L7+8
 210 0020 2800     		movs	r0, r5
 211 0022 FFF7FEFF 		bl	smtc_modem_hal_print_trace
 212 0026 0848     		ldr	r0, .L7+12
 213 0028 FFF7FEFF 		bl	smtc_modem_hal_print_trace
 214 002c 2800     		movs	r0, r5
 215 002e FFF7FEFF 		bl	smtc_modem_hal_print_trace
 216 0032 FFF7FEFF 		bl	smtc_modem_hal_reset_mcu
 217              	.L6:
 218              		@ sp needed
 219 0036 054B     		ldr	r3, .L7+16
 220 0038 185D     		ldrb	r0, [r3, r4]
 221 003a 70BD     		pop	{r4, r5, r6, pc}
 222              	.L8:
 223              		.align	2
 224              	.L7:
ARM GAS  /tmp/ccdSEGyb.s 			page 5


 225 003c 00000000 		.word	.LANCHOR37
 226 0040 00000000 		.word	.LC39
 227 0044 1D000000 		.word	.LC41
 228 0048 22000000 		.word	.LC43
 229 004c 00000000 		.word	.LANCHOR33
 231              		.section	.text.get_modem_event_status,"ax",%progbits
 232              		.align	1
 233              		.global	get_modem_event_status
 234              		.syntax unified
 235              		.code	16
 236              		.thumb_func
 237              		.fpu softvfp
 239              	get_modem_event_status:
 240              		@ args = 0, pretend = 0, frame = 0
 241              		@ frame_needed = 0, uses_anonymous_args = 0
 242 0000 70B5     		push	{r4, r5, r6, lr}
 243 0002 0400     		movs	r4, r0
 244 0004 1828     		cmp	r0, #24
 245 0006 16D9     		bls	.L10
 246 0008 0C4D     		ldr	r5, .L11
 247 000a 2800     		movs	r0, r5
 248 000c FFF7FEFF 		bl	smtc_modem_hal_store_crashlog
 249 0010 0120     		movs	r0, #1
 250 0012 FFF7FEFF 		bl	smtc_modem_hal_set_crashlog_status
 251 0016 2900     		movs	r1, r5
 252 0018 0948     		ldr	r0, .L11+4
 253 001a FFF7FEFF 		bl	smtc_modem_hal_print_trace
 254 001e 094D     		ldr	r5, .L11+8
 255 0020 2800     		movs	r0, r5
 256 0022 FFF7FEFF 		bl	smtc_modem_hal_print_trace
 257 0026 0848     		ldr	r0, .L11+12
 258 0028 FFF7FEFF 		bl	smtc_modem_hal_print_trace
 259 002c 2800     		movs	r0, r5
 260 002e FFF7FEFF 		bl	smtc_modem_hal_print_trace
 261 0032 FFF7FEFF 		bl	smtc_modem_hal_reset_mcu
 262              	.L10:
 263              		@ sp needed
 264 0036 054B     		ldr	r3, .L11+16
 265 0038 185D     		ldrb	r0, [r3, r4]
 266 003a 70BD     		pop	{r4, r5, r6, pc}
 267              	.L12:
 268              		.align	2
 269              	.L11:
 270 003c 00000000 		.word	.LANCHOR38
 271 0040 00000000 		.word	.LC39
 272 0044 1D000000 		.word	.LC41
 273 0048 22000000 		.word	.LC43
 274 004c 00000000 		.word	.LANCHOR34
 276              		.section	.text.set_modem_event_count_and_status,"ax",%progbits
 277              		.align	1
 278              		.global	set_modem_event_count_and_status
 279              		.syntax unified
 280              		.code	16
 281              		.thumb_func
 282              		.fpu softvfp
 284              	set_modem_event_count_and_status:
 285              		@ args = 0, pretend = 0, frame = 0
ARM GAS  /tmp/ccdSEGyb.s 			page 6


 286              		@ frame_needed = 0, uses_anonymous_args = 0
 287              		@ link register save eliminated.
 288 0000 1828     		cmp	r0, #24
 289 0002 03D8     		bhi	.L13
 290 0004 024B     		ldr	r3, .L15
 291 0006 1954     		strb	r1, [r3, r0]
 292 0008 024B     		ldr	r3, .L15+4
 293 000a 1A54     		strb	r2, [r3, r0]
 294              	.L13:
 295              		@ sp needed
 296 000c 7047     		bx	lr
 297              	.L16:
 298 000e C046     		.align	2
 299              	.L15:
 300 0010 00000000 		.word	.LANCHOR33
 301 0014 00000000 		.word	.LANCHOR34
 303              		.section	.text.modem_event_init,"ax",%progbits
 304              		.align	1
 305              		.global	modem_event_init
 306              		.syntax unified
 307              		.code	16
 308              		.thumb_func
 309              		.fpu softvfp
 311              	modem_event_init:
 312              		@ args = 0, pretend = 0, frame = 0
 313              		@ frame_needed = 0, uses_anonymous_args = 0
 314 0000 10B5     		push	{r4, lr}
 315 0002 0024     		movs	r4, #0
 316              	.L18:
 317 0004 0022     		movs	r2, #0
 318 0006 E0B2     		uxtb	r0, r4
 319 0008 1100     		movs	r1, r2
 320 000a 0134     		adds	r4, r4, #1
 321 000c FFF7FEFF 		bl	set_modem_event_count_and_status
 322 0010 192C     		cmp	r4, #25
 323 0012 F7D1     		bne	.L18
 324              		@ sp needed
 325 0014 10BD     		pop	{r4, pc}
 327              		.section	.text.increment_modem_event_count_and_status,"ax",%progbits
 328              		.align	1
 329              		.global	increment_modem_event_count_and_status
 330              		.syntax unified
 331              		.code	16
 332              		.thumb_func
 333              		.fpu softvfp
 335              	increment_modem_event_count_and_status:
 336              		@ args = 0, pretend = 0, frame = 0
 337              		@ frame_needed = 0, uses_anonymous_args = 0
 338              		@ link register save eliminated.
 339 0000 1828     		cmp	r0, #24
 340 0002 07D8     		bhi	.L20
 341 0004 044A     		ldr	r2, .L26
 342 0006 135C     		ldrb	r3, [r2, r0]
 343 0008 FF2B     		cmp	r3, #255
 344 000a 01D0     		beq	.L22
 345 000c 0133     		adds	r3, r3, #1
 346 000e 1354     		strb	r3, [r2, r0]
ARM GAS  /tmp/ccdSEGyb.s 			page 7


 347              	.L22:
 348 0010 024B     		ldr	r3, .L26+4
 349 0012 1954     		strb	r1, [r3, r0]
 350              	.L20:
 351              		@ sp needed
 352 0014 7047     		bx	lr
 353              	.L27:
 354 0016 C046     		.align	2
 355              	.L26:
 356 0018 00000000 		.word	.LANCHOR33
 357 001c 00000000 		.word	.LANCHOR34
 359              		.section	.text.decrement_asynchronous_msgnumber,"ax",%progbits
 360              		.align	1
 361              		.global	decrement_asynchronous_msgnumber
 362              		.syntax unified
 363              		.code	16
 364              		.thumb_func
 365              		.fpu softvfp
 367              	decrement_asynchronous_msgnumber:
 368              		@ args = 0, pretend = 0, frame = 0
 369              		@ frame_needed = 0, uses_anonymous_args = 0
 370              		@ link register save eliminated.
 371 0000 034A     		ldr	r2, .L33
 372 0002 1378     		ldrb	r3, [r2]
 373 0004 002B     		cmp	r3, #0
 374 0006 01D0     		beq	.L29
 375 0008 013B     		subs	r3, r3, #1
 376 000a DBB2     		uxtb	r3, r3
 377              	.L29:
 378 000c 1370     		strb	r3, [r2]
 379              		@ sp needed
 380 000e 7047     		bx	lr
 381              	.L34:
 382              		.align	2
 383              	.L33:
 384 0010 00000000 		.word	.LANCHOR16
 386              		.section	.text.get_asynchronous_msgnumber,"ax",%progbits
 387              		.align	1
 388              		.global	get_asynchronous_msgnumber
 389              		.syntax unified
 390              		.code	16
 391              		.thumb_func
 392              		.fpu softvfp
 394              	get_asynchronous_msgnumber:
 395              		@ args = 0, pretend = 0, frame = 0
 396              		@ frame_needed = 0, uses_anonymous_args = 0
 397              		@ link register save eliminated.
 398 0000 014B     		ldr	r3, .L36
 399              		@ sp needed
 400 0002 1878     		ldrb	r0, [r3]
 401 0004 7047     		bx	lr
 402              	.L37:
 403 0006 C046     		.align	2
 404              	.L36:
 405 0008 00000000 		.word	.LANCHOR16
 407              		.section	.rodata.increment_asynchronous_msgnumber.str1.1,"aMS",%progbits,1
 408              	.LC58:
ARM GAS  /tmp/ccdSEGyb.s 			page 8


 409 0000 1B5B303B 		.ascii	"\033[0;31mERROR:  Modem reach the max number of asy"
 409      33316D45 
 409      52524F52 
 409      3A20204D 
 409      6F64656D 
 410 0030 6E636820 		.ascii	"nch message\015\012\000"
 410      6D657373 
 410      6167650D 
 410      0A00
 411              		.section	.text.increment_asynchronous_msgnumber,"ax",%progbits
 412              		.align	1
 413              		.global	increment_asynchronous_msgnumber
 414              		.syntax unified
 415              		.code	16
 416              		.thumb_func
 417              		.fpu softvfp
 419              	increment_asynchronous_msgnumber:
 420              		@ args = 0, pretend = 0, frame = 0
 421              		@ frame_needed = 0, uses_anonymous_args = 0
 422 0000 70B5     		push	{r4, r5, r6, lr}
 423 0002 0E4E     		ldr	r6, .L42
 424 0004 0400     		movs	r4, r0
 425 0006 3378     		ldrb	r3, [r6]
 426 0008 0D00     		movs	r5, r1
 427 000a 192B     		cmp	r3, #25
 428 000c 06D9     		bls	.L39
 429 000e 0C48     		ldr	r0, .L42+4
 430 0010 FFF7FEFF 		bl	smtc_modem_hal_print_trace
 431 0014 0B48     		ldr	r0, .L42+8
 432 0016 FFF7FEFF 		bl	smtc_modem_hal_print_trace
 433              	.L38:
 434              		@ sp needed
 435 001a 70BD     		pop	{r4, r5, r6, pc}
 436              	.L39:
 437 001c FFF7FEFF 		bl	get_modem_event_count
 438 0020 0028     		cmp	r0, #0
 439 0022 05D1     		bne	.L41
 440 0024 3378     		ldrb	r3, [r6]
 441 0026 084A     		ldr	r2, .L42+12
 442 0028 0133     		adds	r3, r3, #1
 443 002a DBB2     		uxtb	r3, r3
 444 002c 3370     		strb	r3, [r6]
 445 002e D454     		strb	r4, [r2, r3]
 446              	.L41:
 447 0030 2900     		movs	r1, r5
 448 0032 2000     		movs	r0, r4
 449 0034 FFF7FEFF 		bl	increment_modem_event_count_and_status
 450 0038 EFE7     		b	.L38
 451              	.L43:
 452 003a C046     		.align	2
 453              	.L42:
 454 003c 00000000 		.word	.LANCHOR16
 455 0040 00000000 		.word	.LC58
 456 0044 1D000000 		.word	.LC41
 457 0048 00000000 		.word	.LANCHOR35
 459              		.section	.text.get_last_msg_event,"ax",%progbits
 460              		.align	1
ARM GAS  /tmp/ccdSEGyb.s 			page 9


 461              		.global	get_last_msg_event
 462              		.syntax unified
 463              		.code	16
 464              		.thumb_func
 465              		.fpu softvfp
 467              	get_last_msg_event:
 468              		@ args = 0, pretend = 0, frame = 0
 469              		@ frame_needed = 0, uses_anonymous_args = 0
 470              		@ link register save eliminated.
 471 0000 024B     		ldr	r3, .L45
 472 0002 034A     		ldr	r2, .L45+4
 473 0004 1B78     		ldrb	r3, [r3]
 474              		@ sp needed
 475 0006 D05C     		ldrb	r0, [r2, r3]
 476 0008 7047     		bx	lr
 477              	.L46:
 478 000a C046     		.align	2
 479              	.L45:
 480 000c 00000000 		.word	.LANCHOR16
 481 0010 00000000 		.word	.LANCHOR35
 483              		.section	.text.get_modem_uptime_s,"ax",%progbits
 484              		.align	1
 485              		.global	get_modem_uptime_s
 486              		.syntax unified
 487              		.code	16
 488              		.thumb_func
 489              		.fpu softvfp
 491              	get_modem_uptime_s:
 492              		@ args = 0, pretend = 0, frame = 0
 493              		@ frame_needed = 0, uses_anonymous_args = 0
 494 0000 10B5     		push	{r4, lr}
 495 0002 FFF7FEFF 		bl	smtc_modem_hal_get_time_in_s
 496              		@ sp needed
 497 0006 024B     		ldr	r3, .L48
 498 0008 1B68     		ldr	r3, [r3]
 499 000a C01A     		subs	r0, r0, r3
 500 000c 10BD     		pop	{r4, pc}
 501              	.L49:
 502 000e C046     		.align	2
 503              	.L48:
 504 0010 00000000 		.word	.LANCHOR5
 506              		.section	.text.set_modem_start_time_s,"ax",%progbits
 507              		.align	1
 508              		.global	set_modem_start_time_s
 509              		.syntax unified
 510              		.code	16
 511              		.thumb_func
 512              		.fpu softvfp
 514              	set_modem_start_time_s:
 515              		@ args = 0, pretend = 0, frame = 0
 516              		@ frame_needed = 0, uses_anonymous_args = 0
 517              		@ link register save eliminated.
 518 0000 044B     		ldr	r3, .L52
 519 0002 1A78     		ldrb	r2, [r3]
 520 0004 002A     		cmp	r2, #0
 521 0006 03D1     		bne	.L50
 522 0008 0132     		adds	r2, r2, #1
ARM GAS  /tmp/ccdSEGyb.s 			page 10


 523 000a 1A70     		strb	r2, [r3]
 524 000c 024B     		ldr	r3, .L52+4
 525 000e 1860     		str	r0, [r3]
 526              	.L50:
 527              		@ sp needed
 528 0010 7047     		bx	lr
 529              	.L53:
 530 0012 C046     		.align	2
 531              	.L52:
 532 0014 00000000 		.word	.LANCHOR19
 533 0018 00000000 		.word	.LANCHOR5
 535              		.section	.text.set_modem_dm_interval,"ax",%progbits
 536              		.align	1
 537              		.global	set_modem_dm_interval
 538              		.syntax unified
 539              		.code	16
 540              		.thumb_func
 541              		.fpu softvfp
 543              	set_modem_dm_interval:
 544              		@ args = 0, pretend = 0, frame = 0
 545              		@ frame_needed = 0, uses_anonymous_args = 0
 546              		@ link register save eliminated.
 547 0000 034B     		ldr	r3, .L56
 548 0002 1A78     		ldrb	r2, [r3]
 549 0004 8242     		cmp	r2, r0
 550 0006 00D0     		beq	.L55
 551 0008 1870     		strb	r0, [r3]
 552              	.L55:
 553 000a 0120     		movs	r0, #1
 554              		@ sp needed
 555 000c 7047     		bx	lr
 556              	.L57:
 557 000e C046     		.align	2
 558              	.L56:
 559 0010 00000000 		.word	.LANCHOR1
 561              		.section	.text.get_modem_dm_interval,"ax",%progbits
 562              		.align	1
 563              		.global	get_modem_dm_interval
 564              		.syntax unified
 565              		.code	16
 566              		.thumb_func
 567              		.fpu softvfp
 569              	get_modem_dm_interval:
 570              		@ args = 0, pretend = 0, frame = 0
 571              		@ frame_needed = 0, uses_anonymous_args = 0
 572              		@ link register save eliminated.
 573 0000 014B     		ldr	r3, .L59
 574              		@ sp needed
 575 0002 1878     		ldrb	r0, [r3]
 576 0004 7047     		bx	lr
 577              	.L60:
 578 0006 C046     		.align	2
 579              	.L59:
 580 0008 00000000 		.word	.LANCHOR1
 582              		.section	.text.get_modem_dm_interval_second,"ax",%progbits
 583              		.align	1
 584              		.global	get_modem_dm_interval_second
ARM GAS  /tmp/ccdSEGyb.s 			page 11


 585              		.syntax unified
 586              		.code	16
 587              		.thumb_func
 588              		.fpu softvfp
 590              	get_modem_dm_interval_second:
 591              		@ args = 0, pretend = 0, frame = 0
 592              		@ frame_needed = 0, uses_anonymous_args = 0
 593              		@ link register save eliminated.
 594 0000 3F22     		movs	r2, #63
 595 0002 094B     		ldr	r3, .L67
 596 0004 1878     		ldrb	r0, [r3]
 597 0006 8309     		lsrs	r3, r0, #6
 598 0008 1040     		ands	r0, r2
 599 000a 022B     		cmp	r3, #2
 600 000c 06D0     		beq	.L62
 601 000e 032B     		cmp	r3, #3
 602 0010 07D0     		beq	.L63
 603 0012 012B     		cmp	r3, #1
 604 0014 01D1     		bne	.L61
 605 0016 054B     		ldr	r3, .L67+4
 606              	.L66:
 607 0018 5843     		muls	r0, r3
 608              	.L61:
 609              		@ sp needed
 610 001a 7047     		bx	lr
 611              	.L62:
 612 001c E123     		movs	r3, #225
 613 001e 1B01     		lsls	r3, r3, #4
 614 0020 FAE7     		b	.L66
 615              	.L63:
 616 0022 3C23     		movs	r3, #60
 617 0024 F8E7     		b	.L66
 618              	.L68:
 619 0026 C046     		.align	2
 620              	.L67:
 621 0028 00000000 		.word	.LANCHOR1
 622 002c 80510100 		.word	86400
 624              		.section	.text.set_modem_class,"ax",%progbits
 625              		.align	1
 626              		.global	set_modem_class
 627              		.syntax unified
 628              		.code	16
 629              		.thumb_func
 630              		.fpu softvfp
 632              	set_modem_class:
 633              		@ args = 0, pretend = 0, frame = 0
 634              		@ frame_needed = 0, uses_anonymous_args = 0
 635              		@ link register save eliminated.
 636 0000 014B     		ldr	r3, .L70
 637              		@ sp needed
 638 0002 1870     		strb	r0, [r3]
 639 0004 7047     		bx	lr
 640              	.L71:
 641 0006 C046     		.align	2
 642              	.L70:
 643 0008 00000000 		.word	.LANCHOR3
 645              		.section	.text.get_modem_class,"ax",%progbits
ARM GAS  /tmp/ccdSEGyb.s 			page 12


 646              		.align	1
 647              		.global	get_modem_class
 648              		.syntax unified
 649              		.code	16
 650              		.thumb_func
 651              		.fpu softvfp
 653              	get_modem_class:
 654              		@ args = 0, pretend = 0, frame = 0
 655              		@ frame_needed = 0, uses_anonymous_args = 0
 656              		@ link register save eliminated.
 657 0000 014B     		ldr	r3, .L73
 658              		@ sp needed
 659 0002 1878     		ldrb	r0, [r3]
 660 0004 7047     		bx	lr
 661              	.L74:
 662 0006 C046     		.align	2
 663              	.L73:
 664 0008 00000000 		.word	.LANCHOR3
 666              		.section	.text.get_modem_dm_port,"ax",%progbits
 667              		.align	1
 668              		.global	get_modem_dm_port
 669              		.syntax unified
 670              		.code	16
 671              		.thumb_func
 672              		.fpu softvfp
 674              	get_modem_dm_port:
 675              		@ args = 0, pretend = 0, frame = 0
 676              		@ frame_needed = 0, uses_anonymous_args = 0
 677              		@ link register save eliminated.
 678 0000 014B     		ldr	r3, .L76
 679              		@ sp needed
 680 0002 1878     		ldrb	r0, [r3]
 681 0004 7047     		bx	lr
 682              	.L77:
 683 0006 C046     		.align	2
 684              	.L76:
 685 0008 00000000 		.word	.LANCHOR2
 687              		.section	.text.get_modem_adr_profile,"ax",%progbits
 688              		.align	1
 689              		.global	get_modem_adr_profile
 690              		.syntax unified
 691              		.code	16
 692              		.thumb_func
 693              		.fpu softvfp
 695              	get_modem_adr_profile:
 696              		@ args = 0, pretend = 0, frame = 0
 697              		@ frame_needed = 0, uses_anonymous_args = 0
 698              		@ link register save eliminated.
 699 0000 014B     		ldr	r3, .L79
 700              		@ sp needed
 701 0002 1878     		ldrb	r0, [r3]
 702 0004 7047     		bx	lr
 703              	.L80:
 704 0006 C046     		.align	2
 705              	.L79:
 706 0008 00000000 		.word	.LANCHOR24
 708              		.section	.text.get_modem_region,"ax",%progbits
ARM GAS  /tmp/ccdSEGyb.s 			page 13


 709              		.align	1
 710              		.global	get_modem_region
 711              		.syntax unified
 712              		.code	16
 713              		.thumb_func
 714              		.fpu softvfp
 716              	get_modem_region:
 717              		@ args = 0, pretend = 0, frame = 0
 718              		@ frame_needed = 0, uses_anonymous_args = 0
 719 0000 10B5     		push	{r4, lr}
 720 0002 FFF7FEFF 		bl	lorawan_api_get_region
 721              		@ sp needed
 722 0006 10BD     		pop	{r4, pc}
 724              		.section	.text.set_modem_region,"ax",%progbits
 725              		.align	1
 726              		.global	set_modem_region
 727              		.syntax unified
 728              		.code	16
 729              		.thumb_func
 730              		.fpu softvfp
 732              	set_modem_region:
 733              		@ args = 0, pretend = 0, frame = 0
 734              		@ frame_needed = 0, uses_anonymous_args = 0
 735 0000 10B5     		push	{r4, lr}
 736 0002 FFF7FEFF 		bl	lorawan_api_set_region
 737              		@ sp needed
 738 0006 4342     		rsbs	r3, r0, #0
 739 0008 5841     		adcs	r0, r0, r3
 740 000a C0B2     		uxtb	r0, r0
 741 000c 10BD     		pop	{r4, pc}
 743              		.section	.text.set_modem_appstatus,"ax",%progbits
 744              		.align	1
 745              		.global	set_modem_appstatus
 746              		.syntax unified
 747              		.code	16
 748              		.thumb_func
 749              		.fpu softvfp
 751              	set_modem_appstatus:
 752              		@ args = 0, pretend = 0, frame = 0
 753              		@ frame_needed = 0, uses_anonymous_args = 0
 754 0000 10B5     		push	{r4, lr}
 755 0002 0100     		movs	r1, r0
 756              		@ sp needed
 757 0004 0822     		movs	r2, #8
 758 0006 0248     		ldr	r0, .L84
 759 0008 FFF7FEFF 		bl	memcpy
 760 000c 10BD     		pop	{r4, pc}
 761              	.L85:
 762 000e C046     		.align	2
 763              	.L84:
 764 0010 00000000 		.word	.LANCHOR32
 766              		.section	.text.get_modem_appstatus,"ax",%progbits
 767              		.align	1
 768              		.global	get_modem_appstatus
 769              		.syntax unified
 770              		.code	16
 771              		.thumb_func
ARM GAS  /tmp/ccdSEGyb.s 			page 14


 772              		.fpu softvfp
 774              	get_modem_appstatus:
 775              		@ args = 0, pretend = 0, frame = 0
 776              		@ frame_needed = 0, uses_anonymous_args = 0
 777 0000 10B5     		push	{r4, lr}
 778 0002 0822     		movs	r2, #8
 779              		@ sp needed
 780 0004 0149     		ldr	r1, .L87
 781 0006 FFF7FEFF 		bl	memcpy
 782 000a 10BD     		pop	{r4, pc}
 783              	.L88:
 784              		.align	2
 785              	.L87:
 786 000c 00000000 		.word	.LANCHOR32
 788              		.section	.text.modem_supervisor_add_task_dm_status_now,"ax",%progbits
 789              		.align	1
 790              		.global	modem_supervisor_add_task_dm_status_now
 791              		.syntax unified
 792              		.code	16
 793              		.thumb_func
 794              		.fpu softvfp
 796              	modem_supervisor_add_task_dm_status_now:
 797              		@ args = 0, pretend = 0, frame = 24
 798              		@ frame_needed = 0, uses_anonymous_args = 0
 799 0000 70B5     		push	{r4, r5, r6, lr}
 800 0002 0323     		movs	r3, #3
 801 0004 0226     		movs	r6, #2
 802 0006 86B0     		sub	sp, sp, #24
 803 0008 01AC     		add	r4, sp, #4
 804 000a 2370     		strb	r3, [r4]
 805 000c 2372     		strb	r3, [r4, #8]
 806 000e 6674     		strb	r6, [r4, #17]
 807 0010 FFF7FEFF 		bl	smtc_modem_hal_get_time_in_s
 808 0014 0521     		movs	r1, #5
 809 0016 0500     		movs	r5, r0
 810 0018 3000     		movs	r0, r6
 811 001a FFF7FEFF 		bl	smtc_modem_hal_get_random_nb_in_range
 812 001e 2D18     		adds	r5, r5, r0
 813 0020 2000     		movs	r0, r4
 814 0022 0295     		str	r5, [sp, #8]
 815 0024 FFF7FEFF 		bl	modem_supervisor_add_task
 816 0028 06B0     		add	sp, sp, #24
 817              		@ sp needed
 818 002a 70BD     		pop	{r4, r5, r6, pc}
 820              		.section	.text.modem_supervisor_add_task_crash_log,"ax",%progbits
 821              		.align	1
 822              		.global	modem_supervisor_add_task_crash_log
 823              		.syntax unified
 824              		.code	16
 825              		.thumb_func
 826              		.fpu softvfp
 828              	modem_supervisor_add_task_crash_log:
 829              		@ args = 0, pretend = 0, frame = 24
 830              		@ frame_needed = 0, uses_anonymous_args = 0
 831 0000 0E23     		movs	r3, #14
 832 0002 F0B5     		push	{r4, r5, r6, r7, lr}
 833 0004 0227     		movs	r7, #2
ARM GAS  /tmp/ccdSEGyb.s 			page 15


 834 0006 87B0     		sub	sp, sp, #28
 835 0008 01AD     		add	r5, sp, #4
 836 000a 2B70     		strb	r3, [r5]
 837 000c 0B3B     		subs	r3, r3, #11
 838 000e 2B72     		strb	r3, [r5, #8]
 839 0010 0600     		movs	r6, r0
 840 0012 6F74     		strb	r7, [r5, #17]
 841 0014 FFF7FEFF 		bl	smtc_modem_hal_get_time_in_s
 842 0018 0521     		movs	r1, #5
 843 001a 0400     		movs	r4, r0
 844 001c 3800     		movs	r0, r7
 845 001e FFF7FEFF 		bl	smtc_modem_hal_get_random_nb_in_range
 846 0022 2418     		adds	r4, r4, r0
 847 0024 A419     		adds	r4, r4, r6
 848 0026 2800     		movs	r0, r5
 849 0028 0294     		str	r4, [sp, #8]
 850 002a FFF7FEFF 		bl	modem_supervisor_add_task
 851 002e 07B0     		add	sp, sp, #28
 852              		@ sp needed
 853 0030 F0BD     		pop	{r4, r5, r6, r7, pc}
 855              		.section	.text.modem_supervisor_add_task_clock_sync_time_req,"ax",%progbits
 856              		.align	1
 857              		.global	modem_supervisor_add_task_clock_sync_time_req
 858              		.syntax unified
 859              		.code	16
 860              		.thumb_func
 861              		.fpu softvfp
 863              	modem_supervisor_add_task_clock_sync_time_req:
 864              		@ args = 0, pretend = 0, frame = 24
 865              		@ frame_needed = 0, uses_anonymous_args = 0
 866 0000 0923     		movs	r3, #9
 867 0002 30B5     		push	{r4, r5, lr}
 868 0004 87B0     		sub	sp, sp, #28
 869 0006 01AC     		add	r4, sp, #4
 870 0008 2370     		strb	r3, [r4]
 871 000a 083B     		subs	r3, r3, #8
 872 000c 2372     		strb	r3, [r4, #8]
 873 000e 0133     		adds	r3, r3, #1
 874 0010 0500     		movs	r5, r0
 875 0012 6374     		strb	r3, [r4, #17]
 876 0014 FFF7FEFF 		bl	smtc_modem_hal_get_time_in_s
 877 0018 4019     		adds	r0, r0, r5
 878 001a 0290     		str	r0, [sp, #8]
 879 001c 2000     		movs	r0, r4
 880 001e FFF7FEFF 		bl	modem_supervisor_add_task
 881 0022 07B0     		add	sp, sp, #28
 882              		@ sp needed
 883 0024 30BD     		pop	{r4, r5, pc}
 885              		.section	.text.modem_supervisor_remove_task_clock_sync,"ax",%progbits
 886              		.align	1
 887              		.global	modem_supervisor_remove_task_clock_sync
 888              		.syntax unified
 889              		.code	16
 890              		.thumb_func
 891              		.fpu softvfp
 893              	modem_supervisor_remove_task_clock_sync:
 894              		@ args = 0, pretend = 0, frame = 0
ARM GAS  /tmp/ccdSEGyb.s 			page 16


 895              		@ frame_needed = 0, uses_anonymous_args = 0
 896 0000 10B5     		push	{r4, lr}
 897 0002 0920     		movs	r0, #9
 898 0004 FFF7FEFF 		bl	modem_supervisor_get_task_priority
 899 0008 0428     		cmp	r0, #4
 900 000a 02D0     		beq	.L93
 901 000c 0920     		movs	r0, #9
 902 000e FFF7FEFF 		bl	modem_supervisor_remove_task
 903              	.L93:
 904 0012 0A20     		movs	r0, #10
 905 0014 FFF7FEFF 		bl	modem_supervisor_get_task_priority
 906 0018 0428     		cmp	r0, #4
 907 001a 02D0     		beq	.L92
 908 001c 0A20     		movs	r0, #10
 909 001e FFF7FEFF 		bl	modem_supervisor_remove_task
 910              	.L92:
 911              		@ sp needed
 912 0022 10BD     		pop	{r4, pc}
 914              		.section	.text.modem_supervisor_is_clock_sync_running,"ax",%progbits
 915              		.align	1
 916              		.global	modem_supervisor_is_clock_sync_running
 917              		.syntax unified
 918              		.code	16
 919              		.thumb_func
 920              		.fpu softvfp
 922              	modem_supervisor_is_clock_sync_running:
 923              		@ args = 0, pretend = 0, frame = 0
 924              		@ frame_needed = 0, uses_anonymous_args = 0
 925 0000 10B5     		push	{r4, lr}
 926 0002 0920     		movs	r0, #9
 927              		@ sp needed
 928 0004 FFF7FEFF 		bl	modem_supervisor_get_task_priority
 929 0008 0438     		subs	r0, r0, #4
 930 000a 431E     		subs	r3, r0, #1
 931 000c 9841     		sbcs	r0, r0, r3
 932 000e C0B2     		uxtb	r0, r0
 933 0010 10BD     		pop	{r4, pc}
 935              		.section	.text.modem_supervisor_add_task_modem_mute,"ax",%progbits
 936              		.align	1
 937              		.global	modem_supervisor_add_task_modem_mute
 938              		.syntax unified
 939              		.code	16
 940              		.thumb_func
 941              		.fpu softvfp
 943              	modem_supervisor_add_task_modem_mute:
 944              		@ args = 0, pretend = 0, frame = 24
 945              		@ frame_needed = 0, uses_anonymous_args = 0
 946 0000 7FB5     		push	{r0, r1, r2, r3, r4, r5, r6, lr}
 947 0002 0623     		movs	r3, #6
 948 0004 6A46     		mov	r2, sp
 949 0006 1371     		strb	r3, [r2, #4]
 950 0008 043B     		subs	r3, r3, #4
 951 000a 1373     		strb	r3, [r2, #12]
 952 000c FFF7FEFF 		bl	smtc_modem_hal_get_time_in_s
 953 0010 034B     		ldr	r3, .L103
 954 0012 C018     		adds	r0, r0, r3
 955 0014 0290     		str	r0, [sp, #8]
ARM GAS  /tmp/ccdSEGyb.s 			page 17


 956 0016 01A8     		add	r0, sp, #4
 957 0018 FFF7FEFF 		bl	modem_supervisor_add_task
 958 001c 07B0     		add	sp, sp, #28
 959              		@ sp needed
 960 001e 00BD     		pop	{pc}
 961              	.L104:
 962              		.align	2
 963              	.L103:
 964 0020 80510100 		.word	86400
 966              		.section	.text.modem_supervisor_add_task_file_upload,"ax",%progbits
 967              		.align	1
 968              		.global	modem_supervisor_add_task_file_upload
 969              		.syntax unified
 970              		.code	16
 971              		.thumb_func
 972              		.fpu softvfp
 974              	modem_supervisor_add_task_file_upload:
 975              		@ args = 0, pretend = 0, frame = 24
 976              		@ frame_needed = 0, uses_anonymous_args = 0
 977 0000 10B5     		push	{r4, lr}
 978 0002 86B0     		sub	sp, sp, #24
 979 0004 6A46     		mov	r2, sp
 980 0006 0423     		movs	r3, #4
 981 0008 1371     		strb	r3, [r2, #4]
 982 000a 033B     		subs	r3, r3, #3
 983 000c 0400     		movs	r4, r0
 984 000e 1373     		strb	r3, [r2, #12]
 985 0010 FFF7FEFF 		bl	smtc_modem_hal_get_time_in_s
 986 0014 0019     		adds	r0, r0, r4
 987 0016 0290     		str	r0, [sp, #8]
 988 0018 01A8     		add	r0, sp, #4
 989 001a FFF7FEFF 		bl	modem_supervisor_add_task
 990 001e 06B0     		add	sp, sp, #24
 991              		@ sp needed
 992 0020 10BD     		pop	{r4, pc}
 994              		.section	.text.get_modem_gnss_status,"ax",%progbits
 995              		.align	1
 996              		.global	get_modem_gnss_status
 997              		.syntax unified
 998              		.code	16
 999              		.thumb_func
 1000              		.fpu softvfp
 1002              	get_modem_gnss_status:
 1003              		@ args = 0, pretend = 0, frame = 8
 1004              		@ frame_needed = 0, uses_anonymous_args = 0
 1005 0000 13B5     		push	{r0, r1, r4, lr}
 1006 0002 064B     		ldr	r3, .L107
 1007 0004 0400     		movs	r4, r0
 1008              		@ sp needed
 1009 0006 6946     		mov	r1, sp
 1010 0008 1868     		ldr	r0, [r3]
 1011 000a FFF7FEFF 		bl	almanac_update_create_uplink_payload
 1012 000e 6B46     		mov	r3, sp
 1013 0010 0722     		movs	r2, #7
 1014 0012 2000     		movs	r0, r4
 1015 0014 591C     		adds	r1, r3, #1
 1016 0016 FFF7FEFF 		bl	memcpy
ARM GAS  /tmp/ccdSEGyb.s 			page 18


 1017 001a 13BD     		pop	{r0, r1, r4, pc}
 1018              	.L108:
 1019              		.align	2
 1020              	.L107:
 1021 001c 00000000 		.word	.LANCHOR39
 1023              		.section	.text.set_modem_status_reset_after_brownout,"ax",%progbits
 1024              		.align	1
 1025              		.global	set_modem_status_reset_after_brownout
 1026              		.syntax unified
 1027              		.code	16
 1028              		.thumb_func
 1029              		.fpu softvfp
 1031              	set_modem_status_reset_after_brownout:
 1032              		@ args = 0, pretend = 0, frame = 0
 1033              		@ frame_needed = 0, uses_anonymous_args = 0
 1034 0000 10B5     		push	{r4, lr}
 1035 0002 054B     		ldr	r3, .L112
 1036 0004 0124     		movs	r4, #1
 1037 0006 1978     		ldrb	r1, [r3]
 1038 0008 0A00     		movs	r2, r1
 1039 000a A243     		bics	r2, r4
 1040 000c 0028     		cmp	r0, #0
 1041 000e 01D0     		beq	.L111
 1042 0010 2200     		movs	r2, r4
 1043 0012 0A43     		orrs	r2, r1
 1044              	.L111:
 1045 0014 1A70     		strb	r2, [r3]
 1046              		@ sp needed
 1047 0016 10BD     		pop	{r4, pc}
 1048              	.L113:
 1049              		.align	2
 1050              	.L112:
 1051 0018 00000000 		.word	.LANCHOR0
 1053              		.section	.text.set_modem_status_reset_after_crash,"ax",%progbits
 1054              		.align	1
 1055              		.global	set_modem_status_reset_after_crash
 1056              		.syntax unified
 1057              		.code	16
 1058              		.thumb_func
 1059              		.fpu softvfp
 1061              	set_modem_status_reset_after_crash:
 1062              		@ args = 0, pretend = 0, frame = 0
 1063              		@ frame_needed = 0, uses_anonymous_args = 0
 1064 0000 10B5     		push	{r4, lr}
 1065 0002 054B     		ldr	r3, .L117
 1066 0004 0224     		movs	r4, #2
 1067 0006 1978     		ldrb	r1, [r3]
 1068 0008 0A00     		movs	r2, r1
 1069 000a A243     		bics	r2, r4
 1070 000c 0028     		cmp	r0, #0
 1071 000e 01D0     		beq	.L116
 1072 0010 2200     		movs	r2, r4
 1073 0012 0A43     		orrs	r2, r1
 1074              	.L116:
 1075 0014 1A70     		strb	r2, [r3]
 1076              		@ sp needed
 1077 0016 10BD     		pop	{r4, pc}
ARM GAS  /tmp/ccdSEGyb.s 			page 19


 1078              	.L118:
 1079              		.align	2
 1080              	.L117:
 1081 0018 00000000 		.word	.LANCHOR0
 1083              		.section	.text.set_modem_status_modem_mute,"ax",%progbits
 1084              		.align	1
 1085              		.global	set_modem_status_modem_mute
 1086              		.syntax unified
 1087              		.code	16
 1088              		.thumb_func
 1089              		.fpu softvfp
 1091              	set_modem_status_modem_mute:
 1092              		@ args = 0, pretend = 0, frame = 0
 1093              		@ frame_needed = 0, uses_anonymous_args = 0
 1094 0000 10B5     		push	{r4, lr}
 1095 0002 054B     		ldr	r3, .L122
 1096 0004 0424     		movs	r4, #4
 1097 0006 1978     		ldrb	r1, [r3]
 1098 0008 0A00     		movs	r2, r1
 1099 000a A243     		bics	r2, r4
 1100 000c 0028     		cmp	r0, #0
 1101 000e 01D0     		beq	.L121
 1102 0010 2200     		movs	r2, r4
 1103 0012 0A43     		orrs	r2, r1
 1104              	.L121:
 1105 0014 1A70     		strb	r2, [r3]
 1106              		@ sp needed
 1107 0016 10BD     		pop	{r4, pc}
 1108              	.L123:
 1109              		.align	2
 1110              	.L122:
 1111 0018 00000000 		.word	.LANCHOR0
 1113              		.section	.text.set_modem_status_modem_joined,"ax",%progbits
 1114              		.align	1
 1115              		.global	set_modem_status_modem_joined
 1116              		.syntax unified
 1117              		.code	16
 1118              		.thumb_func
 1119              		.fpu softvfp
 1121              	set_modem_status_modem_joined:
 1122              		@ args = 0, pretend = 0, frame = 0
 1123              		@ frame_needed = 0, uses_anonymous_args = 0
 1124 0000 10B5     		push	{r4, lr}
 1125 0002 054B     		ldr	r3, .L127
 1126 0004 0824     		movs	r4, #8
 1127 0006 1978     		ldrb	r1, [r3]
 1128 0008 0A00     		movs	r2, r1
 1129 000a A243     		bics	r2, r4
 1130 000c 0028     		cmp	r0, #0
 1131 000e 01D0     		beq	.L126
 1132 0010 2200     		movs	r2, r4
 1133 0012 0A43     		orrs	r2, r1
 1134              	.L126:
 1135 0014 1A70     		strb	r2, [r3]
 1136              		@ sp needed
 1137 0016 10BD     		pop	{r4, pc}
 1138              	.L128:
ARM GAS  /tmp/ccdSEGyb.s 			page 20


 1139              		.align	2
 1140              	.L127:
 1141 0018 00000000 		.word	.LANCHOR0
 1143              		.section	.text.set_modem_status_radio_suspend,"ax",%progbits
 1144              		.align	1
 1145              		.global	set_modem_status_radio_suspend
 1146              		.syntax unified
 1147              		.code	16
 1148              		.thumb_func
 1149              		.fpu softvfp
 1151              	set_modem_status_radio_suspend:
 1152              		@ args = 0, pretend = 0, frame = 0
 1153              		@ frame_needed = 0, uses_anonymous_args = 0
 1154 0000 10B5     		push	{r4, lr}
 1155 0002 054B     		ldr	r3, .L132
 1156 0004 1024     		movs	r4, #16
 1157 0006 1978     		ldrb	r1, [r3]
 1158 0008 0A00     		movs	r2, r1
 1159 000a A243     		bics	r2, r4
 1160 000c 0028     		cmp	r0, #0
 1161 000e 01D0     		beq	.L131
 1162 0010 2200     		movs	r2, r4
 1163 0012 0A43     		orrs	r2, r1
 1164              	.L131:
 1165 0014 1A70     		strb	r2, [r3]
 1166              		@ sp needed
 1167 0016 10BD     		pop	{r4, pc}
 1168              	.L133:
 1169              		.align	2
 1170              	.L132:
 1171 0018 00000000 		.word	.LANCHOR0
 1173              		.section	.text.set_modem_status_file_upload,"ax",%progbits
 1174              		.align	1
 1175              		.global	set_modem_status_file_upload
 1176              		.syntax unified
 1177              		.code	16
 1178              		.thumb_func
 1179              		.fpu softvfp
 1181              	set_modem_status_file_upload:
 1182              		@ args = 0, pretend = 0, frame = 0
 1183              		@ frame_needed = 0, uses_anonymous_args = 0
 1184 0000 10B5     		push	{r4, lr}
 1185 0002 054B     		ldr	r3, .L137
 1186 0004 2024     		movs	r4, #32
 1187 0006 1978     		ldrb	r1, [r3]
 1188 0008 0A00     		movs	r2, r1
 1189 000a A243     		bics	r2, r4
 1190 000c 0028     		cmp	r0, #0
 1191 000e 01D0     		beq	.L136
 1192 0010 2200     		movs	r2, r4
 1193 0012 0A43     		orrs	r2, r1
 1194              	.L136:
 1195 0014 1A70     		strb	r2, [r3]
 1196              		@ sp needed
 1197 0016 10BD     		pop	{r4, pc}
 1198              	.L138:
 1199              		.align	2
ARM GAS  /tmp/ccdSEGyb.s 			page 21


 1200              	.L137:
 1201 0018 00000000 		.word	.LANCHOR0
 1203              		.section	.text.set_modem_status_joining,"ax",%progbits
 1204              		.align	1
 1205              		.global	set_modem_status_joining
 1206              		.syntax unified
 1207              		.code	16
 1208              		.thumb_func
 1209              		.fpu softvfp
 1211              	set_modem_status_joining:
 1212              		@ args = 0, pretend = 0, frame = 0
 1213              		@ frame_needed = 0, uses_anonymous_args = 0
 1214 0000 10B5     		push	{r4, lr}
 1215 0002 054B     		ldr	r3, .L142
 1216 0004 4024     		movs	r4, #64
 1217 0006 1978     		ldrb	r1, [r3]
 1218 0008 0A00     		movs	r2, r1
 1219 000a A243     		bics	r2, r4
 1220 000c 0028     		cmp	r0, #0
 1221 000e 01D0     		beq	.L141
 1222 0010 2200     		movs	r2, r4
 1223 0012 0A43     		orrs	r2, r1
 1224              	.L141:
 1225 0014 1A70     		strb	r2, [r3]
 1226              		@ sp needed
 1227 0016 10BD     		pop	{r4, pc}
 1228              	.L143:
 1229              		.align	2
 1230              	.L142:
 1231 0018 00000000 		.word	.LANCHOR0
 1233              		.section	.rodata.modem_supervisor_add_task_join.str1.1,"aMS",%progbits,1
 1234              	.LC84:
 1235 0000 20537461 		.ascii	" Start a new join sequence now \015\012\000"
 1235      72742061 
 1235      206E6577 
 1235      206A6F69 
 1235      6E207365 
 1236              	.LC86:
 1237 0022 20537461 		.ascii	" Start a new join sequence in %d seconds \015\012\000"
 1237      72742061 
 1237      206E6577 
 1237      206A6F69 
 1237      6E207365 
 1238              		.section	.text.modem_supervisor_add_task_join,"ax",%progbits
 1239              		.align	1
 1240              		.global	modem_supervisor_add_task_join
 1241              		.syntax unified
 1242              		.code	16
 1243              		.thumb_func
 1244              		.fpu softvfp
 1246              	modem_supervisor_add_task_join:
 1247              		@ args = 0, pretend = 0, frame = 32
 1248              		@ frame_needed = 0, uses_anonymous_args = 0
 1249 0000 0123     		movs	r3, #1
 1250 0002 10B5     		push	{r4, lr}
 1251 0004 88B0     		sub	sp, sp, #32
 1252 0006 02AA     		add	r2, sp, #8
ARM GAS  /tmp/ccdSEGyb.s 			page 22


 1253 0008 1371     		strb	r3, [r2, #4]
 1254 000a 1373     		strb	r3, [r2, #12]
 1255 000c FFF7FEFF 		bl	smtc_modem_hal_get_time_in_s
 1256 0010 0521     		movs	r1, #5
 1257 0012 0400     		movs	r4, r0
 1258 0014 0020     		movs	r0, #0
 1259 0016 FFF7FEFF 		bl	smtc_modem_hal_get_random_nb_in_range
 1260 001a 0490     		str	r0, [sp, #16]
 1261 001c FFF7FEFF 		bl	lorawan_api_modem_certification_is_enabled
 1262 0020 0028     		cmp	r0, #0
 1263 0022 05D1     		bne	.L145
 1264 0024 FFF7FEFF 		bl	lorawan_api_next_join_time_second_get
 1265 0028 049B     		ldr	r3, [sp, #16]
 1266 002a 1818     		adds	r0, r3, r0
 1267 002c 0193     		str	r3, [sp, #4]
 1268 002e 0490     		str	r0, [sp, #16]
 1269              	.L145:
 1270 0030 049B     		ldr	r3, [sp, #16]
 1271 0032 0193     		str	r3, [sp, #4]
 1272 0034 191B     		subs	r1, r3, r4
 1273 0036 0029     		cmp	r1, #0
 1274 0038 0ADC     		bgt	.L146
 1275 003a 0748     		ldr	r0, .L148
 1276 003c FFF7FEFF 		bl	smtc_modem_hal_print_trace
 1277              	.L147:
 1278 0040 0120     		movs	r0, #1
 1279 0042 FFF7FEFF 		bl	set_modem_status_joining
 1280 0046 03A8     		add	r0, sp, #12
 1281 0048 FFF7FEFF 		bl	modem_supervisor_add_task
 1282 004c 08B0     		add	sp, sp, #32
 1283              		@ sp needed
 1284 004e 10BD     		pop	{r4, pc}
 1285              	.L146:
 1286 0050 0248     		ldr	r0, .L148+4
 1287 0052 FFF7FEFF 		bl	smtc_modem_hal_print_trace
 1288 0056 F3E7     		b	.L147
 1289              	.L149:
 1290              		.align	2
 1291              	.L148:
 1292 0058 00000000 		.word	.LC84
 1293 005c 22000000 		.word	.LC86
 1295              		.section	.text.set_modem_status_streaming,"ax",%progbits
 1296              		.align	1
 1297              		.global	set_modem_status_streaming
 1298              		.syntax unified
 1299              		.code	16
 1300              		.thumb_func
 1301              		.fpu softvfp
 1303              	set_modem_status_streaming:
 1304              		@ args = 0, pretend = 0, frame = 0
 1305              		@ frame_needed = 0, uses_anonymous_args = 0
 1306              		@ link register save eliminated.
 1307 0000 054A     		ldr	r2, .L153
 1308 0002 1378     		ldrb	r3, [r2]
 1309 0004 0028     		cmp	r0, #0
 1310 0006 03D0     		beq	.L151
 1311 0008 8021     		movs	r1, #128
ARM GAS  /tmp/ccdSEGyb.s 			page 23


 1312 000a 0B43     		orrs	r3, r1
 1313              	.L152:
 1314 000c 1370     		strb	r3, [r2]
 1315              		@ sp needed
 1316 000e 7047     		bx	lr
 1317              	.L151:
 1318 0010 7F21     		movs	r1, #127
 1319 0012 0B40     		ands	r3, r1
 1320 0014 FAE7     		b	.L152
 1321              	.L154:
 1322 0016 C046     		.align	2
 1323              	.L153:
 1324 0018 00000000 		.word	.LANCHOR0
 1326              		.section	.text.modem_supervisor_add_task_stream,"ax",%progbits
 1327              		.align	1
 1328              		.global	modem_supervisor_add_task_stream
 1329              		.syntax unified
 1330              		.code	16
 1331              		.thumb_func
 1332              		.fpu softvfp
 1334              	modem_supervisor_add_task_stream:
 1335              		@ args = 0, pretend = 0, frame = 24
 1336              		@ frame_needed = 0, uses_anonymous_args = 0
 1337 0000 0823     		movs	r3, #8
 1338 0002 30B5     		push	{r4, r5, lr}
 1339 0004 87B0     		sub	sp, sp, #28
 1340 0006 01AC     		add	r4, sp, #4
 1341 0008 2370     		strb	r3, [r4]
 1342 000a FFF7FEFF 		bl	smtc_modem_hal_get_time_in_s
 1343 000e 0321     		movs	r1, #3
 1344 0010 0500     		movs	r5, r0
 1345 0012 0120     		movs	r0, #1
 1346 0014 FFF7FEFF 		bl	smtc_modem_hal_get_random_nb_in_range
 1347 0018 2D18     		adds	r5, r5, r0
 1348 001a 0295     		str	r5, [sp, #8]
 1349 001c 0125     		movs	r5, #1
 1350 001e 064B     		ldr	r3, .L156
 1351 0020 2000     		movs	r0, r4
 1352 0022 1B78     		ldrb	r3, [r3]
 1353 0024 2572     		strb	r5, [r4, #8]
 1354 0026 6372     		strb	r3, [r4, #9]
 1355 0028 A572     		strb	r5, [r4, #10]
 1356 002a FFF7FEFF 		bl	modem_supervisor_add_task
 1357 002e 2800     		movs	r0, r5
 1358 0030 FFF7FEFF 		bl	set_modem_status_streaming
 1359 0034 07B0     		add	sp, sp, #28
 1360              		@ sp needed
 1361 0036 30BD     		pop	{r4, r5, pc}
 1362              	.L157:
 1363              		.align	2
 1364              	.L156:
 1365 0038 00000000 		.word	.LANCHOR8
 1367              		.section	.text.get_modem_status_reset_after_crash,"ax",%progbits
 1368              		.align	1
 1369              		.global	get_modem_status_reset_after_crash
 1370              		.syntax unified
 1371              		.code	16
ARM GAS  /tmp/ccdSEGyb.s 			page 24


 1372              		.thumb_func
 1373              		.fpu softvfp
 1375              	get_modem_status_reset_after_crash:
 1376              		@ args = 0, pretend = 0, frame = 0
 1377              		@ frame_needed = 0, uses_anonymous_args = 0
 1378              		@ link register save eliminated.
 1379 0000 024B     		ldr	r3, .L159
 1380              		@ sp needed
 1381 0002 1878     		ldrb	r0, [r3]
 1382 0004 8007     		lsls	r0, r0, #30
 1383 0006 C00F     		lsrs	r0, r0, #31
 1384 0008 7047     		bx	lr
 1385              	.L160:
 1386 000a C046     		.align	2
 1387              	.L159:
 1388 000c 00000000 		.word	.LANCHOR0
 1390              		.section	.text.get_modem_status_file_upload,"ax",%progbits
 1391              		.align	1
 1392              		.global	get_modem_status_file_upload
 1393              		.syntax unified
 1394              		.code	16
 1395              		.thumb_func
 1396              		.fpu softvfp
 1398              	get_modem_status_file_upload:
 1399              		@ args = 0, pretend = 0, frame = 0
 1400              		@ frame_needed = 0, uses_anonymous_args = 0
 1401              		@ link register save eliminated.
 1402 0000 024B     		ldr	r3, .L162
 1403              		@ sp needed
 1404 0002 1878     		ldrb	r0, [r3]
 1405 0004 8006     		lsls	r0, r0, #26
 1406 0006 C00F     		lsrs	r0, r0, #31
 1407 0008 7047     		bx	lr
 1408              	.L163:
 1409 000a C046     		.align	2
 1410              	.L162:
 1411 000c 00000000 		.word	.LANCHOR0
 1413              		.section	.text.get_modem_status_joining,"ax",%progbits
 1414              		.align	1
 1415              		.global	get_modem_status_joining
 1416              		.syntax unified
 1417              		.code	16
 1418              		.thumb_func
 1419              		.fpu softvfp
 1421              	get_modem_status_joining:
 1422              		@ args = 0, pretend = 0, frame = 0
 1423              		@ frame_needed = 0, uses_anonymous_args = 0
 1424              		@ link register save eliminated.
 1425 0000 024B     		ldr	r3, .L165
 1426              		@ sp needed
 1427 0002 1878     		ldrb	r0, [r3]
 1428 0004 4006     		lsls	r0, r0, #25
 1429 0006 C00F     		lsrs	r0, r0, #31
 1430 0008 7047     		bx	lr
 1431              	.L166:
 1432 000a C046     		.align	2
 1433              	.L165:
ARM GAS  /tmp/ccdSEGyb.s 			page 25


 1434 000c 00000000 		.word	.LANCHOR0
 1436              		.section	.text.get_join_state,"ax",%progbits
 1437              		.align	1
 1438              		.global	get_join_state
 1439              		.syntax unified
 1440              		.code	16
 1441              		.thumb_func
 1442              		.fpu softvfp
 1444              	get_join_state:
 1445              		@ args = 0, pretend = 0, frame = 0
 1446              		@ frame_needed = 0, uses_anonymous_args = 0
 1447 0000 10B5     		push	{r4, lr}
 1448 0002 FFF7FEFF 		bl	get_modem_status_joining
 1449 0006 0400     		movs	r4, r0
 1450 0008 0120     		movs	r0, #1
 1451 000a 002C     		cmp	r4, #0
 1452 000c 04D1     		bne	.L168
 1453 000e FFF7FEFF 		bl	lorawan_api_isjoined
 1454 0012 0228     		cmp	r0, #2
 1455 0014 00D0     		beq	.L168
 1456 0016 2000     		movs	r0, r4
 1457              	.L168:
 1458              		@ sp needed
 1459 0018 10BD     		pop	{r4, pc}
 1461              		.section	.text.modem_supervisor_add_task_dm_status,"ax",%progbits
 1462              		.align	1
 1463              		.global	modem_supervisor_add_task_dm_status
 1464              		.syntax unified
 1465              		.code	16
 1466              		.thumb_func
 1467              		.fpu softvfp
 1469              	modem_supervisor_add_task_dm_status:
 1470              		@ args = 0, pretend = 0, frame = 24
 1471              		@ frame_needed = 0, uses_anonymous_args = 0
 1472 0000 0223     		movs	r3, #2
 1473 0002 0322     		movs	r2, #3
 1474 0004 30B5     		push	{r4, r5, lr}
 1475 0006 87B0     		sub	sp, sp, #28
 1476 0008 01AC     		add	r4, sp, #4
 1477 000a 0500     		movs	r5, r0
 1478 000c 2370     		strb	r3, [r4]
 1479 000e 2272     		strb	r2, [r4, #8]
 1480 0010 6374     		strb	r3, [r4, #17]
 1481 0012 FFF7FEFF 		bl	smtc_modem_hal_get_time_in_s
 1482 0016 4019     		adds	r0, r0, r5
 1483 0018 0290     		str	r0, [sp, #8]
 1484 001a FFF7FEFF 		bl	get_join_state
 1485 001e 0228     		cmp	r0, #2
 1486 0020 02D1     		bne	.L171
 1487 0022 2000     		movs	r0, r4
 1488 0024 FFF7FEFF 		bl	modem_supervisor_add_task
 1489              	.L171:
 1490 0028 07B0     		add	sp, sp, #28
 1491              		@ sp needed
 1492 002a 30BD     		pop	{r4, r5, pc}
 1494              		.section	.text.modem_supervisor_add_task_alc_sync_ans,"ax",%progbits
 1495              		.align	1
ARM GAS  /tmp/ccdSEGyb.s 			page 26


 1496              		.global	modem_supervisor_add_task_alc_sync_ans
 1497              		.syntax unified
 1498              		.code	16
 1499              		.thumb_func
 1500              		.fpu softvfp
 1502              	modem_supervisor_add_task_alc_sync_ans:
 1503              		@ args = 0, pretend = 0, frame = 24
 1504              		@ frame_needed = 0, uses_anonymous_args = 0
 1505 0000 0A23     		movs	r3, #10
 1506 0002 30B5     		push	{r4, r5, lr}
 1507 0004 87B0     		sub	sp, sp, #28
 1508 0006 01AC     		add	r4, sp, #4
 1509 0008 2370     		strb	r3, [r4]
 1510 000a 093B     		subs	r3, r3, #9
 1511 000c 2372     		strb	r3, [r4, #8]
 1512 000e 0133     		adds	r3, r3, #1
 1513 0010 0500     		movs	r5, r0
 1514 0012 6374     		strb	r3, [r4, #17]
 1515 0014 FFF7FEFF 		bl	smtc_modem_hal_get_time_in_s
 1516 0018 4019     		adds	r0, r0, r5
 1517 001a 0290     		str	r0, [sp, #8]
 1518 001c FFF7FEFF 		bl	get_join_state
 1519 0020 0228     		cmp	r0, #2
 1520 0022 02D1     		bne	.L173
 1521 0024 2000     		movs	r0, r4
 1522 0026 FFF7FEFF 		bl	modem_supervisor_add_task
 1523              	.L173:
 1524 002a 07B0     		add	sp, sp, #28
 1525              		@ sp needed
 1526 002c 30BD     		pop	{r4, r5, pc}
 1528              		.section	.text.modem_supervisor_add_task_alm_dbg_ans,"ax",%progbits
 1529              		.align	1
 1530              		.global	modem_supervisor_add_task_alm_dbg_ans
 1531              		.syntax unified
 1532              		.code	16
 1533              		.thumb_func
 1534              		.fpu softvfp
 1536              	modem_supervisor_add_task_alm_dbg_ans:
 1537              		@ args = 0, pretend = 0, frame = 24
 1538              		@ frame_needed = 0, uses_anonymous_args = 0
 1539 0000 0D23     		movs	r3, #13
 1540 0002 30B5     		push	{r4, r5, lr}
 1541 0004 87B0     		sub	sp, sp, #28
 1542 0006 01AC     		add	r4, sp, #4
 1543 0008 2370     		strb	r3, [r4]
 1544 000a 0C3B     		subs	r3, r3, #12
 1545 000c 2372     		strb	r3, [r4, #8]
 1546 000e 0133     		adds	r3, r3, #1
 1547 0010 0500     		movs	r5, r0
 1548 0012 6374     		strb	r3, [r4, #17]
 1549 0014 FFF7FEFF 		bl	smtc_modem_hal_get_time_in_s
 1550 0018 4019     		adds	r0, r0, r5
 1551 001a 0290     		str	r0, [sp, #8]
 1552 001c FFF7FEFF 		bl	get_join_state
 1553 0020 0228     		cmp	r0, #2
 1554 0022 02D1     		bne	.L175
 1555 0024 2000     		movs	r0, r4
ARM GAS  /tmp/ccdSEGyb.s 			page 27


 1556 0026 FFF7FEFF 		bl	modem_supervisor_add_task
 1557              	.L175:
 1558 002a 07B0     		add	sp, sp, #28
 1559              		@ sp needed
 1560 002c 30BD     		pop	{r4, r5, pc}
 1562              		.section	.text.modem_supervisor_add_task_retrieve_dl,"ax",%progbits
 1563              		.align	1
 1564              		.global	modem_supervisor_add_task_retrieve_dl
 1565              		.syntax unified
 1566              		.code	16
 1567              		.thumb_func
 1568              		.fpu softvfp
 1570              	modem_supervisor_add_task_retrieve_dl:
 1571              		@ args = 0, pretend = 0, frame = 24
 1572              		@ frame_needed = 0, uses_anonymous_args = 0
 1573 0000 0723     		movs	r3, #7
 1574 0002 30B5     		push	{r4, r5, lr}
 1575 0004 87B0     		sub	sp, sp, #28
 1576 0006 01AC     		add	r4, sp, #4
 1577 0008 2370     		strb	r3, [r4]
 1578 000a 043B     		subs	r3, r3, #4
 1579 000c 2372     		strb	r3, [r4, #8]
 1580 000e FE33     		adds	r3, r3, #254
 1581 0010 FF33     		adds	r3, r3, #255
 1582 0012 0500     		movs	r5, r0
 1583 0014 2382     		strh	r3, [r4, #16]
 1584 0016 FFF7FEFF 		bl	smtc_modem_hal_get_time_in_s
 1585 001a 4019     		adds	r0, r0, r5
 1586 001c 0290     		str	r0, [sp, #8]
 1587 001e FFF7FEFF 		bl	get_join_state
 1588 0022 0228     		cmp	r0, #2
 1589 0024 02D1     		bne	.L177
 1590 0026 2000     		movs	r0, r4
 1591 0028 FFF7FEFF 		bl	modem_supervisor_add_task
 1592              	.L177:
 1593 002c 07B0     		add	sp, sp, #28
 1594              		@ sp needed
 1595 002e 30BD     		pop	{r4, r5, pc}
 1597              		.section	.text.modem_supervisor_add_task_frag,"ax",%progbits
 1598              		.align	1
 1599              		.global	modem_supervisor_add_task_frag
 1600              		.syntax unified
 1601              		.code	16
 1602              		.thumb_func
 1603              		.fpu softvfp
 1605              	modem_supervisor_add_task_frag:
 1606              		@ args = 0, pretend = 0, frame = 24
 1607              		@ frame_needed = 0, uses_anonymous_args = 0
 1608 0000 0B23     		movs	r3, #11
 1609 0002 30B5     		push	{r4, r5, lr}
 1610 0004 87B0     		sub	sp, sp, #28
 1611 0006 01AC     		add	r4, sp, #4
 1612 0008 2370     		strb	r3, [r4]
 1613 000a 0A3B     		subs	r3, r3, #10
 1614 000c 2372     		strb	r3, [r4, #8]
 1615 000e 0133     		adds	r3, r3, #1
 1616 0010 0500     		movs	r5, r0
ARM GAS  /tmp/ccdSEGyb.s 			page 28


 1617 0012 6374     		strb	r3, [r4, #17]
 1618 0014 FFF7FEFF 		bl	smtc_modem_hal_get_time_in_s
 1619 0018 4019     		adds	r0, r0, r5
 1620 001a 0290     		str	r0, [sp, #8]
 1621 001c FFF7FEFF 		bl	get_join_state
 1622 0020 0228     		cmp	r0, #2
 1623 0022 02D1     		bne	.L179
 1624 0024 2000     		movs	r0, r4
 1625 0026 FFF7FEFF 		bl	modem_supervisor_add_task
 1626              	.L179:
 1627 002a 07B0     		add	sp, sp, #28
 1628              		@ sp needed
 1629 002c 30BD     		pop	{r4, r5, pc}
 1631              		.section	.text.modem_supervisor_add_task_link_check_req,"ax",%progbits
 1632              		.align	1
 1633              		.global	modem_supervisor_add_task_link_check_req
 1634              		.syntax unified
 1635              		.code	16
 1636              		.thumb_func
 1637              		.fpu softvfp
 1639              	modem_supervisor_add_task_link_check_req:
 1640              		@ args = 0, pretend = 0, frame = 24
 1641              		@ frame_needed = 0, uses_anonymous_args = 0
 1642 0000 0F23     		movs	r3, #15
 1643 0002 30B5     		push	{r4, r5, lr}
 1644 0004 87B0     		sub	sp, sp, #28
 1645 0006 01AC     		add	r4, sp, #4
 1646 0008 2370     		strb	r3, [r4]
 1647 000a 0E3B     		subs	r3, r3, #14
 1648 000c 2372     		strb	r3, [r4, #8]
 1649 000e 0133     		adds	r3, r3, #1
 1650 0010 0500     		movs	r5, r0
 1651 0012 6374     		strb	r3, [r4, #17]
 1652 0014 FFF7FEFF 		bl	smtc_modem_hal_get_time_in_s
 1653 0018 4019     		adds	r0, r0, r5
 1654 001a 0290     		str	r0, [sp, #8]
 1655 001c FFF7FEFF 		bl	get_join_state
 1656 0020 0228     		cmp	r0, #2
 1657 0022 02D1     		bne	.L181
 1658 0024 2000     		movs	r0, r4
 1659 0026 FFF7FEFF 		bl	modem_supervisor_add_task
 1660              	.L181:
 1661 002a 07B0     		add	sp, sp, #28
 1662              		@ sp needed
 1663 002c 30BD     		pop	{r4, r5, pc}
 1665              		.section	.text.modem_supervisor_add_task_device_time_req,"ax",%progbits
 1666              		.align	1
 1667              		.global	modem_supervisor_add_task_device_time_req
 1668              		.syntax unified
 1669              		.code	16
 1670              		.thumb_func
 1671              		.fpu softvfp
 1673              	modem_supervisor_add_task_device_time_req:
 1674              		@ args = 0, pretend = 0, frame = 24
 1675              		@ frame_needed = 0, uses_anonymous_args = 0
 1676 0000 1023     		movs	r3, #16
 1677 0002 30B5     		push	{r4, r5, lr}
ARM GAS  /tmp/ccdSEGyb.s 			page 29


 1678 0004 87B0     		sub	sp, sp, #28
 1679 0006 01AC     		add	r4, sp, #4
 1680 0008 2370     		strb	r3, [r4]
 1681 000a 0F3B     		subs	r3, r3, #15
 1682 000c 2372     		strb	r3, [r4, #8]
 1683 000e 0133     		adds	r3, r3, #1
 1684 0010 0500     		movs	r5, r0
 1685 0012 6374     		strb	r3, [r4, #17]
 1686 0014 FFF7FEFF 		bl	smtc_modem_hal_get_time_in_s
 1687 0018 4019     		adds	r0, r0, r5
 1688 001a 0290     		str	r0, [sp, #8]
 1689 001c FFF7FEFF 		bl	get_join_state
 1690 0020 0228     		cmp	r0, #2
 1691 0022 02D1     		bne	.L183
 1692 0024 2000     		movs	r0, r4
 1693 0026 FFF7FEFF 		bl	modem_supervisor_add_task
 1694              	.L183:
 1695 002a 07B0     		add	sp, sp, #28
 1696              		@ sp needed
 1697 002c 30BD     		pop	{r4, r5, pc}
 1699              		.section	.text.modem_supervisor_add_task_ping_slot_info_req,"ax",%progbits
 1700              		.align	1
 1701              		.global	modem_supervisor_add_task_ping_slot_info_req
 1702              		.syntax unified
 1703              		.code	16
 1704              		.thumb_func
 1705              		.fpu softvfp
 1707              	modem_supervisor_add_task_ping_slot_info_req:
 1708              		@ args = 0, pretend = 0, frame = 24
 1709              		@ frame_needed = 0, uses_anonymous_args = 0
 1710 0000 1123     		movs	r3, #17
 1711 0002 30B5     		push	{r4, r5, lr}
 1712 0004 87B0     		sub	sp, sp, #28
 1713 0006 01AC     		add	r4, sp, #4
 1714 0008 2370     		strb	r3, [r4]
 1715 000a 103B     		subs	r3, r3, #16
 1716 000c 2372     		strb	r3, [r4, #8]
 1717 000e 0133     		adds	r3, r3, #1
 1718 0010 0500     		movs	r5, r0
 1719 0012 6374     		strb	r3, [r4, #17]
 1720 0014 FFF7FEFF 		bl	smtc_modem_hal_get_time_in_s
 1721 0018 4019     		adds	r0, r0, r5
 1722 001a 0290     		str	r0, [sp, #8]
 1723 001c FFF7FEFF 		bl	get_join_state
 1724 0020 0228     		cmp	r0, #2
 1725 0022 02D1     		bne	.L185
 1726 0024 2000     		movs	r0, r4
 1727 0026 FFF7FEFF 		bl	modem_supervisor_add_task
 1728              	.L185:
 1729 002a 07B0     		add	sp, sp, #28
 1730              		@ sp needed
 1731 002c 30BD     		pop	{r4, r5, pc}
 1733              		.section	.text.get_modem_status,"ax",%progbits
 1734              		.align	1
 1735              		.global	get_modem_status
 1736              		.syntax unified
 1737              		.code	16
ARM GAS  /tmp/ccdSEGyb.s 			page 30


 1738              		.thumb_func
 1739              		.fpu softvfp
 1741              	get_modem_status:
 1742              		@ args = 0, pretend = 0, frame = 0
 1743              		@ frame_needed = 0, uses_anonymous_args = 0
 1744 0000 10B5     		push	{r4, lr}
 1745 0002 FFF7FEFF 		bl	get_join_state
 1746 0006 0228     		cmp	r0, #2
 1747 0008 02D0     		beq	.L188
 1748 000a 0020     		movs	r0, #0
 1749 000c FFF7FEFF 		bl	set_modem_status_modem_joined
 1750              	.L188:
 1751              		@ sp needed
 1752 0010 014B     		ldr	r3, .L192
 1753 0012 1878     		ldrb	r0, [r3]
 1754 0014 10BD     		pop	{r4, pc}
 1755              	.L193:
 1756 0016 C046     		.align	2
 1757              	.L192:
 1758 0018 00000000 		.word	.LANCHOR0
 1760              		.section	.text.get_modem_status_streaming,"ax",%progbits
 1761              		.align	1
 1762              		.global	get_modem_status_streaming
 1763              		.syntax unified
 1764              		.code	16
 1765              		.thumb_func
 1766              		.fpu softvfp
 1768              	get_modem_status_streaming:
 1769              		@ args = 0, pretend = 0, frame = 0
 1770              		@ frame_needed = 0, uses_anonymous_args = 0
 1771              		@ link register save eliminated.
 1772 0000 014B     		ldr	r3, .L195
 1773              		@ sp needed
 1774 0002 1878     		ldrb	r0, [r3]
 1775 0004 C009     		lsrs	r0, r0, #7
 1776 0006 7047     		bx	lr
 1777              	.L196:
 1778              		.align	2
 1779              	.L195:
 1780 0008 00000000 		.word	.LANCHOR0
 1782              		.section	.text.reset_modem_charge,"ax",%progbits
 1783              		.align	1
 1784              		.global	reset_modem_charge
 1785              		.syntax unified
 1786              		.code	16
 1787              		.thumb_func
 1788              		.fpu softvfp
 1790              	reset_modem_charge:
 1791              		@ args = 0, pretend = 0, frame = 0
 1792              		@ frame_needed = 0, uses_anonymous_args = 0
 1793 0000 C422     		movs	r2, #196
 1794 0002 054B     		ldr	r3, .L198
 1795 0004 10B5     		push	{r4, lr}
 1796 0006 1868     		ldr	r0, [r3]
 1797 0008 044B     		ldr	r3, .L198+4
 1798 000a 0021     		movs	r1, #0
 1799              		@ sp needed
ARM GAS  /tmp/ccdSEGyb.s 			page 31


 1800 000c C018     		adds	r0, r0, r3
 1801 000e 5200     		lsls	r2, r2, #1
 1802 0010 FFF7FEFF 		bl	memset
 1803 0014 10BD     		pop	{r4, pc}
 1804              	.L199:
 1805 0016 C046     		.align	2
 1806              	.L198:
 1807 0018 00000000 		.word	.LANCHOR29
 1808 001c F4070000 		.word	2036
 1810              		.global	__aeabi_uidiv
 1811              		.section	.text.get_modem_charge_ma_s,"ax",%progbits
 1812              		.align	1
 1813              		.global	get_modem_charge_ma_s
 1814              		.syntax unified
 1815              		.code	16
 1816              		.thumb_func
 1817              		.fpu softvfp
 1819              	get_modem_charge_ma_s:
 1820              		@ args = 0, pretend = 0, frame = 0
 1821              		@ frame_needed = 0, uses_anonymous_args = 0
 1822 0000 FA21     		movs	r1, #250
 1823 0002 094B     		ldr	r3, .L201
 1824 0004 094A     		ldr	r2, .L201+4
 1825 0006 1B68     		ldr	r3, [r3]
 1826 0008 10B5     		push	{r4, lr}
 1827 000a 9858     		ldr	r0, [r3, r2]
 1828 000c 084A     		ldr	r2, .L201+8
 1829 000e 8900     		lsls	r1, r1, #2
 1830 0010 9A58     		ldr	r2, [r3, r2]
 1831              		@ sp needed
 1832 0012 8018     		adds	r0, r0, r2
 1833 0014 074A     		ldr	r2, .L201+12
 1834 0016 9B58     		ldr	r3, [r3, r2]
 1835 0018 C018     		adds	r0, r0, r3
 1836 001a FFF7FEFF 		bl	__aeabi_uidiv
 1837 001e 064B     		ldr	r3, .L201+16
 1838 0020 1B68     		ldr	r3, [r3]
 1839 0022 C018     		adds	r0, r0, r3
 1840 0024 10BD     		pop	{r4, pc}
 1841              	.L202:
 1842 0026 C046     		.align	2
 1843              	.L201:
 1844 0028 00000000 		.word	.LANCHOR29
 1845 002c 34090000 		.word	2356
 1846 0030 38090000 		.word	2360
 1847 0034 3C090000 		.word	2364
 1848 0038 00000000 		.word	.LANCHOR18
 1850              		.section	.text.get_modem_charge_ma_h,"ax",%progbits
 1851              		.align	1
 1852              		.global	get_modem_charge_ma_h
 1853              		.syntax unified
 1854              		.code	16
 1855              		.thumb_func
 1856              		.fpu softvfp
 1858              	get_modem_charge_ma_h:
 1859              		@ args = 0, pretend = 0, frame = 0
 1860              		@ frame_needed = 0, uses_anonymous_args = 0
ARM GAS  /tmp/ccdSEGyb.s 			page 32


 1861 0000 10B5     		push	{r4, lr}
 1862 0002 FFF7FEFF 		bl	get_modem_charge_ma_s
 1863              		@ sp needed
 1864 0006 E121     		movs	r1, #225
 1865 0008 0901     		lsls	r1, r1, #4
 1866 000a FFF7FEFF 		bl	__aeabi_uidiv
 1867 000e 10BD     		pop	{r4, pc}
 1869              		.section	.text.get_modem_user_define_charge_ma_h,"ax",%progbits
 1870              		.align	1
 1871              		.global	get_modem_user_define_charge_ma_h
 1872              		.syntax unified
 1873              		.code	16
 1874              		.thumb_func
 1875              		.fpu softvfp
 1877              	get_modem_user_define_charge_ma_h:
 1878              		@ args = 0, pretend = 0, frame = 0
 1879              		@ frame_needed = 0, uses_anonymous_args = 0
 1880              		@ link register save eliminated.
 1881 0000 014B     		ldr	r3, .L205
 1882              		@ sp needed
 1883 0002 1888     		ldrh	r0, [r3]
 1884 0004 7047     		bx	lr
 1885              	.L206:
 1886 0006 C046     		.align	2
 1887              	.L205:
 1888 0008 00000000 		.word	.LANCHOR20
 1890              		.section	.text.set_modem_user_define_charge_ma_h,"ax",%progbits
 1891              		.align	1
 1892              		.global	set_modem_user_define_charge_ma_h
 1893              		.syntax unified
 1894              		.code	16
 1895              		.thumb_func
 1896              		.fpu softvfp
 1898              	set_modem_user_define_charge_ma_h:
 1899              		@ args = 0, pretend = 0, frame = 0
 1900              		@ frame_needed = 0, uses_anonymous_args = 0
 1901              		@ link register save eliminated.
 1902 0000 014B     		ldr	r3, .L208
 1903              		@ sp needed
 1904 0002 1880     		strh	r0, [r3]
 1905 0004 7047     		bx	lr
 1906              	.L209:
 1907 0006 C046     		.align	2
 1908              	.L208:
 1909 0008 00000000 		.word	.LANCHOR20
 1911              		.section	.text.choose_modem_charge_counter,"ax",%progbits
 1912              		.align	1
 1913              		.global	choose_modem_charge_counter
 1914              		.syntax unified
 1915              		.code	16
 1916              		.thumb_func
 1917              		.fpu softvfp
 1919              	choose_modem_charge_counter:
 1920              		@ args = 0, pretend = 0, frame = 0
 1921              		@ frame_needed = 0, uses_anonymous_args = 0
 1922              		@ link register save eliminated.
 1923 0000 0022     		movs	r2, #0
ARM GAS  /tmp/ccdSEGyb.s 			page 33


 1924              		@ sp needed
 1925 0002 014B     		ldr	r3, .L211
 1926 0004 1A70     		strb	r2, [r3]
 1927 0006 7047     		bx	lr
 1928              	.L212:
 1929              		.align	2
 1930              	.L211:
 1931 0008 00000000 		.word	.LANCHOR21
 1933              		.section	.text.choose_user_define_charge_counter,"ax",%progbits
 1934              		.align	1
 1935              		.global	choose_user_define_charge_counter
 1936              		.syntax unified
 1937              		.code	16
 1938              		.thumb_func
 1939              		.fpu softvfp
 1941              	choose_user_define_charge_counter:
 1942              		@ args = 0, pretend = 0, frame = 0
 1943              		@ frame_needed = 0, uses_anonymous_args = 0
 1944              		@ link register save eliminated.
 1945 0000 0122     		movs	r2, #1
 1946              		@ sp needed
 1947 0002 014B     		ldr	r3, .L214
 1948 0004 1A70     		strb	r2, [r3]
 1949 0006 7047     		bx	lr
 1950              	.L215:
 1951              		.align	2
 1952              	.L214:
 1953 0008 00000000 		.word	.LANCHOR21
 1955              		.section	.text.get_charge_counter_to_send,"ax",%progbits
 1956              		.align	1
 1957              		.global	get_charge_counter_to_send
 1958              		.syntax unified
 1959              		.code	16
 1960              		.thumb_func
 1961              		.fpu softvfp
 1963              	get_charge_counter_to_send:
 1964              		@ args = 0, pretend = 0, frame = 0
 1965              		@ frame_needed = 0, uses_anonymous_args = 0
 1966              		@ link register save eliminated.
 1967 0000 014B     		ldr	r3, .L217
 1968              		@ sp needed
 1969 0002 1878     		ldrb	r0, [r3]
 1970 0004 7047     		bx	lr
 1971              	.L218:
 1972 0006 C046     		.align	2
 1973              	.L217:
 1974 0008 00000000 		.word	.LANCHOR21
 1976              		.section	.text.get_modem_voltage,"ax",%progbits
 1977              		.align	1
 1978              		.global	get_modem_voltage
 1979              		.syntax unified
 1980              		.code	16
 1981              		.thumb_func
 1982              		.fpu softvfp
 1984              	get_modem_voltage:
 1985              		@ args = 0, pretend = 0, frame = 0
 1986              		@ frame_needed = 0, uses_anonymous_args = 0
ARM GAS  /tmp/ccdSEGyb.s 			page 34


 1987 0000 10B5     		push	{r4, lr}
 1988 0002 FFF7FEFF 		bl	smtc_modem_hal_get_voltage
 1989              		@ sp needed
 1990 0006 10BD     		pop	{r4, pc}
 1992              		.section	.text.get_modem_temp,"ax",%progbits
 1993              		.align	1
 1994              		.global	get_modem_temp
 1995              		.syntax unified
 1996              		.code	16
 1997              		.thumb_func
 1998              		.fpu softvfp
 2000              	get_modem_temp:
 2001              		@ args = 0, pretend = 0, frame = 0
 2002              		@ frame_needed = 0, uses_anonymous_args = 0
 2003 0000 10B5     		push	{r4, lr}
 2004 0002 FFF7FEFF 		bl	smtc_modem_hal_get_temperature
 2005              		@ sp needed
 2006 0006 10BD     		pop	{r4, pc}
 2008              		.section	.rodata.dm_check_dminfo_size.str1.1,"aMS",%progbits,1
 2009              	.LC103:
 2010 0000 1B5B303B 		.ascii	"\033[0;31mERROR: Invalid DM command\015\012\000"
 2010      33316D45 
 2010      52524F52 
 2010      3A20496E 
 2010      76616C69 
 2011              	.LC107:
 2012 0023 1B5B303B 		.ascii	"\033[0;31mERROR: Invalid DM command size\015\012\000"
 2012      33316D45 
 2012      52524F52 
 2012      3A20496E 
 2012      76616C69 
 2013              		.section	.text.dm_check_dminfo_size,"ax",%progbits
 2014              		.align	1
 2015              		.global	dm_check_dminfo_size
 2016              		.syntax unified
 2017              		.code	16
 2018              		.thumb_func
 2019              		.fpu softvfp
 2021              	dm_check_dminfo_size:
 2022              		@ args = 0, pretend = 0, frame = 0
 2023              		@ frame_needed = 0, uses_anonymous_args = 0
 2024 0000 10B5     		push	{r4, lr}
 2025 0002 1B28     		cmp	r0, #27
 2026 0004 07D9     		bls	.L222
 2027 0006 0748     		ldr	r0, .L226
 2028              	.L225:
 2029 0008 FFF7FEFF 		bl	smtc_modem_hal_print_trace
 2030 000c 0648     		ldr	r0, .L226+4
 2031 000e FFF7FEFF 		bl	smtc_modem_hal_print_trace
 2032 0012 0120     		movs	r0, #1
 2033              	.L223:
 2034              		@ sp needed
 2035 0014 10BD     		pop	{r4, pc}
 2036              	.L222:
 2037 0016 054B     		ldr	r3, .L226+8
 2038 0018 1B5C     		ldrb	r3, [r3, r0]
 2039 001a 0020     		movs	r0, #0
ARM GAS  /tmp/ccdSEGyb.s 			page 35


 2040 001c 8B42     		cmp	r3, r1
 2041 001e F9D0     		beq	.L223
 2042 0020 0348     		ldr	r0, .L226+12
 2043 0022 F1E7     		b	.L225
 2044              	.L227:
 2045              		.align	2
 2046              	.L226:
 2047 0024 00000000 		.word	.LC103
 2048 0028 1D000000 		.word	.LC41
 2049 002c 00000000 		.word	.LANCHOR40
 2050 0030 23000000 		.word	.LC107
 2052              		.section	.text.dm_set_conf,"ax",%progbits
 2053              		.align	1
 2054              		.global	dm_set_conf
 2055              		.syntax unified
 2056              		.code	16
 2057              		.thumb_func
 2058              		.fpu softvfp
 2060              	dm_set_conf:
 2061              		@ args = 0, pretend = 0, frame = 8
 2062              		@ frame_needed = 0, uses_anonymous_args = 0
 2063 0000 37B5     		push	{r0, r1, r2, r4, r5, lr}
 2064 0002 0C00     		movs	r4, r1
 2065 0004 1100     		movs	r1, r2
 2066 0006 0500     		movs	r5, r0
 2067 0008 FFF7FEFF 		bl	dm_check_dminfo_size
 2068 000c 0028     		cmp	r0, #0
 2069 000e 01D0     		beq	.L229
 2070              	.L236:
 2071 0010 0020     		movs	r0, #0
 2072              	.L230:
 2073              		@ sp needed
 2074 0012 3EBD     		pop	{r1, r2, r3, r4, r5, pc}
 2075              	.L229:
 2076 0014 2B00     		movs	r3, r5
 2077 0016 083B     		subs	r3, r3, #8
 2078 0018 032B     		cmp	r3, #3
 2079 001a FAD8     		bhi	.L230
 2080 001c 1800     		movs	r0, r3
 2081 001e FFF7FEFF 		bl	__gnu_thumb1_case_uqi
 2082              	.L232:
 2083 0022 02       		.byte	(.L235-.L232)/2
 2084 0023 0F       		.byte	(.L234-.L232)/2
 2085 0024 18       		.byte	(.L233-.L232)/2
 2086 0025 20       		.byte	(.L231-.L232)/2
 2087              		.p2align 1
 2088              	.L235:
 2089 0026 124B     		ldr	r3, .L241
 2090 0028 2078     		ldrb	r0, [r4]
 2091 002a 1870     		strb	r0, [r3]
 2092 002c FFF7FEFF 		bl	lorawan_api_dr_strategy_set
 2093 0030 431C     		adds	r3, r0, #1
 2094 0032 EDD0     		beq	.L236
 2095              	.L237:
 2096 0034 0620     		movs	r0, #6
 2097 0036 2900     		movs	r1, r5
 2098 0038 FFF7FEFF 		bl	increment_asynchronous_msgnumber
ARM GAS  /tmp/ccdSEGyb.s 			page 36


 2099 003c 0120     		movs	r0, #1
 2100 003e E8E7     		b	.L230
 2101              	.L234:
 2102 0040 6846     		mov	r0, sp
 2103 0042 0822     		movs	r2, #8
 2104 0044 2100     		movs	r1, r4
 2105 0046 FFF7FEFF 		bl	memcpy1_r
 2106 004a 6846     		mov	r0, sp
 2107 004c FFF7FEFF 		bl	lorawan_api_set_joineui
 2108 0050 F0E7     		b	.L237
 2109              	.L233:
 2110 0052 2078     		ldrb	r0, [r4]
 2111 0054 FFF7FEFF 		bl	set_modem_dm_interval
 2112 0058 FFF7FEFF 		bl	get_modem_dm_interval_second
 2113 005c FFF7FEFF 		bl	modem_supervisor_add_task_dm_status
 2114 0060 E8E7     		b	.L237
 2115              	.L231:
 2116 0062 0020     		movs	r0, #0
 2117 0064 FFF7FEFF 		bl	smtc_modem_leave_network
 2118 0068 2078     		ldrb	r0, [r4]
 2119 006a FFF7FEFF 		bl	set_modem_region
 2120 006e E1E7     		b	.L237
 2121              	.L242:
 2122              		.align	2
 2123              	.L241:
 2124 0070 00000000 		.word	.LANCHOR24
 2126              		.section	.text.get_modem_muted,"ax",%progbits
 2127              		.align	1
 2128              		.global	get_modem_muted
 2129              		.syntax unified
 2130              		.code	16
 2131              		.thumb_func
 2132              		.fpu softvfp
 2134              	get_modem_muted:
 2135              		@ args = 0, pretend = 0, frame = 0
 2136              		@ frame_needed = 0, uses_anonymous_args = 0
 2137              		@ link register save eliminated.
 2138 0000 034B     		ldr	r3, .L248
 2139 0002 1878     		ldrb	r0, [r3]
 2140 0004 FF28     		cmp	r0, #255
 2141 0006 02D0     		beq	.L244
 2142 0008 431E     		subs	r3, r0, #1
 2143 000a 9841     		sbcs	r0, r0, r3
 2144 000c C0B2     		uxtb	r0, r0
 2145              	.L244:
 2146              		@ sp needed
 2147 000e 7047     		bx	lr
 2148              	.L249:
 2149              		.align	2
 2150              	.L248:
 2151 0010 00000000 		.word	.LANCHOR13
 2153              		.section	.text.dm_get_number_of_days_mute,"ax",%progbits
 2154              		.align	1
 2155              		.global	dm_get_number_of_days_mute
 2156              		.syntax unified
 2157              		.code	16
 2158              		.thumb_func
ARM GAS  /tmp/ccdSEGyb.s 			page 37


 2159              		.fpu softvfp
 2161              	dm_get_number_of_days_mute:
 2162              		@ args = 0, pretend = 0, frame = 0
 2163              		@ frame_needed = 0, uses_anonymous_args = 0
 2164              		@ link register save eliminated.
 2165 0000 014B     		ldr	r3, .L251
 2166              		@ sp needed
 2167 0002 1878     		ldrb	r0, [r3]
 2168 0004 7047     		bx	lr
 2169              	.L252:
 2170 0006 C046     		.align	2
 2171              	.L251:
 2172 0008 00000000 		.word	.LANCHOR13
 2174              		.section	.rodata.dm_set_number_of_days_mute.str1.1,"aMS",%progbits,1
 2175              	.LC112:
 2176 0000 4D555445 		.ascii	"MUTE for %d days\015\012\000"
 2176      20666F72 
 2176      20256420 
 2176      64617973 
 2176      0D0A00
 2177              		.section	.text.dm_set_number_of_days_mute,"ax",%progbits
 2178              		.align	1
 2179              		.global	dm_set_number_of_days_mute
 2180              		.syntax unified
 2181              		.code	16
 2182              		.thumb_func
 2183              		.fpu softvfp
 2185              	dm_set_number_of_days_mute:
 2186              		@ args = 0, pretend = 0, frame = 0
 2187              		@ frame_needed = 0, uses_anonymous_args = 0
 2188 0000 0100     		movs	r1, r0
 2189 0002 10B5     		push	{r4, lr}
 2190 0004 0400     		movs	r4, r0
 2191 0006 0748     		ldr	r0, .L257
 2192 0008 FFF7FEFF 		bl	smtc_modem_hal_print_trace
 2193 000c 064B     		ldr	r3, .L257+4
 2194 000e 1A78     		ldrb	r2, [r3]
 2195 0010 A242     		cmp	r2, r4
 2196 0012 06D0     		beq	.L253
 2197 0014 0120     		movs	r0, #1
 2198 0016 1C70     		strb	r4, [r3]
 2199 0018 002C     		cmp	r4, #0
 2200 001a 00D1     		bne	.L256
 2201 001c 2000     		movs	r0, r4
 2202              	.L256:
 2203 001e FFF7FEFF 		bl	set_modem_status_modem_mute
 2204              	.L253:
 2205              		@ sp needed
 2206 0022 10BD     		pop	{r4, pc}
 2207              	.L258:
 2208              		.align	2
 2209              	.L257:
 2210 0024 00000000 		.word	.LC112
 2211 0028 00000000 		.word	.LANCHOR13
 2213              		.section	.text.get_dm_info_tag_list,"ax",%progbits
 2214              		.align	1
 2215              		.global	get_dm_info_tag_list
ARM GAS  /tmp/ccdSEGyb.s 			page 38


 2216              		.syntax unified
 2217              		.code	16
 2218              		.thumb_func
 2219              		.fpu softvfp
 2221              	get_dm_info_tag_list:
 2222              		@ args = 0, pretend = 0, frame = 0
 2223              		@ frame_needed = 0, uses_anonymous_args = 0
 2224 0000 70B5     		push	{r4, r5, r6, lr}
 2225 0002 0A4B     		ldr	r3, .L269
 2226 0004 0129     		cmp	r1, #1
 2227 0006 00D0     		beq	.L268
 2228 0008 094B     		ldr	r3, .L269+4
 2229              	.L268:
 2230 000a 1968     		ldr	r1, [r3]
 2231 000c 0022     		movs	r2, #0
 2232 000e 0300     		movs	r3, r0
 2233 0010 0124     		movs	r4, #1
 2234              	.L263:
 2235 0012 2600     		movs	r6, r4
 2236 0014 9640     		lsls	r6, r6, r2
 2237 0016 D5B2     		uxtb	r5, r2
 2238 0018 3142     		tst	r1, r6
 2239 001a 01D0     		beq	.L262
 2240 001c 1D70     		strb	r5, [r3]
 2241 001e 0133     		adds	r3, r3, #1
 2242              	.L262:
 2243 0020 0132     		adds	r2, r2, #1
 2244 0022 1C2A     		cmp	r2, #28
 2245 0024 F5D1     		bne	.L263
 2246 0026 181A     		subs	r0, r3, r0
 2247 0028 C0B2     		uxtb	r0, r0
 2248              		@ sp needed
 2249 002a 70BD     		pop	{r4, r5, r6, pc}
 2250              	.L270:
 2251              		.align	2
 2252              	.L269:
 2253 002c 00000000 		.word	.LANCHOR10
 2254 0030 00000000 		.word	.LANCHOR9
 2256              		.section	.rodata.set_dm_info.str1.1,"aMS",%progbits,1
 2257              	.LC117:
 2258 0000 1B5B303B 		.ascii	"\033[0;31mERROR: invalid DM info code (0x%02x)\015\012"
 2258      33316D45 
 2258      52524F52 
 2258      3A20696E 
 2258      76616C69 
 2259 002d 00       		.ascii	"\000"
 2260              		.section	.text.set_dm_info,"ax",%progbits
 2261              		.align	1
 2262              		.global	set_dm_info
 2263              		.syntax unified
 2264              		.code	16
 2265              		.thumb_func
 2266              		.fpu softvfp
 2268              	set_dm_info:
 2269              		@ args = 0, pretend = 0, frame = 8
 2270              		@ frame_needed = 0, uses_anonymous_args = 0
 2271 0000 F7B5     		push	{r0, r1, r2, r4, r5, r6, r7, lr}
ARM GAS  /tmp/ccdSEGyb.s 			page 39


 2272 0002 0400     		movs	r4, r0
 2273 0004 0600     		movs	r6, r0
 2274 0006 0700     		movs	r7, r0
 2275 0008 0125     		movs	r5, #1
 2276 000a 4318     		adds	r3, r0, r1
 2277 000c 0092     		str	r2, [sp]
 2278 000e 0193     		str	r3, [sp, #4]
 2279              	.L272:
 2280 0010 019B     		ldr	r3, [sp, #4]
 2281 0012 9F42     		cmp	r7, r3
 2282 0014 04D1     		bne	.L275
 2283 0016 012D     		cmp	r5, #1
 2284 0018 1DD0     		beq	.L276
 2285              	.L281:
 2286 001a 0025     		movs	r5, #0
 2287              	.L277:
 2288              		@ sp needed
 2289 001c 2800     		movs	r0, r5
 2290 001e FEBD     		pop	{r1, r2, r3, r4, r5, r6, r7, pc}
 2291              	.L275:
 2292 0020 3978     		ldrb	r1, [r7]
 2293 0022 1B29     		cmp	r1, #27
 2294 0024 04D8     		bhi	.L273
 2295 0026 1F4B     		ldr	r3, .L292
 2296 0028 0122     		movs	r2, #1
 2297 002a CB40     		lsrs	r3, r3, r1
 2298 002c 9A43     		bics	r2, r3
 2299 002e 06D1     		bne	.L274
 2300              	.L273:
 2301 0030 1D48     		ldr	r0, .L292+4
 2302 0032 FFF7FEFF 		bl	smtc_modem_hal_print_trace
 2303 0036 1D48     		ldr	r0, .L292+8
 2304 0038 FFF7FEFF 		bl	smtc_modem_hal_print_trace
 2305 003c 0025     		movs	r5, #0
 2306              	.L274:
 2307 003e 0137     		adds	r7, r7, #1
 2308 0040 E6E7     		b	.L272
 2309              	.L279:
 2310 0042 2378     		ldrb	r3, [r4]
 2311 0044 0D2B     		cmp	r3, #13
 2312 0046 05D1     		bne	.L278
 2313 0048 009B     		ldr	r3, [sp]
 2314 004a 012B     		cmp	r3, #1
 2315 004c 16D1     		bne	.L286
 2316 004e 0020     		movs	r0, #0
 2317 0050 FFF7FEFF 		bl	modem_supervisor_add_task_crash_log
 2318              	.L278:
 2319 0054 0134     		adds	r4, r4, #1
 2320              	.L276:
 2321 0056 019B     		ldr	r3, [sp, #4]
 2322 0058 A342     		cmp	r3, r4
 2323 005a F2D1     		bne	.L279
 2324 005c 0023     		movs	r3, #0
 2325 005e 2900     		movs	r1, r5
 2326 0060 012D     		cmp	r5, #1
 2327 0062 DAD1     		bne	.L281
 2328              	.L280:
ARM GAS  /tmp/ccdSEGyb.s 			page 40


 2329 0064 B442     		cmp	r4, r6
 2330 0066 0BD1     		bne	.L283
 2331 0068 009A     		ldr	r2, [sp]
 2332 006a 012A     		cmp	r2, #1
 2333 006c 10D1     		bne	.L284
 2334 006e 104A     		ldr	r2, .L292+12
 2335 0070 009D     		ldr	r5, [sp]
 2336 0072 1360     		str	r3, [r2]
 2337 0074 0022     		movs	r2, #0
 2338 0076 0F4B     		ldr	r3, .L292+16
 2339 0078 1A70     		strb	r2, [r3]
 2340 007a CFE7     		b	.L277
 2341              	.L286:
 2342 007c 0025     		movs	r5, #0
 2343 007e E9E7     		b	.L278
 2344              	.L283:
 2345 0080 3278     		ldrb	r2, [r6]
 2346 0082 0D2A     		cmp	r2, #13
 2347 0084 02D0     		beq	.L282
 2348 0086 0800     		movs	r0, r1
 2349 0088 9040     		lsls	r0, r0, r2
 2350 008a 0343     		orrs	r3, r0
 2351              	.L282:
 2352 008c 0136     		adds	r6, r6, #1
 2353 008e E9E7     		b	.L280
 2354              	.L284:
 2355 0090 094A     		ldr	r2, .L292+20
 2356 0092 1168     		ldr	r1, [r2]
 2357 0094 9942     		cmp	r1, r3
 2358 0096 C1D0     		beq	.L277
 2359 0098 1360     		str	r3, [r2]
 2360 009a 0022     		movs	r2, #0
 2361 009c 074B     		ldr	r3, .L292+24
 2362 009e 1A70     		strb	r2, [r3]
 2363 00a0 BCE7     		b	.L277
 2364              	.L293:
 2365 00a2 C046     		.align	2
 2366              	.L292:
 2367 00a4 0050920E 		.word	244469760
 2368 00a8 00000000 		.word	.LC117
 2369 00ac 1D000000 		.word	.LC41
 2370 00b0 00000000 		.word	.LANCHOR10
 2371 00b4 00000000 		.word	.LANCHOR12
 2372 00b8 00000000 		.word	.LANCHOR9
 2373 00bc 00000000 		.word	.LANCHOR11
 2375              		.section	.text.set_modem_suspend,"ax",%progbits
 2376              		.align	1
 2377              		.global	set_modem_suspend
 2378              		.syntax unified
 2379              		.code	16
 2380              		.thumb_func
 2381              		.fpu softvfp
 2383              	set_modem_suspend:
 2384              		@ args = 0, pretend = 0, frame = 0
 2385              		@ frame_needed = 0, uses_anonymous_args = 0
 2386 0000 10B5     		push	{r4, lr}
 2387 0002 0400     		movs	r4, r0
ARM GAS  /tmp/ccdSEGyb.s 			page 41


 2388              		@ sp needed
 2389 0004 FFF7FEFF 		bl	set_modem_status_radio_suspend
 2390 0008 014B     		ldr	r3, .L295
 2391 000a 0120     		movs	r0, #1
 2392 000c 1C70     		strb	r4, [r3]
 2393 000e 10BD     		pop	{r4, pc}
 2394              	.L296:
 2395              		.align	2
 2396              	.L295:
 2397 0010 00000000 		.word	.LANCHOR4
 2399              		.section	.text.get_modem_suspend,"ax",%progbits
 2400              		.align	1
 2401              		.global	get_modem_suspend
 2402              		.syntax unified
 2403              		.code	16
 2404              		.thumb_func
 2405              		.fpu softvfp
 2407              	get_modem_suspend:
 2408              		@ args = 0, pretend = 0, frame = 0
 2409              		@ frame_needed = 0, uses_anonymous_args = 0
 2410              		@ link register save eliminated.
 2411 0000 034B     		ldr	r3, .L298
 2412              		@ sp needed
 2413 0002 1878     		ldrb	r0, [r3]
 2414 0004 0138     		subs	r0, r0, #1
 2415 0006 4342     		rsbs	r3, r0, #0
 2416 0008 5841     		adcs	r0, r0, r3
 2417 000a C0B2     		uxtb	r0, r0
 2418 000c 7047     		bx	lr
 2419              	.L299:
 2420 000e C046     		.align	2
 2421              	.L298:
 2422 0010 00000000 		.word	.LANCHOR4
 2424              		.section	.rodata.set_modem_adr_profile.str1.1,"aMS",%progbits,1
 2425              	.LC126:
 2426 0000 1B5B303B 		.ascii	"\033[0;31mERROR: user_dr = %d not compatible with a"
 2426      33316D45 
 2426      52524F52 
 2426      3A207573 
 2426      65725F64 
 2427 0030 64722064 		.ascii	"dr data length = %d \015\012 \000"
 2427      61746120 
 2427      6C656E67 
 2427      7468203D 
 2427      20256420 
 2428              	.LC130:
 2429 0048 1B5B303B 		.ascii	"\033[0;31mERROR: ADR with DataRate out of range\015"
 2429      33316D45 
 2429      52524F52 
 2429      3A204144 
 2429      52207769 
 2430 0075 0A00     		.ascii	"\012\000"
 2431              	.LC132:
 2432 0077 1B5B303B 		.ascii	"\033[0;31mERROR: ADR with a bad DataRate value\015\012"
 2432      33316D45 
 2432      52524F52 
 2432      3A204144 
ARM GAS  /tmp/ccdSEGyb.s 			page 42


 2432      52207769 
 2433 00a4 00       		.ascii	"\000"
 2434              		.section	.text.set_modem_adr_profile,"ax",%progbits
 2435              		.align	1
 2436              		.global	set_modem_adr_profile
 2437              		.syntax unified
 2438              		.code	16
 2439              		.thumb_func
 2440              		.fpu softvfp
 2442              	set_modem_adr_profile:
 2443              		@ args = 0, pretend = 0, frame = 24
 2444              		@ frame_needed = 0, uses_anonymous_args = 0
 2445 0000 F0B5     		push	{r4, r5, r6, r7, lr}
 2446 0002 0F00     		movs	r7, r1
 2447 0004 87B0     		sub	sp, sp, #28
 2448 0006 0328     		cmp	r0, #3
 2449 0008 14D8     		bhi	.L301
 2450 000a 11D1     		bne	.L302
 2451 000c 102A     		cmp	r2, #16
 2452 000e 11D1     		bne	.L301
 2453              	.L303:
 2454 0010 644B     		ldr	r3, .L375
 2455 0012 1870     		strb	r0, [r3]
 2456 0014 0228     		cmp	r0, #2
 2457 0016 04D0     		beq	.L373
 2458 0018 0328     		cmp	r0, #3
 2459 001a 15D0     		beq	.L306
 2460 001c 0128     		cmp	r0, #1
 2461 001e 00D0     		beq	.L373
 2462 0020 0020     		movs	r0, #0
 2463              	.L373:
 2464 0022 FFF7FEFF 		bl	lorawan_api_dr_strategy_set
 2465 0026 0130     		adds	r0, r0, #1
 2466 0028 431E     		subs	r3, r0, #1
 2467 002a 9841     		sbcs	r0, r0, r3
 2468 002c C0B2     		uxtb	r0, r0
 2469 002e 09E0     		b	.L304
 2470              	.L302:
 2471 0030 002A     		cmp	r2, #0
 2472 0032 EDD0     		beq	.L303
 2473              	.L301:
 2474 0034 0100     		movs	r1, r0
 2475 0036 5C48     		ldr	r0, .L375+4
 2476 0038 FFF7FEFF 		bl	smtc_modem_hal_print_trace
 2477              	.L374:
 2478 003c 5B48     		ldr	r0, .L375+8
 2479 003e FFF7FEFF 		bl	smtc_modem_hal_print_trace
 2480 0042 0020     		movs	r0, #0
 2481              	.L304:
 2482 0044 07B0     		add	sp, sp, #28
 2483              		@ sp needed
 2484 0046 F0BD     		pop	{r4, r5, r6, r7, pc}
 2485              	.L306:
 2486 0048 FFF7FEFF 		bl	lorawan_api_mask_tx_dr_channel_up_dwell_time_check
 2487 004c 0822     		movs	r2, #8
 2488 004e 0390     		str	r0, [sp, #12]
 2489 0050 0021     		movs	r1, #0
ARM GAS  /tmp/ccdSEGyb.s 			page 43


 2490 0052 04A8     		add	r0, sp, #16
 2491 0054 FFF7FEFF 		bl	memset
 2492 0058 3B00     		movs	r3, r7
 2493 005a 0024     		movs	r4, #0
 2494 005c 1033     		adds	r3, r3, #16
 2495 005e 0293     		str	r3, [sp, #8]
 2496 0060 2200     		movs	r2, r4
 2497 0062 2500     		movs	r5, r4
 2498 0064 2300     		movs	r3, r4
 2499 0066 A446     		mov	ip, r4
 2500 0068 0120     		movs	r0, #1
 2501 006a 0F26     		movs	r6, #15
 2502 006c 0197     		str	r7, [sp, #4]
 2503              	.L336:
 2504 006e 0199     		ldr	r1, [sp, #4]
 2505 0070 0978     		ldrb	r1, [r1]
 2506 0072 0F29     		cmp	r1, #15
 2507 0074 09D9     		bls	.L309
 2508 0076 002D     		cmp	r5, #0
 2509 0078 00D0     		beq	.L310
 2510 007a 0493     		str	r3, [sp, #16]
 2511              	.L310:
 2512 007c 002C     		cmp	r4, #0
 2513 007e 00D0     		beq	.L311
 2514 0080 0592     		str	r2, [sp, #20]
 2515              	.L311:
 2516 0082 4B48     		ldr	r0, .L375+12
 2517              	.L372:
 2518 0084 FFF7FEFF 		bl	smtc_modem_hal_print_trace
 2519 0088 D8E7     		b	.L374
 2520              	.L309:
 2521 008a 039F     		ldr	r7, [sp, #12]
 2522 008c 0F41     		asrs	r7, r7, r1
 2523 008e 0742     		tst	r7, r0
 2524 0090 0DD0     		beq	.L313
 2525 0092 0127     		movs	r7, #1
 2526 0094 BC44     		add	ip, ip, r7
 2527 0096 6746     		mov	r7, ip
 2528 0098 FFB2     		uxtb	r7, r7
 2529 009a BC46     		mov	ip, r7
 2530 009c 0029     		cmp	r1, #0
 2531 009e 18D1     		bne	.L314
 2532 00a0 190F     		lsrs	r1, r3, #28
 2533 00a2 0F39     		subs	r1, r1, #15
 2534 00a4 4D1E     		subs	r5, r1, #1
 2535 00a6 A941     		sbcs	r1, r1, r5
 2536 00a8 0907     		lsls	r1, r1, #28
 2537              	.L370:
 2538 00aa 0500     		movs	r5, r0
 2539 00ac 5B18     		adds	r3, r3, r1
 2540              	.L313:
 2541 00ae 0199     		ldr	r1, [sp, #4]
 2542 00b0 0131     		adds	r1, r1, #1
 2543 00b2 0191     		str	r1, [sp, #4]
 2544 00b4 019F     		ldr	r7, [sp, #4]
 2545 00b6 0299     		ldr	r1, [sp, #8]
 2546 00b8 8F42     		cmp	r7, r1
ARM GAS  /tmp/ccdSEGyb.s 			page 44


 2547 00ba D8D1     		bne	.L336
 2548 00bc 002D     		cmp	r5, #0
 2549 00be 00D0     		beq	.L337
 2550 00c0 0493     		str	r3, [sp, #16]
 2551              	.L337:
 2552 00c2 002C     		cmp	r4, #0
 2553 00c4 00D0     		beq	.L338
 2554 00c6 0592     		str	r2, [sp, #20]
 2555              	.L338:
 2556 00c8 6346     		mov	r3, ip
 2557 00ca 002B     		cmp	r3, #0
 2558 00cc 64D1     		bne	.L339
 2559 00ce 3948     		ldr	r0, .L375+16
 2560 00d0 D8E7     		b	.L372
 2561              	.L314:
 2562 00d2 0129     		cmp	r1, #1
 2563 00d4 06D1     		bne	.L316
 2564 00d6 190E     		lsrs	r1, r3, #24
 2565 00d8 3140     		ands	r1, r6
 2566 00da 0F39     		subs	r1, r1, #15
 2567 00dc 4D1E     		subs	r5, r1, #1
 2568 00de A941     		sbcs	r1, r1, r5
 2569 00e0 0906     		lsls	r1, r1, #24
 2570 00e2 E2E7     		b	.L370
 2571              	.L316:
 2572 00e4 0229     		cmp	r1, #2
 2573 00e6 06D1     		bne	.L318
 2574 00e8 190D     		lsrs	r1, r3, #20
 2575 00ea 3140     		ands	r1, r6
 2576 00ec 0F39     		subs	r1, r1, #15
 2577 00ee 4D1E     		subs	r5, r1, #1
 2578 00f0 A941     		sbcs	r1, r1, r5
 2579 00f2 0905     		lsls	r1, r1, #20
 2580 00f4 D9E7     		b	.L370
 2581              	.L318:
 2582 00f6 0329     		cmp	r1, #3
 2583 00f8 06D1     		bne	.L320
 2584 00fa 190C     		lsrs	r1, r3, #16
 2585 00fc 3140     		ands	r1, r6
 2586 00fe 0F39     		subs	r1, r1, #15
 2587 0100 4D1E     		subs	r5, r1, #1
 2588 0102 A941     		sbcs	r1, r1, r5
 2589 0104 0904     		lsls	r1, r1, #16
 2590 0106 D0E7     		b	.L370
 2591              	.L320:
 2592 0108 0429     		cmp	r1, #4
 2593 010a 06D1     		bne	.L322
 2594 010c 190B     		lsrs	r1, r3, #12
 2595 010e 3140     		ands	r1, r6
 2596 0110 0F39     		subs	r1, r1, #15
 2597 0112 4D1E     		subs	r5, r1, #1
 2598 0114 A941     		sbcs	r1, r1, r5
 2599 0116 0903     		lsls	r1, r1, #12
 2600 0118 C7E7     		b	.L370
 2601              	.L322:
 2602 011a 0529     		cmp	r1, #5
 2603 011c 06D1     		bne	.L324
ARM GAS  /tmp/ccdSEGyb.s 			page 45


 2604 011e 190A     		lsrs	r1, r3, #8
 2605 0120 3140     		ands	r1, r6
 2606 0122 0F39     		subs	r1, r1, #15
 2607 0124 4D1E     		subs	r5, r1, #1
 2608 0126 A941     		sbcs	r1, r1, r5
 2609 0128 0902     		lsls	r1, r1, #8
 2610 012a BEE7     		b	.L370
 2611              	.L324:
 2612 012c 0629     		cmp	r1, #6
 2613 012e 06D1     		bne	.L326
 2614 0130 1909     		lsrs	r1, r3, #4
 2615 0132 3140     		ands	r1, r6
 2616 0134 0F39     		subs	r1, r1, #15
 2617 0136 4D1E     		subs	r5, r1, #1
 2618 0138 A941     		sbcs	r1, r1, r5
 2619 013a 0901     		lsls	r1, r1, #4
 2620 013c B5E7     		b	.L370
 2621              	.L326:
 2622 013e 0729     		cmp	r1, #7
 2623 0140 05D1     		bne	.L328
 2624 0142 1900     		movs	r1, r3
 2625 0144 3140     		ands	r1, r6
 2626 0146 0F39     		subs	r1, r1, #15
 2627 0148 4D1E     		subs	r5, r1, #1
 2628 014a A941     		sbcs	r1, r1, r5
 2629 014c ADE7     		b	.L370
 2630              	.L328:
 2631 014e 0829     		cmp	r1, #8
 2632 0150 07D1     		bne	.L329
 2633 0152 110F     		lsrs	r1, r2, #28
 2634 0154 0F39     		subs	r1, r1, #15
 2635 0156 4C1E     		subs	r4, r1, #1
 2636 0158 A141     		sbcs	r1, r1, r4
 2637 015a 0907     		lsls	r1, r1, #28
 2638              	.L371:
 2639 015c 0400     		movs	r4, r0
 2640 015e 5218     		adds	r2, r2, r1
 2641 0160 A5E7     		b	.L313
 2642              	.L329:
 2643 0162 0929     		cmp	r1, #9
 2644 0164 06D1     		bne	.L331
 2645 0166 110E     		lsrs	r1, r2, #24
 2646 0168 3140     		ands	r1, r6
 2647 016a 0F39     		subs	r1, r1, #15
 2648 016c 4C1E     		subs	r4, r1, #1
 2649 016e A141     		sbcs	r1, r1, r4
 2650 0170 0906     		lsls	r1, r1, #24
 2651 0172 F3E7     		b	.L371
 2652              	.L331:
 2653 0174 0A29     		cmp	r1, #10
 2654 0176 06D1     		bne	.L333
 2655 0178 110D     		lsrs	r1, r2, #20
 2656 017a 3140     		ands	r1, r6
 2657 017c 0F39     		subs	r1, r1, #15
 2658 017e 4C1E     		subs	r4, r1, #1
 2659 0180 A141     		sbcs	r1, r1, r4
 2660 0182 0905     		lsls	r1, r1, #20
ARM GAS  /tmp/ccdSEGyb.s 			page 46


 2661 0184 EAE7     		b	.L371
 2662              	.L333:
 2663 0186 0B29     		cmp	r1, #11
 2664 0188 91D1     		bne	.L313
 2665 018a 110C     		lsrs	r1, r2, #16
 2666 018c 3140     		ands	r1, r6
 2667 018e 0F39     		subs	r1, r1, #15
 2668 0190 4C1E     		subs	r4, r1, #1
 2669 0192 A141     		sbcs	r1, r1, r4
 2670 0194 0904     		lsls	r1, r1, #16
 2671 0196 E1E7     		b	.L371
 2672              	.L339:
 2673 0198 04A8     		add	r0, sp, #16
 2674 019a FFF7FEFF 		bl	lorawan_api_dr_custom_set
 2675 019e 0320     		movs	r0, #3
 2676 01a0 3FE7     		b	.L373
 2677              	.L376:
 2678 01a2 C046     		.align	2
 2679              	.L375:
 2680 01a4 00000000 		.word	.LANCHOR24
 2681 01a8 00000000 		.word	.LC126
 2682 01ac 1D000000 		.word	.LC41
 2683 01b0 48000000 		.word	.LC130
 2684 01b4 77000000 		.word	.LC132
 2686              		.section	.rodata.set_modem_downlink_frame.str1.1,"aMS",%progbits,1
 2687              	.LC136:
 2688 0000 446F776E 		.ascii	"Downlink frame \000"
 2688      6C696E6B 
 2688      20667261 
 2688      6D652000 
 2689              	.LC138:
 2690 0010 2573202D 		.ascii	"%s - (%lu bytes):\012\000"
 2690      2028256C 
 2690      75206279 
 2690      74657329 
 2690      3A0A00
 2691              	.LC140:
 2692 0023 0A00     		.ascii	"\012\000"
 2693              	.LC142:
 2694 0025 20253032 		.ascii	" %02X\000"
 2694      5800
 2695              	.LC144:
 2696 002b 444C2050 		.ascii	"DL Port = %d , \000"
 2696      6F727420 
 2696      3D202564 
 2696      202C2000 
 2697              	.LC146:
 2698 003b 444C2053 		.ascii	"DL SNR = %d , DL RSSI = %d , \000"
 2698      4E52203D 
 2698      20256420 
 2698      2C20444C 
 2698      20525353 
 2699              	.LC148:
 2700 0059 444C2046 		.ascii	"DL Freq = %lu , DL DR = %d , \000"
 2700      72657120 
 2700      3D20256C 
 2700      75202C20 
ARM GAS  /tmp/ccdSEGyb.s 			page 47


 2700      444C2044 
 2701              	.LC150:
 2702 0077 444C2046 		.ascii	"DL Fpending Bit = %d \015\012\000"
 2702      70656E64 
 2702      696E6720 
 2702      42697420 
 2702      3D202564 
 2703              		.section	.text.set_modem_downlink_frame,"ax",%progbits
 2704              		.align	1
 2705              		.global	set_modem_downlink_frame
 2706              		.syntax unified
 2707              		.code	16
 2708              		.thumb_func
 2709              		.fpu softvfp
 2711              	set_modem_downlink_frame:
 2712              		@ args = 0, pretend = 0, frame = 0
 2713              		@ frame_needed = 0, uses_anonymous_args = 0
 2714 0000 F8B5     		push	{r3, r4, r5, r6, r7, lr}
 2715 0002 2F4E     		ldr	r6, .L384
 2716 0004 1500     		movs	r5, r2
 2717 0006 0F00     		movs	r7, r1
 2718 0008 0A00     		movs	r2, r1
 2719 000a 0100     		movs	r1, r0
 2720 000c 3000     		movs	r0, r6
 2721 000e FFF7FEFF 		bl	memcpy
 2722 0012 2C4C     		ldr	r4, .L384+4
 2723 0014 2C49     		ldr	r1, .L384+8
 2724 0016 2300     		movs	r3, r4
 2725 0018 F333     		adds	r3, r3, #243
 2726 001a 1F70     		strb	r7, [r3]
 2727 001c 2300     		movs	r3, r4
 2728 001e 2A68     		ldr	r2, [r5]
 2729 0020 F833     		adds	r3, r3, #248
 2730 0022 1A60     		str	r2, [r3]
 2731 0024 0422     		movs	r2, #4
 2732 0026 AB5E     		ldrsh	r3, [r5, r2]
 2733 0028 2200     		movs	r2, r4
 2734 002a 9B00     		lsls	r3, r3, #2
 2735 002c F632     		adds	r2, r2, #246
 2736 002e 1380     		strh	r3, [r2]
 2737 0030 2200     		movs	r2, r4
 2738 0032 EB88     		ldrh	r3, [r5, #6]
 2739 0034 F432     		adds	r2, r2, #244
 2740 0036 4033     		adds	r3, r3, #64
 2741 0038 1380     		strh	r3, [r2]
 2742 003a 2B7A     		ldrb	r3, [r5, #8]
 2743 003c 2348     		ldr	r0, .L384+12
 2744 003e 2370     		strb	r3, [r4]
 2745 0040 2300     		movs	r3, r4
 2746 0042 AA7A     		ldrb	r2, [r5, #10]
 2747 0044 FC33     		adds	r3, r3, #252
 2748 0046 1A70     		strb	r2, [r3]
 2749 0048 EA68     		ldr	r2, [r5, #12]
 2750 004a 5A60     		str	r2, [r3, #4]
 2751 004c 2300     		movs	r3, r4
 2752 004e 2A7C     		ldrb	r2, [r5, #16]
 2753 0050 FF33     		adds	r3, r3, #255
ARM GAS  /tmp/ccdSEGyb.s 			page 48


 2754 0052 5A71     		strb	r2, [r3, #5]
 2755 0054 3A00     		movs	r2, r7
 2756 0056 FFF7FEFF 		bl	smtc_modem_hal_print_trace
 2757 005a 0025     		movs	r5, #0
 2758 005c 0F27     		movs	r7, #15
 2759              	.L378:
 2760 005e 2300     		movs	r3, r4
 2761 0060 F333     		adds	r3, r3, #243
 2762 0062 1B78     		ldrb	r3, [r3]
 2763 0064 AB42     		cmp	r3, r5
 2764 0066 1ED8     		bhi	.L380
 2765              		@ sp needed
 2766 0068 1948     		ldr	r0, .L384+16
 2767 006a FFF7FEFF 		bl	smtc_modem_hal_print_trace
 2768 006e 2178     		ldrb	r1, [r4]
 2769 0070 1848     		ldr	r0, .L384+20
 2770 0072 FFF7FEFF 		bl	smtc_modem_hal_print_trace
 2771 0076 2300     		movs	r3, r4
 2772 0078 F433     		adds	r3, r3, #244
 2773 007a 0022     		movs	r2, #0
 2774 007c 9A5E     		ldrsh	r2, [r3, r2]
 2775 007e 2300     		movs	r3, r4
 2776 0080 F633     		adds	r3, r3, #246
 2777 0082 0021     		movs	r1, #0
 2778 0084 595E     		ldrsh	r1, [r3, r1]
 2779 0086 1448     		ldr	r0, .L384+24
 2780 0088 FFF7FEFF 		bl	smtc_modem_hal_print_trace
 2781 008c 2300     		movs	r3, r4
 2782 008e FC34     		adds	r4, r4, #252
 2783 0090 FF33     		adds	r3, r3, #255
 2784 0092 5A79     		ldrb	r2, [r3, #5]
 2785 0094 6168     		ldr	r1, [r4, #4]
 2786 0096 1148     		ldr	r0, .L384+28
 2787 0098 FFF7FEFF 		bl	smtc_modem_hal_print_trace
 2788 009c 2178     		ldrb	r1, [r4]
 2789 009e 1048     		ldr	r0, .L384+32
 2790 00a0 FFF7FEFF 		bl	smtc_modem_hal_print_trace
 2791 00a4 F8BD     		pop	{r3, r4, r5, r6, r7, pc}
 2792              	.L380:
 2793 00a6 3D42     		tst	r5, r7
 2794 00a8 04D1     		bne	.L379
 2795 00aa 002D     		cmp	r5, #0
 2796 00ac 02D0     		beq	.L379
 2797 00ae 0848     		ldr	r0, .L384+16
 2798 00b0 FFF7FEFF 		bl	smtc_modem_hal_print_trace
 2799              	.L379:
 2800 00b4 715D     		ldrb	r1, [r6, r5]
 2801 00b6 0B48     		ldr	r0, .L384+36
 2802 00b8 FFF7FEFF 		bl	smtc_modem_hal_print_trace
 2803 00bc 0135     		adds	r5, r5, #1
 2804 00be CEE7     		b	.L378
 2805              	.L385:
 2806              		.align	2
 2807              	.L384:
 2808 00c0 01000000 		.word	modem_dwn_pkt+1
 2809 00c4 00000000 		.word	modem_dwn_pkt
 2810 00c8 00000000 		.word	.LC136
ARM GAS  /tmp/ccdSEGyb.s 			page 49


 2811 00cc 10000000 		.word	.LC138
 2812 00d0 23000000 		.word	.LC140
 2813 00d4 2B000000 		.word	.LC144
 2814 00d8 3B000000 		.word	.LC146
 2815 00dc 59000000 		.word	.LC148
 2816 00e0 77000000 		.word	.LC150
 2817 00e4 25000000 		.word	.LC142
 2819              		.section	.text.get_modem_downlink_frame,"ax",%progbits
 2820              		.align	1
 2821              		.global	get_modem_downlink_frame
 2822              		.syntax unified
 2823              		.code	16
 2824              		.thumb_func
 2825              		.fpu softvfp
 2827              	get_modem_downlink_frame:
 2828              		@ args = 0, pretend = 0, frame = 0
 2829              		@ frame_needed = 0, uses_anonymous_args = 0
 2830 0000 134B     		ldr	r3, .L387
 2831 0002 10B5     		push	{r4, lr}
 2832 0004 1A00     		movs	r2, r3
 2833              		@ sp needed
 2834 0006 F832     		adds	r2, r2, #248
 2835 0008 1168     		ldr	r1, [r2]
 2836 000a 0200     		movs	r2, r0
 2837 000c F832     		adds	r2, r2, #248
 2838 000e 1160     		str	r1, [r2]
 2839 0010 1A00     		movs	r2, r3
 2840 0012 F432     		adds	r2, r2, #244
 2841 0014 1168     		ldr	r1, [r2]
 2842 0016 0200     		movs	r2, r0
 2843 0018 F432     		adds	r2, r2, #244
 2844 001a 1160     		str	r1, [r2]
 2845 001c 1A78     		ldrb	r2, [r3]
 2846 001e 1900     		movs	r1, r3
 2847 0020 0270     		strb	r2, [r0]
 2848 0022 0200     		movs	r2, r0
 2849 0024 FC31     		adds	r1, r1, #252
 2850 0026 0C78     		ldrb	r4, [r1]
 2851 0028 4968     		ldr	r1, [r1, #4]
 2852 002a FC32     		adds	r2, r2, #252
 2853 002c 1470     		strb	r4, [r2]
 2854 002e 5160     		str	r1, [r2, #4]
 2855 0030 1A00     		movs	r2, r3
 2856 0032 FF32     		adds	r2, r2, #255
 2857 0034 5179     		ldrb	r1, [r2, #5]
 2858 0036 0200     		movs	r2, r0
 2859 0038 FF32     		adds	r2, r2, #255
 2860 003a 5171     		strb	r1, [r2, #5]
 2861 003c F333     		adds	r3, r3, #243
 2862 003e 1978     		ldrb	r1, [r3]
 2863 0040 0C3A     		subs	r2, r2, #12
 2864 0042 1170     		strb	r1, [r2]
 2865 0044 1A78     		ldrb	r2, [r3]
 2866 0046 0349     		ldr	r1, .L387+4
 2867 0048 0130     		adds	r0, r0, #1
 2868 004a FFF7FEFF 		bl	memcpy
 2869 004e 10BD     		pop	{r4, pc}
ARM GAS  /tmp/ccdSEGyb.s 			page 50


 2870              	.L388:
 2871              		.align	2
 2872              	.L387:
 2873 0050 00000000 		.word	modem_dwn_pkt
 2874 0054 01000000 		.word	modem_dwn_pkt+1
 2876              		.section	.rodata.dm_status_payload.str1.1,"aMS",%progbits,1
 2877              	.LC170:
 2878 0000 1B5B303B 		.ascii	"\033[0;31mERROR: max_size must be greater than the "
 2878      33316D45 
 2878      52524F52 
 2878      3A206D61 
 2878      785F7369 
 2879 0030 736D616C 		.ascii	"smallest requested information\015\012\000"
 2879      6C657374 
 2879      20726571 
 2879      75657374 
 2879      65642069 
 2880              	.LC173:
 2881 0051 1B5B303B 		.ascii	"\033[0;31mERROR: check_dm_status_max_size\015\012\000"
 2881      33316D45 
 2881      52524F52 
 2881      3A206368 
 2881      65636B5F 
 2882              	.LC180:
 2883 007a 1B5B303B 		.ascii	"\033[0;31mERROR: Construct DM payload report, unkno"
 2883      33316D45 
 2883      52524F52 
 2883      3A20436F 
 2883      6E737472 
 2884 00aa 776E2063 		.ascii	"wn code 0x%02x\015\012\000"
 2884      6F646520 
 2884      30782530 
 2884      32780D0A 
 2884      00
 2885              		.section	.text.dm_status_payload,"ax",%progbits
 2886              		.align	1
 2887              		.global	dm_status_payload
 2888              		.syntax unified
 2889              		.code	16
 2890              		.thumb_func
 2891              		.fpu softvfp
 2893              	dm_status_payload:
 2894              		@ args = 0, pretend = 0, frame = 280
 2895              		@ frame_needed = 0, uses_anonymous_args = 0
 2896 0000 F0B5     		push	{r4, r5, r6, r7, lr}
 2897 0002 C7B0     		sub	sp, sp, #284
 2898 0004 0700     		movs	r7, r0
 2899 0006 0191     		str	r1, [sp, #4]
 2900 0008 0292     		str	r2, [sp, #8]
 2901 000a 012B     		cmp	r3, #1
 2902 000c 22D1     		bne	.L390
 2903 000e 744B     		ldr	r3, .L443
 2904 0010 744E     		ldr	r6, .L443+4
 2905 0012 1B68     		ldr	r3, [r3]
 2906 0014 0093     		str	r3, [sp]
 2907              	.L391:
 2908 0016 0023     		movs	r3, #0
ARM GAS  /tmp/ccdSEGyb.s 			page 51


 2909 0018 0122     		movs	r2, #1
 2910 001a 7349     		ldr	r1, .L443+8
 2911              	.L394:
 2912 001c 1000     		movs	r0, r2
 2913 001e 9840     		lsls	r0, r0, r3
 2914 0020 009C     		ldr	r4, [sp]
 2915 0022 0442     		tst	r4, r0
 2916 0024 1BD0     		beq	.L392
 2917 0026 585C     		ldrb	r0, [r3, r1]
 2918 0028 029C     		ldr	r4, [sp, #8]
 2919 002a A042     		cmp	r0, r4
 2920 002c 17D9     		bls	.L392
 2921 002e 0024     		movs	r4, #0
 2922 0030 6E48     		ldr	r0, .L443+12
 2923 0032 FFF7FEFF 		bl	smtc_modem_hal_print_trace
 2924 0036 6E4D     		ldr	r5, .L443+16
 2925 0038 2800     		movs	r0, r5
 2926 003a FFF7FEFF 		bl	smtc_modem_hal_print_trace
 2927 003e 019B     		ldr	r3, [sp, #4]
 2928 0040 6C48     		ldr	r0, .L443+20
 2929 0042 1C70     		strb	r4, [r3]
 2930 0044 FFF7FEFF 		bl	smtc_modem_hal_print_trace
 2931 0048 2800     		movs	r0, r5
 2932 004a FFF7FEFF 		bl	smtc_modem_hal_print_trace
 2933 004e 2000     		movs	r0, r4
 2934              	.L393:
 2935 0050 47B0     		add	sp, sp, #284
 2936              		@ sp needed
 2937 0052 F0BD     		pop	{r4, r5, r6, r7, pc}
 2938              	.L390:
 2939 0054 684B     		ldr	r3, .L443+24
 2940 0056 694E     		ldr	r6, .L443+28
 2941 0058 1B68     		ldr	r3, [r3]
 2942 005a 0093     		str	r3, [sp]
 2943 005c DBE7     		b	.L391
 2944              	.L392:
 2945 005e 0133     		adds	r3, r3, #1
 2946 0060 1C2B     		cmp	r3, #28
 2947 0062 DBD1     		bne	.L394
 2948 0064 3378     		ldrb	r3, [r6]
 2949 0066 1B2B     		cmp	r3, #27
 2950 0068 01D9     		bls	.L395
 2951 006a 0023     		movs	r3, #0
 2952 006c 3370     		strb	r3, [r6]
 2953              	.L395:
 2954 006e 3C00     		movs	r4, r7
 2955              	.L396:
 2956 0070 3178     		ldrb	r1, [r6]
 2957 0072 1B29     		cmp	r1, #27
 2958 0074 04D9     		bls	.L426
 2959 0076 0020     		movs	r0, #0
 2960              	.L425:
 2961 0078 019B     		ldr	r3, [sp, #4]
 2962 007a E41B     		subs	r4, r4, r7
 2963 007c 1C70     		strb	r4, [r3]
 2964 007e E7E7     		b	.L393
 2965              	.L426:
ARM GAS  /tmp/ccdSEGyb.s 			page 52


 2966 0080 0123     		movs	r3, #1
 2967 0082 8B40     		lsls	r3, r3, r1
 2968 0084 009A     		ldr	r2, [sp]
 2969 0086 1A42     		tst	r2, r3
 2970 0088 21D0     		beq	.L397
 2971 008a 651C     		adds	r5, r4, #1
 2972 008c 2170     		strb	r1, [r4]
 2973 008e 1829     		cmp	r1, #24
 2974 0090 00D9     		bls	.LCB2971
 2975 0092 9BE0     		b	.L398	@long jump
 2976              	.LCB2971:
 2977 0094 0800     		movs	r0, r1
 2978 0096 FFF7FEFF 		bl	__gnu_thumb1_case_uqi
 2979              	.L400:
 2980 009a 0D       		.byte	(.L419-.L400)/2
 2981 009b 1E       		.byte	(.L418-.L400)/2
 2982 009c 2A       		.byte	(.L417-.L400)/2
 2983 009d 2D       		.byte	(.L416-.L400)/2
 2984 009e 30       		.byte	(.L415-.L400)/2
 2985 009f 44       		.byte	(.L414-.L400)/2
 2986 00a0 4B       		.byte	(.L413-.L400)/2
 2987 00a1 5F       		.byte	(.L412-.L400)/2
 2988 00a2 65       		.byte	(.L411-.L400)/2
 2989 00a3 69       		.byte	(.L410-.L400)/2
 2990 00a4 72       		.byte	(.L409-.L400)/2
 2991 00a5 74       		.byte	(.L408-.L400)/2
 2992 00a6 10       		.byte	(.L405-.L400)/2
 2993 00a7 10       		.byte	(.L405-.L400)/2
 2994 00a8 99       		.byte	(.L398-.L400)/2
 2995 00a9 77       		.byte	(.L407-.L400)/2
 2996 00aa 7D       		.byte	(.L406-.L400)/2
 2997 00ab 10       		.byte	(.L405-.L400)/2
 2998 00ac 81       		.byte	(.L404-.L400)/2
 2999 00ad 87       		.byte	(.L403-.L400)/2
 3000 00ae 99       		.byte	(.L398-.L400)/2
 3001 00af 8B       		.byte	(.L402-.L400)/2
 3002 00b0 91       		.byte	(.L401-.L400)/2
 3003 00b1 99       		.byte	(.L398-.L400)/2
 3004 00b2 95       		.byte	(.L399-.L400)/2
 3005 00b3 00       		.p2align 1
 3006              	.L419:
 3007 00b4 FFF7FEFF 		bl	get_modem_status
 3008              	.L436:
 3009 00b8 6070     		strb	r0, [r4, #1]
 3010              	.L405:
 3011 00ba 4B4A     		ldr	r2, .L443+8
 3012 00bc 3378     		ldrb	r3, [r6]
 3013 00be D35C     		ldrb	r3, [r2, r3]
 3014 00c0 029A     		ldr	r2, [sp, #8]
 3015 00c2 ED18     		adds	r5, r5, r3
 3016 00c4 EB1B     		subs	r3, r5, r7
 3017 00c6 9342     		cmp	r3, r2
 3018 00c8 00DD     		ble	.LCB2993
 3019 00ca 86E0     		b	.L427	@long jump
 3020              	.LCB2993:
 3021 00cc 2C00     		movs	r4, r5
 3022              	.L397:
ARM GAS  /tmp/ccdSEGyb.s 			page 53


 3023 00ce 3378     		ldrb	r3, [r6]
 3024 00d0 0133     		adds	r3, r3, #1
 3025 00d2 3370     		strb	r3, [r6]
 3026 00d4 CCE7     		b	.L396
 3027              	.L418:
 3028 00d6 4A4B     		ldr	r3, .L443+32
 3029 00d8 1B78     		ldrb	r3, [r3]
 3030 00da 002B     		cmp	r3, #0
 3031 00dc 04D1     		bne	.L420
 3032 00de FFF7FEFF 		bl	get_modem_charge_ma_h
 3033              	.L441:
 3034 00e2 6070     		strb	r0, [r4, #1]
 3035              	.L440:
 3036 00e4 000A     		lsrs	r0, r0, #8
 3037 00e6 14E0     		b	.L437
 3038              	.L420:
 3039 00e8 464B     		ldr	r3, .L443+36
 3040 00ea 1888     		ldrh	r0, [r3]
 3041 00ec F9E7     		b	.L441
 3042              	.L417:
 3043 00ee FFF7FEFF 		bl	smtc_modem_hal_get_voltage
 3044 00f2 E1E7     		b	.L436
 3045              	.L416:
 3046 00f4 FFF7FEFF 		bl	smtc_modem_hal_get_temperature
 3047 00f8 DEE7     		b	.L436
 3048              	.L415:
 3049 00fa FFF7FEFF 		bl	lorawan_api_last_rssi_get
 3050 00fe 0300     		movs	r3, r0
 3051 0100 8033     		adds	r3, r3, #128
 3052 0102 9BB2     		uxth	r3, r3
 3053 0104 BF2B     		cmp	r3, #191
 3054 0106 06D8     		bhi	.L422
 3055 0108 4030     		adds	r0, r0, #64
 3056 010a 6070     		strb	r0, [r4, #1]
 3057              	.L423:
 3058 010c FFF7FEFF 		bl	lorawan_api_last_snr_get
 3059 0110 8000     		lsls	r0, r0, #2
 3060              	.L437:
 3061 0112 A070     		strb	r0, [r4, #2]
 3062 0114 D1E7     		b	.L405
 3063              	.L422:
 3064 0116 7F23     		movs	r3, #127
 3065 0118 3F28     		cmp	r0, #63
 3066 011a 00DC     		bgt	.L435
 3067 011c 8023     		movs	r3, #128
 3068              	.L435:
 3069 011e 6370     		strb	r3, [r4, #1]
 3070 0120 F4E7     		b	.L423
 3071              	.L414:
 3072 0122 FFF7FEFF 		bl	get_modem_uptime_s
 3073              	.L442:
 3074 0126 E121     		movs	r1, #225
 3075 0128 0901     		lsls	r1, r1, #4
 3076 012a FFF7FEFF 		bl	__aeabi_uidiv
 3077 012e D8E7     		b	.L441
 3078              	.L413:
 3079 0130 8422     		movs	r2, #132
ARM GAS  /tmp/ccdSEGyb.s 			page 54


 3080 0132 0021     		movs	r1, #0
 3081 0134 5200     		lsls	r2, r2, #1
 3082 0136 04A8     		add	r0, sp, #16
 3083 0138 FFF7FEFF 		bl	memset
 3084 013c 04A8     		add	r0, sp, #16
 3085 013e FFF7FEFF 		bl	get_modem_downlink_frame
 3086 0142 FFF7FEFF 		bl	smtc_modem_hal_get_time_in_s
 3087 0146 FA21     		movs	r1, #250
 3088 0148 0390     		str	r0, [sp, #12]
 3089 014a 8900     		lsls	r1, r1, #2
 3090 014c 4298     		ldr	r0, [sp, #264]
 3091 014e FFF7FEFF 		bl	__aeabi_uidiv
 3092 0152 039B     		ldr	r3, [sp, #12]
 3093 0154 181A     		subs	r0, r3, r0
 3094 0156 E6E7     		b	.L442
 3095              	.L412:
 3096 0158 0822     		movs	r2, #8
 3097 015a 0021     		movs	r1, #0
 3098 015c 2800     		movs	r0, r5
 3099 015e FFF7FEFF 		bl	memset
 3100 0162 AAE7     		b	.L405
 3101              	.L411:
 3102 0164 284B     		ldr	r3, .L443+40
 3103              	.L439:
 3104 0166 1B78     		ldrb	r3, [r3]
 3105 0168 6370     		strb	r3, [r4, #1]
 3106 016a A6E7     		b	.L405
 3107              	.L410:
 3108 016c 04A8     		add	r0, sp, #16
 3109 016e FFF7FEFF 		bl	lorawan_api_get_joineui
 3110              	.L438:
 3111 0172 0822     		movs	r2, #8
 3112 0174 2800     		movs	r0, r5
 3113 0176 04A9     		add	r1, sp, #16
 3114 0178 FFF7FEFF 		bl	memcpy1_r
 3115 017c 9DE7     		b	.L405
 3116              	.L409:
 3117 017e 234B     		ldr	r3, .L443+44
 3118 0180 F1E7     		b	.L439
 3119              	.L408:
 3120 0182 FFF7FEFF 		bl	lorawan_api_get_region
 3121 0186 97E7     		b	.L436
 3122              	.L407:
 3123 0188 FFF7FEFF 		bl	lorawan_api_nb_reset_get
 3124 018c 6070     		strb	r0, [r4, #1]
 3125 018e FFF7FEFF 		bl	lorawan_api_nb_reset_get
 3126 0192 A7E7     		b	.L440
 3127              	.L406:
 3128 0194 04A8     		add	r0, sp, #16
 3129 0196 FFF7FEFF 		bl	lorawan_api_get_deveui
 3130 019a EAE7     		b	.L438
 3131              	.L404:
 3132 019c FFF7FEFF 		bl	lorawan_api_devnonce_get
 3133 01a0 6070     		strb	r0, [r4, #1]
 3134 01a2 FFF7FEFF 		bl	lorawan_api_devnonce_get
 3135 01a6 9DE7     		b	.L440
 3136              	.L403:
ARM GAS  /tmp/ccdSEGyb.s 			page 55


 3137 01a8 0023     		movs	r3, #0
 3138 01aa 0493     		str	r3, [sp, #16]
 3139 01ac 0593     		str	r3, [sp, #20]
 3140 01ae E0E7     		b	.L438
 3141              	.L402:
 3142 01b0 174B     		ldr	r3, .L443+48
 3143 01b2 1A78     		ldrb	r2, [r3]
 3144 01b4 6270     		strb	r2, [r4, #1]
 3145 01b6 9B78     		ldrb	r3, [r3, #2]
 3146 01b8 A370     		strb	r3, [r4, #2]
 3147 01ba 7EE7     		b	.L405
 3148              	.L401:
 3149 01bc 2800     		movs	r0, r5
 3150 01be FFF7FEFF 		bl	get_modem_appstatus
 3151 01c2 7AE7     		b	.L405
 3152              	.L399:
 3153 01c4 2800     		movs	r0, r5
 3154 01c6 FFF7FEFF 		bl	get_modem_gnss_status
 3155 01ca 76E7     		b	.L405
 3156              	.L398:
 3157 01cc 1148     		ldr	r0, .L443+52
 3158 01ce FFF7FEFF 		bl	smtc_modem_hal_print_trace
 3159 01d2 0748     		ldr	r0, .L443+16
 3160 01d4 FFF7FEFF 		bl	smtc_modem_hal_print_trace
 3161 01d8 6FE7     		b	.L405
 3162              	.L427:
 3163 01da 0120     		movs	r0, #1
 3164 01dc 4CE7     		b	.L425
 3165              	.L444:
 3166 01de C046     		.align	2
 3167              	.L443:
 3168 01e0 00000000 		.word	.LANCHOR10
 3169 01e4 00000000 		.word	.LANCHOR12
 3170 01e8 00000000 		.word	.LANCHOR40
 3171 01ec 00000000 		.word	.LC170
 3172 01f0 1D000000 		.word	.LC41
 3173 01f4 51000000 		.word	.LC173
 3174 01f8 00000000 		.word	.LANCHOR9
 3175 01fc 00000000 		.word	.LANCHOR11
 3176 0200 00000000 		.word	.LANCHOR21
 3177 0204 00000000 		.word	.LANCHOR20
 3178 0208 00000000 		.word	.LANCHOR24
 3179 020c 00000000 		.word	.LANCHOR1
 3180 0210 00000000 		.word	.LANCHOR8
 3181 0214 7A000000 		.word	.LC180
 3183              		.section	.text.set_dm_retrieve_pending_dl,"ax",%progbits
 3184              		.align	1
 3185              		.global	set_dm_retrieve_pending_dl
 3186              		.syntax unified
 3187              		.code	16
 3188              		.thumb_func
 3189              		.fpu softvfp
 3191              	set_dm_retrieve_pending_dl:
 3192              		@ args = 0, pretend = 0, frame = 0
 3193              		@ frame_needed = 0, uses_anonymous_args = 0
 3194              		@ link register save eliminated.
 3195 0000 034B     		ldr	r3, .L447
ARM GAS  /tmp/ccdSEGyb.s 			page 56


 3196 0002 0A1C     		adds	r2, r1, #0
 3197 0004 1870     		strb	r0, [r3]
 3198 0006 1429     		cmp	r1, #20
 3199 0008 00D2     		bcs	.L446
 3200 000a 1422     		movs	r2, #20
 3201              	.L446:
 3202              		@ sp needed
 3203 000c 5A70     		strb	r2, [r3, #1]
 3204 000e 7047     		bx	lr
 3205              	.L448:
 3206              		.align	2
 3207              	.L447:
 3208 0010 00000000 		.word	.LANCHOR14
 3210              		.section	.text.get_dm_retrieve_pending_dl,"ax",%progbits
 3211              		.align	1
 3212              		.global	get_dm_retrieve_pending_dl
 3213              		.syntax unified
 3214              		.code	16
 3215              		.thumb_func
 3216              		.fpu softvfp
 3218              	get_dm_retrieve_pending_dl:
 3219              		@ args = 0, pretend = 0, frame = 0
 3220              		@ frame_needed = 0, uses_anonymous_args = 0
 3221              		@ link register save eliminated.
 3222 0000 024B     		ldr	r3, .L450
 3223              		@ sp needed
 3224 0002 1A78     		ldrb	r2, [r3]
 3225 0004 0270     		strb	r2, [r0]
 3226 0006 5B78     		ldrb	r3, [r3, #1]
 3227 0008 4370     		strb	r3, [r0, #1]
 3228 000a 7047     		bx	lr
 3229              	.L451:
 3230              		.align	2
 3231              	.L450:
 3232 000c 00000000 		.word	.LANCHOR14
 3234              		.section	.text.decrement_dm_retrieve_pending_dl,"ax",%progbits
 3235              		.align	1
 3236              		.global	decrement_dm_retrieve_pending_dl
 3237              		.syntax unified
 3238              		.code	16
 3239              		.thumb_func
 3240              		.fpu softvfp
 3242              	decrement_dm_retrieve_pending_dl:
 3243              		@ args = 0, pretend = 0, frame = 0
 3244              		@ frame_needed = 0, uses_anonymous_args = 0
 3245              		@ link register save eliminated.
 3246 0000 034A     		ldr	r2, .L457
 3247 0002 1378     		ldrb	r3, [r2]
 3248 0004 002B     		cmp	r3, #0
 3249 0006 01D0     		beq	.L452
 3250 0008 013B     		subs	r3, r3, #1
 3251 000a 1370     		strb	r3, [r2]
 3252              	.L452:
 3253              		@ sp needed
 3254 000c 7047     		bx	lr
 3255              	.L458:
 3256 000e C046     		.align	2
ARM GAS  /tmp/ccdSEGyb.s 			page 57


 3257              	.L457:
 3258 0010 00000000 		.word	.LANCHOR14
 3260              		.section	.rodata.modem_context_factory_reset.str1.1,"aMS",%progbits,1
 3261              	.LC186:
 3262 0000 1B5B303B 		.ascii	"\033[0;32mINFO: modem_context_factory_reset done\015"
 3262      33326D49 
 3262      4E464F3A 
 3262      206D6F64 
 3262      656D5F63 
 3263 002e 0A00     		.ascii	"\012\000"
 3264              		.section	.text.modem_context_factory_reset,"ax",%progbits
 3265              		.align	1
 3266              		.global	modem_context_factory_reset
 3267              		.syntax unified
 3268              		.code	16
 3269              		.thumb_func
 3270              		.fpu softvfp
 3272              	modem_context_factory_reset:
 3273              		@ args = 0, pretend = 0, frame = 32
 3274              		@ frame_needed = 0, uses_anonymous_args = 0
 3275 0000 30B5     		push	{r4, r5, lr}
 3276 0002 1C25     		movs	r5, #28
 3277 0004 89B0     		sub	sp, sp, #36
 3278 0006 2A00     		movs	r2, r5
 3279 0008 0021     		movs	r1, #0
 3280 000a 01A8     		add	r0, sp, #4
 3281 000c FFF7FEFF 		bl	memset
 3282 0010 0124     		movs	r4, #1
 3283 0012 C723     		movs	r3, #199
 3284 0014 6A46     		mov	r2, sp
 3285 0016 1821     		movs	r1, #24
 3286 0018 01A8     		add	r0, sp, #4
 3287 001a 9380     		strh	r3, [r2, #4]
 3288 001c 1472     		strb	r4, [r2, #8]
 3289 001e FFF7FEFF 		bl	crc
 3290 0022 2A00     		movs	r2, r5
 3291 0024 0790     		str	r0, [sp, #28]
 3292 0026 01A9     		add	r1, sp, #4
 3293 0028 0020     		movs	r0, #0
 3294 002a FFF7FEFF 		bl	smtc_modem_hal_context_store
 3295 002e 2A00     		movs	r2, r5
 3296 0030 01A9     		add	r1, sp, #4
 3297 0032 2000     		movs	r0, r4
 3298 0034 FFF7FEFF 		bl	smtc_modem_hal_context_restore
 3299 0038 044B     		ldr	r3, .L460
 3300 003a 0548     		ldr	r0, .L460+4
 3301 003c 1C70     		strb	r4, [r3]
 3302 003e FFF7FEFF 		bl	smtc_modem_hal_print_trace
 3303 0042 0448     		ldr	r0, .L460+8
 3304 0044 FFF7FEFF 		bl	smtc_modem_hal_print_trace
 3305 0048 09B0     		add	sp, sp, #36
 3306              		@ sp needed
 3307 004a 30BD     		pop	{r4, r5, pc}
 3308              	.L461:
 3309              		.align	2
 3310              	.L460:
 3311 004c 00000000 		.word	.LANCHOR17
ARM GAS  /tmp/ccdSEGyb.s 			page 58


 3312 0050 00000000 		.word	.LC186
 3313 0054 1D000000 		.word	.LC41
 3315              		.section	.rodata.modem_load_context.str1.1,"aMS",%progbits,1
 3316              	.LC192:
 3317 0000 4D6F6465 		.ascii	"Modem Load Config :\015\012 Port = %d\015\012\000"
 3317      6D204C6F 
 3317      61642043 
 3317      6F6E6669 
 3317      67203A0D 
 3318              	.LC195:
 3319 0022 55706C6F 		.ascii	"Upload_sctr = %d\015\012\000"
 3319      61645F73 
 3319      63747220 
 3319      3D202564 
 3319      0D0A00
 3320              	.LC197:
 3321 0035 1B5B303B 		.ascii	"\033[0;31mERROR: Restore Modem context fail => Fact"
 3321      33316D45 
 3321      52524F52 
 3321      3A205265 
 3321      73746F72 
 3322 0065 6F727920 		.ascii	"ory Reset Modem\015\012\000"
 3322      52657365 
 3322      74204D6F 
 3322      64656D0D 
 3322      0A00
 3323              		.section	.text.modem_load_context,"ax",%progbits
 3324              		.align	1
 3325              		.global	modem_load_context
 3326              		.syntax unified
 3327              		.code	16
 3328              		.thumb_func
 3329              		.fpu softvfp
 3331              	modem_load_context:
 3332              		@ args = 0, pretend = 0, frame = 40
 3333              		@ frame_needed = 0, uses_anonymous_args = 0
 3334 0000 00B5     		push	{lr}
 3335 0002 8BB0     		sub	sp, sp, #44
 3336 0004 1C22     		movs	r2, #28
 3337 0006 0020     		movs	r0, #0
 3338 0008 03A9     		add	r1, sp, #12
 3339 000a FFF7FEFF 		bl	smtc_modem_hal_context_restore
 3340 000e 1821     		movs	r1, #24
 3341 0010 03A8     		add	r0, sp, #12
 3342 0012 FFF7FEFF 		bl	crc
 3343 0016 099B     		ldr	r3, [sp, #36]
 3344 0018 0193     		str	r3, [sp, #4]
 3345 001a 9842     		cmp	r0, r3
 3346 001c 14D1     		bne	.L463
 3347 001e 02AB     		add	r3, sp, #8
 3348 0020 1979     		ldrb	r1, [r3, #4]
 3349 0022 0E4B     		ldr	r3, .L465
 3350 0024 0E48     		ldr	r0, .L465+4
 3351 0026 1970     		strb	r1, [r3]
 3352 0028 02AB     		add	r3, sp, #8
 3353 002a 1A7A     		ldrb	r2, [r3, #8]
 3354 002c 0D4B     		ldr	r3, .L465+8
ARM GAS  /tmp/ccdSEGyb.s 			page 59


 3355 002e 1A80     		strh	r2, [r3]
 3356 0030 0D4B     		ldr	r3, .L465+12
 3357 0032 059A     		ldr	r2, [sp, #20]
 3358 0034 1A60     		str	r2, [r3]
 3359 0036 FFF7FEFF 		bl	smtc_modem_hal_print_trace
 3360 003a 0C4B     		ldr	r3, .L465+16
 3361 003c 0C48     		ldr	r0, .L465+20
 3362 003e 1978     		ldrb	r1, [r3]
 3363 0040 FFF7FEFF 		bl	smtc_modem_hal_print_trace
 3364              	.L462:
 3365 0044 0BB0     		add	sp, sp, #44
 3366              		@ sp needed
 3367 0046 00BD     		pop	{pc}
 3368              	.L463:
 3369 0048 0A48     		ldr	r0, .L465+24
 3370 004a FFF7FEFF 		bl	smtc_modem_hal_print_trace
 3371 004e 0A48     		ldr	r0, .L465+28
 3372 0050 FFF7FEFF 		bl	smtc_modem_hal_print_trace
 3373 0054 FFF7FEFF 		bl	modem_context_factory_reset
 3374 0058 F4E7     		b	.L462
 3375              	.L466:
 3376 005a C046     		.align	2
 3377              	.L465:
 3378 005c 00000000 		.word	.LANCHOR2
 3379 0060 00000000 		.word	.LC192
 3380 0064 00000000 		.word	.LANCHOR30
 3381 0068 00000000 		.word	.LANCHOR31
 3382 006c 00000000 		.word	.LANCHOR6
 3383 0070 22000000 		.word	.LC195
 3384 0074 35000000 		.word	.LC197
 3385 0078 1D000000 		.word	.LC41
 3387              		.section	.text.modem_store_context,"ax",%progbits
 3388              		.align	1
 3389              		.global	modem_store_context
 3390              		.syntax unified
 3391              		.code	16
 3392              		.thumb_func
 3393              		.fpu softvfp
 3395              	modem_store_context:
 3396              		@ args = 0, pretend = 0, frame = 40
 3397              		@ frame_needed = 0, uses_anonymous_args = 0
 3398 0000 10B5     		push	{r4, lr}
 3399 0002 1C24     		movs	r4, #28
 3400 0004 8AB0     		sub	sp, sp, #40
 3401 0006 2200     		movs	r2, r4
 3402 0008 0021     		movs	r1, #0
 3403 000a 03A8     		add	r0, sp, #12
 3404 000c FFF7FEFF 		bl	memset
 3405 0010 0C4B     		ldr	r3, .L468
 3406 0012 02AA     		add	r2, sp, #8
 3407 0014 1B78     		ldrb	r3, [r3]
 3408 0016 1821     		movs	r1, #24
 3409 0018 9380     		strh	r3, [r2, #4]
 3410 001a 0B4B     		ldr	r3, .L468+4
 3411 001c 03A8     		add	r0, sp, #12
 3412 001e 1B88     		ldrh	r3, [r3]
 3413 0020 1372     		strb	r3, [r2, #8]
ARM GAS  /tmp/ccdSEGyb.s 			page 60


 3414 0022 0A4B     		ldr	r3, .L468+8
 3415 0024 1B68     		ldr	r3, [r3]
 3416 0026 0193     		str	r3, [sp, #4]
 3417 0028 0593     		str	r3, [sp, #20]
 3418 002a FFF7FEFF 		bl	crc
 3419 002e 2200     		movs	r2, r4
 3420 0030 0990     		str	r0, [sp, #36]
 3421 0032 03A9     		add	r1, sp, #12
 3422 0034 0020     		movs	r0, #0
 3423 0036 FFF7FEFF 		bl	smtc_modem_hal_context_store
 3424 003a FFF7FEFF 		bl	modem_load_context
 3425 003e 0AB0     		add	sp, sp, #40
 3426              		@ sp needed
 3427 0040 10BD     		pop	{r4, pc}
 3428              	.L469:
 3429 0042 C046     		.align	2
 3430              	.L468:
 3431 0044 00000000 		.word	.LANCHOR2
 3432 0048 00000000 		.word	.LANCHOR30
 3433 004c 00000000 		.word	.LANCHOR31
 3435              		.section	.rodata.set_modem_dm_port.str1.1,"aMS",%progbits,1
 3436              	.LC203:
 3437 0000 1B5B303B 		.ascii	"\033[0;31mERROR: modem port invalid\015\012\000"
 3437      33316D45 
 3437      52524F52 
 3437      3A206D6F 
 3437      64656D20 
 3438              		.section	.text.set_modem_dm_port,"ax",%progbits
 3439              		.align	1
 3440              		.global	set_modem_dm_port
 3441              		.syntax unified
 3442              		.code	16
 3443              		.thumb_func
 3444              		.fpu softvfp
 3446              	set_modem_dm_port:
 3447              		@ args = 0, pretend = 0, frame = 0
 3448              		@ frame_needed = 0, uses_anonymous_args = 0
 3449 0000 431E     		subs	r3, r0, #1
 3450 0002 DBB2     		uxtb	r3, r3
 3451 0004 10B5     		push	{r4, lr}
 3452 0006 DE2B     		cmp	r3, #222
 3453 0008 08D9     		bls	.L471
 3454 000a 0948     		ldr	r0, .L474
 3455 000c FFF7FEFF 		bl	smtc_modem_hal_print_trace
 3456 0010 0848     		ldr	r0, .L474+4
 3457 0012 FFF7FEFF 		bl	smtc_modem_hal_print_trace
 3458 0016 0024     		movs	r4, #0
 3459              	.L472:
 3460              		@ sp needed
 3461 0018 2000     		movs	r0, r4
 3462 001a 10BD     		pop	{r4, pc}
 3463              	.L471:
 3464 001c 064B     		ldr	r3, .L474+8
 3465 001e 0124     		movs	r4, #1
 3466 0020 1A78     		ldrb	r2, [r3]
 3467 0022 8242     		cmp	r2, r0
 3468 0024 F8D0     		beq	.L472
ARM GAS  /tmp/ccdSEGyb.s 			page 61


 3469 0026 1870     		strb	r0, [r3]
 3470 0028 FFF7FEFF 		bl	modem_store_context
 3471 002c F4E7     		b	.L472
 3472              	.L475:
 3473 002e C046     		.align	2
 3474              	.L474:
 3475 0030 00000000 		.word	.LC203
 3476 0034 1D000000 		.word	.LC41
 3477 0038 00000000 		.word	.LANCHOR2
 3479              		.section	.text.modem_context_compute_and_get_next_dm_upload_sctr,"ax",%progbits
 3480              		.align	1
 3481              		.global	modem_context_compute_and_get_next_dm_upload_sctr
 3482              		.syntax unified
 3483              		.code	16
 3484              		.thumb_func
 3485              		.fpu softvfp
 3487              	modem_context_compute_and_get_next_dm_upload_sctr:
 3488              		@ args = 0, pretend = 0, frame = 0
 3489              		@ frame_needed = 0, uses_anonymous_args = 0
 3490              		@ link register save eliminated.
 3491 0000 0F22     		movs	r2, #15
 3492              		@ sp needed
 3493 0002 034B     		ldr	r3, .L477
 3494 0004 1878     		ldrb	r0, [r3]
 3495 0006 0130     		adds	r0, r0, #1
 3496 0008 1040     		ands	r0, r2
 3497 000a 1870     		strb	r0, [r3]
 3498 000c 7047     		bx	lr
 3499              	.L478:
 3500 000e C046     		.align	2
 3501              	.L477:
 3502 0010 00000000 		.word	.LANCHOR6
 3504              		.section	.text.modem_get_upload_state,"ax",%progbits
 3505              		.align	1
 3506              		.global	modem_get_upload_state
 3507              		.syntax unified
 3508              		.code	16
 3509              		.thumb_func
 3510              		.fpu softvfp
 3512              	modem_get_upload_state:
 3513              		@ args = 0, pretend = 0, frame = 0
 3514              		@ frame_needed = 0, uses_anonymous_args = 0
 3515              		@ link register save eliminated.
 3516 0000 014B     		ldr	r3, .L480
 3517              		@ sp needed
 3518 0002 1878     		ldrb	r0, [r3]
 3519 0004 7047     		bx	lr
 3520              	.L481:
 3521 0006 C046     		.align	2
 3522              	.L480:
 3523 0008 00000000 		.word	.LANCHOR7
 3525              		.section	.text.modem_set_upload_state,"ax",%progbits
 3526              		.align	1
 3527              		.global	modem_set_upload_state
 3528              		.syntax unified
 3529              		.code	16
 3530              		.thumb_func
ARM GAS  /tmp/ccdSEGyb.s 			page 62


 3531              		.fpu softvfp
 3533              	modem_set_upload_state:
 3534              		@ args = 0, pretend = 0, frame = 0
 3535              		@ frame_needed = 0, uses_anonymous_args = 0
 3536              		@ link register save eliminated.
 3537 0000 014B     		ldr	r3, .L483
 3538              		@ sp needed
 3539 0002 1870     		strb	r0, [r3]
 3540 0004 7047     		bx	lr
 3541              	.L484:
 3542 0006 C046     		.align	2
 3543              	.L483:
 3544 0008 00000000 		.word	.LANCHOR7
 3546              		.section	.text.modem_get_stream_state,"ax",%progbits
 3547              		.align	1
 3548              		.global	modem_get_stream_state
 3549              		.syntax unified
 3550              		.code	16
 3551              		.thumb_func
 3552              		.fpu softvfp
 3554              	modem_get_stream_state:
 3555              		@ args = 0, pretend = 0, frame = 0
 3556              		@ frame_needed = 0, uses_anonymous_args = 0
 3557              		@ link register save eliminated.
 3558 0000 014B     		ldr	r3, .L486
 3559              		@ sp needed
 3560 0002 5878     		ldrb	r0, [r3, #1]
 3561 0004 7047     		bx	lr
 3562              	.L487:
 3563 0006 C046     		.align	2
 3564              	.L486:
 3565 0008 00000000 		.word	.LANCHOR8
 3567              		.section	.text.modem_get_stream_port,"ax",%progbits
 3568              		.align	1
 3569              		.global	modem_get_stream_port
 3570              		.syntax unified
 3571              		.code	16
 3572              		.thumb_func
 3573              		.fpu softvfp
 3575              	modem_get_stream_port:
 3576              		@ args = 0, pretend = 0, frame = 0
 3577              		@ frame_needed = 0, uses_anonymous_args = 0
 3578              		@ link register save eliminated.
 3579 0000 014B     		ldr	r3, .L489
 3580              		@ sp needed
 3581 0002 1878     		ldrb	r0, [r3]
 3582 0004 7047     		bx	lr
 3583              	.L490:
 3584 0006 C046     		.align	2
 3585              	.L489:
 3586 0008 00000000 		.word	.LANCHOR8
 3588              		.section	.text.modem_get_stream_encryption,"ax",%progbits
 3589              		.align	1
 3590              		.global	modem_get_stream_encryption
 3591              		.syntax unified
 3592              		.code	16
 3593              		.thumb_func
ARM GAS  /tmp/ccdSEGyb.s 			page 63


 3594              		.fpu softvfp
 3596              	modem_get_stream_encryption:
 3597              		@ args = 0, pretend = 0, frame = 0
 3598              		@ frame_needed = 0, uses_anonymous_args = 0
 3599              		@ link register save eliminated.
 3600 0000 014B     		ldr	r3, .L492
 3601              		@ sp needed
 3602 0002 9878     		ldrb	r0, [r3, #2]
 3603 0004 7047     		bx	lr
 3604              	.L493:
 3605 0006 C046     		.align	2
 3606              	.L492:
 3607 0008 00000000 		.word	.LANCHOR8
 3609              		.section	.text.modem_set_stream_state,"ax",%progbits
 3610              		.align	1
 3611              		.global	modem_set_stream_state
 3612              		.syntax unified
 3613              		.code	16
 3614              		.thumb_func
 3615              		.fpu softvfp
 3617              	modem_set_stream_state:
 3618              		@ args = 0, pretend = 0, frame = 0
 3619              		@ frame_needed = 0, uses_anonymous_args = 0
 3620              		@ link register save eliminated.
 3621 0000 014B     		ldr	r3, .L495
 3622              		@ sp needed
 3623 0002 5870     		strb	r0, [r3, #1]
 3624 0004 7047     		bx	lr
 3625              	.L496:
 3626 0006 C046     		.align	2
 3627              	.L495:
 3628 0008 00000000 		.word	.LANCHOR8
 3630              		.section	.text.modem_set_stream_port,"ax",%progbits
 3631              		.align	1
 3632              		.global	modem_set_stream_port
 3633              		.syntax unified
 3634              		.code	16
 3635              		.thumb_func
 3636              		.fpu softvfp
 3638              	modem_set_stream_port:
 3639              		@ args = 0, pretend = 0, frame = 0
 3640              		@ frame_needed = 0, uses_anonymous_args = 0
 3641              		@ link register save eliminated.
 3642 0000 014B     		ldr	r3, .L498
 3643              		@ sp needed
 3644 0002 1870     		strb	r0, [r3]
 3645 0004 7047     		bx	lr
 3646              	.L499:
 3647 0006 C046     		.align	2
 3648              	.L498:
 3649 0008 00000000 		.word	.LANCHOR8
 3651              		.section	.text.modem_set_stream_encryption,"ax",%progbits
 3652              		.align	1
 3653              		.global	modem_set_stream_encryption
 3654              		.syntax unified
 3655              		.code	16
 3656              		.thumb_func
ARM GAS  /tmp/ccdSEGyb.s 			page 64


 3657              		.fpu softvfp
 3659              	modem_set_stream_encryption:
 3660              		@ args = 0, pretend = 0, frame = 0
 3661              		@ frame_needed = 0, uses_anonymous_args = 0
 3662              		@ link register save eliminated.
 3663 0000 014B     		ldr	r3, .L501
 3664              		@ sp needed
 3665 0002 9870     		strb	r0, [r3, #2]
 3666 0004 7047     		bx	lr
 3667              	.L502:
 3668 0006 C046     		.align	2
 3669              	.L501:
 3670 0008 00000000 		.word	.LANCHOR8
 3672              		.section	.text.modem_set_dm_info_bitfield_periodic,"ax",%progbits
 3673              		.align	1
 3674              		.global	modem_set_dm_info_bitfield_periodic
 3675              		.syntax unified
 3676              		.code	16
 3677              		.thumb_func
 3678              		.fpu softvfp
 3680              	modem_set_dm_info_bitfield_periodic:
 3681              		@ args = 0, pretend = 0, frame = 0
 3682              		@ frame_needed = 0, uses_anonymous_args = 0
 3683              		@ link register save eliminated.
 3684 0000 024B     		ldr	r3, .L505
 3685 0002 1A68     		ldr	r2, [r3]
 3686 0004 8242     		cmp	r2, r0
 3687 0006 00D0     		beq	.L503
 3688 0008 1860     		str	r0, [r3]
 3689              	.L503:
 3690              		@ sp needed
 3691 000a 7047     		bx	lr
 3692              	.L506:
 3693              		.align	2
 3694              	.L505:
 3695 000c 00000000 		.word	.LANCHOR9
 3697              		.section	.text.modem_context_reset_dm_tag_number,"ax",%progbits
 3698              		.align	1
 3699              		.global	modem_context_reset_dm_tag_number
 3700              		.syntax unified
 3701              		.code	16
 3702              		.thumb_func
 3703              		.fpu softvfp
 3705              	modem_context_reset_dm_tag_number:
 3706              		@ args = 0, pretend = 0, frame = 0
 3707              		@ frame_needed = 0, uses_anonymous_args = 0
 3708              		@ link register save eliminated.
 3709 0000 0022     		movs	r2, #0
 3710              		@ sp needed
 3711 0002 014B     		ldr	r3, .L508
 3712 0004 1A70     		strb	r2, [r3]
 3713 0006 7047     		bx	lr
 3714              	.L509:
 3715              		.align	2
 3716              	.L508:
 3717 0008 00000000 		.word	.LANCHOR11
 3719              		.section	.text.modem_get_dm_info_bitfield_periodic,"ax",%progbits
ARM GAS  /tmp/ccdSEGyb.s 			page 65


 3720              		.align	1
 3721              		.global	modem_get_dm_info_bitfield_periodic
 3722              		.syntax unified
 3723              		.code	16
 3724              		.thumb_func
 3725              		.fpu softvfp
 3727              	modem_get_dm_info_bitfield_periodic:
 3728              		@ args = 0, pretend = 0, frame = 0
 3729              		@ frame_needed = 0, uses_anonymous_args = 0
 3730              		@ link register save eliminated.
 3731 0000 014B     		ldr	r3, .L511
 3732              		@ sp needed
 3733 0002 1868     		ldr	r0, [r3]
 3734 0004 7047     		bx	lr
 3735              	.L512:
 3736 0006 C046     		.align	2
 3737              	.L511:
 3738 0008 00000000 		.word	.LANCHOR9
 3740              		.section	.text.modem_get_user_alarm,"ax",%progbits
 3741              		.align	1
 3742              		.global	modem_get_user_alarm
 3743              		.syntax unified
 3744              		.code	16
 3745              		.thumb_func
 3746              		.fpu softvfp
 3748              	modem_get_user_alarm:
 3749              		@ args = 0, pretend = 0, frame = 0
 3750              		@ frame_needed = 0, uses_anonymous_args = 0
 3751              		@ link register save eliminated.
 3752 0000 014B     		ldr	r3, .L514
 3753              		@ sp needed
 3754 0002 1868     		ldr	r0, [r3]
 3755 0004 7047     		bx	lr
 3756              	.L515:
 3757 0006 C046     		.align	2
 3758              	.L514:
 3759 0008 00000000 		.word	.LANCHOR15
 3761              		.section	.text.modem_set_user_alarm,"ax",%progbits
 3762              		.align	1
 3763              		.global	modem_set_user_alarm
 3764              		.syntax unified
 3765              		.code	16
 3766              		.thumb_func
 3767              		.fpu softvfp
 3769              	modem_set_user_alarm:
 3770              		@ args = 0, pretend = 0, frame = 0
 3771              		@ frame_needed = 0, uses_anonymous_args = 0
 3772              		@ link register save eliminated.
 3773 0000 014B     		ldr	r3, .L517
 3774              		@ sp needed
 3775 0002 1860     		str	r0, [r3]
 3776 0004 7047     		bx	lr
 3777              	.L518:
 3778 0006 C046     		.align	2
 3779              	.L517:
 3780 0008 00000000 		.word	.LANCHOR15
 3782              		.section	.text.get_modem_reset_requested,"ax",%progbits
ARM GAS  /tmp/ccdSEGyb.s 			page 66


 3783              		.align	1
 3784              		.global	get_modem_reset_requested
 3785              		.syntax unified
 3786              		.code	16
 3787              		.thumb_func
 3788              		.fpu softvfp
 3790              	get_modem_reset_requested:
 3791              		@ args = 0, pretend = 0, frame = 0
 3792              		@ frame_needed = 0, uses_anonymous_args = 0
 3793              		@ link register save eliminated.
 3794 0000 014B     		ldr	r3, .L520
 3795              		@ sp needed
 3796 0002 1878     		ldrb	r0, [r3]
 3797 0004 7047     		bx	lr
 3798              	.L521:
 3799 0006 C046     		.align	2
 3800              	.L520:
 3801 0008 00000000 		.word	.LANCHOR17
 3803              		.section	.text.set_modem_reset_requested,"ax",%progbits
 3804              		.align	1
 3805              		.global	set_modem_reset_requested
 3806              		.syntax unified
 3807              		.code	16
 3808              		.thumb_func
 3809              		.fpu softvfp
 3811              	set_modem_reset_requested:
 3812              		@ args = 0, pretend = 0, frame = 0
 3813              		@ frame_needed = 0, uses_anonymous_args = 0
 3814              		@ link register save eliminated.
 3815 0000 014B     		ldr	r3, .L523
 3816              		@ sp needed
 3817 0002 1870     		strb	r0, [r3]
 3818 0004 7047     		bx	lr
 3819              	.L524:
 3820 0006 C046     		.align	2
 3821              	.L523:
 3822 0008 00000000 		.word	.LANCHOR17
 3824              		.section	.text.modem_get_rfo_pa,"ax",%progbits
 3825              		.align	1
 3826              		.global	modem_get_rfo_pa
 3827              		.syntax unified
 3828              		.code	16
 3829              		.thumb_func
 3830              		.fpu softvfp
 3832              	modem_get_rfo_pa:
 3833              		@ args = 0, pretend = 0, frame = 0
 3834              		@ frame_needed = 0, uses_anonymous_args = 0
 3835              		@ link register save eliminated.
 3836 0000 014B     		ldr	r3, .L526
 3837              		@ sp needed
 3838 0002 1878     		ldrb	r0, [r3]
 3839 0004 7047     		bx	lr
 3840              	.L527:
 3841 0006 C046     		.align	2
 3842              	.L526:
 3843 0008 00000000 		.word	.LANCHOR22
 3845              		.section	.text.modem_set_rfo_pa,"ax",%progbits
ARM GAS  /tmp/ccdSEGyb.s 			page 67


 3846              		.align	1
 3847              		.global	modem_set_rfo_pa
 3848              		.syntax unified
 3849              		.code	16
 3850              		.thumb_func
 3851              		.fpu softvfp
 3853              	modem_set_rfo_pa:
 3854              		@ args = 0, pretend = 0, frame = 0
 3855              		@ frame_needed = 0, uses_anonymous_args = 0
 3856              		@ link register save eliminated.
 3857 0000 0300     		movs	r3, r0
 3858 0002 0020     		movs	r0, #0
 3859 0004 022B     		cmp	r3, #2
 3860 0006 02D8     		bhi	.L529
 3861 0008 014A     		ldr	r2, .L531
 3862 000a 0130     		adds	r0, r0, #1
 3863 000c 1370     		strb	r3, [r2]
 3864              	.L529:
 3865              		@ sp needed
 3866 000e 7047     		bx	lr
 3867              	.L532:
 3868              		.align	2
 3869              	.L531:
 3870 0010 00000000 		.word	.LANCHOR22
 3872              		.section	.text.modem_set_duty_cycle_disabled_by_host,"ax",%progbits
 3873              		.align	1
 3874              		.global	modem_set_duty_cycle_disabled_by_host
 3875              		.syntax unified
 3876              		.code	16
 3877              		.thumb_func
 3878              		.fpu softvfp
 3880              	modem_set_duty_cycle_disabled_by_host:
 3881              		@ args = 0, pretend = 0, frame = 0
 3882              		@ frame_needed = 0, uses_anonymous_args = 0
 3883              		@ link register save eliminated.
 3884 0000 014B     		ldr	r3, .L534
 3885              		@ sp needed
 3886 0002 1870     		strb	r0, [r3]
 3887 0004 7047     		bx	lr
 3888              	.L535:
 3889 0006 C046     		.align	2
 3890              	.L534:
 3891 0008 00000000 		.word	.LANCHOR23
 3893              		.section	.text.modem_get_duty_cycle_disabled_by_host,"ax",%progbits
 3894              		.align	1
 3895              		.global	modem_get_duty_cycle_disabled_by_host
 3896              		.syntax unified
 3897              		.code	16
 3898              		.thumb_func
 3899              		.fpu softvfp
 3901              	modem_get_duty_cycle_disabled_by_host:
 3902              		@ args = 0, pretend = 0, frame = 0
 3903              		@ frame_needed = 0, uses_anonymous_args = 0
 3904              		@ link register save eliminated.
 3905 0000 014B     		ldr	r3, .L537
 3906              		@ sp needed
 3907 0002 1878     		ldrb	r0, [r3]
ARM GAS  /tmp/ccdSEGyb.s 			page 68


 3908 0004 7047     		bx	lr
 3909              	.L538:
 3910 0006 C046     		.align	2
 3911              	.L537:
 3912 0008 00000000 		.word	.LANCHOR23
 3914              		.section	.text.modem_set_adr_mobile_timeout_config,"ax",%progbits
 3915              		.align	1
 3916              		.global	modem_set_adr_mobile_timeout_config
 3917              		.syntax unified
 3918              		.code	16
 3919              		.thumb_func
 3920              		.fpu softvfp
 3922              	modem_set_adr_mobile_timeout_config:
 3923              		@ args = 0, pretend = 0, frame = 0
 3924              		@ frame_needed = 0, uses_anonymous_args = 0
 3925              		@ link register save eliminated.
 3926 0000 014B     		ldr	r3, .L540
 3927              		@ sp needed
 3928 0002 1880     		strh	r0, [r3]
 3929 0004 7047     		bx	lr
 3930              	.L541:
 3931 0006 C046     		.align	2
 3932              	.L540:
 3933 0008 00000000 		.word	.LANCHOR25
 3935              		.section	.text.modem_get_adr_mobile_timeout_config,"ax",%progbits
 3936              		.align	1
 3937              		.global	modem_get_adr_mobile_timeout_config
 3938              		.syntax unified
 3939              		.code	16
 3940              		.thumb_func
 3941              		.fpu softvfp
 3943              	modem_get_adr_mobile_timeout_config:
 3944              		@ args = 0, pretend = 0, frame = 0
 3945              		@ frame_needed = 0, uses_anonymous_args = 0
 3946              		@ link register save eliminated.
 3947 0000 014B     		ldr	r3, .L543
 3948              		@ sp needed
 3949 0002 1888     		ldrh	r0, [r3]
 3950 0004 7047     		bx	lr
 3951              	.L544:
 3952 0006 C046     		.align	2
 3953              	.L543:
 3954 0008 00000000 		.word	.LANCHOR25
 3956              		.section	.text.modem_available_new_link_adr_request,"ax",%progbits
 3957              		.align	1
 3958              		.global	modem_available_new_link_adr_request
 3959              		.syntax unified
 3960              		.code	16
 3961              		.thumb_func
 3962              		.fpu softvfp
 3964              	modem_available_new_link_adr_request:
 3965              		@ args = 0, pretend = 0, frame = 0
 3966              		@ frame_needed = 0, uses_anonymous_args = 0
 3967 0000 10B5     		push	{r4, lr}
 3968 0002 FFF7FEFF 		bl	lorawan_api_available_link_adr_get
 3969              		@ sp needed
 3970 0006 10BD     		pop	{r4, pc}
ARM GAS  /tmp/ccdSEGyb.s 			page 69


 3972              		.section	.text.modem_set_test_mode_status,"ax",%progbits
 3973              		.align	1
 3974              		.global	modem_set_test_mode_status
 3975              		.syntax unified
 3976              		.code	16
 3977              		.thumb_func
 3978              		.fpu softvfp
 3980              	modem_set_test_mode_status:
 3981              		@ args = 0, pretend = 0, frame = 0
 3982              		@ frame_needed = 0, uses_anonymous_args = 0
 3983              		@ link register save eliminated.
 3984 0000 014B     		ldr	r3, .L547
 3985              		@ sp needed
 3986 0002 1870     		strb	r0, [r3]
 3987 0004 7047     		bx	lr
 3988              	.L548:
 3989 0006 C046     		.align	2
 3990              	.L547:
 3991 0008 00000000 		.word	.LANCHOR26
 3993              		.section	.text.modem_get_test_mode_status,"ax",%progbits
 3994              		.align	1
 3995              		.global	modem_get_test_mode_status
 3996              		.syntax unified
 3997              		.code	16
 3998              		.thumb_func
 3999              		.fpu softvfp
 4001              	modem_get_test_mode_status:
 4002              		@ args = 0, pretend = 0, frame = 0
 4003              		@ frame_needed = 0, uses_anonymous_args = 0
 4004              		@ link register save eliminated.
 4005 0000 014B     		ldr	r3, .L550
 4006              		@ sp needed
 4007 0002 1878     		ldrb	r0, [r3]
 4008 0004 7047     		bx	lr
 4009              	.L551:
 4010 0006 C046     		.align	2
 4011              	.L550:
 4012 0008 00000000 		.word	.LANCHOR26
 4014              		.section	.text.modem_context_set_rx_pathloss_db,"ax",%progbits
 4015              		.align	1
 4016              		.global	modem_context_set_rx_pathloss_db
 4017              		.syntax unified
 4018              		.code	16
 4019              		.thumb_func
 4020              		.fpu softvfp
 4022              	modem_context_set_rx_pathloss_db:
 4023              		@ args = 0, pretend = 0, frame = 0
 4024              		@ frame_needed = 0, uses_anonymous_args = 0
 4025              		@ link register save eliminated.
 4026 0000 014B     		ldr	r3, .L553
 4027              		@ sp needed
 4028 0002 1870     		strb	r0, [r3]
 4029 0004 7047     		bx	lr
 4030              	.L554:
 4031 0006 C046     		.align	2
 4032              	.L553:
 4033 0008 00000000 		.word	.LANCHOR27
ARM GAS  /tmp/ccdSEGyb.s 			page 70


 4035              		.section	.text.modem_context_get_rx_pathloss_db,"ax",%progbits
 4036              		.align	1
 4037              		.global	modem_context_get_rx_pathloss_db
 4038              		.syntax unified
 4039              		.code	16
 4040              		.thumb_func
 4041              		.fpu softvfp
 4043              	modem_context_get_rx_pathloss_db:
 4044              		@ args = 0, pretend = 0, frame = 0
 4045              		@ frame_needed = 0, uses_anonymous_args = 0
 4046              		@ link register save eliminated.
 4047 0000 0020     		movs	r0, #0
 4048              		@ sp needed
 4049 0002 014B     		ldr	r3, .L556
 4050 0004 1856     		ldrsb	r0, [r3, r0]
 4051 0006 7047     		bx	lr
 4052              	.L557:
 4053              		.align	2
 4054              	.L556:
 4055 0008 00000000 		.word	.LANCHOR27
 4057              		.section	.text.modem_context_set_tx_power_offset_db,"ax",%progbits
 4058              		.align	1
 4059              		.global	modem_context_set_tx_power_offset_db
 4060              		.syntax unified
 4061              		.code	16
 4062              		.thumb_func
 4063              		.fpu softvfp
 4065              	modem_context_set_tx_power_offset_db:
 4066              		@ args = 0, pretend = 0, frame = 0
 4067              		@ frame_needed = 0, uses_anonymous_args = 0
 4068              		@ link register save eliminated.
 4069 0000 014B     		ldr	r3, .L559
 4070              		@ sp needed
 4071 0002 1870     		strb	r0, [r3]
 4072 0004 7047     		bx	lr
 4073              	.L560:
 4074 0006 C046     		.align	2
 4075              	.L559:
 4076 0008 00000000 		.word	.LANCHOR28
 4078              		.section	.text.modem_context_get_tx_power_offset_db,"ax",%progbits
 4079              		.align	1
 4080              		.global	modem_context_get_tx_power_offset_db
 4081              		.syntax unified
 4082              		.code	16
 4083              		.thumb_func
 4084              		.fpu softvfp
 4086              	modem_context_get_tx_power_offset_db:
 4087              		@ args = 0, pretend = 0, frame = 0
 4088              		@ frame_needed = 0, uses_anonymous_args = 0
 4089              		@ link register save eliminated.
 4090 0000 0020     		movs	r0, #0
 4091              		@ sp needed
 4092 0002 014B     		ldr	r3, .L562
 4093 0004 1856     		ldrsb	r0, [r3, r0]
 4094 0006 7047     		bx	lr
 4095              	.L563:
 4096              		.align	2
ARM GAS  /tmp/ccdSEGyb.s 			page 71


 4097              	.L562:
 4098 0008 00000000 		.word	.LANCHOR28
 4100              		.section	.text.modem_context_get_modem_rp,"ax",%progbits
 4101              		.align	1
 4102              		.global	modem_context_get_modem_rp
 4103              		.syntax unified
 4104              		.code	16
 4105              		.thumb_func
 4106              		.fpu softvfp
 4108              	modem_context_get_modem_rp:
 4109              		@ args = 0, pretend = 0, frame = 0
 4110              		@ frame_needed = 0, uses_anonymous_args = 0
 4111              		@ link register save eliminated.
 4112 0000 014B     		ldr	r3, .L565
 4113              		@ sp needed
 4114 0002 1868     		ldr	r0, [r3]
 4115 0004 7047     		bx	lr
 4116              	.L566:
 4117 0006 C046     		.align	2
 4118              	.L565:
 4119 0008 00000000 		.word	.LANCHOR29
 4121              		.section	.text.modem_context_set_modem_rp,"ax",%progbits
 4122              		.align	1
 4123              		.global	modem_context_set_modem_rp
 4124              		.syntax unified
 4125              		.code	16
 4126              		.thumb_func
 4127              		.fpu softvfp
 4129              	modem_context_set_modem_rp:
 4130              		@ args = 0, pretend = 0, frame = 0
 4131              		@ frame_needed = 0, uses_anonymous_args = 0
 4132              		@ link register save eliminated.
 4133 0000 014B     		ldr	r3, .L568
 4134              		@ sp needed
 4135 0002 1860     		str	r0, [r3]
 4136 0004 7047     		bx	lr
 4137              	.L569:
 4138 0006 C046     		.align	2
 4139              	.L568:
 4140 0008 00000000 		.word	.LANCHOR29
 4142              		.section	.text.modem_context_suspend_user_radio_access,"ax",%progbits
 4143              		.align	1
 4144              		.global	modem_context_suspend_user_radio_access
 4145              		.syntax unified
 4146              		.code	16
 4147              		.thumb_func
 4148              		.fpu softvfp
 4150              	modem_context_suspend_user_radio_access:
 4151              		@ args = 0, pretend = 0, frame = 160
 4152              		@ frame_needed = 0, uses_anonymous_args = 0
 4153 0000 70B5     		push	{r4, r5, r6, lr}
 4154 0002 0600     		movs	r6, r0
 4155 0004 AAB0     		sub	sp, sp, #168
 4156 0006 09AD     		add	r5, sp, #36
 4157 0008 02AC     		add	r4, sp, #8
 4158 000a 8422     		movs	r2, #132
 4159 000c 0021     		movs	r1, #0
ARM GAS  /tmp/ccdSEGyb.s 			page 72


 4160 000e 2800     		movs	r0, r5
 4161 0010 FFF7FEFF 		bl	memset
 4162 0014 1C22     		movs	r2, #28
 4163 0016 0021     		movs	r1, #0
 4164 0018 2000     		movs	r0, r4
 4165 001a FFF7FEFF 		bl	memset
 4166 001e 0B4B     		ldr	r3, .L571
 4167 0020 6670     		strb	r6, [r4, #1]
 4168 0022 0393     		str	r3, [sp, #12]
 4169 0024 FFF7FEFF 		bl	smtc_modem_hal_get_time_in_ms
 4170 0028 094B     		ldr	r3, .L571+4
 4171 002a 0430     		adds	r0, r0, #4
 4172 002c 0893     		str	r3, [sp, #32]
 4173 002e 0023     		movs	r3, #0
 4174 0030 0590     		str	r0, [sp, #20]
 4175 0032 0848     		ldr	r0, .L571+8
 4176 0034 0095     		str	r5, [sp]
 4177 0036 1A00     		movs	r2, r3
 4178 0038 2100     		movs	r1, r4
 4179 003a 0068     		ldr	r0, [r0]
 4180 003c FFF7FEFF 		bl	rp_task_enqueue
 4181 0040 4342     		rsbs	r3, r0, #0
 4182 0042 5841     		adcs	r0, r0, r3
 4183 0044 C0B2     		uxtb	r0, r0
 4184 0046 2AB0     		add	sp, sp, #168
 4185              		@ sp needed
 4186 0048 70BD     		pop	{r4, r5, r6, pc}
 4187              	.L572:
 4188 004a C046     		.align	2
 4189              	.L571:
 4190 004c 00000000 		.word	modem_context_empty_callback
 4191 0050 204E0000 		.word	20000
 4192 0054 00000000 		.word	.LANCHOR29
 4194              		.section	.rodata.modem_context_resume_user_radio_access.str1.1,"aMS",%progbits,1
 4195              	.LC240:
 4196 0000 1B5B303B 		.ascii	"\033[0;31mERROR: Fail to abort hook\015\012\000"
 4196      33316D45 
 4196      52524F52 
 4196      3A204661 
 4196      696C2074 
 4197              		.section	.text.modem_context_resume_user_radio_access,"ax",%progbits
 4198              		.align	1
 4199              		.global	modem_context_resume_user_radio_access
 4200              		.syntax unified
 4201              		.code	16
 4202              		.thumb_func
 4203              		.fpu softvfp
 4205              	modem_context_resume_user_radio_access:
 4206              		@ args = 0, pretend = 0, frame = 0
 4207              		@ frame_needed = 0, uses_anonymous_args = 0
 4208 0000 084B     		ldr	r3, .L577
 4209 0002 0021     		movs	r1, #0
 4210 0004 1868     		ldr	r0, [r3]
 4211 0006 10B5     		push	{r4, lr}
 4212 0008 FFF7FEFF 		bl	rp_task_abort
 4213 000c 0123     		movs	r3, #1
 4214 000e 0028     		cmp	r0, #0
ARM GAS  /tmp/ccdSEGyb.s 			page 73


 4215 0010 06D0     		beq	.L574
 4216 0012 0548     		ldr	r0, .L577+4
 4217 0014 FFF7FEFF 		bl	smtc_modem_hal_print_trace
 4218 0018 0448     		ldr	r0, .L577+8
 4219 001a FFF7FEFF 		bl	smtc_modem_hal_print_trace
 4220 001e 0023     		movs	r3, #0
 4221              	.L574:
 4222              		@ sp needed
 4223 0020 1800     		movs	r0, r3
 4224 0022 10BD     		pop	{r4, pc}
 4225              	.L578:
 4226              		.align	2
 4227              	.L577:
 4228 0024 00000000 		.word	.LANCHOR29
 4229 0028 00000000 		.word	.LC240
 4230 002c 1D000000 		.word	.LC41
 4232              		.section	.text.modem_context_suspend_radio_access,"ax",%progbits
 4233              		.align	1
 4234              		.global	modem_context_suspend_radio_access
 4235              		.syntax unified
 4236              		.code	16
 4237              		.thumb_func
 4238              		.fpu softvfp
 4240              	modem_context_suspend_radio_access:
 4241              		@ args = 0, pretend = 0, frame = 160
 4242              		@ frame_needed = 0, uses_anonymous_args = 0
 4243 0000 30B5     		push	{r4, r5, lr}
 4244 0002 ABB0     		sub	sp, sp, #172
 4245 0004 09AD     		add	r5, sp, #36
 4246 0006 0400     		movs	r4, r0
 4247 0008 8422     		movs	r2, #132
 4248 000a 0021     		movs	r1, #0
 4249 000c 2800     		movs	r0, r5
 4250 000e FFF7FEFF 		bl	memset
 4251 0012 0021     		movs	r1, #0
 4252 0014 1C22     		movs	r2, #28
 4253 0016 02A8     		add	r0, sp, #8
 4254 0018 FFF7FEFF 		bl	memset
 4255 001c 6A46     		mov	r2, sp
 4256 001e 0223     		movs	r3, #2
 4257 0020 1372     		strb	r3, [r2, #8]
 4258 0022 0C4B     		ldr	r3, .L580
 4259 0024 5472     		strb	r4, [r2, #9]
 4260 0026 0393     		str	r3, [sp, #12]
 4261 0028 FFF7FEFF 		bl	smtc_modem_hal_get_time_in_ms
 4262 002c 0A4B     		ldr	r3, .L580+4
 4263 002e 0430     		adds	r0, r0, #4
 4264 0030 0590     		str	r0, [sp, #20]
 4265 0032 0893     		str	r3, [sp, #32]
 4266 0034 FFF7FEFF 		bl	smtc_modem_hal_disable_modem_irq
 4267 0038 0023     		movs	r3, #0
 4268 003a 0848     		ldr	r0, .L580+8
 4269 003c 0095     		str	r5, [sp]
 4270 003e 1A00     		movs	r2, r3
 4271 0040 02A9     		add	r1, sp, #8
 4272 0042 0068     		ldr	r0, [r0]
 4273 0044 FFF7FEFF 		bl	rp_task_enqueue
ARM GAS  /tmp/ccdSEGyb.s 			page 74


 4274 0048 4342     		rsbs	r3, r0, #0
 4275 004a 5841     		adcs	r0, r0, r3
 4276 004c C0B2     		uxtb	r0, r0
 4277 004e 2BB0     		add	sp, sp, #172
 4278              		@ sp needed
 4279 0050 30BD     		pop	{r4, r5, pc}
 4280              	.L581:
 4281 0052 C046     		.align	2
 4282              	.L580:
 4283 0054 00000000 		.word	modem_context_empty_callback
 4284 0058 204E0000 		.word	20000
 4285 005c 00000000 		.word	.LANCHOR29
 4287              		.section	.text.modem_context_resume_radio_access,"ax",%progbits
 4288              		.align	1
 4289              		.global	modem_context_resume_radio_access
 4290              		.syntax unified
 4291              		.code	16
 4292              		.thumb_func
 4293              		.fpu softvfp
 4295              	modem_context_resume_radio_access:
 4296              		@ args = 0, pretend = 0, frame = 0
 4297              		@ frame_needed = 0, uses_anonymous_args = 0
 4298 0000 094B     		ldr	r3, .L586
 4299 0002 10B5     		push	{r4, lr}
 4300 0004 0221     		movs	r1, #2
 4301 0006 1868     		ldr	r0, [r3]
 4302 0008 FFF7FEFF 		bl	rp_task_abort
 4303 000c 0124     		movs	r4, #1
 4304 000e 0028     		cmp	r0, #0
 4305 0010 06D0     		beq	.L583
 4306 0012 0648     		ldr	r0, .L586+4
 4307 0014 FFF7FEFF 		bl	smtc_modem_hal_print_trace
 4308 0018 0548     		ldr	r0, .L586+8
 4309 001a FFF7FEFF 		bl	smtc_modem_hal_print_trace
 4310 001e 0024     		movs	r4, #0
 4311              	.L583:
 4312              		@ sp needed
 4313 0020 FFF7FEFF 		bl	smtc_modem_hal_enable_modem_irq
 4314 0024 2000     		movs	r0, r4
 4315 0026 10BD     		pop	{r4, pc}
 4316              	.L587:
 4317              		.align	2
 4318              	.L586:
 4319 0028 00000000 		.word	.LANCHOR29
 4320 002c 00000000 		.word	.LC240
 4321 0030 1D000000 		.word	.LC41
 4323              		.section	.text.modem_context_set_power_config_lut,"ax",%progbits
 4324              		.align	1
 4325              		.global	modem_context_set_power_config_lut
 4326              		.syntax unified
 4327              		.code	16
 4328              		.thumb_func
 4329              		.fpu softvfp
 4331              	modem_context_set_power_config_lut:
 4332              		@ args = 0, pretend = 0, frame = 0
 4333              		@ frame_needed = 0, uses_anonymous_args = 0
 4334              		@ link register save eliminated.
ARM GAS  /tmp/ccdSEGyb.s 			page 75


 4335 0000 0200     		movs	r2, r0
 4336 0002 084B     		ldr	r3, .L591
 4337 0004 1E32     		adds	r2, r2, #30
 4338              	.L589:
 4339 0006 0178     		ldrb	r1, [r0]
 4340 0008 1970     		strb	r1, [r3]
 4341 000a 4178     		ldrb	r1, [r0, #1]
 4342 000c 5970     		strb	r1, [r3, #1]
 4343 000e 8178     		ldrb	r1, [r0, #2]
 4344 0010 9970     		strb	r1, [r3, #2]
 4345 0012 C178     		ldrb	r1, [r0, #3]
 4346 0014 D970     		strb	r1, [r3, #3]
 4347 0016 0179     		ldrb	r1, [r0, #4]
 4348 0018 0530     		adds	r0, r0, #5
 4349 001a 1971     		strb	r1, [r3, #4]
 4350 001c 0533     		adds	r3, r3, #5
 4351 001e 9042     		cmp	r0, r2
 4352 0020 F1D1     		bne	.L589
 4353              		@ sp needed
 4354 0022 7047     		bx	lr
 4355              	.L592:
 4356              		.align	2
 4357              	.L591:
 4358 0024 00000000 		.word	.LANCHOR36
 4360              		.section	.text.modem_context_get_power_config_lut,"ax",%progbits
 4361              		.align	1
 4362              		.global	modem_context_get_power_config_lut
 4363              		.syntax unified
 4364              		.code	16
 4365              		.thumb_func
 4366              		.fpu softvfp
 4368              	modem_context_get_power_config_lut:
 4369              		@ args = 0, pretend = 0, frame = 0
 4370              		@ frame_needed = 0, uses_anonymous_args = 0
 4371              		@ link register save eliminated.
 4372 0000 0048     		ldr	r0, .L594
 4373              		@ sp needed
 4374 0002 7047     		bx	lr
 4375              	.L595:
 4376              		.align	2
 4377              	.L594:
 4378 0004 00000000 		.word	.LANCHOR36
 4380              		.section	.text.modem_context_set_appkey,"ax",%progbits
 4381              		.align	1
 4382              		.global	modem_context_set_appkey
 4383              		.syntax unified
 4384              		.code	16
 4385              		.thumb_func
 4386              		.fpu softvfp
 4388              	modem_context_set_appkey:
 4389              		@ args = 0, pretend = 0, frame = 0
 4390              		@ frame_needed = 0, uses_anonymous_args = 0
 4391 0000 10B5     		push	{r4, lr}
 4392 0002 FFF7FEFF 		bl	lorawan_api_set_appkey
 4393              		@ sp needed
 4394 0006 431E     		subs	r3, r0, #1
 4395 0008 9841     		sbcs	r0, r0, r3
ARM GAS  /tmp/ccdSEGyb.s 			page 76


 4396 000a C0B2     		uxtb	r0, r0
 4397 000c 10BD     		pop	{r4, pc}
 4399              		.section	.text.modem_context_appkey_is_derived,"ax",%progbits
 4400              		.align	1
 4401              		.global	modem_context_appkey_is_derived
 4402              		.syntax unified
 4403              		.code	16
 4404              		.thumb_func
 4405              		.fpu softvfp
 4407              	modem_context_appkey_is_derived:
 4408              		@ args = 0, pretend = 0, frame = 0
 4409              		@ frame_needed = 0, uses_anonymous_args = 0
 4410 0000 0122     		movs	r2, #1
 4411 0002 10B5     		push	{r4, lr}
 4412 0004 024B     		ldr	r3, .L598
 4413              		@ sp needed
 4414 0006 1A80     		strh	r2, [r3]
 4415 0008 FFF7FEFF 		bl	modem_store_context
 4416 000c 10BD     		pop	{r4, pc}
 4417              	.L599:
 4418 000e C046     		.align	2
 4419              	.L598:
 4420 0010 00000000 		.word	.LANCHOR30
 4422              		.section	.text.modem_context_get_network_type,"ax",%progbits
 4423              		.align	1
 4424              		.global	modem_context_get_network_type
 4425              		.syntax unified
 4426              		.code	16
 4427              		.thumb_func
 4428              		.fpu softvfp
 4430              	modem_context_get_network_type:
 4431              		@ args = 0, pretend = 0, frame = 0
 4432              		@ frame_needed = 0, uses_anonymous_args = 0
 4433 0000 10B5     		push	{r4, lr}
 4434 0002 FFF7FEFF 		bl	lorawan_api_get_network_type
 4435              		@ sp needed
 4436 0006 10BD     		pop	{r4, pc}
 4438              		.section	.text.modem_context_set_network_type,"ax",%progbits
 4439              		.align	1
 4440              		.global	modem_context_set_network_type
 4441              		.syntax unified
 4442              		.code	16
 4443              		.thumb_func
 4444              		.fpu softvfp
 4446              	modem_context_set_network_type:
 4447              		@ args = 0, pretend = 0, frame = 0
 4448              		@ frame_needed = 0, uses_anonymous_args = 0
 4449 0000 10B5     		push	{r4, lr}
 4450 0002 FFF7FEFF 		bl	lorawan_api_set_network_type
 4451              		@ sp needed
 4452 0006 10BD     		pop	{r4, pc}
 4454              		.section	.text.modem_context_get_modem_radio_ctx,"ax",%progbits
 4455              		.align	1
 4456              		.global	modem_context_get_modem_radio_ctx
 4457              		.syntax unified
 4458              		.code	16
 4459              		.thumb_func
ARM GAS  /tmp/ccdSEGyb.s 			page 77


 4460              		.fpu softvfp
 4462              	modem_context_get_modem_radio_ctx:
 4463              		@ args = 0, pretend = 0, frame = 0
 4464              		@ frame_needed = 0, uses_anonymous_args = 0
 4465              		@ link register save eliminated.
 4466 0000 014B     		ldr	r3, .L603
 4467              		@ sp needed
 4468 0002 1868     		ldr	r0, [r3]
 4469 0004 7047     		bx	lr
 4470              	.L604:
 4471 0006 C046     		.align	2
 4472              	.L603:
 4473 0008 00000000 		.word	.LANCHOR39
 4475              		.section	.text.modem_context_set_modem_radio_ctx,"ax",%progbits
 4476              		.align	1
 4477              		.global	modem_context_set_modem_radio_ctx
 4478              		.syntax unified
 4479              		.code	16
 4480              		.thumb_func
 4481              		.fpu softvfp
 4483              	modem_context_set_modem_radio_ctx:
 4484              		@ args = 0, pretend = 0, frame = 0
 4485              		@ frame_needed = 0, uses_anonymous_args = 0
 4486              		@ link register save eliminated.
 4487 0000 014B     		ldr	r3, .L606
 4488              		@ sp needed
 4489 0002 1860     		str	r0, [r3]
 4490 0004 7047     		bx	lr
 4491              	.L607:
 4492 0006 C046     		.align	2
 4493              	.L606:
 4494 0008 00000000 		.word	.LANCHOR39
 4496              		.section	.text.modem_set_extended_callback,"ax",%progbits
 4497              		.align	1
 4498              		.global	modem_set_extended_callback
 4499              		.syntax unified
 4500              		.code	16
 4501              		.thumb_func
 4502              		.fpu softvfp
 4504              	modem_set_extended_callback:
 4505              		@ args = 0, pretend = 0, frame = 0
 4506              		@ frame_needed = 0, uses_anonymous_args = 0
 4507              		@ link register save eliminated.
 4508 0000 034B     		ldr	r3, .L612
 4509 0002 0129     		cmp	r1, #1
 4510 0004 02D0     		beq	.L611
 4511 0006 0229     		cmp	r1, #2
 4512 0008 01D1     		bne	.L608
 4513 000a 024B     		ldr	r3, .L612+4
 4514              	.L611:
 4515 000c 1860     		str	r0, [r3]
 4516              	.L608:
 4517              		@ sp needed
 4518 000e 7047     		bx	lr
 4519              	.L613:
 4520              		.align	2
 4521              	.L612:
ARM GAS  /tmp/ccdSEGyb.s 			page 78


 4522 0010 00000000 		.word	.LANCHOR41
 4523 0014 00000000 		.word	.LANCHOR42
 4525              		.section	.text.modem_get_extended_callback,"ax",%progbits
 4526              		.align	1
 4527              		.global	modem_get_extended_callback
 4528              		.syntax unified
 4529              		.code	16
 4530              		.thumb_func
 4531              		.fpu softvfp
 4533              	modem_get_extended_callback:
 4534              		@ args = 0, pretend = 0, frame = 0
 4535              		@ frame_needed = 0, uses_anonymous_args = 0
 4536              		@ link register save eliminated.
 4537 0000 0300     		movs	r3, r0
 4538 0002 0128     		cmp	r0, #1
 4539 0004 02D1     		bne	.L615
 4540 0006 044B     		ldr	r3, .L619
 4541              	.L618:
 4542 0008 1868     		ldr	r0, [r3]
 4543              	.L614:
 4544              		@ sp needed
 4545 000a 7047     		bx	lr
 4546              	.L615:
 4547 000c 0020     		movs	r0, #0
 4548 000e 022B     		cmp	r3, #2
 4549 0010 FBD1     		bne	.L614
 4550 0012 024B     		ldr	r3, .L619+4
 4551 0014 F8E7     		b	.L618
 4552              	.L620:
 4553 0016 C046     		.align	2
 4554              	.L619:
 4555 0018 00000000 		.word	.LANCHOR41
 4556 001c 00000000 		.word	.LANCHOR42
 4558              		.section	.text.modem_leave,"ax",%progbits
 4559              		.align	1
 4560              		.global	modem_leave
 4561              		.syntax unified
 4562              		.code	16
 4563              		.thumb_func
 4564              		.fpu softvfp
 4566              	modem_leave:
 4567              		@ args = 0, pretend = 0, frame = 0
 4568              		@ frame_needed = 0, uses_anonymous_args = 0
 4569 0000 10B5     		push	{r4, lr}
 4570 0002 0024     		movs	r4, #0
 4571              		@ sp needed
 4572 0004 0020     		movs	r0, #0
 4573 0006 FFF7FEFF 		bl	set_modem_status_modem_joined
 4574 000a FFF7FEFF 		bl	lorawan_api_join_status_clear
 4575 000e 0020     		movs	r0, #0
 4576 0010 FFF7FEFF 		bl	set_modem_status_joining
 4577 0014 0020     		movs	r0, #0
 4578 0016 FFF7FEFF 		bl	lorawan_api_class_b_enabled
 4579 001a 0020     		movs	r0, #0
 4580 001c FFF7FEFF 		bl	lorawan_api_class_c_enabled
 4581 0020 0020     		movs	r0, #0
 4582 0022 FFF7FEFF 		bl	set_modem_status_file_upload
ARM GAS  /tmp/ccdSEGyb.s 			page 79


 4583 0026 054B     		ldr	r3, .L622
 4584 0028 2000     		movs	r0, r4
 4585 002a 1C70     		strb	r4, [r3]
 4586 002c FFF7FEFF 		bl	set_modem_status_streaming
 4587 0030 034B     		ldr	r3, .L622+4
 4588 0032 5C70     		strb	r4, [r3, #1]
 4589 0034 FFF7FEFF 		bl	modem_supervisor_init_task
 4590 0038 10BD     		pop	{r4, pc}
 4591              	.L623:
 4592 003a C046     		.align	2
 4593              	.L622:
 4594 003c 00000000 		.word	.LANCHOR7
 4595 0040 00000000 		.word	.LANCHOR8
 4597              		.section	.bss.asynch_msg,"aw",%nobits
 4598              		.align	2
 4599              		.set	.LANCHOR35,. + 0
 4602              	asynch_msg:
 4603 0000 00000000 		.space	25
 4603      00000000 
 4603      00000000 
 4603      00000000 
 4603      00000000 
 4604              		.section	.bss.asynchronous_msgnumber,"aw",%nobits
 4605              		.set	.LANCHOR16,. + 0
 4608              	asynchronous_msgnumber:
 4609 0000 00       		.space	1
 4610              		.section	.bss.charge_counter_to_send,"aw",%nobits
 4611              		.set	.LANCHOR21,. + 0
 4614              	charge_counter_to_send:
 4615 0000 00       		.space	1
 4616              		.section	.bss.dm_info_bitfield_now,"aw",%nobits
 4617              		.align	2
 4618              		.set	.LANCHOR10,. + 0
 4621              	dm_info_bitfield_now:
 4622 0000 00000000 		.space	4
 4623              		.section	.bss.dm_pending_dl,"aw",%nobits
 4624              		.align	1
 4625              		.set	.LANCHOR14,. + 0
 4628              	dm_pending_dl:
 4629 0000 0000     		.space	2
 4630              		.section	.bss.duty_cycle_disabled_by_host,"aw",%nobits
 4631              		.set	.LANCHOR23,. + 0
 4634              	duty_cycle_disabled_by_host:
 4635 0000 00       		.space	1
 4636              		.section	.bss.is_modem_in_test_mode,"aw",%nobits
 4637              		.set	.LANCHOR26,. + 0
 4640              	is_modem_in_test_mode:
 4641 0000 00       		.space	1
 4642              		.section	.bss.is_modem_reset_requested,"aw",%nobits
 4643              		.set	.LANCHOR17,. + 0
 4646              	is_modem_reset_requested:
 4647 0000 00       		.space	1
 4648              		.section	.bss.is_modem_suspend,"aw",%nobits
 4649              		.set	.LANCHOR4,. + 0
 4652              	is_modem_suspend:
 4653 0000 00       		.space	1
 4654              		.section	.bss.modem_adr_profile,"aw",%nobits
ARM GAS  /tmp/ccdSEGyb.s 			page 80


 4655              		.set	.LANCHOR24,. + 0
 4658              	modem_adr_profile:
 4659 0000 00       		.space	1
 4660              		.section	.bss.modem_appkey_crc,"aw",%nobits
 4661              		.align	2
 4662              		.set	.LANCHOR31,. + 0
 4665              	modem_appkey_crc:
 4666 0000 00000000 		.space	4
 4667              		.section	.bss.modem_appstatus,"aw",%nobits
 4668              		.align	2
 4669              		.set	.LANCHOR32,. + 0
 4672              	modem_appstatus:
 4673 0000 00000000 		.space	8
 4673      00000000 
 4674              		.section	.bss.modem_charge_offset,"aw",%nobits
 4675              		.align	2
 4676              		.set	.LANCHOR18,. + 0
 4679              	modem_charge_offset:
 4680 0000 00000000 		.space	4
 4681              		.section	.bss.modem_dm_class,"aw",%nobits
 4682              		.set	.LANCHOR3,. + 0
 4685              	modem_dm_class:
 4686 0000 00       		.space	1
 4687              		.section	.bss.modem_dm_upload_sctr,"aw",%nobits
 4688              		.set	.LANCHOR6,. + 0
 4691              	modem_dm_upload_sctr:
 4692 0000 00       		.space	1
 4693              		.section	.bss.modem_dwn_pkt,"aw",%nobits
 4694              		.align	2
 4697              	modem_dwn_pkt:
 4698 0000 00000000 		.space	264
 4698      00000000 
 4698      00000000 
 4698      00000000 
 4698      00000000 
 4699              		.section	.bss.modem_event_count,"aw",%nobits
 4700              		.align	2
 4701              		.set	.LANCHOR33,. + 0
 4704              	modem_event_count:
 4705 0000 00000000 		.space	25
 4705      00000000 
 4705      00000000 
 4705      00000000 
 4705      00000000 
 4706              		.section	.bss.modem_event_status,"aw",%nobits
 4707              		.align	2
 4708              		.set	.LANCHOR34,. + 0
 4711              	modem_event_status:
 4712 0000 00000000 		.space	25
 4712      00000000 
 4712      00000000 
 4712      00000000 
 4712      00000000 
 4713              		.section	.bss.modem_lbm_notification_extended_1_callback,"aw",%nobits
 4714              		.align	2
 4715              		.set	.LANCHOR41,. + 0
 4718              	modem_lbm_notification_extended_1_callback:
ARM GAS  /tmp/ccdSEGyb.s 			page 81


 4719 0000 00000000 		.space	4
 4720              		.section	.bss.modem_lbm_notification_extended_2_callback,"aw",%nobits
 4721              		.align	2
 4722              		.set	.LANCHOR42,. + 0
 4725              	modem_lbm_notification_extended_2_callback:
 4726 0000 00000000 		.space	4
 4727              		.section	.bss.modem_radio_ctx,"aw",%nobits
 4728              		.align	2
 4729              		.set	.LANCHOR39,. + 0
 4732              	modem_radio_ctx:
 4733 0000 00000000 		.space	4
 4734              		.section	.bss.modem_rf_output,"aw",%nobits
 4735              		.set	.LANCHOR22,. + 0
 4738              	modem_rf_output:
 4739 0000 00       		.space	1
 4740              		.section	.bss.modem_rp,"aw",%nobits
 4741              		.align	2
 4742              		.set	.LANCHOR29,. + 0
 4745              	modem_rp:
 4746 0000 00000000 		.space	4
 4747              		.section	.bss.modem_start_time,"aw",%nobits
 4748              		.align	2
 4749              		.set	.LANCHOR5,. + 0
 4752              	modem_start_time:
 4753 0000 00000000 		.space	4
 4754              		.section	.bss.modem_status,"aw",%nobits
 4755              		.set	.LANCHOR0,. + 0
 4758              	modem_status:
 4759 0000 00       		.space	1
 4760              		.section	.bss.modem_upload_state,"aw",%nobits
 4761              		.set	.LANCHOR7,. + 0
 4764              	modem_upload_state:
 4765 0000 00       		.space	1
 4766              		.section	.bss.nb_adr_mobile_timeout,"aw",%nobits
 4767              		.align	1
 4768              		.set	.LANCHOR25,. + 0
 4771              	nb_adr_mobile_timeout:
 4772 0000 0000     		.space	2
 4773              		.section	.bss.number_of_muted_day,"aw",%nobits
 4774              		.set	.LANCHOR13,. + 0
 4777              	number_of_muted_day:
 4778 0000 00       		.space	1
 4779              		.section	.bss.power_config_lut,"aw",%nobits
 4780              		.set	.LANCHOR36,. + 0
 4783              	power_config_lut:
 4784 0000 00000000 		.space	30
 4784      00000000 
 4784      00000000 
 4784      00000000 
 4784      00000000 
 4785              		.section	.bss.rx_pathloss_db,"aw",%nobits
 4786              		.set	.LANCHOR27,. + 0
 4789              	rx_pathloss_db:
 4790 0000 00       		.space	1
 4791              		.section	.bss.start_time_was_set,"aw",%nobits
 4792              		.set	.LANCHOR19,. + 0
 4795              	start_time_was_set:
ARM GAS  /tmp/ccdSEGyb.s 			page 82


 4796 0000 00       		.space	1
 4797              		.section	.bss.tag_number,"aw",%nobits
 4798              		.set	.LANCHOR11,. + 0
 4801              	tag_number:
 4802 0000 00       		.space	1
 4803              		.section	.bss.tag_number_now,"aw",%nobits
 4804              		.set	.LANCHOR12,. + 0
 4807              	tag_number_now:
 4808 0000 00       		.space	1
 4809              		.section	.bss.tx_power_offset_db,"aw",%nobits
 4810              		.set	.LANCHOR28,. + 0
 4813              	tx_power_offset_db:
 4814 0000 00       		.space	1
 4815              		.section	.bss.user_define_charge_counter,"aw",%nobits
 4816              		.align	1
 4817              		.set	.LANCHOR20,. + 0
 4820              	user_define_charge_counter:
 4821 0000 0000     		.space	2
 4822              		.section	.data.dm_info_bitfield_periodic,"aw"
 4823              		.align	2
 4824              		.set	.LANCHOR9,. + 0
 4827              	dm_info_bitfield_periodic:
 4828 0000 7B000000 		.word	123
 4829              		.section	.data.modem_appkey_status,"aw"
 4830              		.align	1
 4831              		.set	.LANCHOR30,. + 0
 4834              	modem_appkey_status:
 4835 0000 0100     		.short	1
 4836              		.section	.data.modem_dm_interval,"aw"
 4837              		.set	.LANCHOR1,. + 0
 4840              	modem_dm_interval:
 4841 0000 81       		.byte	-127
 4842              		.section	.data.modem_dm_port,"aw"
 4843              		.set	.LANCHOR2,. + 0
 4846              	modem_dm_port:
 4847 0000 C7       		.byte	-57
 4848              		.section	.data.modem_stream_state,"aw"
 4849              		.align	1
 4850              		.set	.LANCHOR8,. + 0
 4853              	modem_stream_state:
 4854 0000 C7       		.byte	-57
 4855 0001 00       		.byte	0
 4856 0002 00       		.byte	0
 4857              		.section	.data.user_alarm,"aw"
 4858              		.align	2
 4859              		.set	.LANCHOR15,. + 0
 4862              	user_alarm:
 4863 0000 FFFFFF7F 		.word	2147483647
 4864              		.section	.rodata.__func__.1,"a"
 4865              		.set	.LANCHOR38,. + 0
 4868              	__func__.1:
 4869 0000 6765745F 		.ascii	"get_modem_event_status\000"
 4869      6D6F6465 
 4869      6D5F6576 
 4869      656E745F 
 4869      73746174 
 4870              		.section	.rodata.__func__.2,"a"
ARM GAS  /tmp/ccdSEGyb.s 			page 83


 4871              		.set	.LANCHOR37,. + 0
 4874              	__func__.2:
 4875 0000 6765745F 		.ascii	"get_modem_event_count\000"
 4875      6D6F6465 
 4875      6D5F6576 
 4875      656E745F 
 4875      636F756E 
 4876              		.section	.rodata.dm_info_field_sz,"a"
 4877              		.align	2
 4878              		.set	.LANCHOR40,. + 0
 4881              	dm_info_field_sz:
 4882 0000 01020101 		.ascii	"\001\002\001\001\002\002\002\010\001\010\001\001\004"
 4882      02020208 
 4882      01080101 
 4882      04
 4883 000d 00000208 		.ascii	"\000\000\002\010\002\002\010\000\002\010\000\007\000"
 4883      02020800 
 4883      02080007 
 4883      00
 4884 001a 0000     		.space	2
 4885              		.ident	"GCC: (15:10.3-2021.07-4) 10.3.1 20210621 (release)"
ARM GAS  /tmp/ccdSEGyb.s 			page 84

