ARM GAS  /tmp/ccnxOm1G.s 			page 1


   1              		.cpu cortex-m0
   2              		.eabi_attribute 23, 1
   3              		.eabi_attribute 24, 1
   4              		.eabi_attribute 25, 1
   5              		.eabi_attribute 26, 1
   6              		.eabi_attribute 30, 4
   7              		.eabi_attribute 34, 0
   8              		.eabi_attribute 18, 4
   9              		.file	"rose.c"
  10              		.text
  11              		.section	.text.ROSE_payload_encrypt.constprop.0,"ax",%progbits
  12              		.align	1
  13              		.arch armv6s-m
  14              		.syntax unified
  15              		.code	16
  16              		.thumb_func
  17              		.fpu softvfp
  19              	ROSE_payload_encrypt.constprop.0:
  20              		@ args = 0, pretend = 0, frame = 16
  21              		@ frame_needed = 0, uses_anonymous_args = 0
  22 0000 F0B5     		push	{r4, r5, r6, r7, lr}
  23 0002 0E00     		movs	r6, r1
  24 0004 0021     		movs	r1, #0
  25 0006 85B0     		sub	sp, sp, #20
  26 0008 1400     		movs	r4, r2
  27 000a 0500     		movs	r5, r0
  28 000c 0A22     		movs	r2, #10
  29 000e 01A8     		add	r0, sp, #4
  30 0010 1F00     		movs	r7, r3
  31 0012 0091     		str	r1, [sp]
  32 0014 FFF7FEFF 		bl	memset
  33 0018 6A46     		mov	r2, sp
  34 001a 0123     		movs	r3, #1
  35 001c 1370     		strb	r3, [r2]
  36 001e 4133     		adds	r3, r3, #65
  37 0020 5371     		strb	r3, [r2, #5]
  38 0022 230A     		lsrs	r3, r4, #8
  39 0024 9472     		strb	r4, [r2, #10]
  40 0026 D372     		strb	r3, [r2, #11]
  41 0028 230C     		lsrs	r3, r4, #16
  42 002a 240E     		lsrs	r4, r4, #24
  43 002c 1373     		strb	r3, [r2, #12]
  44 002e 3100     		movs	r1, r6
  45 0030 3B00     		movs	r3, r7
  46 0032 2800     		movs	r0, r5
  47 0034 5473     		strb	r4, [r2, #13]
  48 0036 FFF7FEFF 		bl	smtc_modem_services_aes_encrypt
  49 003a 05B0     		add	sp, sp, #20
  50              		@ sp needed
  51 003c F0BD     		pop	{r4, r5, r6, r7, pc}
  53              		.section	.text.ROSE_rvec_len,"ax",%progbits
  54              		.align	1
  55              		.global	ROSE_rvec_len
  56              		.syntax unified
  57              		.code	16
  58              		.thumb_func
  59              		.fpu softvfp
ARM GAS  /tmp/ccnxOm1G.s 			page 2


  61              	ROSE_rvec_len:
  62              		@ args = 0, pretend = 0, frame = 0
  63              		@ frame_needed = 0, uses_anonymous_args = 0
  64              		@ link register save eliminated.
  65 0000 8389     		ldrh	r3, [r0, #12]
  66 0002 1020     		movs	r0, #16
  67 0004 782B     		cmp	r3, #120
  68 0006 01D9     		bls	.L2
  69 0008 0733     		adds	r3, r3, #7
  70 000a D810     		asrs	r0, r3, #3
  71              	.L2:
  72              		@ sp needed
  73 000c 7047     		bx	lr
  75              		.section	.text.ROSE_encWL,"ax",%progbits
  76              		.align	1
  77              		.global	ROSE_encWL
  78              		.syntax unified
  79              		.code	16
  80              		.thumb_func
  81              		.fpu softvfp
  83              	ROSE_encWL:
  84              		@ args = 0, pretend = 0, frame = 0
  85              		@ frame_needed = 0, uses_anonymous_args = 0
  86              		@ link register save eliminated.
  87 0000 0200     		movs	r2, r0
  88 0002 0C3A     		subs	r2, r2, #12
  89 0004 0300     		movs	r3, r0
  90 0006 002A     		cmp	r2, #0
  91 0008 1ADD     		ble	.L11
  92 000a 0100     		movs	r1, r0
  93 000c 0D39     		subs	r1, r1, #13
  94 000e 8A10     		asrs	r2, r1, #2
  95 0010 FF29     		cmp	r1, #255
  96 0012 1DDD     		ble	.L12
  97 0014 0200     		movs	r2, r0
  98 0016 093A     		subs	r2, r2, #9
  99 0018 FF3A     		subs	r2, r2, #255
 100 001a 002A     		cmp	r2, #0
 101 001c 16DD     		ble	.L13
 102 001e 013A     		subs	r2, r2, #1
 103 0020 D210     		asrs	r2, r2, #3
 104 0022 3F2A     		cmp	r2, #63
 105 0024 16DD     		ble	.L14
 106 0026 0C4A     		ldr	r2, .L16
 107 0028 8218     		adds	r2, r0, r2
 108 002a 0420     		movs	r0, #4
 109 002c 002A     		cmp	r2, #0
 110 002e 08DD     		ble	.L6
 111 0030 0A4A     		ldr	r2, .L16+4
 112 0032 BF20     		movs	r0, #191
 113 0034 9B18     		adds	r3, r3, r2
 114 0036 1A11     		asrs	r2, r3, #4
 115 0038 3F2A     		cmp	r2, #63
 116 003a 06DC     		bgt	.L10
 117 003c BB38     		subs	r0, r0, #187
 118 003e 01E0     		b	.L9
 119              	.L11:
ARM GAS  /tmp/ccnxOm1G.s 			page 3


 120 0040 0020     		movs	r0, #0
 121              	.L6:
 122 0042 0022     		movs	r2, #0
 123              	.L9:
 124 0044 4001     		lsls	r0, r0, #5
 125 0046 8018     		adds	r0, r0, r2
 126 0048 C0B2     		uxtb	r0, r0
 127              	.L10:
 128              		@ sp needed
 129 004a 7047     		bx	lr
 130              	.L13:
 131 004c 0220     		movs	r0, #2
 132 004e F8E7     		b	.L6
 133              	.L12:
 134 0050 0020     		movs	r0, #0
 135 0052 F7E7     		b	.L9
 136              	.L14:
 137 0054 0220     		movs	r0, #2
 138 0056 F5E7     		b	.L9
 139              	.L17:
 140              		.align	2
 141              	.L16:
 142 0058 00FDFFFF 		.word	-768
 143 005c FFFCFFFF 		.word	-769
 145              		.section	.rodata.ROSE_decWL.cst1,"aM",%progbits,1
 146              	.LC1:
 147 0000 BF       		.byte	-65
 148              		.section	.text.ROSE_decWL,"ax",%progbits
 149              		.align	1
 150              		.global	ROSE_decWL
 151              		.syntax unified
 152              		.code	16
 153              		.thumb_func
 154              		.fpu softvfp
 156              	ROSE_decWL:
 157              		@ args = 0, pretend = 0, frame = 0
 158              		@ frame_needed = 0, uses_anonymous_args = 0
 159 0000 10B5     		push	{r4, lr}
 160 0002 031C     		adds	r3, r0, #0
 161 0004 BF28     		cmp	r0, #191
 162 0006 01D9     		bls	.L19
 163 0008 0C4B     		ldr	r3, .L21
 164 000a 1B78     		ldrb	r3, [r3]
 165              	.L19:
 166 000c 0621     		movs	r1, #6
 167 000e 3F24     		movs	r4, #63
 168 0010 DBB2     		uxtb	r3, r3
 169 0012 5A09     		lsrs	r2, r3, #5
 170 0014 0A40     		ands	r2, r1
 171 0016 0A48     		ldr	r0, .L21+4
 172 0018 511C     		adds	r1, r2, #1
 173 001a 4900     		lsls	r1, r1, #1
 174 001c 095A     		ldrh	r1, [r1, r0]
 175 001e 2340     		ands	r3, r4
 176 0020 4B43     		muls	r3, r1
 177 0022 5200     		lsls	r2, r2, #1
 178 0024 125A     		ldrh	r2, [r2, r0]
ARM GAS  /tmp/ccnxOm1G.s 			page 4


 179 0026 9B18     		adds	r3, r3, r2
 180 0028 8022     		movs	r2, #128
 181 002a 9BB2     		uxth	r3, r3
 182 002c 181C     		adds	r0, r3, #0
 183 002e 9200     		lsls	r2, r2, #2
 184 0030 9342     		cmp	r3, r2
 185 0032 00D9     		bls	.L20
 186 0034 101C     		adds	r0, r2, #0
 187              	.L20:
 188 0036 80B2     		uxth	r0, r0
 189              		@ sp needed
 190 0038 10BD     		pop	{r4, pc}
 191              	.L22:
 192 003a C046     		.align	2
 193              	.L21:
 194 003c 00000000 		.word	.LC1
 195 0040 00000000 		.word	.LANCHOR0
 197              		.section	.text.ROSE_cipher,"ax",%progbits
 198              		.align	1
 199              		.global	ROSE_cipher
 200              		.syntax unified
 201              		.code	16
 202              		.thumb_func
 203              		.fpu softvfp
 205              	ROSE_cipher:
 206              		@ args = 0, pretend = 0, frame = 24
 207              		@ frame_needed = 0, uses_anonymous_args = 0
 208 0000 F0B5     		push	{r4, r5, r6, r7, lr}
 209 0002 87B0     		sub	sp, sp, #28
 210 0004 0F00     		movs	r7, r1
 211 0006 1600     		movs	r6, r2
 212 0008 1D00     		movs	r5, r3
 213 000a 0400     		movs	r4, r0
 214 000c FFF7FEFF 		bl	ROSE_rvec_len
 215 0010 204B     		ldr	r3, .L29
 216 0012 241A     		subs	r4, r4, r0
 217 0014 E318     		adds	r3, r4, r3
 218 0016 0F24     		movs	r4, #15
 219 0018 0293     		str	r3, [sp, #8]
 220 001a 0F23     		movs	r3, #15
 221 001c 3440     		ands	r4, r6
 222 001e 6519     		adds	r5, r4, r5
 223 0020 9E43     		bics	r6, r3
 224 0022 EBB2     		uxtb	r3, r5
 225 0024 0193     		str	r3, [sp, #4]
 226 0026 3B09     		lsrs	r3, r7, #4
 227 0028 1027     		movs	r7, #16
 228 002a 0493     		str	r3, [sp, #16]
 229              	.L24:
 230 002c 019B     		ldr	r3, [sp, #4]
 231 002e 9C42     		cmp	r4, r3
 232 0030 01D3     		bcc	.L28
 233 0032 07B0     		add	sp, sp, #28
 234              		@ sp needed
 235 0034 F0BD     		pop	{r4, r5, r6, r7, pc}
 236              	.L28:
 237 0036 002C     		cmp	r4, #0
ARM GAS  /tmp/ccnxOm1G.s 			page 5


 238 0038 0DD1     		bne	.L25
 239 003a 019B     		ldr	r3, [sp, #4]
 240 003c 0F2B     		cmp	r3, #15
 241 003e 0AD9     		bls	.L25
 242 0040 3300     		movs	r3, r6
 243 0042 3900     		movs	r1, r7
 244 0044 3000     		movs	r0, r6
 245 0046 049A     		ldr	r2, [sp, #16]
 246 0048 FFF7FEFF 		bl	ROSE_payload_encrypt.constprop.0
 247              	.L26:
 248 004c 0F23     		movs	r3, #15
 249 004e 0F34     		adds	r4, r4, #15
 250 0050 E4B2     		uxtb	r4, r4
 251 0052 9C43     		bics	r4, r3
 252 0054 EAE7     		b	.L24
 253              	.L25:
 254 0056 0F25     		movs	r5, #15
 255 0058 029B     		ldr	r3, [sp, #8]
 256 005a 2540     		ands	r5, r4
 257 005c 1B19     		adds	r3, r3, r4
 258 005e 0393     		str	r3, [sp, #12]
 259 0060 3319     		adds	r3, r6, r4
 260 0062 0593     		str	r3, [sp, #20]
 261 0064 019B     		ldr	r3, [sp, #4]
 262 0066 7D1B     		subs	r5, r7, r5
 263 0068 1B1B     		subs	r3, r3, r4
 264 006a 9D42     		cmp	r5, r3
 265 006c 00DD     		ble	.L27
 266 006e 1D00     		movs	r5, r3
 267              	.L27:
 268 0070 2A00     		movs	r2, r5
 269 0072 3119     		adds	r1, r6, r4
 270 0074 0398     		ldr	r0, [sp, #12]
 271 0076 FFF7FEFF 		bl	memcpy
 272 007a 029B     		ldr	r3, [sp, #8]
 273 007c 3900     		movs	r1, r7
 274 007e 1800     		movs	r0, r3
 275 0080 049A     		ldr	r2, [sp, #16]
 276 0082 FFF7FEFF 		bl	ROSE_payload_encrypt.constprop.0
 277 0086 2A00     		movs	r2, r5
 278 0088 0399     		ldr	r1, [sp, #12]
 279 008a 3019     		adds	r0, r6, r4
 280 008c FFF7FEFF 		bl	memcpy
 281 0090 DCE7     		b	.L26
 282              	.L30:
 283 0092 C046     		.align	2
 284              	.L29:
 285 0094 53040000 		.word	1107
 287              		.section	.rodata.ROSE_init.str1.1,"aMS",%progbits,1
 288              	.LC2:
 289 0000 6C626D2F 		.ascii	"lbm/smtc_modem_core/smtc_modem_services/src/stream/"
 289      736D7463 
 289      5F6D6F64 
 289      656D5F63 
 289      6F72652F 
 290 0033 726F7365 		.ascii	"rose.c\000"
 290      2E6300
ARM GAS  /tmp/ccnxOm1G.s 			page 6


 291              		.global	__aeabi_uidivmod
 292              		.global	__aeabi_idivmod
 293              	.LC4:
 294 003a 4552524F 		.ascii	"ERROR\000"
 294      5200
 295              	.LC6:
 296 0040 25732028 		.ascii	"%s (%s:%d) \000"
 296      25733A25 
 296      64292000 
 297              	.LC8:
 298 004c 524F5345 		.ascii	"ROSE_BAD_UNITSZ\012\000"
 298      5F424144 
 298      5F554E49 
 298      54535A0A 
 298      00
 299              	.LC10:
 300 005d 524F5345 		.ascii	"ROSE_NOMEM\012\000"
 300      5F4E4F4D 
 300      454D0A00 
 301              		.global	__aeabi_uidiv
 302              		.global	__aeabi_idiv
 303              		.section	.text.ROSE_init,"ax",%progbits
 304              		.align	1
 305              		.global	ROSE_init
 306              		.syntax unified
 307              		.code	16
 308              		.thumb_func
 309              		.fpu softvfp
 311              	ROSE_init:
 312              		@ args = 4, pretend = 0, frame = 8
 313              		@ frame_needed = 0, uses_anonymous_args = 0
 314 0000 F7B5     		push	{r0, r1, r2, r4, r5, r6, r7, lr}
 315 0002 0093     		str	r3, [sp]
 316 0004 08AB     		add	r3, sp, #32
 317 0006 1D78     		ldrb	r5, [r3]
 318 0008 0192     		str	r2, [sp, #4]
 319 000a 0F00     		movs	r7, r1
 320 000c 344A     		ldr	r2, .L44
 321 000e 0021     		movs	r1, #0
 322 0010 0400     		movs	r4, r0
 323 0012 FFF7FEFF 		bl	memset
 324 0016 6B1E     		subs	r3, r5, #1
 325 0018 012B     		cmp	r3, #1
 326 001a 03D9     		bls	.L32
 327 001c FB22     		movs	r2, #251
 328 001e 2B1F     		subs	r3, r5, #4
 329 0020 1342     		tst	r3, r2
 330 0022 06D1     		bne	.L33
 331              	.L32:
 332 0024 8820     		movs	r0, #136
 333 0026 2900     		movs	r1, r5
 334 0028 C000     		lsls	r0, r0, #3
 335 002a FFF7FEFF 		bl	__aeabi_idivmod
 336 002e 0E1E     		subs	r6, r1, #0
 337 0030 19D0     		beq	.L34
 338              	.L33:
 339 0032 2C4C     		ldr	r4, .L44+4
ARM GAS  /tmp/ccnxOm1G.s 			page 7


 340 0034 2F21     		movs	r1, #47
 341 0036 2000     		movs	r0, r4
 342 0038 FFF7FEFF 		bl	strrchr
 343 003c 2200     		movs	r2, r4
 344 003e 0028     		cmp	r0, #0
 345 0040 04D0     		beq	.L35
 346 0042 2F21     		movs	r1, #47
 347 0044 2000     		movs	r0, r4
 348 0046 FFF7FEFF 		bl	strrchr
 349 004a 421C     		adds	r2, r0, #1
 350              	.L35:
 351 004c 2823     		movs	r3, #40
 352 004e 2649     		ldr	r1, .L44+8
 353 0050 2648     		ldr	r0, .L44+12
 354 0052 FF33     		adds	r3, r3, #255
 355 0054 FFF7FEFF 		bl	smtc_modem_hal_print_trace
 356 0058 2548     		ldr	r0, .L44+16
 357 005a FFF7FEFF 		bl	smtc_modem_hal_print_trace
 358 005e 0426     		movs	r6, #4
 359              	.L43:
 360 0060 7642     		rsbs	r6, r6, #0
 361              	.L31:
 362 0062 3000     		movs	r0, r6
 363              		@ sp needed
 364 0064 FEBD     		pop	{r1, r2, r3, r4, r5, r6, r7, pc}
 365              	.L34:
 366 0066 3800     		movs	r0, r7
 367 0068 FFF7FEFF 		bl	ROSE_encWL
 368 006c FFF7FEFF 		bl	ROSE_decWL
 369 0070 A574     		strb	r5, [r4, #18]
 370 0072 4543     		muls	r5, r0
 371 0074 019B     		ldr	r3, [sp, #4]
 372 0076 A081     		strh	r0, [r4, #12]
 373 0078 0700     		movs	r7, r0
 374 007a 2000     		movs	r0, r4
 375 007c ED18     		adds	r5, r5, r3
 376 007e FFF7FEFF 		bl	ROSE_rvec_len
 377 0082 1C4B     		ldr	r3, .L44+20
 378 0084 1335     		adds	r5, r5, #19
 379 0086 201A     		subs	r0, r4, r0
 380 0088 6519     		adds	r5, r4, r5
 381 008a C018     		adds	r0, r0, r3
 382 008c 8542     		cmp	r5, r0
 383 008e 17D9     		bls	.L37
 384 0090 144C     		ldr	r4, .L44+4
 385 0092 2F21     		movs	r1, #47
 386 0094 2000     		movs	r0, r4
 387 0096 FFF7FEFF 		bl	strrchr
 388 009a 2200     		movs	r2, r4
 389 009c 0028     		cmp	r0, #0
 390 009e 04D0     		beq	.L38
 391 00a0 2F21     		movs	r1, #47
 392 00a2 2000     		movs	r0, r4
 393 00a4 FFF7FEFF 		bl	strrchr
 394 00a8 421C     		adds	r2, r0, #1
 395              	.L38:
 396 00aa 3023     		movs	r3, #48
ARM GAS  /tmp/ccnxOm1G.s 			page 8


 397 00ac 0E49     		ldr	r1, .L44+8
 398 00ae 0F48     		ldr	r0, .L44+12
 399 00b0 FF33     		adds	r3, r3, #255
 400 00b2 FFF7FEFF 		bl	smtc_modem_hal_print_trace
 401 00b6 1048     		ldr	r0, .L44+24
 402 00b8 FFF7FEFF 		bl	smtc_modem_hal_print_trace
 403 00bc 0226     		movs	r6, #2
 404 00be CFE7     		b	.L43
 405              	.L37:
 406 00c0 009B     		ldr	r3, [sp]
 407 00c2 6421     		movs	r1, #100
 408 00c4 1800     		movs	r0, r3
 409 00c6 7843     		muls	r0, r7
 410 00c8 E370     		strb	r3, [r4, #3]
 411 00ca 6330     		adds	r0, r0, #99
 412 00cc FFF7FEFF 		bl	__aeabi_uidiv
 413 00d0 8123     		movs	r3, #129
 414 00d2 1B01     		lsls	r3, r3, #4
 415 00d4 A060     		str	r0, [r4, #8]
 416 00d6 2782     		strh	r7, [r4, #16]
 417 00d8 E781     		strh	r7, [r4, #14]
 418 00da 6660     		str	r6, [r4, #4]
 419 00dc 2380     		strh	r3, [r4]
 420 00de C0E7     		b	.L31
 421              	.L45:
 422              		.align	2
 423              	.L44:
 424 00e0 54040000 		.word	1108
 425 00e4 00000000 		.word	.LC2
 426 00e8 3A000000 		.word	.LC4
 427 00ec 40000000 		.word	.LC6
 428 00f0 4C000000 		.word	.LC8
 429 00f4 53040000 		.word	1107
 430 00f8 5D000000 		.word	.LC10
 432              		.section	.text.ROSE_enable_encryption,"ax",%progbits
 433              		.align	1
 434              		.global	ROSE_enable_encryption
 435              		.syntax unified
 436              		.code	16
 437              		.thumb_func
 438              		.fpu softvfp
 440              	ROSE_enable_encryption:
 441              		@ args = 0, pretend = 0, frame = 0
 442              		@ frame_needed = 0, uses_anonymous_args = 0
 443              		@ link register save eliminated.
 444 0000 0378     		ldrb	r3, [r0]
 445 0002 102B     		cmp	r3, #16
 446 0004 03D1     		bne	.L48
 447 0006 0833     		adds	r3, r3, #8
 448 0008 0370     		strb	r3, [r0]
 449 000a 0020     		movs	r0, #0
 450              	.L47:
 451              		@ sp needed
 452 000c 7047     		bx	lr
 453              	.L48:
 454 000e 0720     		movs	r0, #7
 455 0010 4042     		rsbs	r0, r0, #0
ARM GAS  /tmp/ccnxOm1G.s 			page 9


 456 0012 FBE7     		b	.L47
 458              		.section	.text.ROSE_getSoff,"ax",%progbits
 459              		.align	1
 460              		.global	ROSE_getSoff
 461              		.syntax unified
 462              		.code	16
 463              		.thumb_func
 464              		.fpu softvfp
 466              	ROSE_getSoff:
 467              		@ args = 0, pretend = 0, frame = 0
 468              		@ frame_needed = 0, uses_anonymous_args = 0
 469              		@ link register save eliminated.
 470 0000 038A     		ldrh	r3, [r0, #16]
 471 0002 4168     		ldr	r1, [r0, #4]
 472 0004 C089     		ldrh	r0, [r0, #14]
 473 0006 5B18     		adds	r3, r3, r1
 474 0008 181A     		subs	r0, r3, r0
 475              		@ sp needed
 476 000a 7047     		bx	lr
 478              		.section	.text.ROSE_getFree,"ax",%progbits
 479              		.align	1
 480              		.global	ROSE_getFree
 481              		.syntax unified
 482              		.code	16
 483              		.thumb_func
 484              		.fpu softvfp
 486              	ROSE_getFree:
 487              		@ args = 0, pretend = 0, frame = 0
 488              		@ frame_needed = 0, uses_anonymous_args = 0
 489 0000 10B5     		push	{r4, lr}
 490 0002 0400     		movs	r4, r0
 491              		@ sp needed
 492 0004 FFF7FEFF 		bl	ROSE_rvec_len
 493 0008 044B     		ldr	r3, .L51
 494 000a 228A     		ldrh	r2, [r4, #16]
 495 000c 1B1A     		subs	r3, r3, r0
 496 000e A07C     		ldrb	r0, [r4, #18]
 497 0010 5043     		muls	r0, r2
 498 0012 1330     		adds	r0, r0, #19
 499 0014 181A     		subs	r0, r3, r0
 500 0016 80B2     		uxth	r0, r0
 501 0018 10BD     		pop	{r4, pc}
 502              	.L52:
 503 001a C046     		.align	2
 504              	.L51:
 505 001c 53040000 		.word	1107
 507              		.section	.text.ROSE_getPending,"ax",%progbits
 508              		.align	1
 509              		.global	ROSE_getPending
 510              		.syntax unified
 511              		.code	16
 512              		.thumb_func
 513              		.fpu softvfp
 515              	ROSE_getPending:
 516              		@ args = 0, pretend = 0, frame = 0
 517              		@ frame_needed = 0, uses_anonymous_args = 0
 518              		@ link register save eliminated.
ARM GAS  /tmp/ccnxOm1G.s 			page 10


 519 0000 0300     		movs	r3, r0
 520              		@ sp needed
 521 0002 008A     		ldrh	r0, [r0, #16]
 522 0004 DA89     		ldrh	r2, [r3, #14]
 523 0006 821A     		subs	r2, r0, r2
 524 0008 987C     		ldrb	r0, [r3, #18]
 525 000a 5043     		muls	r0, r2
 526 000c 80B2     		uxth	r0, r0
 527 000e 7047     		bx	lr
 529              		.section	.text.ROSE_getStatus,"ax",%progbits
 530              		.align	1
 531              		.global	ROSE_getStatus
 532              		.syntax unified
 533              		.code	16
 534              		.thumb_func
 535              		.fpu softvfp
 537              	ROSE_getStatus:
 538              		@ args = 0, pretend = 0, frame = 0
 539              		@ frame_needed = 0, uses_anonymous_args = 0
 540 0000 70B5     		push	{r4, r5, r6, lr}
 541 0002 028A     		ldrh	r2, [r0, #16]
 542 0004 C389     		ldrh	r3, [r0, #14]
 543 0006 0400     		movs	r4, r0
 544 0008 0220     		movs	r0, #2
 545 000a 9A42     		cmp	r2, r3
 546 000c 13D8     		bhi	.L54
 547 000e 2578     		ldrb	r5, [r4]
 548 0010 6B06     		lsls	r3, r5, #25
 549 0012 0BD5     		bpl	.L56
 550 0014 A389     		ldrh	r3, [r4, #12]
 551 0016 E078     		ldrb	r0, [r4, #3]
 552 0018 6421     		movs	r1, #100
 553 001a 5843     		muls	r0, r3
 554 001c 6330     		adds	r0, r0, #99
 555 001e FFF7FEFF 		bl	__aeabi_uidiv
 556 0022 A268     		ldr	r2, [r4, #8]
 557 0024 0300     		movs	r3, r0
 558 0026 0220     		movs	r0, #2
 559 0028 9A42     		cmp	r2, r3
 560 002a 04DB     		blt	.L54
 561              	.L56:
 562 002c 0620     		movs	r0, #6
 563 002e 0540     		ands	r5, r0
 564 0030 6B1E     		subs	r3, r5, #1
 565 0032 9D41     		sbcs	r5, r5, r3
 566 0034 681C     		adds	r0, r5, #1
 567              	.L54:
 568              		@ sp needed
 569 0036 70BD     		pop	{r4, r5, r6, pc}
 571              		.section	.rodata.ROSE_getData.str1.1,"aMS",%progbits,1
 572              	.LC13:
 573 0000 494E464F 		.ascii	"INFO\000"
 573      00
 574              	.LC16:
 575 0005 67657444 		.ascii	"getData %d redc %d sysc %d redc_target %d redcnt %d"
 575      61746120 
 575      25642072 
ARM GAS  /tmp/ccnxOm1G.s 			page 11


 575      65646320 
 575      25642073 
 576 0038 0A00     		.ascii	"\012\000"
 577              	.LC18:
 578 003a 4745543A 		.ascii	"GET: ROSE->redcnt %d redc %d\012\000"
 578      20524F53 
 578      452D3E72 
 578      6564636E 
 578      74202564 
 579              	.LC20:
 580 0058 44494C55 		.ascii	"DILUTE: ROSE->redcnt %d shift %d\012\000"
 580      54453A20 
 580      524F5345 
 580      2D3E7265 
 580      64636E74 
 581              		.section	.text.ROSE_getData,"ax",%progbits
 582              		.align	1
 583              		.global	ROSE_getData
 584              		.syntax unified
 585              		.code	16
 586              		.thumb_func
 587              		.fpu softvfp
 589              	ROSE_getData:
 590              		@ args = 0, pretend = 0, frame = 56
 591              		@ frame_needed = 0, uses_anonymous_args = 0
 592 0000 F0B5     		push	{r4, r5, r6, r7, lr}
 593 0002 91B0     		sub	sp, sp, #68
 594 0004 0493     		str	r3, [sp, #16]
 595 0006 0378     		ldrb	r3, [r0]
 596 0008 0392     		str	r2, [sp, #12]
 597 000a 0693     		str	r3, [sp, #24]
 598 000c 0623     		movs	r3, #6
 599 000e 069A     		ldr	r2, [sp, #24]
 600 0010 0400     		movs	r4, r0
 601 0012 1A40     		ands	r2, r3
 602 0014 0A92     		str	r2, [sp, #40]
 603 0016 049A     		ldr	r2, [sp, #16]
 604 0018 0C91     		str	r1, [sp, #48]
 605 001a 1078     		ldrb	r0, [r2]
 606 001c 069A     		ldr	r2, [sp, #24]
 607 001e 1A42     		tst	r2, r3
 608 0020 37D0     		beq	.L64
 609 0022 0828     		cmp	r0, #8
 610 0024 05D8     		bhi	.L65
 611              	.L66:
 612 0026 0023     		movs	r3, #0
 613 0028 0320     		movs	r0, #3
 614 002a 049A     		ldr	r2, [sp, #16]
 615 002c 1370     		strb	r3, [r2]
 616              	.L123:
 617 002e 4042     		rsbs	r0, r0, #0
 618 0030 54E0     		b	.L63
 619              	.L65:
 620 0032 A27C     		ldrb	r2, [r4, #18]
 621 0034 0023     		movs	r3, #0
 622 0036 012A     		cmp	r2, #1
 623 0038 06D0     		beq	.L68
ARM GAS  /tmp/ccnxOm1G.s 			page 12


 624 003a 0133     		adds	r3, r3, #1
 625 003c 022A     		cmp	r2, #2
 626 003e 03D0     		beq	.L68
 627 0040 131F     		subs	r3, r2, #4
 628 0042 5A1E     		subs	r2, r3, #1
 629 0044 9341     		sbcs	r3, r3, r2
 630 0046 0233     		adds	r3, r3, #2
 631              	.L68:
 632 0048 FF22     		movs	r2, #255
 633 004a 0399     		ldr	r1, [sp, #12]
 634 004c 5B00     		lsls	r3, r3, #1
 635 004e 0A70     		strb	r2, [r1]
 636 0050 2278     		ldrb	r2, [r4]
 637 0052 5207     		lsls	r2, r2, #29
 638 0054 D20F     		lsrs	r2, r2, #31
 639 0056 1343     		orrs	r3, r2
 640 0058 4B70     		strb	r3, [r1, #1]
 641 005a A089     		ldrh	r0, [r4, #12]
 642 005c FFF7FEFF 		bl	ROSE_encWL
 643 0060 039B     		ldr	r3, [sp, #12]
 644 0062 039A     		ldr	r2, [sp, #12]
 645 0064 9870     		strb	r0, [r3, #2]
 646 0066 E378     		ldrb	r3, [r4, #3]
 647 0068 0399     		ldr	r1, [sp, #12]
 648 006a D370     		strb	r3, [r2, #3]
 649 006c 6378     		ldrb	r3, [r4, #1]
 650 006e 1372     		strb	r3, [r2, #8]
 651 0070 6368     		ldr	r3, [r4, #4]
 652 0072 1371     		strb	r3, [r2, #4]
 653 0074 1A0A     		lsrs	r2, r3, #8
 654 0076 4A71     		strb	r2, [r1, #5]
 655 0078 1A0C     		lsrs	r2, r3, #16
 656 007a 1B0E     		lsrs	r3, r3, #24
 657 007c CB71     		strb	r3, [r1, #7]
 658 007e 0923     		movs	r3, #9
 659 0080 8A71     		strb	r2, [r1, #6]
 660 0082 049A     		ldr	r2, [sp, #16]
 661 0084 1370     		strb	r3, [r2]
 662 0086 0222     		movs	r2, #2
 663 0088 2378     		ldrb	r3, [r4]
 664 008a 9343     		bics	r3, r2
 665 008c 2370     		strb	r3, [r4]
 666              	.L124:
 667 008e 0020     		movs	r0, #0
 668 0090 24E0     		b	.L63
 669              	.L64:
 670 0092 6368     		ldr	r3, [r4, #4]
 671 0094 0593     		str	r3, [sp, #20]
 672 0096 A378     		ldrb	r3, [r4, #2]
 673 0098 002B     		cmp	r3, #0
 674 009a 01D1     		bne	.L69
 675 009c 0333     		adds	r3, r3, #3
 676 009e 0A93     		str	r3, [sp, #40]
 677              	.L69:
 678 00a0 0A9B     		ldr	r3, [sp, #40]
 679 00a2 A77C     		ldrb	r7, [r4, #18]
 680 00a4 0338     		subs	r0, r0, #3
ARM GAS  /tmp/ccnxOm1G.s 			page 13


 681 00a6 3900     		movs	r1, r7
 682 00a8 C01A     		subs	r0, r0, r3
 683 00aa FFF7FEFF 		bl	__aeabi_idiv
 684 00ae 051E     		subs	r5, r0, #0
 685 00b0 B9DD     		ble	.L66
 686 00b2 238A     		ldrh	r3, [r4, #16]
 687 00b4 E189     		ldrh	r1, [r4, #14]
 688 00b6 A689     		ldrh	r6, [r4, #12]
 689 00b8 0293     		str	r3, [sp, #8]
 690 00ba B142     		cmp	r1, r6
 691 00bc 00D3     		bcc	.LCB702
 692 00be 9FE0     		b	.L70	@long jump
 693              	.LCB702:
 694 00c0 9E42     		cmp	r6, r3
 695 00c2 03D8     		bhi	.L71
 696 00c4 069B     		ldr	r3, [sp, #24]
 697 00c6 DB07     		lsls	r3, r3, #31
 698 00c8 00D5     		bpl	.LCB710
 699 00ca 93E0     		b	.L72	@long jump
 700              	.LCB710:
 701              	.L71:
 702 00cc 029B     		ldr	r3, [sp, #8]
 703 00ce 5B1A     		subs	r3, r3, r1
 704 00d0 00D5     		bpl	.LCB715
 705 00d2 8FE1     		b	.L103	@long jump
 706              	.LCB715:
 707 00d4 04D1     		bne	.L73
 708              	.L98:
 709 00d6 0020     		movs	r0, #0
 710 00d8 049B     		ldr	r3, [sp, #16]
 711 00da 1870     		strb	r0, [r3]
 712              	.L63:
 713 00dc 11B0     		add	sp, sp, #68
 714              		@ sp needed
 715 00de F0BD     		pop	{r4, r5, r6, r7, pc}
 716              	.L73:
 717 00e0 7E2B     		cmp	r3, #126
 718 00e2 00DD     		ble	.L74
 719 00e4 7E23     		movs	r3, #126
 720              	.L74:
 721 00e6 0295     		str	r5, [sp, #8]
 722 00e8 9D42     		cmp	r5, r3
 723 00ea 00DD     		ble	.L75
 724 00ec 0293     		str	r3, [sp, #8]
 725              	.L75:
 726 00ee 029A     		ldr	r2, [sp, #8]
 727 00f0 7943     		muls	r1, r7
 728 00f2 7A43     		muls	r2, r7
 729 00f4 0027     		movs	r7, #0
 730 00f6 039B     		ldr	r3, [sp, #12]
 731 00f8 1331     		adds	r1, r1, #19
 732 00fa D81C     		adds	r0, r3, #3
 733 00fc 6118     		adds	r1, r4, r1
 734 00fe FFF7FEFF 		bl	memcpy
 735 0102 E389     		ldrh	r3, [r4, #14]
 736 0104 029A     		ldr	r2, [sp, #8]
 737 0106 9B18     		adds	r3, r3, r2
ARM GAS  /tmp/ccnxOm1G.s 			page 14


 738 0108 E381     		strh	r3, [r4, #14]
 739 010a 6368     		ldr	r3, [r4, #4]
 740 010c 9B18     		adds	r3, r3, r2
 741 010e 6360     		str	r3, [r4, #4]
 742              	.L76:
 743 0110 E289     		ldrh	r2, [r4, #14]
 744 0112 A189     		ldrh	r1, [r4, #12]
 745 0114 8A42     		cmp	r2, r1
 746 0116 38D9     		bls	.L96
 747 0118 238A     		ldrh	r3, [r4, #16]
 748 011a 561A     		subs	r6, r2, r1
 749 011c CB18     		adds	r3, r1, r3
 750 011e 9B1A     		subs	r3, r3, r2
 751 0120 2382     		strh	r3, [r4, #16]
 752 0122 B0B2     		uxth	r0, r6
 753 0124 A368     		ldr	r3, [r4, #8]
 754 0126 081A     		subs	r0, r1, r0
 755 0128 5843     		muls	r0, r3
 756 012a E181     		strh	r1, [r4, #14]
 757 012c FFF7FEFF 		bl	__aeabi_idiv
 758 0130 B14D     		ldr	r5, .L125
 759 0132 A060     		str	r0, [r4, #8]
 760 0134 2F21     		movs	r1, #47
 761 0136 2800     		movs	r0, r5
 762 0138 FFF7FEFF 		bl	strrchr
 763 013c 2A00     		movs	r2, r5
 764 013e 0028     		cmp	r0, #0
 765 0140 04D0     		beq	.L97
 766 0142 2F21     		movs	r1, #47
 767 0144 2800     		movs	r0, r5
 768 0146 FFF7FEFF 		bl	strrchr
 769 014a 421C     		adds	r2, r0, #1
 770              	.L97:
 771 014c F323     		movs	r3, #243
 772 014e AB49     		ldr	r1, .L125+4
 773 0150 5B00     		lsls	r3, r3, #1
 774 0152 AB48     		ldr	r0, .L125+8
 775 0154 FFF7FEFF 		bl	smtc_modem_hal_print_trace
 776 0158 3200     		movs	r2, r6
 777 015a A168     		ldr	r1, [r4, #8]
 778 015c A948     		ldr	r0, .L125+12
 779 015e FFF7FEFF 		bl	smtc_modem_hal_print_trace
 780 0162 2000     		movs	r0, r4
 781 0164 A17C     		ldrb	r1, [r4, #18]
 782 0166 228A     		ldrh	r2, [r4, #16]
 783 0168 1330     		adds	r0, r0, #19
 784 016a 4A43     		muls	r2, r1
 785 016c 7143     		muls	r1, r6
 786 016e 1331     		adds	r1, r1, #19
 787 0170 6118     		adds	r1, r4, r1
 788 0172 FFF7FEFF 		bl	memmove
 789 0176 3200     		movs	r2, r6
 790 0178 A07C     		ldrb	r0, [r4, #18]
 791 017a 238A     		ldrh	r3, [r4, #16]
 792 017c 4243     		muls	r2, r0
 793 017e 5843     		muls	r0, r3
 794 0180 1330     		adds	r0, r0, #19
ARM GAS  /tmp/ccnxOm1G.s 			page 15


 795 0182 0021     		movs	r1, #0
 796 0184 2018     		adds	r0, r4, r0
 797 0186 FFF7FEFF 		bl	memset
 798              	.L96:
 799 018a 029B     		ldr	r3, [sp, #8]
 800 018c DF19     		adds	r7, r3, r7
 801 018e 002F     		cmp	r7, #0
 802 0190 A1D0     		beq	.L98
 803 0192 A37C     		ldrb	r3, [r4, #18]
 804 0194 039A     		ldr	r2, [sp, #12]
 805 0196 5F43     		muls	r7, r3
 806 0198 049B     		ldr	r3, [sp, #16]
 807 019a 0337     		adds	r7, r7, #3
 808 019c 1F70     		strb	r7, [r3]
 809 019e 6B46     		mov	r3, sp
 810 01a0 0599     		ldr	r1, [sp, #20]
 811 01a2 1B7A     		ldrb	r3, [r3, #8]
 812 01a4 5170     		strb	r1, [r2, #1]
 813 01a6 1370     		strb	r3, [r2]
 814 01a8 6A46     		mov	r2, sp
 815 01aa 928A     		ldrh	r2, [r2, #20]
 816 01ac 0399     		ldr	r1, [sp, #12]
 817 01ae 120A     		lsrs	r2, r2, #8
 818 01b0 8A70     		strb	r2, [r1, #2]
 819 01b2 0A9A     		ldr	r2, [sp, #40]
 820 01b4 002A     		cmp	r2, #0
 821 01b6 15D0     		beq	.L99
 822 01b8 8022     		movs	r2, #128
 823 01ba 5242     		rsbs	r2, r2, #0
 824 01bc 1343     		orrs	r3, r2
 825 01be 0B70     		strb	r3, [r1]
 826 01c0 049B     		ldr	r3, [sp, #16]
 827 01c2 049A     		ldr	r2, [sp, #16]
 828 01c4 1D78     		ldrb	r5, [r3]
 829 01c6 EB1C     		adds	r3, r5, #3
 830 01c8 1370     		strb	r3, [r2]
 831 01ca A089     		ldrh	r0, [r4, #12]
 832 01cc 4E19     		adds	r6, r1, r5
 833 01ce FFF7FEFF 		bl	ROSE_encWL
 834 01d2 039B     		ldr	r3, [sp, #12]
 835 01d4 0135     		adds	r5, r5, #1
 836 01d6 5D19     		adds	r5, r3, r5
 837 01d8 059B     		ldr	r3, [sp, #20]
 838 01da 3070     		strb	r0, [r6]
 839 01dc 1B0C     		lsrs	r3, r3, #16
 840 01de 2B70     		strb	r3, [r5]
 841 01e0 1B0A     		lsrs	r3, r3, #8
 842 01e2 6B70     		strb	r3, [r5, #1]
 843              	.L99:
 844 01e4 A078     		ldrb	r0, [r4, #2]
 845 01e6 6178     		ldrb	r1, [r4, #1]
 846 01e8 0130     		adds	r0, r0, #1
 847 01ea 0131     		adds	r1, r1, #1
 848 01ec FFF7FEFF 		bl	__aeabi_idivmod
 849 01f0 A170     		strb	r1, [r4, #2]
 850 01f2 4CE7     		b	.L124
 851              	.L72:
ARM GAS  /tmp/ccnxOm1G.s 			page 16


 852 01f4 059B     		ldr	r3, [sp, #20]
 853 01f6 711A     		subs	r1, r6, r1
 854 01f8 5B18     		adds	r3, r3, r1
 855 01fa 0593     		str	r3, [sp, #20]
 856 01fc 6360     		str	r3, [r4, #4]
 857 01fe E681     		strh	r6, [r4, #14]
 858              	.L70:
 859 0200 E078     		ldrb	r0, [r4, #3]
 860 0202 6421     		movs	r1, #100
 861 0204 7043     		muls	r0, r6
 862 0206 6330     		adds	r0, r0, #99
 863 0208 FFF7FEFF 		bl	__aeabi_uidiv
 864 020c A168     		ldr	r1, [r4, #8]
 865 020e E389     		ldrh	r3, [r4, #14]
 866 0210 471A     		subs	r7, r0, r1
 867 0212 FA43     		mvns	r2, r7
 868 0214 D217     		asrs	r2, r2, #31
 869 0216 0790     		str	r0, [sp, #28]
 870 0218 1740     		ands	r7, r2
 871 021a B742     		cmp	r7, r6
 872 021c 00DD     		ble	.L78
 873 021e 3700     		movs	r7, r6
 874              	.L78:
 875 0220 BD42     		cmp	r5, r7
 876 0222 50DB     		blt	.L104
 877 0224 029A     		ldr	r2, [sp, #8]
 878 0226 D31A     		subs	r3, r2, r3
 879 0228 7E2B     		cmp	r3, #126
 880 022a 00DD     		ble	.L80
 881 022c 7E23     		movs	r3, #126
 882              	.L80:
 883 022e EA1B     		subs	r2, r5, r7
 884 0230 0293     		str	r3, [sp, #8]
 885 0232 9342     		cmp	r3, r2
 886 0234 00DD     		ble	.L81
 887 0236 0292     		str	r2, [sp, #8]
 888              	.L81:
 889 0238 029B     		ldr	r3, [sp, #8]
 890 023a FB18     		adds	r3, r7, r3
 891 023c AB42     		cmp	r3, r5
 892 023e 09DA     		bge	.L79
 893 0240 3023     		movs	r3, #48
 894 0242 069A     		ldr	r2, [sp, #24]
 895 0244 1A40     		ands	r2, r3
 896 0246 202A     		cmp	r2, #32
 897 0248 04D1     		bne	.L79
 898 024a 029B     		ldr	r3, [sp, #8]
 899 024c EF1A     		subs	r7, r5, r3
 900 024e B742     		cmp	r7, r6
 901 0250 00DD     		ble	.L79
 902 0252 3700     		movs	r7, r6
 903              	.L79:
 904 0254 684D     		ldr	r5, .L125
 905 0256 2F21     		movs	r1, #47
 906 0258 2800     		movs	r0, r5
 907 025a FFF7FEFF 		bl	strrchr
 908 025e 2A00     		movs	r2, r5
ARM GAS  /tmp/ccnxOm1G.s 			page 17


 909 0260 0028     		cmp	r0, #0
 910 0262 04D0     		beq	.L83
 911 0264 2F21     		movs	r1, #47
 912 0266 2800     		movs	r0, r5
 913 0268 FFF7FEFF 		bl	strrchr
 914 026c 421C     		adds	r2, r0, #1
 915              	.L83:
 916 026e E823     		movs	r3, #232
 917 0270 6249     		ldr	r1, .L125+4
 918 0272 6348     		ldr	r0, .L125+8
 919 0274 5B00     		lsls	r3, r3, #1
 920 0276 FFF7FEFF 		bl	smtc_modem_hal_print_trace
 921 027a A368     		ldr	r3, [r4, #8]
 922 027c 3A00     		movs	r2, r7
 923 027e 0193     		str	r3, [sp, #4]
 924 0280 079B     		ldr	r3, [sp, #28]
 925 0282 0C99     		ldr	r1, [sp, #48]
 926 0284 0093     		str	r3, [sp]
 927 0286 6048     		ldr	r0, .L125+16
 928 0288 029B     		ldr	r3, [sp, #8]
 929 028a FFF7FEFF 		bl	smtc_modem_hal_print_trace
 930 028e 029B     		ldr	r3, [sp, #8]
 931 0290 002B     		cmp	r3, #0
 932 0292 11D0     		beq	.L84
 933 0294 1A00     		movs	r2, r3
 934 0296 A17C     		ldrb	r1, [r4, #18]
 935 0298 E389     		ldrh	r3, [r4, #14]
 936 029a 4A43     		muls	r2, r1
 937 029c 5943     		muls	r1, r3
 938 029e 039B     		ldr	r3, [sp, #12]
 939 02a0 1331     		adds	r1, r1, #19
 940 02a2 D81C     		adds	r0, r3, #3
 941 02a4 6118     		adds	r1, r4, r1
 942 02a6 FFF7FEFF 		bl	memcpy
 943 02aa E389     		ldrh	r3, [r4, #14]
 944 02ac 029A     		ldr	r2, [sp, #8]
 945 02ae 9B18     		adds	r3, r3, r2
 946 02b0 E381     		strh	r3, [r4, #14]
 947 02b2 6368     		ldr	r3, [r4, #4]
 948 02b4 9B18     		adds	r3, r3, r2
 949 02b6 6360     		str	r3, [r4, #4]
 950              	.L84:
 951 02b8 002F     		cmp	r7, #0
 952 02ba 08D1     		bne	.L85
 953              	.L95:
 954 02bc 1022     		movs	r2, #16
 955 02be 2378     		ldrb	r3, [r4]
 956 02c0 9343     		bics	r3, r2
 957 02c2 2370     		strb	r3, [r4]
 958 02c4 24E7     		b	.L76
 959              	.L104:
 960 02c6 0023     		movs	r3, #0
 961 02c8 2F00     		movs	r7, r5
 962 02ca 0293     		str	r3, [sp, #8]
 963 02cc C2E7     		b	.L79
 964              	.L85:
 965 02ce A368     		ldr	r3, [r4, #8]
ARM GAS  /tmp/ccnxOm1G.s 			page 18


 966 02d0 079A     		ldr	r2, [sp, #28]
 967 02d2 FB18     		adds	r3, r7, r3
 968 02d4 9342     		cmp	r3, r2
 969 02d6 00DD     		ble	.L86
 970 02d8 1300     		movs	r3, r2
 971              	.L86:
 972 02da 474D     		ldr	r5, .L125
 973 02dc 2F21     		movs	r1, #47
 974 02de 2800     		movs	r0, r5
 975 02e0 A360     		str	r3, [r4, #8]
 976 02e2 FFF7FEFF 		bl	strrchr
 977 02e6 2A00     		movs	r2, r5
 978 02e8 0028     		cmp	r0, #0
 979 02ea 04D0     		beq	.L87
 980 02ec 2F21     		movs	r1, #47
 981 02ee 2800     		movs	r0, r5
 982 02f0 FFF7FEFF 		bl	strrchr
 983 02f4 421C     		adds	r2, r0, #1
 984              	.L87:
 985 02f6 DC23     		movs	r3, #220
 986 02f8 4049     		ldr	r1, .L125+4
 987 02fa FF33     		adds	r3, r3, #255
 988 02fc 4048     		ldr	r0, .L125+8
 989 02fe FFF7FEFF 		bl	smtc_modem_hal_print_trace
 990 0302 A168     		ldr	r1, [r4, #8]
 991 0304 3A00     		movs	r2, r7
 992 0306 4148     		ldr	r0, .L125+20
 993 0308 FFF7FEFF 		bl	smtc_modem_hal_print_trace
 994 030c A57C     		ldrb	r5, [r4, #18]
 995 030e 029B     		ldr	r3, [sp, #8]
 996 0310 039A     		ldr	r2, [sp, #12]
 997 0312 6B43     		muls	r3, r5
 998 0314 0333     		adds	r3, r3, #3
 999 0316 D318     		adds	r3, r2, r3
 1000 0318 0993     		str	r3, [sp, #36]
 1001 031a A389     		ldrh	r3, [r4, #12]
 1002 031c 2000     		movs	r0, r4
 1003 031e 0693     		str	r3, [sp, #24]
 1004 0320 069A     		ldr	r2, [sp, #24]
 1005 0322 013B     		subs	r3, r3, #1
 1006 0324 1340     		ands	r3, r2
 1007 0326 5A42     		rsbs	r2, r3, #0
 1008 0328 5341     		adcs	r3, r3, r2
 1009 032a 069A     		ldr	r2, [sp, #24]
 1010 032c 9B18     		adds	r3, r3, r2
 1011 032e 0E93     		str	r3, [sp, #56]
 1012 0330 FFF7FEFF 		bl	ROSE_rvec_len
 1013 0334 364B     		ldr	r3, .L125+24
 1014 0336 201A     		subs	r0, r4, r0
 1015 0338 C318     		adds	r3, r0, r3
 1016 033a FAB2     		uxtb	r2, r7
 1017 033c 0893     		str	r3, [sp, #32]
 1018 033e 0021     		movs	r1, #0
 1019 0340 FBB2     		uxtb	r3, r7
 1020 0342 6A43     		muls	r2, r5
 1021 0344 0998     		ldr	r0, [sp, #36]
 1022 0346 0D93     		str	r3, [sp, #52]
ARM GAS  /tmp/ccnxOm1G.s 			page 19


 1023 0348 FFF7FEFF 		bl	memset
 1024 034c 069B     		ldr	r3, [sp, #24]
 1025 034e 5B08     		lsrs	r3, r3, #1
 1026 0350 0F93     		str	r3, [sp, #60]
 1027 0352 0023     		movs	r3, #0
 1028              	.L122:
 1029 0354 0793     		str	r3, [sp, #28]
 1030 0356 079A     		ldr	r2, [sp, #28]
 1031 0358 0D9B     		ldr	r3, [sp, #52]
 1032 035a 9342     		cmp	r3, r2
 1033 035c AED0     		beq	.L95
 1034 035e 079B     		ldr	r3, [sp, #28]
 1035 0360 0C9A     		ldr	r2, [sp, #48]
 1036 0362 2C4D     		ldr	r5, .L125+28
 1037 0364 1B02     		lsls	r3, r3, #8
 1038 0366 5340     		eors	r3, r2
 1039 0368 5D43     		muls	r5, r3
 1040 036a 294B     		ldr	r3, .L125+24
 1041 036c 0021     		movs	r1, #0
 1042 036e E218     		adds	r2, r4, r3
 1043 0370 089B     		ldr	r3, [sp, #32]
 1044 0372 0135     		adds	r5, r5, #1
 1045 0374 1800     		movs	r0, r3
 1046 0376 D21A     		subs	r2, r2, r3
 1047 0378 FFF7FEFF 		bl	memset
 1048 037c 0023     		movs	r3, #0
 1049 037e 0B93     		str	r3, [sp, #44]
 1050              	.L89:
 1051 0380 0B9B     		ldr	r3, [sp, #44]
 1052 0382 0F9A     		ldr	r2, [sp, #60]
 1053 0384 9342     		cmp	r3, r2
 1054 0386 02D3     		bcc	.L90
 1055 0388 079B     		ldr	r3, [sp, #28]
 1056 038a 0133     		adds	r3, r3, #1
 1057 038c E2E7     		b	.L122
 1058              	.L90:
 1059 038e 8022     		movs	r2, #128
 1060 0390 6B09     		lsrs	r3, r5, #5
 1061 0392 6B40     		eors	r3, r5
 1062 0394 D203     		lsls	r2, r2, #15
 1063 0396 9B05     		lsls	r3, r3, #22
 1064 0398 1340     		ands	r3, r2
 1065 039a 6D08     		lsrs	r5, r5, #1
 1066 039c 5D19     		adds	r5, r3, r5
 1067 039e 2800     		movs	r0, r5
 1068 03a0 0E99     		ldr	r1, [sp, #56]
 1069 03a2 FFF7FEFF 		bl	__aeabi_uidivmod
 1070 03a6 069B     		ldr	r3, [sp, #24]
 1071 03a8 8B42     		cmp	r3, r1
 1072 03aa F0D9     		bls	.L90
 1073 03ac 0723     		movs	r3, #7
 1074 03ae 0122     		movs	r2, #1
 1075 03b0 0B40     		ands	r3, r1
 1076 03b2 9A40     		lsls	r2, r2, r3
 1077 03b4 0898     		ldr	r0, [sp, #32]
 1078 03b6 089E     		ldr	r6, [sp, #32]
 1079 03b8 CB08     		lsrs	r3, r1, #3
ARM GAS  /tmp/ccnxOm1G.s 			page 20


 1080 03ba C018     		adds	r0, r0, r3
 1081 03bc F35C     		ldrb	r3, [r6, r3]
 1082 03be 1A42     		tst	r2, r3
 1083 03c0 DED1     		bne	.L89
 1084 03c2 1343     		orrs	r3, r2
 1085 03c4 0370     		strb	r3, [r0]
 1086 03c6 A37C     		ldrb	r3, [r4, #18]
 1087 03c8 0B9E     		ldr	r6, [sp, #44]
 1088 03ca 1800     		movs	r0, r3
 1089 03cc 079A     		ldr	r2, [sp, #28]
 1090 03ce 5943     		muls	r1, r3
 1091 03d0 5043     		muls	r0, r2
 1092 03d2 0136     		adds	r6, r6, #1
 1093 03d4 0B96     		str	r6, [sp, #44]
 1094 03d6 099E     		ldr	r6, [sp, #36]
 1095 03d8 099A     		ldr	r2, [sp, #36]
 1096 03da F318     		adds	r3, r6, r3
 1097 03dc 1218     		adds	r2, r2, r0
 1098 03de 6118     		adds	r1, r4, r1
 1099 03e0 1B18     		adds	r3, r3, r0
 1100              	.L92:
 1101 03e2 0131     		adds	r1, r1, #1
 1102 03e4 9A42     		cmp	r2, r3
 1103 03e6 CBD0     		beq	.L89
 1104 03e8 1078     		ldrb	r0, [r2]
 1105 03ea 8E7C     		ldrb	r6, [r1, #18]
 1106 03ec 7040     		eors	r0, r6
 1107 03ee 1070     		strb	r0, [r2]
 1108 03f0 0132     		adds	r2, r2, #1
 1109 03f2 F6E7     		b	.L92
 1110              	.L103:
 1111 03f4 0120     		movs	r0, #1
 1112 03f6 1AE6     		b	.L123
 1113              	.L126:
 1114              		.align	2
 1115              	.L125:
 1116 03f8 00000000 		.word	.LC2
 1117 03fc 00000000 		.word	.LC13
 1118 0400 40000000 		.word	.LC6
 1119 0404 58000000 		.word	.LC20
 1120 0408 05000000 		.word	.LC16
 1121 040c 3A000000 		.word	.LC18
 1122 0410 53040000 		.word	1107
 1123 0414 E9030000 		.word	1001
 1125              		.section	.rodata.ROSE_processDnFrame.str1.1,"aMS",%progbits,1
 1126              	.LC23:
 1127 0000 5741524E 		.ascii	"WARN\000"
 1127      00
 1128              	.LC26:
 1129 0005 49676E6F 		.ascii	"Ignoring WL increase to avoid overwriting pending d"
 1129      72696E67 
 1129      20574C20 
 1129      696E6372 
 1129      65617365 
 1130 0038 6174610A 		.ascii	"ata\012\000"
 1130      00
 1131              	.LC29:
ARM GAS  /tmp/ccnxOm1G.s 			page 21


 1132 003d 4E455720 		.ascii	"NEW WL: ROSE->wl %d\012\000"
 1132      574C3A20 
 1132      524F5345 
 1132      2D3E776C 
 1132      2025640A 
 1133              		.section	.text.ROSE_processDnFrame,"ax",%progbits
 1134              		.align	1
 1135              		.global	ROSE_processDnFrame
 1136              		.syntax unified
 1137              		.code	16
 1138              		.thumb_func
 1139              		.fpu softvfp
 1141              	ROSE_processDnFrame:
 1142              		@ args = 0, pretend = 0, frame = 8
 1143              		@ frame_needed = 0, uses_anonymous_args = 0
 1144 0000 F7B5     		push	{r0, r1, r2, r4, r5, r6, r7, lr}
 1145 0002 0D78     		ldrb	r5, [r1]
 1146 0004 0400     		movs	r4, r0
 1147 0006 0091     		str	r1, [sp]
 1148 0008 EB07     		lsls	r3, r5, #31
 1149 000a 00D4     		bmi	.LCB1210
 1150 000c 9DE0     		b	.L139	@long jump
 1151              	.LCB1210:
 1152 000e 042A     		cmp	r2, #4
 1153 0010 00D0     		beq	.LCB1212
 1154 0012 9AE0     		b	.L139	@long jump
 1155              	.LCB1212:
 1156 0014 0223     		movs	r3, #2
 1157 0016 1D42     		tst	r5, r3
 1158 0018 02D0     		beq	.L129
 1159 001a 0278     		ldrb	r2, [r0]
 1160 001c 1343     		orrs	r3, r2
 1161 001e 0370     		strb	r3, [r0]
 1162              	.L129:
 1163 0020 EB06     		lsls	r3, r5, #27
 1164 0022 02D5     		bpl	.L130
 1165 0024 009B     		ldr	r3, [sp]
 1166 0026 9B78     		ldrb	r3, [r3, #2]
 1167 0028 E370     		strb	r3, [r4, #3]
 1168              	.L130:
 1169 002a AB06     		lsls	r3, r5, #26
 1170 002c 02D5     		bpl	.L131
 1171 002e 009B     		ldr	r3, [sp]
 1172 0030 DB78     		ldrb	r3, [r3, #3]
 1173 0032 6370     		strb	r3, [r4, #1]
 1174              	.L131:
 1175 0034 2B07     		lsls	r3, r5, #28
 1176 0036 29D5     		bpl	.L132
 1177 0038 009B     		ldr	r3, [sp]
 1178 003a 5878     		ldrb	r0, [r3, #1]
 1179 003c FFF7FEFF 		bl	ROSE_decWL
 1180 0040 1023     		movs	r3, #16
 1181 0042 0600     		movs	r6, r0
 1182 0044 7828     		cmp	r0, #120
 1183 0046 01DD     		ble	.L133
 1184 0048 C31D     		adds	r3, r0, #7
 1185 004a DB10     		asrs	r3, r3, #3
ARM GAS  /tmp/ccnxOm1G.s 			page 22


 1186              	.L133:
 1187 004c A17C     		ldrb	r1, [r4, #18]
 1188 004e 228A     		ldrh	r2, [r4, #16]
 1189 0050 0800     		movs	r0, r1
 1190 0052 5043     		muls	r0, r2
 1191 0054 3E4F     		ldr	r7, .L160
 1192 0056 1330     		adds	r0, r0, #19
 1193 0058 FB1A     		subs	r3, r7, r3
 1194 005a 2018     		adds	r0, r4, r0
 1195 005c E318     		adds	r3, r4, r3
 1196 005e 9842     		cmp	r0, r3
 1197 0060 24D9     		bls	.L134
 1198 0062 3C4E     		ldr	r6, .L160+4
 1199 0064 2F21     		movs	r1, #47
 1200 0066 3000     		movs	r0, r6
 1201 0068 FFF7FEFF 		bl	strrchr
 1202 006c 3200     		movs	r2, r6
 1203 006e 0028     		cmp	r0, #0
 1204 0070 04D0     		beq	.L135
 1205 0072 2F21     		movs	r1, #47
 1206 0074 3000     		movs	r0, r6
 1207 0076 FFF7FEFF 		bl	strrchr
 1208 007a 421C     		adds	r2, r0, #1
 1209              	.L135:
 1210 007c 3648     		ldr	r0, .L160+8
 1211 007e 374B     		ldr	r3, .L160+12
 1212 0080 3749     		ldr	r1, .L160+16
 1213 0082 FFF7FEFF 		bl	smtc_modem_hal_print_trace
 1214 0086 3748     		ldr	r0, .L160+20
 1215 0088 FFF7FEFF 		bl	smtc_modem_hal_print_trace
 1216              	.L132:
 1217 008c 0427     		movs	r7, #4
 1218 008e 0026     		movs	r6, #0
 1219 0090 3D42     		tst	r5, r7
 1220 0092 09D0     		beq	.L127
 1221 0094 009B     		ldr	r3, [sp]
 1222 0096 5878     		ldrb	r0, [r3, #1]
 1223 0098 FFF7FEFF 		bl	ROSE_decWL
 1224 009c A389     		ldrh	r3, [r4, #12]
 1225 009e 8342     		cmp	r3, r0
 1226 00a0 02D1     		bne	.L127
 1227 00a2 2378     		ldrb	r3, [r4]
 1228 00a4 BB43     		bics	r3, r7
 1229 00a6 2370     		strb	r3, [r4]
 1230              	.L127:
 1231 00a8 3000     		movs	r0, r6
 1232              		@ sp needed
 1233 00aa FEBD     		pop	{r1, r2, r3, r4, r5, r6, r7, pc}
 1234              	.L134:
 1235 00ac A389     		ldrh	r3, [r4, #12]
 1236 00ae 9F1B     		subs	r7, r3, r6
 1237 00b0 002F     		cmp	r7, #0
 1238 00b2 2EDD     		ble	.L136
 1239 00b4 B8B2     		uxth	r0, r7
 1240 00b6 0190     		str	r0, [sp, #4]
 1241 00b8 F31A     		subs	r3, r6, r3
 1242 00ba E089     		ldrh	r0, [r4, #14]
ARM GAS  /tmp/ccnxOm1G.s 			page 23


 1243 00bc 9BB2     		uxth	r3, r3
 1244 00be D218     		adds	r2, r2, r3
 1245 00c0 1B18     		adds	r3, r3, r0
 1246 00c2 2000     		movs	r0, r4
 1247 00c4 92B2     		uxth	r2, r2
 1248 00c6 2282     		strh	r2, [r4, #16]
 1249 00c8 4A43     		muls	r2, r1
 1250 00ca 7943     		muls	r1, r7
 1251 00cc 1331     		adds	r1, r1, #19
 1252 00ce E381     		strh	r3, [r4, #14]
 1253 00d0 6118     		adds	r1, r4, r1
 1254 00d2 1330     		adds	r0, r0, #19
 1255 00d4 FFF7FEFF 		bl	memmove
 1256 00d8 3A00     		movs	r2, r7
 1257 00da A07C     		ldrb	r0, [r4, #18]
 1258 00dc 238A     		ldrh	r3, [r4, #16]
 1259 00de 4243     		muls	r2, r0
 1260 00e0 5843     		muls	r0, r3
 1261 00e2 1330     		adds	r0, r0, #19
 1262 00e4 0021     		movs	r1, #0
 1263 00e6 2018     		adds	r0, r4, r0
 1264 00e8 FFF7FEFF 		bl	memset
 1265 00ec A189     		ldrh	r1, [r4, #12]
 1266 00ee 019B     		ldr	r3, [sp, #4]
 1267 00f0 C81A     		subs	r0, r1, r3
 1268 00f2 A368     		ldr	r3, [r4, #8]
 1269 00f4 5843     		muls	r0, r3
 1270 00f6 FFF7FEFF 		bl	__aeabi_idiv
 1271 00fa A060     		str	r0, [r4, #8]
 1272 00fc 2000     		movs	r0, r4
 1273 00fe FFF7FEFF 		bl	ROSE_rvec_len
 1274 0102 134B     		ldr	r3, .L160
 1275 0104 0021     		movs	r1, #0
 1276 0106 181A     		subs	r0, r3, r0
 1277 0108 2018     		adds	r0, r4, r0
 1278 010a E218     		adds	r2, r4, r3
 1279 010c 121A     		subs	r2, r2, r0
 1280 010e FFF7FEFF 		bl	memset
 1281              	.L136:
 1282 0112 0423     		movs	r3, #4
 1283 0114 2278     		ldrb	r2, [r4]
 1284 0116 A681     		strh	r6, [r4, #12]
 1285 0118 0E4E     		ldr	r6, .L160+4
 1286 011a 1343     		orrs	r3, r2
 1287 011c 2F21     		movs	r1, #47
 1288 011e 3000     		movs	r0, r6
 1289 0120 2370     		strb	r3, [r4]
 1290 0122 FFF7FEFF 		bl	strrchr
 1291 0126 3200     		movs	r2, r6
 1292 0128 0028     		cmp	r0, #0
 1293 012a 04D0     		beq	.L137
 1294 012c 2F21     		movs	r1, #47
 1295 012e 3000     		movs	r0, r6
 1296 0130 FFF7FEFF 		bl	strrchr
 1297 0134 421C     		adds	r2, r0, #1
 1298              	.L137:
 1299 0136 0C4B     		ldr	r3, .L160+24
ARM GAS  /tmp/ccnxOm1G.s 			page 24


 1300 0138 0C49     		ldr	r1, .L160+28
 1301 013a 0748     		ldr	r0, .L160+8
 1302 013c FFF7FEFF 		bl	smtc_modem_hal_print_trace
 1303 0140 A189     		ldrh	r1, [r4, #12]
 1304 0142 0B48     		ldr	r0, .L160+32
 1305 0144 FFF7FEFF 		bl	smtc_modem_hal_print_trace
 1306 0148 A0E7     		b	.L132
 1307              	.L139:
 1308 014a 0626     		movs	r6, #6
 1309 014c 7642     		rsbs	r6, r6, #0
 1310 014e ABE7     		b	.L127
 1311              	.L161:
 1312              		.align	2
 1313              	.L160:
 1314 0150 53040000 		.word	1107
 1315 0154 00000000 		.word	.LC2
 1316 0158 40000000 		.word	.LC6
 1317 015c 4A020000 		.word	586
 1318 0160 00000000 		.word	.LC23
 1319 0164 05000000 		.word	.LC26
 1320 0168 63020000 		.word	611
 1321 016c 00000000 		.word	.LC13
 1322 0170 3D000000 		.word	.LC29
 1324              		.section	.text.ROSE_addRecord,"ax",%progbits
 1325              		.align	1
 1326              		.global	ROSE_addRecord
 1327              		.syntax unified
 1328              		.code	16
 1329              		.thumb_func
 1330              		.fpu softvfp
 1332              	ROSE_addRecord:
 1333              		@ args = 0, pretend = 0, frame = 16
 1334              		@ frame_needed = 0, uses_anonymous_args = 0
 1335 0000 F0B5     		push	{r4, r5, r6, r7, lr}
 1336 0002 531E     		subs	r3, r2, #1
 1337 0004 85B0     		sub	sp, sp, #20
 1338 0006 0400     		movs	r4, r0
 1339 0008 1500     		movs	r5, r2
 1340 000a 0391     		str	r1, [sp, #12]
 1341 000c FD2B     		cmp	r3, #253
 1342 000e 52D8     		bhi	.L169
 1343 0010 867C     		ldrb	r6, [r0, #18]
 1344 0012 B018     		adds	r0, r6, r2
 1345 0014 3100     		movs	r1, r6
 1346 0016 0130     		adds	r0, r0, #1
 1347 0018 FFF7FEFF 		bl	__aeabi_idiv
 1348 001c 6B46     		mov	r3, sp
 1349 001e 0090     		str	r0, [sp]
 1350 0020 1B88     		ldrh	r3, [r3]
 1351 0022 2000     		movs	r0, r4
 1352 0024 0293     		str	r3, [sp, #8]
 1353 0026 FFF7FEFF 		bl	ROSE_rvec_len
 1354 002a 8823     		movs	r3, #136
 1355 002c 4042     		rsbs	r0, r0, #0
 1356 002e DB00     		lsls	r3, r3, #3
 1357 0030 C018     		adds	r0, r0, r3
 1358 0032 3100     		movs	r1, r6
ARM GAS  /tmp/ccnxOm1G.s 			page 25


 1359 0034 FFF7FEFF 		bl	__aeabi_idiv
 1360 0038 278A     		ldrh	r7, [r4, #16]
 1361 003a 029B     		ldr	r3, [sp, #8]
 1362 003c C01B     		subs	r0, r0, r7
 1363 003e 80B2     		uxth	r0, r0
 1364 0040 8342     		cmp	r3, r0
 1365 0042 3BD8     		bhi	.L170
 1366 0044 7E43     		muls	r6, r7
 1367 0046 3700     		movs	r7, r6
 1368 0048 1337     		adds	r7, r7, #19
 1369 004a E719     		adds	r7, r4, r7
 1370 004c 0196     		str	r6, [sp, #4]
 1371 004e 7E1C     		adds	r6, r7, #1
 1372 0050 2A00     		movs	r2, r5
 1373 0052 3000     		movs	r0, r6
 1374 0054 0399     		ldr	r1, [sp, #12]
 1375 0056 FFF7FEFF 		bl	memcpy
 1376 005a 2378     		ldrb	r3, [r4]
 1377 005c 1B07     		lsls	r3, r3, #28
 1378 005e 05D5     		bpl	.L164
 1379 0060 3300     		movs	r3, r6
 1380 0062 2900     		movs	r1, r5
 1381 0064 6268     		ldr	r2, [r4, #4]
 1382 0066 0398     		ldr	r0, [sp, #12]
 1383 0068 FFF7FEFF 		bl	ROSE_payload_encrypt.constprop.0
 1384              	.L164:
 1385 006c 009A     		ldr	r2, [sp]
 1386 006e A37C     		ldrb	r3, [r4, #18]
 1387 0070 0135     		adds	r5, r5, #1
 1388 0072 5343     		muls	r3, r2
 1389 0074 A022     		movs	r2, #160
 1390 0076 DBB2     		uxtb	r3, r3
 1391              	.L165:
 1392 0078 1800     		movs	r0, r3
 1393 007a 013B     		subs	r3, r3, #1
 1394 007c DBB2     		uxtb	r3, r3
 1395 007e 1900     		movs	r1, r3
 1396 0080 FA54     		strb	r2, [r7, r3]
 1397 0082 AB42     		cmp	r3, r5
 1398 0084 F8DC     		bgt	.L165
 1399 0086 0238     		subs	r0, r0, #2
 1400 0088 C0B2     		uxtb	r0, r0
 1401              	.L166:
 1402 008a CBB2     		uxtb	r3, r1
 1403 008c 0028     		cmp	r0, #0
 1404 008e 09D1     		bne	.L168
 1405 0090 019A     		ldr	r2, [sp, #4]
 1406 0092 603B     		subs	r3, r3, #96
 1407 0094 A618     		adds	r6, r4, r2
 1408 0096 F374     		strb	r3, [r6, #19]
 1409 0098 238A     		ldrh	r3, [r4, #16]
 1410 009a 029A     		ldr	r2, [sp, #8]
 1411 009c D318     		adds	r3, r2, r3
 1412 009e 2382     		strh	r3, [r4, #16]
 1413              	.L162:
 1414 00a0 05B0     		add	sp, sp, #20
 1415              		@ sp needed
ARM GAS  /tmp/ccnxOm1G.s 			page 26


 1416 00a2 F0BD     		pop	{r4, r5, r6, r7, pc}
 1417              	.L168:
 1418 00a4 3A5C     		ldrb	r2, [r7, r0]
 1419 00a6 A02A     		cmp	r2, #160
 1420 00a8 03D1     		bne	.L167
 1421 00aa 0100     		movs	r1, r0
 1422 00ac 603B     		subs	r3, r3, #96
 1423 00ae 1B1A     		subs	r3, r3, r0
 1424 00b0 3B54     		strb	r3, [r7, r0]
 1425              	.L167:
 1426 00b2 0138     		subs	r0, r0, #1
 1427 00b4 E9E7     		b	.L166
 1428              	.L169:
 1429 00b6 0520     		movs	r0, #5
 1430              	.L175:
 1431 00b8 4042     		rsbs	r0, r0, #0
 1432 00ba F1E7     		b	.L162
 1433              	.L170:
 1434 00bc 0120     		movs	r0, #1
 1435 00be FBE7     		b	.L175
 1437              		.section	.rodata.WLENCP,"a"
 1438              		.align	2
 1439              		.set	.LANCHOR0,. + 0
 1442              	WLENCP:
 1443 0000 1000     		.short	16
 1444 0002 0400     		.short	4
 1445 0004 1001     		.short	272
 1446 0006 0800     		.short	8
 1447 0008 1003     		.short	784
 1448 000a 1000     		.short	16
 1449 000c 0000     		.short	0
 1450 000e 0000     		.short	0
 1451              		.ident	"GCC: (15:10.3-2021.07-4) 10.3.1 20210621 (release)"
ARM GAS  /tmp/ccnxOm1G.s 			page 27

