ARM GAS  /tmp/ccsMybl8.s 			page 1


   1              		.cpu cortex-m0
   2              		.eabi_attribute 23, 1
   3              		.eabi_attribute 24, 1
   4              		.eabi_attribute 25, 1
   5              		.eabi_attribute 26, 1
   6              		.eabi_attribute 30, 4
   7              		.eabi_attribute 34, 0
   8              		.eabi_attribute 18, 4
   9              		.file	"smtc_modem_services_hal.c"
  10              		.text
  11              		.section	.rodata.smtc_modem_services_aes_encrypt.str1.1,"aMS",%progbits,1
  12              	.LC1:
  13 0000 1B5B303B 		.ascii	"\033[0;31mERROR: crash log :%s\012\000"
  13      33316D45 
  13      52524F52 
  13      3A206372 
  13      61736820 
  14              	.LC3:
  15 001d 1B5B306D 		.ascii	"\033[0m\000"
  15      00
  16              	.LC5:
  17 0022 1B5B303B 		.ascii	"\033[0;31mERROR: -> Encryption of lfu failed\012\000"
  17      33316D45 
  17      52524F52 
  17      3A202D3E 
  17      20456E63 
  18              		.section	.text.smtc_modem_services_aes_encrypt,"ax",%progbits
  19              		.align	1
  20              		.global	smtc_modem_services_aes_encrypt
  21              		.arch armv6s-m
  22              		.syntax unified
  23              		.code	16
  24              		.thumb_func
  25              		.fpu softvfp
  27              	smtc_modem_services_aes_encrypt:
  28              		@ args = 0, pretend = 0, frame = 0
  29              		@ frame_needed = 0, uses_anonymous_args = 0
  30 0000 10B5     		push	{r4, lr}
  31 0002 FFF7FEFF 		bl	smtc_modem_crypto_service_encrypt
  32 0006 0028     		cmp	r0, #0
  33 0008 16D0     		beq	.L1
  34 000a 0C4C     		ldr	r4, .L6
  35 000c 2000     		movs	r0, r4
  36 000e FFF7FEFF 		bl	smtc_modem_hal_store_crashlog
  37 0012 0120     		movs	r0, #1
  38 0014 FFF7FEFF 		bl	smtc_modem_hal_set_crashlog_status
  39 0018 2100     		movs	r1, r4
  40 001a 0948     		ldr	r0, .L6+4
  41 001c FFF7FEFF 		bl	smtc_modem_hal_print_trace
  42 0020 084C     		ldr	r4, .L6+8
  43 0022 2000     		movs	r0, r4
  44 0024 FFF7FEFF 		bl	smtc_modem_hal_print_trace
  45 0028 0748     		ldr	r0, .L6+12
  46 002a FFF7FEFF 		bl	smtc_modem_hal_print_trace
  47 002e 2000     		movs	r0, r4
  48 0030 FFF7FEFF 		bl	smtc_modem_hal_print_trace
  49 0034 FFF7FEFF 		bl	smtc_modem_hal_reset_mcu
ARM GAS  /tmp/ccsMybl8.s 			page 2


  50              	.L1:
  51              		@ sp needed
  52 0038 10BD     		pop	{r4, pc}
  53              	.L7:
  54 003a C046     		.align	2
  55              	.L6:
  56 003c 00000000 		.word	.LANCHOR0
  57 0040 00000000 		.word	.LC1
  58 0044 1D000000 		.word	.LC3
  59 0048 22000000 		.word	.LC5
  61              		.section	.text.smtc_modem_services_get_time_s,"ax",%progbits
  62              		.align	1
  63              		.global	smtc_modem_services_get_time_s
  64              		.syntax unified
  65              		.code	16
  66              		.thumb_func
  67              		.fpu softvfp
  69              	smtc_modem_services_get_time_s:
  70              		@ args = 0, pretend = 0, frame = 0
  71              		@ frame_needed = 0, uses_anonymous_args = 0
  72 0000 10B5     		push	{r4, lr}
  73 0002 FFF7FEFF 		bl	smtc_modem_hal_get_compensated_time_in_s
  74              		@ sp needed
  75 0006 10BD     		pop	{r4, pc}
  77              		.section	.text.smtc_modem_services_lr11xx_gnss_get_context_status,"ax",%progbits
  78              		.align	1
  79              		.global	smtc_modem_services_lr11xx_gnss_get_context_status
  80              		.syntax unified
  81              		.code	16
  82              		.thumb_func
  83              		.fpu softvfp
  85              	smtc_modem_services_lr11xx_gnss_get_context_status:
  86              		@ args = 0, pretend = 0, frame = 0
  87              		@ frame_needed = 0, uses_anonymous_args = 0
  88 0000 70B5     		push	{r4, r5, r6, lr}
  89 0002 0D00     		movs	r5, r1
  90              		@ sp needed
  91 0004 0400     		movs	r4, r0
  92 0006 0E20     		movs	r0, #14
  93 0008 FFF7FEFF 		bl	modem_context_suspend_radio_access
  94 000c 2900     		movs	r1, r5
  95 000e 2000     		movs	r0, r4
  96 0010 FFF7FEFF 		bl	lr11xx_gnss_get_context_status
  97 0014 0400     		movs	r4, r0
  98 0016 631E     		subs	r3, r4, #1
  99 0018 9C41     		sbcs	r4, r4, r3
 100 001a FFF7FEFF 		bl	modem_context_resume_radio_access
 101 001e E0B2     		uxtb	r0, r4
 102 0020 70BD     		pop	{r4, r5, r6, pc}
 104              		.section	.text.smtc_modem_services_lr11xx_gnss_push_dmc_msg,"ax",%progbits
 105              		.align	1
 106              		.global	smtc_modem_services_lr11xx_gnss_push_dmc_msg
 107              		.syntax unified
 108              		.code	16
 109              		.thumb_func
 110              		.fpu softvfp
 112              	smtc_modem_services_lr11xx_gnss_push_dmc_msg:
ARM GAS  /tmp/ccsMybl8.s 			page 3


 113              		@ args = 0, pretend = 0, frame = 0
 114              		@ frame_needed = 0, uses_anonymous_args = 0
 115 0000 70B5     		push	{r4, r5, r6, lr}
 116 0002 0D00     		movs	r5, r1
 117              		@ sp needed
 118 0004 1600     		movs	r6, r2
 119 0006 0400     		movs	r4, r0
 120 0008 0E20     		movs	r0, #14
 121 000a FFF7FEFF 		bl	modem_context_suspend_radio_access
 122 000e 3200     		movs	r2, r6
 123 0010 2900     		movs	r1, r5
 124 0012 2000     		movs	r0, r4
 125 0014 FFF7FEFF 		bl	lr11xx_gnss_push_dmc_msg
 126 0018 0400     		movs	r4, r0
 127 001a 631E     		subs	r3, r4, #1
 128 001c 9C41     		sbcs	r4, r4, r3
 129 001e FFF7FEFF 		bl	modem_context_resume_radio_access
 130 0022 E0B2     		uxtb	r0, r4
 131 0024 70BD     		pop	{r4, r5, r6, pc}
 133              		.section	.rodata.__func__.0,"a"
 134              		.set	.LANCHOR0,. + 0
 137              	__func__.0:
 138 0000 736D7463 		.ascii	"smtc_modem_services_aes_encrypt\000"
 138      5F6D6F64 
 138      656D5F73 
 138      65727669 
 138      6365735F 
 139              		.ident	"GCC: (15:10.3-2021.07-4) 10.3.1 20210621 (release)"
ARM GAS  /tmp/ccsMybl8.s 			page 4

