ARM GAS  /tmp/cc0VPHID.s 			page 1


   1              		.cpu cortex-m0
   2              		.eabi_attribute 23, 1
   3              		.eabi_attribute 24, 1
   4              		.eabi_attribute 25, 1
   5              		.eabi_attribute 26, 1
   6              		.eabi_attribute 30, 4
   7              		.eabi_attribute 34, 0
   8              		.eabi_attribute 18, 4
   9              		.file	"smtc_modem.c"
  10              		.text
  11              		.section	.text.empty_callback,"ax",%progbits
  12              		.align	1
  13              		.global	empty_callback
  14              		.arch armv6s-m
  15              		.syntax unified
  16              		.code	16
  17              		.thumb_func
  18              		.fpu softvfp
  20              	empty_callback:
  21              		@ args = 0, pretend = 0, frame = 0
  22              		@ frame_needed = 0, uses_anonymous_args = 0
  23              		@ link register save eliminated.
  24              		@ sp needed
  25 0000 7047     		bx	lr
  27              		.section	.rodata.is_modem_connected.str1.1,"aMS",%progbits,1
  28              	.LC1:
  29 0000 1B5B303B 		.ascii	"\033[0;31mERROR: %s Modem is muted for %d day(s)\015"
  29      33316D45 
  29      52524F52 
  29      3A202573 
  29      204D6F64 
  30 002e 0A00     		.ascii	"\012\000"
  31              	.LC3:
  32 0030 1B5B306D 		.ascii	"\033[0m\000"
  32      00
  33              	.LC5:
  34 0035 1B5B303B 		.ascii	"\033[0;31mERROR: %s Modem is suspend\015\012\000"
  34      33316D45 
  34      52524F52 
  34      3A202573 
  34      204D6F64 
  35              	.LC7:
  36 0059 1B5B303B 		.ascii	"\033[0;31mERROR: %s Stack not joined or OTA device "
  36      33316D45 
  36      52524F52 
  36      3A202573 
  36      20537461 
  37 0089 2564200D 		.ascii	"%d \015\012\000"
  37      0A00
  38              		.section	.text.is_modem_connected,"ax",%progbits
  39              		.align	1
  40              		.syntax unified
  41              		.code	16
  42              		.thumb_func
  43              		.fpu softvfp
  45              	is_modem_connected:
  46              		@ args = 0, pretend = 0, frame = 0
ARM GAS  /tmp/cc0VPHID.s 			page 2


  47              		@ frame_needed = 0, uses_anonymous_args = 0
  48 0000 10B5     		push	{r4, lr}
  49 0002 FFF7FEFF 		bl	get_modem_muted
  50 0006 0028     		cmp	r0, #0
  51 0008 0BD0     		beq	.L3
  52 000a FFF7FEFF 		bl	dm_get_number_of_days_mute
  53 000e 1449     		ldr	r1, .L9
  54 0010 0200     		movs	r2, r0
  55 0012 1448     		ldr	r0, .L9+4
  56 0014 FFF7FEFF 		bl	smtc_modem_hal_print_trace
  57              	.L8:
  58 0018 1348     		ldr	r0, .L9+8
  59 001a FFF7FEFF 		bl	smtc_modem_hal_print_trace
  60 001e 0020     		movs	r0, #0
  61              	.L4:
  62              		@ sp needed
  63 0020 10BD     		pop	{r4, pc}
  64              	.L3:
  65 0022 FFF7FEFF 		bl	get_modem_suspend
  66 0026 0128     		cmp	r0, #1
  67 0028 04D1     		bne	.L5
  68 002a 0D49     		ldr	r1, .L9
  69 002c 0F48     		ldr	r0, .L9+12
  70 002e FFF7FEFF 		bl	smtc_modem_hal_print_trace
  71 0032 F1E7     		b	.L8
  72              	.L5:
  73 0034 FFF7FEFF 		bl	get_join_state
  74 0038 0228     		cmp	r0, #2
  75 003a 01D1     		bne	.L6
  76              	.L7:
  77 003c 0120     		movs	r0, #1
  78 003e EFE7     		b	.L4
  79              	.L6:
  80 0040 FFF7FEFF 		bl	lorawan_api_get_activation_mode
  81 0044 041E     		subs	r4, r0, #0
  82 0046 F9D1     		bne	.L7
  83 0048 FFF7FEFF 		bl	get_join_state
  84 004c 0449     		ldr	r1, .L9
  85 004e 0200     		movs	r2, r0
  86 0050 0748     		ldr	r0, .L9+16
  87 0052 FFF7FEFF 		bl	smtc_modem_hal_print_trace
  88 0056 0448     		ldr	r0, .L9+8
  89 0058 FFF7FEFF 		bl	smtc_modem_hal_print_trace
  90 005c 2000     		movs	r0, r4
  91 005e DFE7     		b	.L4
  92              	.L10:
  93              		.align	2
  94              	.L9:
  95 0060 00000000 		.word	.LANCHOR0
  96 0064 00000000 		.word	.LC1
  97 0068 30000000 		.word	.LC3
  98 006c 35000000 		.word	.LC5
  99 0070 59000000 		.word	.LC7
 101              		.section	.rodata.user_radio_access_callback.str1.1,"aMS",%progbits,1
 102              	.LC11:
 103 0000 1B5B303B 		.ascii	"\033[0;32mINFO: User radio access callback: ignored"
 103      33326D49 
ARM GAS  /tmp/cc0VPHID.s 			page 3


 103      4E464F3A 
 103      20557365 
 103      72207261 
 104 0030 2041424F 		.ascii	" ABORTED status \015\012\000"
 104      52544544 
 104      20737461 
 104      74757320 
 104      0D0A00
 105              		.section	.text.user_radio_access_callback,"ax",%progbits
 106              		.align	1
 107              		.global	user_radio_access_callback
 108              		.syntax unified
 109              		.code	16
 110              		.thumb_func
 111              		.fpu softvfp
 113              	user_radio_access_callback:
 114              		@ args = 0, pretend = 0, frame = 0
 115              		@ frame_needed = 0, uses_anonymous_args = 0
 116 0000 10B5     		push	{r4, lr}
 117 0002 0B4B     		ldr	r3, .L14
 118 0004 0B4C     		ldr	r4, .L14+4
 119 0006 C15C     		ldrb	r1, [r0, r3]
 120 0008 0B4A     		ldr	r2, .L14+8
 121 000a 2300     		movs	r3, r4
 122 000c FFF7FEFF 		bl	rp_get_status
 123 0010 2378     		ldrb	r3, [r4]
 124 0012 0A2B     		cmp	r3, #10
 125 0014 06D1     		bne	.L12
 126 0016 0948     		ldr	r0, .L14+12
 127 0018 FFF7FEFF 		bl	smtc_modem_hal_print_trace
 128 001c 0848     		ldr	r0, .L14+16
 129 001e FFF7FEFF 		bl	smtc_modem_hal_print_trace
 130              	.L11:
 131              		@ sp needed
 132 0022 10BD     		pop	{r4, pc}
 133              	.L12:
 134 0024 0021     		movs	r1, #0
 135 0026 1220     		movs	r0, #18
 136 0028 FFF7FEFF 		bl	increment_asynchronous_msgnumber
 137 002c F9E7     		b	.L11
 138              	.L15:
 139 002e C046     		.align	2
 140              	.L14:
 141 0030 84090000 		.word	2436
 142 0034 00000000 		.word	.LANCHOR1
 143 0038 00000000 		.word	.LANCHOR2
 144 003c 00000000 		.word	.LC11
 145 0040 30000000 		.word	.LC3
 147              		.section	.rodata.smtc_modem_send_tx.constprop.0.str1.1,"aMS",%progbits,1
 148              	.LC15:
 149 0000 1B5B303B 		.ascii	"\033[0;31mERROR: %s port %d is forbidden \015\012\000"
 149      33316D45 
 149      52524F52 
 149      3A202573 
 149      20706F72 
 150              		.section	.text.smtc_modem_send_tx.constprop.0,"ax",%progbits
 151              		.align	1
ARM GAS  /tmp/cc0VPHID.s 			page 4


 152              		.syntax unified
 153              		.code	16
 154              		.thumb_func
 155              		.fpu softvfp
 157              	smtc_modem_send_tx.constprop.0:
 158              		@ args = 4, pretend = 0, frame = 32
 159              		@ frame_needed = 0, uses_anonymous_args = 0
 160 0000 F0B5     		push	{r4, r5, r6, r7, lr}
 161 0002 89B0     		sub	sp, sp, #36
 162 0004 1E00     		movs	r6, r3
 163 0006 0EAB     		add	r3, sp, #56
 164 0008 1F78     		ldrb	r7, [r3]
 165 000a 0500     		movs	r5, r0
 166 000c 0091     		str	r1, [sp]
 167 000e 0192     		str	r2, [sp, #4]
 168 0010 FFF7FEFF 		bl	is_modem_connected
 169 0014 0300     		movs	r3, r0
 170 0016 0620     		movs	r0, #6
 171 0018 002B     		cmp	r3, #0
 172 001a 10D0     		beq	.L17
 173 001c 6B1E     		subs	r3, r5, #1
 174 001e DBB2     		uxtb	r3, r3
 175 0020 DE2B     		cmp	r3, #222
 176 0022 0ED8     		bhi	.L18
 177              	.L21:
 178 0024 FFF7FEFF 		bl	get_modem_dm_port
 179 0028 8542     		cmp	r5, r0
 180 002a 0FD1     		bne	.L29
 181              	.L19:
 182 002c 2A00     		movs	r2, r5
 183 002e 1949     		ldr	r1, .L30
 184 0030 1948     		ldr	r0, .L30+4
 185 0032 FFF7FEFF 		bl	smtc_modem_hal_print_trace
 186 0036 1948     		ldr	r0, .L30+8
 187 0038 FFF7FEFF 		bl	smtc_modem_hal_print_trace
 188 003c 0420     		movs	r0, #4
 189              	.L17:
 190 003e 09B0     		add	sp, sp, #36
 191              		@ sp needed
 192 0040 F0BD     		pop	{r4, r5, r6, r7, pc}
 193              	.L18:
 194 0042 FFF7FEFF 		bl	lorawan_api_modem_certification_is_enabled
 195 0046 0028     		cmp	r0, #0
 196 0048 ECD1     		bne	.L21
 197 004a EFE7     		b	.L19
 198              	.L29:
 199 004c 03AC     		add	r4, sp, #12
 200 004e 002F     		cmp	r7, #0
 201 0050 1CD0     		beq	.L23
 202 0052 0020     		movs	r0, #0
 203 0054 2072     		strb	r0, [r4, #8]
 204 0056 FFF7FEFF 		bl	lorawan_api_duty_cycle_enable_set
 205              	.L24:
 206 005a 114F     		ldr	r7, .L30+12
 207 005c 3200     		movs	r2, r6
 208 005e 0199     		ldr	r1, [sp, #4]
 209 0060 3800     		movs	r0, r7
ARM GAS  /tmp/cc0VPHID.s 			page 5


 210 0062 FFF7FEFF 		bl	memcpy
 211 0066 0023     		movs	r3, #0
 212 0068 2370     		strb	r3, [r4]
 213 006a 0133     		adds	r3, r3, #1
 214 006c A372     		strb	r3, [r4, #10]
 215 006e 009B     		ldr	r3, [sp]
 216 0070 E760     		str	r7, [r4, #12]
 217 0072 6572     		strb	r5, [r4, #9]
 218 0074 6374     		strb	r3, [r4, #17]
 219 0076 2674     		strb	r6, [r4, #16]
 220 0078 FFF7FEFF 		bl	smtc_modem_hal_get_time_in_s
 221 007c 6060     		str	r0, [r4, #4]
 222 007e 2000     		movs	r0, r4
 223 0080 FFF7FEFF 		bl	modem_supervisor_add_task
 224 0084 0028     		cmp	r0, #0
 225 0086 DAD0     		beq	.L17
 226 0088 0620     		movs	r0, #6
 227 008a D8E7     		b	.L17
 228              	.L23:
 229 008c 0123     		movs	r3, #1
 230 008e 2372     		strb	r3, [r4, #8]
 231 0090 E3E7     		b	.L24
 232              	.L31:
 233 0092 C046     		.align	2
 234              	.L30:
 235 0094 00000000 		.word	.LANCHOR3
 236 0098 00000000 		.word	.LC15
 237 009c 30000000 		.word	.LC3
 238 00a0 00000000 		.word	modem_buffer
 240              		.section	.rodata.smtc_modem_init.str1.1,"aMS",%progbits,1
 241              	.LC19:
 242 0000 1B5B303B 		.ascii	"\033[0;32mINFO: Modem Initialization\015\012\000"
 242      33326D49 
 242      4E464F3A 
 242      204D6F64 
 242      656D2049 
 243              		.section	.text.smtc_modem_init,"ax",%progbits
 244              		.align	1
 245              		.global	smtc_modem_init
 246              		.syntax unified
 247              		.code	16
 248              		.thumb_func
 249              		.fpu softvfp
 251              	smtc_modem_init:
 252              		@ args = 0, pretend = 0, frame = 0
 253              		@ frame_needed = 0, uses_anonymous_args = 0
 254 0000 70B5     		push	{r4, r5, r6, lr}
 255 0002 0500     		movs	r5, r0
 256              		@ sp needed
 257 0004 0E00     		movs	r6, r1
 258 0006 2148     		ldr	r0, .L33
 259 0008 FFF7FEFF 		bl	smtc_modem_hal_print_trace
 260 000c 2048     		ldr	r0, .L33+4
 261 000e FFF7FEFF 		bl	smtc_modem_hal_print_trace
 262 0012 AB68     		ldr	r3, [r5, #8]
 263 0014 2868     		ldr	r0, [r5]
 264 0016 9847     		blx	r3
ARM GAS  /tmp/cc0VPHID.s 			page 6


 265 0018 EB68     		ldr	r3, [r5, #12]
 266 001a 2868     		ldr	r0, [r5]
 267 001c 9847     		blx	r3
 268 001e 6B69     		ldr	r3, [r5, #20]
 269 0020 0121     		movs	r1, #1
 270 0022 2868     		ldr	r0, [r5]
 271 0024 9847     		blx	r3
 272 0026 2868     		ldr	r0, [r5]
 273 0028 FFF7FEFF 		bl	modem_context_set_modem_radio_ctx
 274 002c 194C     		ldr	r4, .L33+8
 275 002e 2900     		movs	r1, r5
 276 0030 2000     		movs	r0, r4
 277 0032 FFF7FEFF 		bl	rp_init
 278 0036 2100     		movs	r1, r4
 279 0038 1748     		ldr	r0, .L33+12
 280 003a FFF7FEFF 		bl	smtc_modem_hal_irq_config_radio_irq
 281 003e 2300     		movs	r3, r4
 282 0040 0221     		movs	r1, #2
 283 0042 2000     		movs	r0, r4
 284 0044 154A     		ldr	r2, .L33+16
 285 0046 FFF7FEFF 		bl	rp_hook_init
 286 004a 2300     		movs	r3, r4
 287 004c 0021     		movs	r1, #0
 288 004e 2000     		movs	r0, r4
 289 0050 134A     		ldr	r2, .L33+20
 290 0052 FFF7FEFF 		bl	rp_hook_init
 291 0056 2300     		movs	r3, r4
 292 0058 0121     		movs	r1, #1
 293 005a 2000     		movs	r0, r4
 294 005c 114A     		ldr	r2, .L33+24
 295 005e FFF7FEFF 		bl	rp_hook_init
 296 0062 2300     		movs	r3, r4
 297 0064 0821     		movs	r1, #8
 298 0066 2000     		movs	r0, r4
 299 0068 0F4A     		ldr	r2, .L33+28
 300 006a FFF7FEFF 		bl	rp_hook_init
 301 006e 2300     		movs	r3, r4
 302 0070 0921     		movs	r1, #9
 303 0072 2000     		movs	r0, r4
 304 0074 0D4A     		ldr	r2, .L33+32
 305 0076 FFF7FEFF 		bl	rp_hook_init
 306 007a 3000     		movs	r0, r6
 307 007c 2100     		movs	r1, r4
 308 007e 0C4A     		ldr	r2, .L33+36
 309 0080 FFF7FEFF 		bl	modem_supervisor_init
 310 0084 FFF7FEFF 		bl	smtc_secure_element_init
 311 0088 70BD     		pop	{r4, r5, r6, pc}
 312              	.L34:
 313 008a C046     		.align	2
 314              	.L33:
 315 008c 00000000 		.word	.LC19
 316 0090 30000000 		.word	.LC3
 317 0094 00000000 		.word	modem_radio_planner
 318 0098 00000000 		.word	rp_radio_irq_callback
 319 009c 00000000 		.word	empty_callback
 320 00a0 00000000 		.word	user_radio_access_callback
 321 00a4 00000000 		.word	callback_rp_user_radio_access_0
ARM GAS  /tmp/cc0VPHID.s 			page 7


 322 00a8 00000000 		.word	callback_rp_user_radio_access_1
 323 00ac 00000000 		.word	callback_rp_user_radio_access_2
 324 00b0 00000000 		.word	smtc_modem_services_ctx
 326              		.section	.text.smtc_modem_run_engine,"ax",%progbits
 327              		.align	1
 328              		.global	smtc_modem_run_engine
 329              		.syntax unified
 330              		.code	16
 331              		.thumb_func
 332              		.fpu softvfp
 334              	smtc_modem_run_engine:
 335              		@ args = 0, pretend = 0, frame = 0
 336              		@ frame_needed = 0, uses_anonymous_args = 0
 337 0000 10B5     		push	{r4, lr}
 338 0002 FFF7FEFF 		bl	lorawan_api_get_fifo_obj
 339 0006 FFF7FEFF 		bl	fifo_ctrl_get_nb_elt
 340 000a C4B2     		uxtb	r4, r0
 341 000c 002C     		cmp	r4, #0
 342 000e 08D0     		beq	.L36
 343 0010 0021     		movs	r1, #0
 344 0012 0420     		movs	r0, #4
 345 0014 FFF7FEFF 		bl	increment_asynchronous_msgnumber
 346 0018 0022     		movs	r2, #0
 347 001a 2100     		movs	r1, r4
 348 001c 0420     		movs	r0, #4
 349 001e FFF7FEFF 		bl	set_modem_event_count_and_status
 350              	.L36:
 351              		@ sp needed
 352 0022 FFF7FEFF 		bl	modem_supervisor_engine
 353 0026 10BD     		pop	{r4, pc}
 355              		.section	.text.smtc_modem_get_modem_version,"ax",%progbits
 356              		.align	1
 357              		.global	smtc_modem_get_modem_version
 358              		.syntax unified
 359              		.code	16
 360              		.thumb_func
 361              		.fpu softvfp
 363              	smtc_modem_get_modem_version:
 364              		@ args = 0, pretend = 0, frame = 0
 365              		@ frame_needed = 0, uses_anonymous_args = 0
 366 0000 10B5     		push	{r4, lr}
 367 0002 0400     		movs	r4, r0
 368 0004 FFF7FEFF 		bl	modem_get_test_mode_status
 369 0008 0300     		movs	r3, r0
 370 000a 0520     		movs	r0, #5
 371 000c 002B     		cmp	r3, #0
 372 000e 08D1     		bne	.L41
 373 0010 0138     		subs	r0, r0, #1
 374 0012 002C     		cmp	r4, #0
 375 0014 05D0     		beq	.L41
 376 0016 0322     		movs	r2, #3
 377 0018 A070     		strb	r0, [r4, #2]
 378 001a 1800     		movs	r0, r3
 379 001c 2270     		strb	r2, [r4]
 380 001e 013A     		subs	r2, r2, #1
 381 0020 6270     		strb	r2, [r4, #1]
 382              	.L41:
ARM GAS  /tmp/cc0VPHID.s 			page 8


 383              		@ sp needed
 384 0022 10BD     		pop	{r4, pc}
 386              		.section	.text.smtc_modem_get_lorawan_version,"ax",%progbits
 387              		.align	1
 388              		.global	smtc_modem_get_lorawan_version
 389              		.syntax unified
 390              		.code	16
 391              		.thumb_func
 392              		.fpu softvfp
 394              	smtc_modem_get_lorawan_version:
 395              		@ args = 0, pretend = 0, frame = 8
 396              		@ frame_needed = 0, uses_anonymous_args = 0
 397 0000 37B5     		push	{r0, r1, r2, r4, r5, lr}
 398 0002 0400     		movs	r4, r0
 399 0004 FFF7FEFF 		bl	modem_get_test_mode_status
 400 0008 0500     		movs	r5, r0
 401 000a 0520     		movs	r0, #5
 402 000c 002D     		cmp	r5, #0
 403 000e 0CD1     		bne	.L45
 404 0010 0138     		subs	r0, r0, #1
 405 0012 002C     		cmp	r4, #0
 406 0014 09D0     		beq	.L45
 407 0016 FFF7FEFF 		bl	lorawan_api_get_spec_version
 408 001a 010A     		lsrs	r1, r0, #8
 409 001c 020C     		lsrs	r2, r0, #16
 410 001e 030E     		lsrs	r3, r0, #24
 411 0020 2070     		strb	r0, [r4]
 412 0022 2800     		movs	r0, r5
 413 0024 6170     		strb	r1, [r4, #1]
 414 0026 A270     		strb	r2, [r4, #2]
 415 0028 E370     		strb	r3, [r4, #3]
 416              	.L45:
 417              		@ sp needed
 418 002a 3EBD     		pop	{r1, r2, r3, r4, r5, pc}
 420              		.section	.text.smtc_modem_get_regional_params_version,"ax",%progbits
 421              		.align	1
 422              		.global	smtc_modem_get_regional_params_version
 423              		.syntax unified
 424              		.code	16
 425              		.thumb_func
 426              		.fpu softvfp
 428              	smtc_modem_get_regional_params_version:
 429              		@ args = 0, pretend = 0, frame = 8
 430              		@ frame_needed = 0, uses_anonymous_args = 0
 431 0000 37B5     		push	{r0, r1, r2, r4, r5, lr}
 432 0002 0400     		movs	r4, r0
 433 0004 FFF7FEFF 		bl	modem_get_test_mode_status
 434 0008 0500     		movs	r5, r0
 435 000a 0520     		movs	r0, #5
 436 000c 002D     		cmp	r5, #0
 437 000e 0CD1     		bne	.L49
 438 0010 0138     		subs	r0, r0, #1
 439 0012 002C     		cmp	r4, #0
 440 0014 09D0     		beq	.L49
 441 0016 FFF7FEFF 		bl	lorawan_api_get_regional_parameters_version
 442 001a 010A     		lsrs	r1, r0, #8
 443 001c 020C     		lsrs	r2, r0, #16
ARM GAS  /tmp/cc0VPHID.s 			page 9


 444 001e 030E     		lsrs	r3, r0, #24
 445 0020 2070     		strb	r0, [r4]
 446 0022 2800     		movs	r0, r5
 447 0024 6170     		strb	r1, [r4, #1]
 448 0026 A270     		strb	r2, [r4, #2]
 449 0028 E370     		strb	r3, [r4, #3]
 450              	.L49:
 451              		@ sp needed
 452 002a 3EBD     		pop	{r1, r2, r3, r4, r5, pc}
 454              		.section	.text.smtc_modem_reset,"ax",%progbits
 455              		.align	1
 456              		.global	smtc_modem_reset
 457              		.syntax unified
 458              		.code	16
 459              		.thumb_func
 460              		.fpu softvfp
 462              	smtc_modem_reset:
 463              		@ args = 0, pretend = 0, frame = 0
 464              		@ frame_needed = 0, uses_anonymous_args = 0
 465 0000 10B5     		push	{r4, lr}
 466 0002 FFF7FEFF 		bl	modem_get_test_mode_status
 467 0006 0400     		movs	r4, r0
 468 0008 0520     		movs	r0, #5
 469 000a 002C     		cmp	r4, #0
 470 000c 03D1     		bne	.L53
 471 000e 0438     		subs	r0, r0, #4
 472 0010 FFF7FEFF 		bl	set_modem_reset_requested
 473 0014 2000     		movs	r0, r4
 474              	.L53:
 475              		@ sp needed
 476 0016 10BD     		pop	{r4, pc}
 478              		.section	.text.smtc_modem_factory_reset,"ax",%progbits
 479              		.align	1
 480              		.global	smtc_modem_factory_reset
 481              		.syntax unified
 482              		.code	16
 483              		.thumb_func
 484              		.fpu softvfp
 486              	smtc_modem_factory_reset:
 487              		@ args = 0, pretend = 0, frame = 0
 488              		@ frame_needed = 0, uses_anonymous_args = 0
 489 0000 10B5     		push	{r4, lr}
 490 0002 FFF7FEFF 		bl	modem_get_test_mode_status
 491 0006 0400     		movs	r4, r0
 492 0008 0520     		movs	r0, #5
 493 000a 002C     		cmp	r4, #0
 494 000c 07D1     		bne	.L56
 495 000e FFF7FEFF 		bl	lorawan_api_factory_reset
 496 0012 FFF7FEFF 		bl	modem_context_factory_reset
 497 0016 0120     		movs	r0, #1
 498 0018 FFF7FEFF 		bl	set_modem_reset_requested
 499 001c 2000     		movs	r0, r4
 500              	.L56:
 501              		@ sp needed
 502 001e 10BD     		pop	{r4, pc}
 504              		.section	.text.smtc_modem_get_charge,"ax",%progbits
 505              		.align	1
ARM GAS  /tmp/cc0VPHID.s 			page 10


 506              		.global	smtc_modem_get_charge
 507              		.syntax unified
 508              		.code	16
 509              		.thumb_func
 510              		.fpu softvfp
 512              	smtc_modem_get_charge:
 513              		@ args = 0, pretend = 0, frame = 0
 514              		@ frame_needed = 0, uses_anonymous_args = 0
 515 0000 70B5     		push	{r4, r5, r6, lr}
 516 0002 0500     		movs	r5, r0
 517 0004 FFF7FEFF 		bl	modem_get_test_mode_status
 518 0008 0400     		movs	r4, r0
 519 000a 0520     		movs	r0, #5
 520 000c 002C     		cmp	r4, #0
 521 000e 06D1     		bne	.L59
 522 0010 0138     		subs	r0, r0, #1
 523 0012 002D     		cmp	r5, #0
 524 0014 03D0     		beq	.L59
 525 0016 FFF7FEFF 		bl	get_modem_charge_ma_h
 526 001a 2860     		str	r0, [r5]
 527 001c 2000     		movs	r0, r4
 528              	.L59:
 529              		@ sp needed
 530 001e 70BD     		pop	{r4, r5, r6, pc}
 532              		.section	.text.smtc_modem_reset_charge,"ax",%progbits
 533              		.align	1
 534              		.global	smtc_modem_reset_charge
 535              		.syntax unified
 536              		.code	16
 537              		.thumb_func
 538              		.fpu softvfp
 540              	smtc_modem_reset_charge:
 541              		@ args = 0, pretend = 0, frame = 0
 542              		@ frame_needed = 0, uses_anonymous_args = 0
 543 0000 10B5     		push	{r4, lr}
 544 0002 FFF7FEFF 		bl	modem_get_test_mode_status
 545 0006 0400     		movs	r4, r0
 546 0008 0520     		movs	r0, #5
 547 000a 002C     		cmp	r4, #0
 548 000c 02D1     		bne	.L63
 549 000e FFF7FEFF 		bl	reset_modem_charge
 550 0012 2000     		movs	r0, r4
 551              	.L63:
 552              		@ sp needed
 553 0014 10BD     		pop	{r4, pc}
 555              		.section	.text.smtc_modem_get_tx_power_offset_db,"ax",%progbits
 556              		.align	1
 557              		.global	smtc_modem_get_tx_power_offset_db
 558              		.syntax unified
 559              		.code	16
 560              		.thumb_func
 561              		.fpu softvfp
 563              	smtc_modem_get_tx_power_offset_db:
 564              		@ args = 0, pretend = 0, frame = 0
 565              		@ frame_needed = 0, uses_anonymous_args = 0
 566 0000 70B5     		push	{r4, r5, r6, lr}
 567 0002 0D00     		movs	r5, r1
ARM GAS  /tmp/cc0VPHID.s 			page 11


 568 0004 FFF7FEFF 		bl	modem_get_test_mode_status
 569 0008 0400     		movs	r4, r0
 570 000a 0520     		movs	r0, #5
 571 000c 002C     		cmp	r4, #0
 572 000e 06D1     		bne	.L66
 573 0010 0138     		subs	r0, r0, #1
 574 0012 002D     		cmp	r5, #0
 575 0014 03D0     		beq	.L66
 576 0016 FFF7FEFF 		bl	modem_context_get_tx_power_offset_db
 577 001a 2870     		strb	r0, [r5]
 578 001c 2000     		movs	r0, r4
 579              	.L66:
 580              		@ sp needed
 581 001e 70BD     		pop	{r4, r5, r6, pc}
 583              		.section	.text.smtc_modem_set_tx_power_offset_db,"ax",%progbits
 584              		.align	1
 585              		.global	smtc_modem_set_tx_power_offset_db
 586              		.syntax unified
 587              		.code	16
 588              		.thumb_func
 589              		.fpu softvfp
 591              	smtc_modem_set_tx_power_offset_db:
 592              		@ args = 0, pretend = 0, frame = 0
 593              		@ frame_needed = 0, uses_anonymous_args = 0
 594 0000 70B5     		push	{r4, r5, r6, lr}
 595 0002 0D00     		movs	r5, r1
 596 0004 FFF7FEFF 		bl	modem_get_test_mode_status
 597 0008 0400     		movs	r4, r0
 598 000a 0520     		movs	r0, #5
 599 000c 002C     		cmp	r4, #0
 600 000e 09D1     		bne	.L70
 601 0010 2B00     		movs	r3, r5
 602 0012 1E33     		adds	r3, r3, #30
 603 0014 DBB2     		uxtb	r3, r3
 604 0016 0138     		subs	r0, r0, #1
 605 0018 3C2B     		cmp	r3, #60
 606 001a 03D8     		bhi	.L70
 607 001c 2800     		movs	r0, r5
 608 001e FFF7FEFF 		bl	modem_context_set_tx_power_offset_db
 609 0022 2000     		movs	r0, r4
 610              	.L70:
 611              		@ sp needed
 612 0024 70BD     		pop	{r4, r5, r6, pc}
 614              		.section	.text.smtc_modem_time_start_sync_service,"ax",%progbits
 615              		.align	1
 616              		.global	smtc_modem_time_start_sync_service
 617              		.syntax unified
 618              		.code	16
 619              		.thumb_func
 620              		.fpu softvfp
 622              	smtc_modem_time_start_sync_service:
 623              		@ args = 0, pretend = 0, frame = 0
 624              		@ frame_needed = 0, uses_anonymous_args = 0
 625 0000 70B5     		push	{r4, r5, r6, lr}
 626 0002 0C00     		movs	r4, r1
 627 0004 FFF7FEFF 		bl	modem_get_test_mode_status
 628 0008 0523     		movs	r3, #5
ARM GAS  /tmp/cc0VPHID.s 			page 12


 629 000a 0028     		cmp	r0, #0
 630 000c 13D1     		bne	.L74
 631 000e 013B     		subs	r3, r3, #1
 632 0010 012C     		cmp	r4, #1
 633 0012 10D8     		bhi	.L74
 634 0014 0F4D     		ldr	r5, .L80
 635 0016 2800     		movs	r0, r5
 636 0018 FFF7FEFF 		bl	clock_sync_is_enabled
 637 001c 0623     		movs	r3, #6
 638 001e 0028     		cmp	r0, #0
 639 0020 09D1     		bne	.L74
 640 0022 2200     		movs	r2, r4
 641 0024 0121     		movs	r1, #1
 642 0026 2800     		movs	r0, r5
 643 0028 FFF7FEFF 		bl	clock_sync_set_enabled
 644 002c FFF7FEFF 		bl	get_join_state
 645 0030 0228     		cmp	r0, #2
 646 0032 02D0     		beq	.L75
 647              	.L76:
 648 0034 0023     		movs	r3, #0
 649              	.L74:
 650              		@ sp needed
 651 0036 1800     		movs	r0, r3
 652 0038 70BD     		pop	{r4, r5, r6, pc}
 653              	.L75:
 654 003a FFF7FEFF 		bl	modem_supervisor_is_clock_sync_running
 655 003e 041E     		subs	r4, r0, #0
 656 0040 F8D1     		bne	.L76
 657 0042 0120     		movs	r0, #1
 658 0044 FFF7FEFF 		bl	modem_supervisor_add_task_clock_sync_time_req
 659 0048 2800     		movs	r0, r5
 660 004a FFF7FEFF 		bl	clock_sync_set_sync_lost
 661 004e 2300     		movs	r3, r4
 662 0050 F1E7     		b	.L74
 663              	.L81:
 664 0052 C046     		.align	2
 665              	.L80:
 666 0054 2C000000 		.word	smtc_modem_services_ctx+44
 668              		.section	.text.smtc_modem_time_stop_sync_service,"ax",%progbits
 669              		.align	1
 670              		.global	smtc_modem_time_stop_sync_service
 671              		.syntax unified
 672              		.code	16
 673              		.thumb_func
 674              		.fpu softvfp
 676              	smtc_modem_time_stop_sync_service:
 677              		@ args = 0, pretend = 0, frame = 0
 678              		@ frame_needed = 0, uses_anonymous_args = 0
 679 0000 70B5     		push	{r4, r5, r6, lr}
 680 0002 FFF7FEFF 		bl	modem_get_test_mode_status
 681 0006 0523     		movs	r3, #5
 682 0008 041E     		subs	r4, r0, #0
 683 000a 13D1     		bne	.L83
 684 000c 0A4D     		ldr	r5, .L87
 685 000e 2800     		movs	r0, r5
 686 0010 FFF7FEFF 		bl	clock_sync_is_enabled
 687 0014 0623     		movs	r3, #6
ARM GAS  /tmp/cc0VPHID.s 			page 13


 688 0016 0028     		cmp	r0, #0
 689 0018 0CD0     		beq	.L83
 690 001a 084B     		ldr	r3, .L87+4
 691 001c 2100     		movs	r1, r4
 692 001e 3C33     		adds	r3, r3, #60
 693 0020 1A78     		ldrb	r2, [r3]
 694 0022 2800     		movs	r0, r5
 695 0024 FFF7FEFF 		bl	clock_sync_set_enabled
 696 0028 FFF7FEFF 		bl	modem_supervisor_remove_task_clock_sync
 697 002c 2800     		movs	r0, r5
 698 002e FFF7FEFF 		bl	clock_sync_set_sync_lost
 699 0032 2300     		movs	r3, r4
 700              	.L83:
 701              		@ sp needed
 702 0034 1800     		movs	r0, r3
 703 0036 70BD     		pop	{r4, r5, r6, pc}
 704              	.L88:
 705              		.align	2
 706              	.L87:
 707 0038 2C000000 		.word	smtc_modem_services_ctx+44
 708 003c 00000000 		.word	smtc_modem_services_ctx
 710              		.section	.text.smtc_modem_get_time,"ax",%progbits
 711              		.align	1
 712              		.global	smtc_modem_get_time
 713              		.syntax unified
 714              		.code	16
 715              		.thumb_func
 716              		.fpu softvfp
 718              	smtc_modem_get_time:
 719              		@ args = 0, pretend = 0, frame = 0
 720              		@ frame_needed = 0, uses_anonymous_args = 0
 721 0000 F8B5     		push	{r3, r4, r5, r6, r7, lr}
 722 0002 0500     		movs	r5, r0
 723 0004 0C00     		movs	r4, r1
 724 0006 FFF7FEFF 		bl	modem_get_test_mode_status
 725 000a 0600     		movs	r6, r0
 726 000c 0520     		movs	r0, #5
 727 000e 002E     		cmp	r6, #0
 728 0010 10D1     		bne	.L90
 729 0012 0138     		subs	r0, r0, #1
 730 0014 002D     		cmp	r5, #0
 731 0016 0DD0     		beq	.L90
 732 0018 002C     		cmp	r4, #0
 733 001a 0BD0     		beq	.L90
 734 001c 084F     		ldr	r7, .L95
 735 001e 3800     		movs	r0, r7
 736 0020 FFF7FEFF 		bl	clock_sync_is_time_valid
 737 0024 0028     		cmp	r0, #0
 738 0026 06D0     		beq	.L91
 739 0028 2200     		movs	r2, r4
 740 002a 2900     		movs	r1, r5
 741 002c 3800     		movs	r0, r7
 742 002e FFF7FEFF 		bl	clock_sync_get_gps_time_second
 743 0032 3000     		movs	r0, r6
 744              	.L90:
 745              		@ sp needed
 746 0034 F8BD     		pop	{r3, r4, r5, r6, r7, pc}
ARM GAS  /tmp/cc0VPHID.s 			page 14


 747              	.L91:
 748 0036 2860     		str	r0, [r5]
 749 0038 2060     		str	r0, [r4]
 750 003a 1020     		movs	r0, #16
 751 003c FAE7     		b	.L90
 752              	.L96:
 753 003e C046     		.align	2
 754              	.L95:
 755 0040 2C000000 		.word	smtc_modem_services_ctx+44
 757              		.section	.text.smtc_modem_time_set_alcsync_fport,"ax",%progbits
 758              		.align	1
 759              		.global	smtc_modem_time_set_alcsync_fport
 760              		.syntax unified
 761              		.code	16
 762              		.thumb_func
 763              		.fpu softvfp
 765              	smtc_modem_time_set_alcsync_fport:
 766              		@ args = 0, pretend = 0, frame = 0
 767              		@ frame_needed = 0, uses_anonymous_args = 0
 768 0000 10B5     		push	{r4, lr}
 769 0002 0400     		movs	r4, r0
 770 0004 FFF7FEFF 		bl	modem_get_test_mode_status
 771 0008 0300     		movs	r3, r0
 772 000a 0520     		movs	r0, #5
 773 000c 002B     		cmp	r3, #0
 774 000e 06D1     		bne	.L98
 775 0010 2100     		movs	r1, r4
 776 0012 0348     		ldr	r0, .L103
 777 0014 FFF7FEFF 		bl	clock_sync_set_alcsync_port
 778 0018 0028     		cmp	r0, #0
 779 001a 00D0     		beq	.L98
 780 001c 0420     		movs	r0, #4
 781              	.L98:
 782              		@ sp needed
 783 001e 10BD     		pop	{r4, pc}
 784              	.L104:
 785              		.align	2
 786              	.L103:
 787 0020 2C000000 		.word	smtc_modem_services_ctx+44
 789              		.section	.text.smtc_modem_time_trigger_sync_request,"ax",%progbits
 790              		.align	1
 791              		.global	smtc_modem_time_trigger_sync_request
 792              		.syntax unified
 793              		.code	16
 794              		.thumb_func
 795              		.fpu softvfp
 797              	smtc_modem_time_trigger_sync_request:
 798              		@ args = 0, pretend = 0, frame = 0
 799              		@ frame_needed = 0, uses_anonymous_args = 0
 800 0000 10B5     		push	{r4, lr}
 801 0002 FFF7FEFF 		bl	modem_get_test_mode_status
 802 0006 0400     		movs	r4, r0
 803 0008 0520     		movs	r0, #5
 804 000a 002C     		cmp	r4, #0
 805 000c 04D1     		bne	.L106
 806 000e FFF7FEFF 		bl	is_modem_connected
 807 0012 0028     		cmp	r0, #0
ARM GAS  /tmp/cc0VPHID.s 			page 15


 808 0014 01D1     		bne	.L107
 809              	.L108:
 810 0016 0620     		movs	r0, #6
 811              	.L106:
 812              		@ sp needed
 813 0018 10BD     		pop	{r4, pc}
 814              	.L107:
 815 001a 0548     		ldr	r0, .L113
 816 001c FFF7FEFF 		bl	clock_sync_is_enabled
 817 0020 0028     		cmp	r0, #0
 818 0022 F8D0     		beq	.L108
 819 0024 0120     		movs	r0, #1
 820 0026 FFF7FEFF 		bl	modem_supervisor_add_task_clock_sync_time_req
 821 002a 2000     		movs	r0, r4
 822 002c F4E7     		b	.L106
 823              	.L114:
 824 002e C046     		.align	2
 825              	.L113:
 826 0030 2C000000 		.word	smtc_modem_services_ctx+44
 828              		.section	.text.smtc_modem_time_get_alcsync_fport,"ax",%progbits
 829              		.align	1
 830              		.global	smtc_modem_time_get_alcsync_fport
 831              		.syntax unified
 832              		.code	16
 833              		.thumb_func
 834              		.fpu softvfp
 836              	smtc_modem_time_get_alcsync_fport:
 837              		@ args = 0, pretend = 0, frame = 0
 838              		@ frame_needed = 0, uses_anonymous_args = 0
 839 0000 70B5     		push	{r4, r5, r6, lr}
 840 0002 0500     		movs	r5, r0
 841 0004 FFF7FEFF 		bl	modem_get_test_mode_status
 842 0008 0400     		movs	r4, r0
 843 000a 0520     		movs	r0, #5
 844 000c 002C     		cmp	r4, #0
 845 000e 07D1     		bne	.L116
 846 0010 0138     		subs	r0, r0, #1
 847 0012 002D     		cmp	r5, #0
 848 0014 04D0     		beq	.L116
 849 0016 0348     		ldr	r0, .L119
 850 0018 FFF7FEFF 		bl	clock_sync_get_alcsync_port
 851 001c 2870     		strb	r0, [r5]
 852 001e 2000     		movs	r0, r4
 853              	.L116:
 854              		@ sp needed
 855 0020 70BD     		pop	{r4, r5, r6, pc}
 856              	.L120:
 857 0022 C046     		.align	2
 858              	.L119:
 859 0024 2C000000 		.word	smtc_modem_services_ctx+44
 861              		.section	.text.smtc_modem_time_set_sync_interval_s,"ax",%progbits
 862              		.align	1
 863              		.global	smtc_modem_time_set_sync_interval_s
 864              		.syntax unified
 865              		.code	16
 866              		.thumb_func
 867              		.fpu softvfp
ARM GAS  /tmp/cc0VPHID.s 			page 16


 869              	smtc_modem_time_set_sync_interval_s:
 870              		@ args = 0, pretend = 0, frame = 0
 871              		@ frame_needed = 0, uses_anonymous_args = 0
 872 0000 10B5     		push	{r4, lr}
 873 0002 0400     		movs	r4, r0
 874 0004 FFF7FEFF 		bl	modem_get_test_mode_status
 875 0008 0300     		movs	r3, r0
 876 000a 0520     		movs	r0, #5
 877 000c 002B     		cmp	r3, #0
 878 000e 06D1     		bne	.L122
 879 0010 2100     		movs	r1, r4
 880 0012 0348     		ldr	r0, .L127
 881 0014 FFF7FEFF 		bl	clock_sync_set_interval_second
 882 0018 0028     		cmp	r0, #0
 883 001a 00D0     		beq	.L122
 884 001c 0420     		movs	r0, #4
 885              	.L122:
 886              		@ sp needed
 887 001e 10BD     		pop	{r4, pc}
 888              	.L128:
 889              		.align	2
 890              	.L127:
 891 0020 2C000000 		.word	smtc_modem_services_ctx+44
 893              		.section	.text.smtc_modem_time_get_sync_interval_s,"ax",%progbits
 894              		.align	1
 895              		.global	smtc_modem_time_get_sync_interval_s
 896              		.syntax unified
 897              		.code	16
 898              		.thumb_func
 899              		.fpu softvfp
 901              	smtc_modem_time_get_sync_interval_s:
 902              		@ args = 0, pretend = 0, frame = 0
 903              		@ frame_needed = 0, uses_anonymous_args = 0
 904 0000 70B5     		push	{r4, r5, r6, lr}
 905 0002 0500     		movs	r5, r0
 906 0004 FFF7FEFF 		bl	modem_get_test_mode_status
 907 0008 0400     		movs	r4, r0
 908 000a 0520     		movs	r0, #5
 909 000c 002C     		cmp	r4, #0
 910 000e 07D1     		bne	.L130
 911 0010 0138     		subs	r0, r0, #1
 912 0012 002D     		cmp	r5, #0
 913 0014 04D0     		beq	.L130
 914 0016 0348     		ldr	r0, .L133
 915 0018 FFF7FEFF 		bl	clock_sync_get_interval_second
 916 001c 2860     		str	r0, [r5]
 917 001e 2000     		movs	r0, r4
 918              	.L130:
 919              		@ sp needed
 920 0020 70BD     		pop	{r4, r5, r6, pc}
 921              	.L134:
 922 0022 C046     		.align	2
 923              	.L133:
 924 0024 2C000000 		.word	smtc_modem_services_ctx+44
 926              		.section	.text.smtc_modem_time_set_sync_invalid_delay_s,"ax",%progbits
 927              		.align	1
 928              		.global	smtc_modem_time_set_sync_invalid_delay_s
ARM GAS  /tmp/cc0VPHID.s 			page 17


 929              		.syntax unified
 930              		.code	16
 931              		.thumb_func
 932              		.fpu softvfp
 934              	smtc_modem_time_set_sync_invalid_delay_s:
 935              		@ args = 0, pretend = 0, frame = 0
 936              		@ frame_needed = 0, uses_anonymous_args = 0
 937 0000 10B5     		push	{r4, lr}
 938 0002 0400     		movs	r4, r0
 939 0004 FFF7FEFF 		bl	modem_get_test_mode_status
 940 0008 0300     		movs	r3, r0
 941 000a 0520     		movs	r0, #5
 942 000c 002B     		cmp	r3, #0
 943 000e 06D1     		bne	.L136
 944 0010 2100     		movs	r1, r4
 945 0012 0348     		ldr	r0, .L141
 946 0014 FFF7FEFF 		bl	clock_sync_set_invalid_time_delay_s
 947 0018 0028     		cmp	r0, #0
 948 001a 00D0     		beq	.L136
 949 001c 0420     		movs	r0, #4
 950              	.L136:
 951              		@ sp needed
 952 001e 10BD     		pop	{r4, pc}
 953              	.L142:
 954              		.align	2
 955              	.L141:
 956 0020 2C000000 		.word	smtc_modem_services_ctx+44
 958              		.section	.text.smtc_modem_time_get_sync_invalid_delay_s,"ax",%progbits
 959              		.align	1
 960              		.global	smtc_modem_time_get_sync_invalid_delay_s
 961              		.syntax unified
 962              		.code	16
 963              		.thumb_func
 964              		.fpu softvfp
 966              	smtc_modem_time_get_sync_invalid_delay_s:
 967              		@ args = 0, pretend = 0, frame = 0
 968              		@ frame_needed = 0, uses_anonymous_args = 0
 969 0000 70B5     		push	{r4, r5, r6, lr}
 970 0002 0500     		movs	r5, r0
 971 0004 FFF7FEFF 		bl	modem_get_test_mode_status
 972 0008 0400     		movs	r4, r0
 973 000a 0520     		movs	r0, #5
 974 000c 002C     		cmp	r4, #0
 975 000e 07D1     		bne	.L144
 976 0010 0138     		subs	r0, r0, #1
 977 0012 002D     		cmp	r5, #0
 978 0014 04D0     		beq	.L144
 979 0016 0348     		ldr	r0, .L147
 980 0018 FFF7FEFF 		bl	clock_sync_get_invalid_time_delay_s
 981 001c 2860     		str	r0, [r5]
 982 001e 2000     		movs	r0, r4
 983              	.L144:
 984              		@ sp needed
 985 0020 70BD     		pop	{r4, r5, r6, pc}
 986              	.L148:
 987 0022 C046     		.align	2
 988              	.L147:
ARM GAS  /tmp/cc0VPHID.s 			page 18


 989 0024 2C000000 		.word	smtc_modem_services_ctx+44
 991              		.section	.text.smtc_modem_get_status,"ax",%progbits
 992              		.align	1
 993              		.global	smtc_modem_get_status
 994              		.syntax unified
 995              		.code	16
 996              		.thumb_func
 997              		.fpu softvfp
 999              	smtc_modem_get_status:
 1000              		@ args = 0, pretend = 0, frame = 0
 1001              		@ frame_needed = 0, uses_anonymous_args = 0
 1002 0000 70B5     		push	{r4, r5, r6, lr}
 1003 0002 0D00     		movs	r5, r1
 1004 0004 FFF7FEFF 		bl	modem_get_test_mode_status
 1005 0008 0400     		movs	r4, r0
 1006 000a 0520     		movs	r0, #5
 1007 000c 002C     		cmp	r4, #0
 1008 000e 06D1     		bne	.L150
 1009 0010 0138     		subs	r0, r0, #1
 1010 0012 002D     		cmp	r5, #0
 1011 0014 03D0     		beq	.L150
 1012 0016 FFF7FEFF 		bl	get_modem_status
 1013 001a 2860     		str	r0, [r5]
 1014 001c 2000     		movs	r0, r4
 1015              	.L150:
 1016              		@ sp needed
 1017 001e 70BD     		pop	{r4, r5, r6, pc}
 1019              		.section	.text.smtc_modem_alarm_start_timer,"ax",%progbits
 1020              		.align	1
 1021              		.global	smtc_modem_alarm_start_timer
 1022              		.syntax unified
 1023              		.code	16
 1024              		.thumb_func
 1025              		.fpu softvfp
 1027              	smtc_modem_alarm_start_timer:
 1028              		@ args = 0, pretend = 0, frame = 0
 1029              		@ frame_needed = 0, uses_anonymous_args = 0
 1030 0000 10B5     		push	{r4, lr}
 1031 0002 0400     		movs	r4, r0
 1032 0004 FFF7FEFF 		bl	modem_get_test_mode_status
 1033 0008 0523     		movs	r3, #5
 1034 000a 0028     		cmp	r0, #0
 1035 000c 08D1     		bne	.L154
 1036 000e 002C     		cmp	r4, #0
 1037 0010 02D0     		beq	.L155
 1038 0012 FFF7FEFF 		bl	smtc_modem_hal_get_time_in_s
 1039 0016 2418     		adds	r4, r4, r0
 1040              	.L155:
 1041 0018 2000     		movs	r0, r4
 1042 001a FFF7FEFF 		bl	modem_set_user_alarm
 1043 001e 0023     		movs	r3, #0
 1044              	.L154:
 1045              		@ sp needed
 1046 0020 1800     		movs	r0, r3
 1047 0022 10BD     		pop	{r4, pc}
 1049              		.section	.rodata.smtc_modem_alarm_clear_timer.str1.1,"aMS",%progbits,1
 1050              	.LC42:
ARM GAS  /tmp/cc0VPHID.s 			page 19


 1051 0000 1B5B303B 		.ascii	"\033[0;33mWARN: Alarm clear timer impossible: no al"
 1051      33336D57 
 1051      41524E3A 
 1051      20416C61 
 1051      726D2063 
 1052 0030 61726D20 		.ascii	"arm timer is currently running\000"
 1052      74696D65 
 1052      72206973 
 1052      20637572 
 1052      72656E74 
 1053              		.section	.text.smtc_modem_alarm_clear_timer,"ax",%progbits
 1054              		.align	1
 1055              		.global	smtc_modem_alarm_clear_timer
 1056              		.syntax unified
 1057              		.code	16
 1058              		.thumb_func
 1059              		.fpu softvfp
 1061              	smtc_modem_alarm_clear_timer:
 1062              		@ args = 0, pretend = 0, frame = 0
 1063              		@ frame_needed = 0, uses_anonymous_args = 0
 1064 0000 10B5     		push	{r4, lr}
 1065 0002 FFF7FEFF 		bl	modem_get_test_mode_status
 1066 0006 0400     		movs	r4, r0
 1067 0008 0520     		movs	r0, #5
 1068 000a 002C     		cmp	r4, #0
 1069 000c 0AD1     		bne	.L161
 1070 000e FFF7FEFF 		bl	modem_get_user_alarm
 1071 0012 0028     		cmp	r0, #0
 1072 0014 07D1     		bne	.L162
 1073 0016 0648     		ldr	r0, .L164
 1074 0018 FFF7FEFF 		bl	smtc_modem_hal_print_trace
 1075 001c 0548     		ldr	r0, .L164+4
 1076 001e FFF7FEFF 		bl	smtc_modem_hal_print_trace
 1077 0022 0320     		movs	r0, #3
 1078              	.L161:
 1079              		@ sp needed
 1080 0024 10BD     		pop	{r4, pc}
 1081              	.L162:
 1082 0026 2000     		movs	r0, r4
 1083 0028 FFF7FEFF 		bl	modem_set_user_alarm
 1084 002c 2000     		movs	r0, r4
 1085 002e F9E7     		b	.L161
 1086              	.L165:
 1087              		.align	2
 1088              	.L164:
 1089 0030 00000000 		.word	.LC42
 1090 0034 30000000 		.word	.LC3
 1092              		.section	.rodata.smtc_modem_alarm_get_remaining_time.str1.1,"aMS",%progbits,1
 1093              	.LC45:
 1094 0000 1B5B303B 		.ascii	"\033[0;33mWARN: Alarm get remaining impossible: no "
 1094      33336D57 
 1094      41524E3A 
 1094      20416C61 
 1094      726D2067 
 1095 0030 616C6172 		.ascii	"alarm timer is currently running\000"
 1095      6D207469 
 1095      6D657220 
ARM GAS  /tmp/cc0VPHID.s 			page 20


 1095      69732063 
 1095      75727265 
 1096              		.section	.text.smtc_modem_alarm_get_remaining_time,"ax",%progbits
 1097              		.align	1
 1098              		.global	smtc_modem_alarm_get_remaining_time
 1099              		.syntax unified
 1100              		.code	16
 1101              		.thumb_func
 1102              		.fpu softvfp
 1104              	smtc_modem_alarm_get_remaining_time:
 1105              		@ args = 0, pretend = 0, frame = 0
 1106              		@ frame_needed = 0, uses_anonymous_args = 0
 1107 0000 70B5     		push	{r4, r5, r6, lr}
 1108 0002 0600     		movs	r6, r0
 1109 0004 FFF7FEFF 		bl	modem_get_test_mode_status
 1110 0008 0500     		movs	r5, r0
 1111 000a 0520     		movs	r0, #5
 1112 000c 002D     		cmp	r5, #0
 1113 000e 0DD1     		bne	.L167
 1114 0010 0138     		subs	r0, r0, #1
 1115 0012 002E     		cmp	r6, #0
 1116 0014 0AD0     		beq	.L167
 1117 0016 FFF7FEFF 		bl	modem_get_user_alarm
 1118 001a 0028     		cmp	r0, #0
 1119 001c 07D1     		bne	.L168
 1120 001e 0A48     		ldr	r0, .L172
 1121 0020 FFF7FEFF 		bl	smtc_modem_hal_print_trace
 1122 0024 0948     		ldr	r0, .L172+4
 1123 0026 FFF7FEFF 		bl	smtc_modem_hal_print_trace
 1124 002a 0320     		movs	r0, #3
 1125              	.L167:
 1126              		@ sp needed
 1127 002c 70BD     		pop	{r4, r5, r6, pc}
 1128              	.L168:
 1129 002e FFF7FEFF 		bl	modem_get_user_alarm
 1130 0032 0400     		movs	r4, r0
 1131 0034 FFF7FEFF 		bl	smtc_modem_hal_get_time_in_s
 1132 0038 201A     		subs	r0, r4, r0
 1133 003a C243     		mvns	r2, r0
 1134 003c D217     		asrs	r2, r2, #31
 1135 003e 1040     		ands	r0, r2
 1136 0040 3060     		str	r0, [r6]
 1137 0042 2800     		movs	r0, r5
 1138 0044 F2E7     		b	.L167
 1139              	.L173:
 1140 0046 C046     		.align	2
 1141              	.L172:
 1142 0048 00000000 		.word	.LC45
 1143 004c 30000000 		.word	.LC3
 1145              		.section	.text.smtc_modem_get_joineui,"ax",%progbits
 1146              		.align	1
 1147              		.global	smtc_modem_get_joineui
 1148              		.syntax unified
 1149              		.code	16
 1150              		.thumb_func
 1151              		.fpu softvfp
 1153              	smtc_modem_get_joineui:
ARM GAS  /tmp/cc0VPHID.s 			page 21


 1154              		@ args = 0, pretend = 0, frame = 0
 1155              		@ frame_needed = 0, uses_anonymous_args = 0
 1156 0000 70B5     		push	{r4, r5, r6, lr}
 1157 0002 0D00     		movs	r5, r1
 1158 0004 FFF7FEFF 		bl	modem_get_test_mode_status
 1159 0008 0523     		movs	r3, #5
 1160 000a 041E     		subs	r4, r0, #0
 1161 000c 09D1     		bne	.L175
 1162 000e 013B     		subs	r3, r3, #1
 1163 0010 002D     		cmp	r5, #0
 1164 0012 06D0     		beq	.L175
 1165 0014 2800     		movs	r0, r5
 1166 0016 FFF7FEFF 		bl	lorawan_api_get_joineui
 1167 001a 2300     		movs	r3, r4
 1168 001c 0028     		cmp	r0, #0
 1169 001e 00D0     		beq	.L175
 1170 0020 0633     		adds	r3, r3, #6
 1171              	.L175:
 1172 0022 1800     		movs	r0, r3
 1173              		@ sp needed
 1174 0024 70BD     		pop	{r4, r5, r6, pc}
 1176              		.section	.rodata.smtc_modem_set_joineui.str1.1,"aMS",%progbits,1
 1177              	.LC49:
 1178 0000 1B5B303B 		.ascii	"\033[0;31mERROR: %s call but the device is already "
 1178      33316D45 
 1178      52524F52 
 1178      3A202573 
 1178      2063616C 
 1179 0030 6A6F696E 		.ascii	"join\015\012\000"
 1179      0D0A00
 1180              		.section	.text.smtc_modem_set_joineui,"ax",%progbits
 1181              		.align	1
 1182              		.global	smtc_modem_set_joineui
 1183              		.syntax unified
 1184              		.code	16
 1185              		.thumb_func
 1186              		.fpu softvfp
 1188              	smtc_modem_set_joineui:
 1189              		@ args = 0, pretend = 0, frame = 0
 1190              		@ frame_needed = 0, uses_anonymous_args = 0
 1191 0000 70B5     		push	{r4, r5, r6, lr}
 1192 0002 0D00     		movs	r5, r1
 1193 0004 FFF7FEFF 		bl	modem_get_test_mode_status
 1194 0008 0524     		movs	r4, #5
 1195 000a 0028     		cmp	r0, #0
 1196 000c 0ED1     		bne	.L181
 1197 000e 013C     		subs	r4, r4, #1
 1198 0010 002D     		cmp	r5, #0
 1199 0012 0BD0     		beq	.L181
 1200 0014 FFF7FEFF 		bl	get_join_state
 1201 0018 041E     		subs	r4, r0, #0
 1202 001a 09D0     		beq	.L182
 1203 001c 0849     		ldr	r1, .L188
 1204 001e 0948     		ldr	r0, .L188+4
 1205 0020 FFF7FEFF 		bl	smtc_modem_hal_print_trace
 1206 0024 0848     		ldr	r0, .L188+8
 1207 0026 FFF7FEFF 		bl	smtc_modem_hal_print_trace
ARM GAS  /tmp/cc0VPHID.s 			page 22


 1208 002a 0524     		movs	r4, #5
 1209              	.L181:
 1210              		@ sp needed
 1211 002c 2000     		movs	r0, r4
 1212 002e 70BD     		pop	{r4, r5, r6, pc}
 1213              	.L182:
 1214 0030 2800     		movs	r0, r5
 1215 0032 FFF7FEFF 		bl	lorawan_api_set_joineui
 1216 0036 0028     		cmp	r0, #0
 1217 0038 F8D0     		beq	.L181
 1218 003a 0624     		movs	r4, #6
 1219 003c F6E7     		b	.L181
 1220              	.L189:
 1221 003e C046     		.align	2
 1222              	.L188:
 1223 0040 00000000 		.word	.LANCHOR4
 1224 0044 00000000 		.word	.LC49
 1225 0048 30000000 		.word	.LC3
 1227              		.section	.text.smtc_modem_get_deveui,"ax",%progbits
 1228              		.align	1
 1229              		.global	smtc_modem_get_deveui
 1230              		.syntax unified
 1231              		.code	16
 1232              		.thumb_func
 1233              		.fpu softvfp
 1235              	smtc_modem_get_deveui:
 1236              		@ args = 0, pretend = 0, frame = 0
 1237              		@ frame_needed = 0, uses_anonymous_args = 0
 1238 0000 70B5     		push	{r4, r5, r6, lr}
 1239 0002 0D00     		movs	r5, r1
 1240 0004 FFF7FEFF 		bl	modem_get_test_mode_status
 1241 0008 0523     		movs	r3, #5
 1242 000a 041E     		subs	r4, r0, #0
 1243 000c 09D1     		bne	.L191
 1244 000e 013B     		subs	r3, r3, #1
 1245 0010 002D     		cmp	r5, #0
 1246 0012 06D0     		beq	.L191
 1247 0014 2800     		movs	r0, r5
 1248 0016 FFF7FEFF 		bl	lorawan_api_get_deveui
 1249 001a 2300     		movs	r3, r4
 1250 001c 0028     		cmp	r0, #0
 1251 001e 00D0     		beq	.L191
 1252 0020 0633     		adds	r3, r3, #6
 1253              	.L191:
 1254 0022 1800     		movs	r0, r3
 1255              		@ sp needed
 1256 0024 70BD     		pop	{r4, r5, r6, pc}
 1258              		.section	.text.smtc_modem_set_deveui,"ax",%progbits
 1259              		.align	1
 1260              		.global	smtc_modem_set_deveui
 1261              		.syntax unified
 1262              		.code	16
 1263              		.thumb_func
 1264              		.fpu softvfp
 1266              	smtc_modem_set_deveui:
 1267              		@ args = 0, pretend = 0, frame = 0
 1268              		@ frame_needed = 0, uses_anonymous_args = 0
ARM GAS  /tmp/cc0VPHID.s 			page 23


 1269 0000 70B5     		push	{r4, r5, r6, lr}
 1270 0002 0D00     		movs	r5, r1
 1271 0004 FFF7FEFF 		bl	modem_get_test_mode_status
 1272 0008 0524     		movs	r4, #5
 1273 000a 0028     		cmp	r0, #0
 1274 000c 0ED1     		bne	.L197
 1275 000e 013C     		subs	r4, r4, #1
 1276 0010 002D     		cmp	r5, #0
 1277 0012 0BD0     		beq	.L197
 1278 0014 FFF7FEFF 		bl	get_join_state
 1279 0018 041E     		subs	r4, r0, #0
 1280 001a 09D0     		beq	.L198
 1281 001c 0849     		ldr	r1, .L204
 1282 001e 0948     		ldr	r0, .L204+4
 1283 0020 FFF7FEFF 		bl	smtc_modem_hal_print_trace
 1284 0024 0848     		ldr	r0, .L204+8
 1285 0026 FFF7FEFF 		bl	smtc_modem_hal_print_trace
 1286 002a 0524     		movs	r4, #5
 1287              	.L197:
 1288              		@ sp needed
 1289 002c 2000     		movs	r0, r4
 1290 002e 70BD     		pop	{r4, r5, r6, pc}
 1291              	.L198:
 1292 0030 2800     		movs	r0, r5
 1293 0032 FFF7FEFF 		bl	lorawan_api_set_deveui
 1294 0036 0028     		cmp	r0, #0
 1295 0038 F8D0     		beq	.L197
 1296 003a 0624     		movs	r4, #6
 1297 003c F6E7     		b	.L197
 1298              	.L205:
 1299 003e C046     		.align	2
 1300              	.L204:
 1301 0040 00000000 		.word	.LANCHOR5
 1302 0044 00000000 		.word	.LC49
 1303 0048 30000000 		.word	.LC3
 1305              		.section	.text.smtc_modem_set_nwkkey,"ax",%progbits
 1306              		.align	1
 1307              		.global	smtc_modem_set_nwkkey
 1308              		.syntax unified
 1309              		.code	16
 1310              		.thumb_func
 1311              		.fpu softvfp
 1313              	smtc_modem_set_nwkkey:
 1314              		@ args = 0, pretend = 0, frame = 0
 1315              		@ frame_needed = 0, uses_anonymous_args = 0
 1316 0000 10B5     		push	{r4, lr}
 1317 0002 0C00     		movs	r4, r1
 1318 0004 FFF7FEFF 		bl	modem_get_test_mode_status
 1319 0008 0300     		movs	r3, r0
 1320 000a 0520     		movs	r0, #5
 1321 000c 002B     		cmp	r3, #0
 1322 000e 0ED1     		bne	.L207
 1323 0010 0138     		subs	r0, r0, #1
 1324 0012 002C     		cmp	r4, #0
 1325 0014 0BD0     		beq	.L207
 1326 0016 FFF7FEFF 		bl	get_join_state
 1327 001a 0028     		cmp	r0, #0
ARM GAS  /tmp/cc0VPHID.s 			page 24


 1328 001c 08D0     		beq	.L208
 1329 001e 0849     		ldr	r1, .L214
 1330 0020 0848     		ldr	r0, .L214+4
 1331 0022 FFF7FEFF 		bl	smtc_modem_hal_print_trace
 1332 0026 0848     		ldr	r0, .L214+8
 1333 0028 FFF7FEFF 		bl	smtc_modem_hal_print_trace
 1334 002c 0520     		movs	r0, #5
 1335              	.L207:
 1336              		@ sp needed
 1337 002e 10BD     		pop	{r4, pc}
 1338              	.L208:
 1339 0030 2000     		movs	r0, r4
 1340 0032 FFF7FEFF 		bl	modem_context_set_appkey
 1341 0036 0028     		cmp	r0, #0
 1342 0038 F9D0     		beq	.L207
 1343 003a 0620     		movs	r0, #6
 1344 003c F7E7     		b	.L207
 1345              	.L215:
 1346 003e C046     		.align	2
 1347              	.L214:
 1348 0040 00000000 		.word	.LANCHOR6
 1349 0044 00000000 		.word	.LC49
 1350 0048 30000000 		.word	.LC3
 1352              		.section	.text.smtc_modem_get_class,"ax",%progbits
 1353              		.align	1
 1354              		.global	smtc_modem_get_class
 1355              		.syntax unified
 1356              		.code	16
 1357              		.thumb_func
 1358              		.fpu softvfp
 1360              	smtc_modem_get_class:
 1361              		@ args = 0, pretend = 0, frame = 0
 1362              		@ frame_needed = 0, uses_anonymous_args = 0
 1363 0000 70B5     		push	{r4, r5, r6, lr}
 1364 0002 0D00     		movs	r5, r1
 1365 0004 FFF7FEFF 		bl	modem_get_test_mode_status
 1366 0008 0400     		movs	r4, r0
 1367 000a 0520     		movs	r0, #5
 1368 000c 002C     		cmp	r4, #0
 1369 000e 06D1     		bne	.L217
 1370 0010 0138     		subs	r0, r0, #1
 1371 0012 002D     		cmp	r5, #0
 1372 0014 03D0     		beq	.L217
 1373 0016 FFF7FEFF 		bl	get_modem_class
 1374 001a 2870     		strb	r0, [r5]
 1375 001c 2000     		movs	r0, r4
 1376              	.L217:
 1377              		@ sp needed
 1378 001e 70BD     		pop	{r4, r5, r6, pc}
 1380              		.section	.rodata.smtc_modem_set_class.str1.1,"aMS",%progbits,1
 1381              	.LC59:
 1382 0000 1B5B303B 		.ascii	"\033[0;31mERROR: set to class b is refused : modem "
 1382      33316D45 
 1382      52524F52 
 1382      3A207365 
 1382      7420746F 
 1383 0030 6973206E 		.ascii	"is not time synced\000"
ARM GAS  /tmp/cc0VPHID.s 			page 25


 1383      6F742074 
 1383      696D6520 
 1383      73796E63 
 1383      656400
 1384              	.LC62:
 1385 0043 1B5B303B 		.ascii	"\033[0;31mERROR: set to class b is refused : modem "
 1385      33316D45 
 1385      52524F52 
 1385      3A207365 
 1385      7420746F 
 1386 0073 6973206E 		.ascii	"is not joined\000"
 1386      6F74206A 
 1386      6F696E65 
 1386      6400
 1387              		.section	.text.smtc_modem_set_class,"ax",%progbits
 1388              		.align	1
 1389              		.global	smtc_modem_set_class
 1390              		.syntax unified
 1391              		.code	16
 1392              		.thumb_func
 1393              		.fpu softvfp
 1395              	smtc_modem_set_class:
 1396              		@ args = 0, pretend = 0, frame = 0
 1397              		@ frame_needed = 0, uses_anonymous_args = 0
 1398 0000 70B5     		push	{r4, r5, r6, lr}
 1399 0002 0C00     		movs	r4, r1
 1400 0004 FFF7FEFF 		bl	modem_get_test_mode_status
 1401 0008 0500     		movs	r5, r0
 1402 000a 0520     		movs	r0, #5
 1403 000c 002D     		cmp	r5, #0
 1404 000e 1DD1     		bne	.L221
 1405 0010 012C     		cmp	r4, #1
 1406 0012 0FD0     		beq	.L222
 1407 0014 022C     		cmp	r4, #2
 1408 0016 25D0     		beq	.L223
 1409 0018 0138     		subs	r0, r0, #1
 1410 001a 002C     		cmp	r4, #0
 1411 001c 16D1     		bne	.L221
 1412 001e 2000     		movs	r0, r4
 1413 0020 FFF7FEFF 		bl	lorawan_api_class_b_enabled
 1414 0024 2000     		movs	r0, r4
 1415              	.L229:
 1416 0026 FFF7FEFF 		bl	lorawan_api_class_c_enabled
 1417 002a 2000     		movs	r0, r4
 1418 002c FFF7FEFF 		bl	set_modem_class
 1419 0030 0020     		movs	r0, #0
 1420 0032 0BE0     		b	.L221
 1421              	.L222:
 1422 0034 0E48     		ldr	r0, .L231
 1423 0036 FFF7FEFF 		bl	clock_sync_is_time_valid
 1424 003a 0028     		cmp	r0, #0
 1425 003c 07D1     		bne	.L225
 1426 003e 0D48     		ldr	r0, .L231+4
 1427              	.L230:
 1428 0040 FFF7FEFF 		bl	smtc_modem_hal_print_trace
 1429 0044 0C48     		ldr	r0, .L231+8
 1430 0046 FFF7FEFF 		bl	smtc_modem_hal_print_trace
ARM GAS  /tmp/cc0VPHID.s 			page 26


 1431 004a 0620     		movs	r0, #6
 1432              	.L221:
 1433              		@ sp needed
 1434 004c 70BD     		pop	{r4, r5, r6, pc}
 1435              	.L225:
 1436 004e FFF7FEFF 		bl	get_join_state
 1437 0052 0228     		cmp	r0, #2
 1438 0054 01D0     		beq	.L226
 1439 0056 0948     		ldr	r0, .L231+12
 1440 0058 F2E7     		b	.L230
 1441              	.L226:
 1442 005a 2000     		movs	r0, r4
 1443 005c FFF7FEFF 		bl	lorawan_api_class_b_enabled
 1444 0060 2800     		movs	r0, r5
 1445 0062 E0E7     		b	.L229
 1446              	.L223:
 1447 0064 2800     		movs	r0, r5
 1448 0066 FFF7FEFF 		bl	lorawan_api_class_b_enabled
 1449 006a 0120     		movs	r0, #1
 1450 006c DBE7     		b	.L229
 1451              	.L232:
 1452 006e C046     		.align	2
 1453              	.L231:
 1454 0070 2C000000 		.word	smtc_modem_services_ctx+44
 1455 0074 00000000 		.word	.LC59
 1456 0078 30000000 		.word	.LC3
 1457 007c 43000000 		.word	.LC62
 1459              		.section	.text.smtc_modem_multicast_set_grp_config,"ax",%progbits
 1460              		.align	1
 1461              		.global	smtc_modem_multicast_set_grp_config
 1462              		.syntax unified
 1463              		.code	16
 1464              		.thumb_func
 1465              		.fpu softvfp
 1467              	smtc_modem_multicast_set_grp_config:
 1468              		@ args = 4, pretend = 0, frame = 0
 1469              		@ frame_needed = 0, uses_anonymous_args = 0
 1470 0000 70B5     		push	{r4, r5, r6, lr}
 1471 0002 1D00     		movs	r5, r3
 1472 0004 0C00     		movs	r4, r1
 1473 0006 1600     		movs	r6, r2
 1474 0008 FFF7FEFF 		bl	modem_get_test_mode_status
 1475 000c 0300     		movs	r3, r0
 1476 000e 0520     		movs	r0, #5
 1477 0010 002B     		cmp	r3, #0
 1478 0012 15D1     		bne	.L234
 1479 0014 0138     		subs	r0, r0, #1
 1480 0016 002D     		cmp	r5, #0
 1481 0018 12D0     		beq	.L234
 1482 001a 049B     		ldr	r3, [sp, #16]
 1483 001c 002B     		cmp	r3, #0
 1484 001e 0FD0     		beq	.L234
 1485 0020 3100     		movs	r1, r6
 1486 0022 2000     		movs	r0, r4
 1487 0024 FFF7FEFF 		bl	lorawan_api_multicast_set_group_address
 1488 0028 0028     		cmp	r0, #0
 1489 002a 06D1     		bne	.L235
ARM GAS  /tmp/cc0VPHID.s 			page 27


 1490 002c 2900     		movs	r1, r5
 1491 002e 2000     		movs	r0, r4
 1492 0030 049A     		ldr	r2, [sp, #16]
 1493 0032 FFF7FEFF 		bl	lorawan_api_multicast_set_group_session_keys
 1494 0036 0028     		cmp	r0, #0
 1495 0038 02D0     		beq	.L234
 1496              	.L235:
 1497 003a 0128     		cmp	r0, #1
 1498 003c 01D1     		bne	.L239
 1499 003e 0330     		adds	r0, r0, #3
 1500              	.L234:
 1501              		@ sp needed
 1502 0040 70BD     		pop	{r4, r5, r6, pc}
 1503              	.L239:
 1504 0042 0620     		movs	r0, #6
 1505 0044 FCE7     		b	.L234
 1507              		.section	.text.smtc_modem_multicast_get_grp_config,"ax",%progbits
 1508              		.align	1
 1509              		.global	smtc_modem_multicast_get_grp_config
 1510              		.syntax unified
 1511              		.code	16
 1512              		.thumb_func
 1513              		.fpu softvfp
 1515              	smtc_modem_multicast_get_grp_config:
 1516              		@ args = 0, pretend = 0, frame = 0
 1517              		@ frame_needed = 0, uses_anonymous_args = 0
 1518 0000 70B5     		push	{r4, r5, r6, lr}
 1519 0002 0D00     		movs	r5, r1
 1520 0004 1400     		movs	r4, r2
 1521 0006 FFF7FEFF 		bl	modem_get_test_mode_status
 1522 000a 0300     		movs	r3, r0
 1523 000c 0520     		movs	r0, #5
 1524 000e 002B     		cmp	r3, #0
 1525 0010 0CD1     		bne	.L244
 1526 0012 0138     		subs	r0, r0, #1
 1527 0014 002C     		cmp	r4, #0
 1528 0016 09D0     		beq	.L244
 1529 0018 2100     		movs	r1, r4
 1530 001a 2800     		movs	r0, r5
 1531 001c FFF7FEFF 		bl	lorawan_api_multicast_get_group_address
 1532 0020 031E     		subs	r3, r0, #0
 1533 0022 03D0     		beq	.L244
 1534 0024 0620     		movs	r0, #6
 1535 0026 012B     		cmp	r3, #1
 1536 0028 00D1     		bne	.L244
 1537 002a 0238     		subs	r0, r0, #2
 1538              	.L244:
 1539              		@ sp needed
 1540 002c 70BD     		pop	{r4, r5, r6, pc}
 1542              		.section	.text.smtc_modem_multicast_class_c_start_session,"ax",%progbits
 1543              		.align	1
 1544              		.global	smtc_modem_multicast_class_c_start_session
 1545              		.syntax unified
 1546              		.code	16
 1547              		.thumb_func
 1548              		.fpu softvfp
 1550              	smtc_modem_multicast_class_c_start_session:
ARM GAS  /tmp/cc0VPHID.s 			page 28


 1551              		@ args = 0, pretend = 0, frame = 0
 1552              		@ frame_needed = 0, uses_anonymous_args = 0
 1553 0000 F8B5     		push	{r3, r4, r5, r6, r7, lr}
 1554 0002 0D00     		movs	r5, r1
 1555 0004 1600     		movs	r6, r2
 1556 0006 1F00     		movs	r7, r3
 1557 0008 FFF7FEFF 		bl	modem_get_test_mode_status
 1558 000c 0400     		movs	r4, r0
 1559 000e 0520     		movs	r0, #5
 1560 0010 002C     		cmp	r4, #0
 1561 0012 11D1     		bne	.L252
 1562 0014 3A00     		movs	r2, r7
 1563 0016 3100     		movs	r1, r6
 1564 0018 2800     		movs	r0, r5
 1565 001a FFF7FEFF 		bl	lorawan_api_multicast_c_start_session
 1566 001e 0300     		movs	r3, r0
 1567 0020 0420     		movs	r0, #4
 1568 0022 012B     		cmp	r3, #1
 1569 0024 08D0     		beq	.L252
 1570 0026 2000     		movs	r0, r4
 1571 0028 012B     		cmp	r3, #1
 1572 002a 05D9     		bls	.L252
 1573 002c 043B     		subs	r3, r3, #4
 1574 002e DBB2     		uxtb	r3, r3
 1575 0030 0430     		adds	r0, r0, #4
 1576 0032 012B     		cmp	r3, #1
 1577 0034 00D9     		bls	.L252
 1578 0036 0230     		adds	r0, r0, #2
 1579              	.L252:
 1580              		@ sp needed
 1581 0038 F8BD     		pop	{r3, r4, r5, r6, r7, pc}
 1583              		.section	.text.smtc_modem_multicast_class_c_get_session_status,"ax",%progbits
 1584              		.align	1
 1585              		.global	smtc_modem_multicast_class_c_get_session_status
 1586              		.syntax unified
 1587              		.code	16
 1588              		.thumb_func
 1589              		.fpu softvfp
 1591              	smtc_modem_multicast_class_c_get_session_status:
 1592              		@ args = 4, pretend = 0, frame = 0
 1593              		@ frame_needed = 0, uses_anonymous_args = 0
 1594 0000 70B5     		push	{r4, r5, r6, lr}
 1595 0002 1D00     		movs	r5, r3
 1596 0004 0E00     		movs	r6, r1
 1597 0006 1400     		movs	r4, r2
 1598 0008 FFF7FEFF 		bl	modem_get_test_mode_status
 1599 000c 0300     		movs	r3, r0
 1600 000e 0520     		movs	r0, #5
 1601 0010 002B     		cmp	r3, #0
 1602 0012 12D1     		bne	.L258
 1603 0014 0138     		subs	r0, r0, #1
 1604 0016 002C     		cmp	r4, #0
 1605 0018 0FD0     		beq	.L258
 1606 001a 002D     		cmp	r5, #0
 1607 001c 0DD0     		beq	.L258
 1608 001e 049B     		ldr	r3, [sp, #16]
 1609 0020 002B     		cmp	r3, #0
ARM GAS  /tmp/cc0VPHID.s 			page 29


 1610 0022 0AD0     		beq	.L258
 1611 0024 2A00     		movs	r2, r5
 1612 0026 2100     		movs	r1, r4
 1613 0028 3000     		movs	r0, r6
 1614 002a FFF7FEFF 		bl	lorawan_api_multicast_c_get_session_status
 1615 002e 031E     		subs	r3, r0, #0
 1616 0030 03D0     		beq	.L258
 1617 0032 0620     		movs	r0, #6
 1618 0034 012B     		cmp	r3, #1
 1619 0036 00D1     		bne	.L258
 1620 0038 0238     		subs	r0, r0, #2
 1621              	.L258:
 1622              		@ sp needed
 1623 003a 70BD     		pop	{r4, r5, r6, pc}
 1625              		.section	.text.smtc_modem_multicast_class_c_stop_session,"ax",%progbits
 1626              		.align	1
 1627              		.global	smtc_modem_multicast_class_c_stop_session
 1628              		.syntax unified
 1629              		.code	16
 1630              		.thumb_func
 1631              		.fpu softvfp
 1633              	smtc_modem_multicast_class_c_stop_session:
 1634              		@ args = 0, pretend = 0, frame = 0
 1635              		@ frame_needed = 0, uses_anonymous_args = 0
 1636 0000 10B5     		push	{r4, lr}
 1637 0002 0C00     		movs	r4, r1
 1638 0004 FFF7FEFF 		bl	modem_get_test_mode_status
 1639 0008 0300     		movs	r3, r0
 1640 000a 0520     		movs	r0, #5
 1641 000c 002B     		cmp	r3, #0
 1642 000e 08D1     		bne	.L268
 1643 0010 2000     		movs	r0, r4
 1644 0012 FFF7FEFF 		bl	lorawan_api_multicast_c_stop_session
 1645 0016 031E     		subs	r3, r0, #0
 1646 0018 03D0     		beq	.L268
 1647 001a 0620     		movs	r0, #6
 1648 001c 012B     		cmp	r3, #1
 1649 001e 00D1     		bne	.L268
 1650 0020 0238     		subs	r0, r0, #2
 1651              	.L268:
 1652              		@ sp needed
 1653 0022 10BD     		pop	{r4, pc}
 1655              		.section	.text.smtc_modem_multicast_class_c_stop_all_sessions,"ax",%progbits
 1656              		.align	1
 1657              		.global	smtc_modem_multicast_class_c_stop_all_sessions
 1658              		.syntax unified
 1659              		.code	16
 1660              		.thumb_func
 1661              		.fpu softvfp
 1663              	smtc_modem_multicast_class_c_stop_all_sessions:
 1664              		@ args = 0, pretend = 0, frame = 0
 1665              		@ frame_needed = 0, uses_anonymous_args = 0
 1666 0000 10B5     		push	{r4, lr}
 1667 0002 FFF7FEFF 		bl	modem_get_test_mode_status
 1668 0006 0300     		movs	r3, r0
 1669 0008 0520     		movs	r0, #5
 1670 000a 002B     		cmp	r3, #0
ARM GAS  /tmp/cc0VPHID.s 			page 30


 1671 000c 04D1     		bne	.L275
 1672 000e FFF7FEFF 		bl	lorawan_api_multicast_c_stop_all_sessions
 1673 0012 0028     		cmp	r0, #0
 1674 0014 00D0     		beq	.L275
 1675 0016 0620     		movs	r0, #6
 1676              	.L275:
 1677              		@ sp needed
 1678 0018 10BD     		pop	{r4, pc}
 1680              		.section	.text.smtc_modem_multicast_class_b_start_session,"ax",%progbits
 1681              		.align	1
 1682              		.global	smtc_modem_multicast_class_b_start_session
 1683              		.syntax unified
 1684              		.code	16
 1685              		.thumb_func
 1686              		.fpu softvfp
 1688              	smtc_modem_multicast_class_b_start_session:
 1689              		@ args = 4, pretend = 0, frame = 8
 1690              		@ frame_needed = 0, uses_anonymous_args = 0
 1691 0000 F7B5     		push	{r0, r1, r2, r4, r5, r6, r7, lr}
 1692 0002 1E00     		movs	r6, r3
 1693 0004 08AB     		add	r3, sp, #32
 1694 0006 0D00     		movs	r5, r1
 1695 0008 1F78     		ldrb	r7, [r3]
 1696 000a 0192     		str	r2, [sp, #4]
 1697 000c FFF7FEFF 		bl	modem_get_test_mode_status
 1698 0010 0400     		movs	r4, r0
 1699 0012 0520     		movs	r0, #5
 1700 0014 002C     		cmp	r4, #0
 1701 0016 12D1     		bne	.L281
 1702 0018 3B00     		movs	r3, r7
 1703 001a 3200     		movs	r2, r6
 1704 001c 2800     		movs	r0, r5
 1705 001e 0199     		ldr	r1, [sp, #4]
 1706 0020 FFF7FEFF 		bl	lorawan_api_multicast_b_start_session
 1707 0024 0300     		movs	r3, r0
 1708 0026 0420     		movs	r0, #4
 1709 0028 012B     		cmp	r3, #1
 1710 002a 08D0     		beq	.L281
 1711 002c 2000     		movs	r0, r4
 1712 002e 012B     		cmp	r3, #1
 1713 0030 05D9     		bls	.L281
 1714 0032 043B     		subs	r3, r3, #4
 1715 0034 DBB2     		uxtb	r3, r3
 1716 0036 0430     		adds	r0, r0, #4
 1717 0038 012B     		cmp	r3, #1
 1718 003a 00D9     		bls	.L281
 1719 003c 0230     		adds	r0, r0, #2
 1720              	.L281:
 1721              		@ sp needed
 1722 003e FEBD     		pop	{r1, r2, r3, r4, r5, r6, r7, pc}
 1724              		.section	.text.smtc_modem_multicast_class_b_get_session_status,"ax",%progbits
 1725              		.align	1
 1726              		.global	smtc_modem_multicast_class_b_get_session_status
 1727              		.syntax unified
 1728              		.code	16
 1729              		.thumb_func
 1730              		.fpu softvfp
ARM GAS  /tmp/cc0VPHID.s 			page 31


 1732              	smtc_modem_multicast_class_b_get_session_status:
 1733              		@ args = 12, pretend = 0, frame = 0
 1734              		@ frame_needed = 0, uses_anonymous_args = 0
 1735 0000 F7B5     		push	{r0, r1, r2, r4, r5, r6, r7, lr}
 1736 0002 0A9F     		ldr	r7, [sp, #40]
 1737 0004 1D00     		movs	r5, r3
 1738 0006 0E00     		movs	r6, r1
 1739 0008 1400     		movs	r4, r2
 1740 000a FFF7FEFF 		bl	modem_get_test_mode_status
 1741 000e 0300     		movs	r3, r0
 1742 0010 0520     		movs	r0, #5
 1743 0012 002B     		cmp	r3, #0
 1744 0014 1AD1     		bne	.L287
 1745 0016 0138     		subs	r0, r0, #1
 1746 0018 002C     		cmp	r4, #0
 1747 001a 17D0     		beq	.L287
 1748 001c 002D     		cmp	r5, #0
 1749 001e 15D0     		beq	.L287
 1750 0020 089B     		ldr	r3, [sp, #32]
 1751 0022 002B     		cmp	r3, #0
 1752 0024 12D0     		beq	.L287
 1753 0026 099B     		ldr	r3, [sp, #36]
 1754 0028 002B     		cmp	r3, #0
 1755 002a 0FD0     		beq	.L287
 1756 002c 002F     		cmp	r7, #0
 1757 002e 0DD0     		beq	.L287
 1758 0030 0093     		str	r3, [sp]
 1759 0032 2A00     		movs	r2, r5
 1760 0034 089B     		ldr	r3, [sp, #32]
 1761 0036 2100     		movs	r1, r4
 1762 0038 3000     		movs	r0, r6
 1763 003a 0197     		str	r7, [sp, #4]
 1764 003c FFF7FEFF 		bl	lorawan_api_multicast_b_get_session_status
 1765 0040 031E     		subs	r3, r0, #0
 1766 0042 03D0     		beq	.L287
 1767 0044 0620     		movs	r0, #6
 1768 0046 012B     		cmp	r3, #1
 1769 0048 00D1     		bne	.L287
 1770 004a 0238     		subs	r0, r0, #2
 1771              	.L287:
 1772              		@ sp needed
 1773 004c FEBD     		pop	{r1, r2, r3, r4, r5, r6, r7, pc}
 1775              		.section	.text.smtc_modem_multicast_class_b_stop_session,"ax",%progbits
 1776              		.align	1
 1777              		.global	smtc_modem_multicast_class_b_stop_session
 1778              		.syntax unified
 1779              		.code	16
 1780              		.thumb_func
 1781              		.fpu softvfp
 1783              	smtc_modem_multicast_class_b_stop_session:
 1784              		@ args = 0, pretend = 0, frame = 0
 1785              		@ frame_needed = 0, uses_anonymous_args = 0
 1786 0000 10B5     		push	{r4, lr}
 1787 0002 0C00     		movs	r4, r1
 1788 0004 FFF7FEFF 		bl	modem_get_test_mode_status
 1789 0008 0300     		movs	r3, r0
 1790 000a 0520     		movs	r0, #5
ARM GAS  /tmp/cc0VPHID.s 			page 32


 1791 000c 002B     		cmp	r3, #0
 1792 000e 08D1     		bne	.L299
 1793 0010 2000     		movs	r0, r4
 1794 0012 FFF7FEFF 		bl	lorawan_api_multicast_b_stop_session
 1795 0016 031E     		subs	r3, r0, #0
 1796 0018 03D0     		beq	.L299
 1797 001a 0620     		movs	r0, #6
 1798 001c 012B     		cmp	r3, #1
 1799 001e 00D1     		bne	.L299
 1800 0020 0238     		subs	r0, r0, #2
 1801              	.L299:
 1802              		@ sp needed
 1803 0022 10BD     		pop	{r4, pc}
 1805              		.section	.text.smtc_modem_multicast_class_b_stop_all_sessions,"ax",%progbits
 1806              		.align	1
 1807              		.global	smtc_modem_multicast_class_b_stop_all_sessions
 1808              		.syntax unified
 1809              		.code	16
 1810              		.thumb_func
 1811              		.fpu softvfp
 1813              	smtc_modem_multicast_class_b_stop_all_sessions:
 1814              		@ args = 0, pretend = 0, frame = 0
 1815              		@ frame_needed = 0, uses_anonymous_args = 0
 1816 0000 10B5     		push	{r4, lr}
 1817 0002 FFF7FEFF 		bl	modem_get_test_mode_status
 1818 0006 0300     		movs	r3, r0
 1819 0008 0520     		movs	r0, #5
 1820 000a 002B     		cmp	r3, #0
 1821 000c 04D1     		bne	.L306
 1822 000e FFF7FEFF 		bl	lorawan_api_multicast_b_stop_all_sessions
 1823 0012 0028     		cmp	r0, #0
 1824 0014 00D0     		beq	.L306
 1825 0016 0620     		movs	r0, #6
 1826              	.L306:
 1827              		@ sp needed
 1828 0018 10BD     		pop	{r4, pc}
 1830              		.section	.text.smtc_modem_get_region,"ax",%progbits
 1831              		.align	1
 1832              		.global	smtc_modem_get_region
 1833              		.syntax unified
 1834              		.code	16
 1835              		.thumb_func
 1836              		.fpu softvfp
 1838              	smtc_modem_get_region:
 1839              		@ args = 0, pretend = 0, frame = 0
 1840              		@ frame_needed = 0, uses_anonymous_args = 0
 1841 0000 70B5     		push	{r4, r5, r6, lr}
 1842 0002 0D00     		movs	r5, r1
 1843 0004 FFF7FEFF 		bl	modem_get_test_mode_status
 1844 0008 0400     		movs	r4, r0
 1845 000a 0520     		movs	r0, #5
 1846 000c 002C     		cmp	r4, #0
 1847 000e 06D1     		bne	.L312
 1848 0010 0138     		subs	r0, r0, #1
 1849 0012 002D     		cmp	r5, #0
 1850 0014 03D0     		beq	.L312
 1851 0016 FFF7FEFF 		bl	get_modem_region
ARM GAS  /tmp/cc0VPHID.s 			page 33


 1852 001a 2870     		strb	r0, [r5]
 1853 001c 2000     		movs	r0, r4
 1854              	.L312:
 1855              		@ sp needed
 1856 001e 70BD     		pop	{r4, r5, r6, pc}
 1858              		.section	.rodata.smtc_modem_set_region.str1.1,"aMS",%progbits,1
 1859              	.LC67:
 1860 0000 1B5B303B 		.ascii	"\033[0;31mERROR: %s call with region not valid\015\012"
 1860      33316D45 
 1860      52524F52 
 1860      3A202573 
 1860      2063616C 
 1861 002d 00       		.ascii	"\000"
 1862              		.section	.text.smtc_modem_set_region,"ax",%progbits
 1863              		.align	1
 1864              		.global	smtc_modem_set_region
 1865              		.syntax unified
 1866              		.code	16
 1867              		.thumb_func
 1868              		.fpu softvfp
 1870              	smtc_modem_set_region:
 1871              		@ args = 0, pretend = 0, frame = 0
 1872              		@ frame_needed = 0, uses_anonymous_args = 0
 1873 0000 70B5     		push	{r4, r5, r6, lr}
 1874 0002 0D00     		movs	r5, r1
 1875 0004 FFF7FEFF 		bl	modem_get_test_mode_status
 1876 0008 0524     		movs	r4, #5
 1877 000a 0028     		cmp	r0, #0
 1878 000c 0BD1     		bne	.L316
 1879 000e FFF7FEFF 		bl	get_join_state
 1880 0012 041E     		subs	r4, r0, #0
 1881 0014 09D0     		beq	.L317
 1882 0016 0C49     		ldr	r1, .L319
 1883 0018 0C48     		ldr	r0, .L319+4
 1884 001a FFF7FEFF 		bl	smtc_modem_hal_print_trace
 1885 001e 0C48     		ldr	r0, .L319+8
 1886 0020 FFF7FEFF 		bl	smtc_modem_hal_print_trace
 1887 0024 0524     		movs	r4, #5
 1888              	.L316:
 1889              		@ sp needed
 1890 0026 2000     		movs	r0, r4
 1891 0028 70BD     		pop	{r4, r5, r6, pc}
 1892              	.L317:
 1893 002a 2800     		movs	r0, r5
 1894 002c FFF7FEFF 		bl	set_modem_region
 1895 0030 0028     		cmp	r0, #0
 1896 0032 F8D1     		bne	.L316
 1897 0034 0449     		ldr	r1, .L319
 1898 0036 0748     		ldr	r0, .L319+12
 1899 0038 FFF7FEFF 		bl	smtc_modem_hal_print_trace
 1900 003c 0448     		ldr	r0, .L319+8
 1901 003e FFF7FEFF 		bl	smtc_modem_hal_print_trace
 1902 0042 0424     		movs	r4, #4
 1903 0044 EFE7     		b	.L316
 1904              	.L320:
 1905 0046 C046     		.align	2
 1906              	.L319:
ARM GAS  /tmp/cc0VPHID.s 			page 34


 1907 0048 00000000 		.word	.LANCHOR7
 1908 004c 00000000 		.word	.LC49
 1909 0050 30000000 		.word	.LC3
 1910 0054 00000000 		.word	.LC67
 1912              		.section	.text.smtc_modem_adr_get_profile,"ax",%progbits
 1913              		.align	1
 1914              		.global	smtc_modem_adr_get_profile
 1915              		.syntax unified
 1916              		.code	16
 1917              		.thumb_func
 1918              		.fpu softvfp
 1920              	smtc_modem_adr_get_profile:
 1921              		@ args = 0, pretend = 0, frame = 0
 1922              		@ frame_needed = 0, uses_anonymous_args = 0
 1923 0000 70B5     		push	{r4, r5, r6, lr}
 1924 0002 0D00     		movs	r5, r1
 1925 0004 FFF7FEFF 		bl	modem_get_test_mode_status
 1926 0008 0400     		movs	r4, r0
 1927 000a 0520     		movs	r0, #5
 1928 000c 002C     		cmp	r4, #0
 1929 000e 06D1     		bne	.L322
 1930 0010 0138     		subs	r0, r0, #1
 1931 0012 002D     		cmp	r5, #0
 1932 0014 03D0     		beq	.L322
 1933 0016 FFF7FEFF 		bl	get_modem_adr_profile
 1934 001a 2870     		strb	r0, [r5]
 1935 001c 2000     		movs	r0, r4
 1936              	.L322:
 1937              		@ sp needed
 1938 001e 70BD     		pop	{r4, r5, r6, pc}
 1940              		.section	.rodata.smtc_modem_adr_set_profile.str1.1,"aMS",%progbits,1
 1941              	.LC70:
 1942 0000 1B5B303B 		.ascii	"\033[0;31mERROR: %s call with adr profile not valid"
 1942      33316D45 
 1942      52524F52 
 1942      3A202573 
 1942      2063616C 
 1943 0030 0D0A00   		.ascii	"\015\012\000"
 1944              		.section	.text.smtc_modem_adr_set_profile,"ax",%progbits
 1945              		.align	1
 1946              		.global	smtc_modem_adr_set_profile
 1947              		.syntax unified
 1948              		.code	16
 1949              		.thumb_func
 1950              		.fpu softvfp
 1952              	smtc_modem_adr_set_profile:
 1953              		@ args = 0, pretend = 0, frame = 0
 1954              		@ frame_needed = 0, uses_anonymous_args = 0
 1955 0000 70B5     		push	{r4, r5, r6, lr}
 1956 0002 0D00     		movs	r5, r1
 1957 0004 1600     		movs	r6, r2
 1958 0006 FFF7FEFF 		bl	modem_get_test_mode_status
 1959 000a 0400     		movs	r4, r0
 1960 000c 0520     		movs	r0, #5
 1961 000e 002C     		cmp	r4, #0
 1962 0010 05D1     		bne	.L326
 1963 0012 032D     		cmp	r5, #3
ARM GAS  /tmp/cc0VPHID.s 			page 35


 1964 0014 04D1     		bne	.L327
 1965 0016 1022     		movs	r2, #16
 1966 0018 0138     		subs	r0, r0, #1
 1967 001a 002E     		cmp	r6, #0
 1968 001c 03D1     		bne	.L334
 1969              	.L326:
 1970              		@ sp needed
 1971 001e 70BD     		pop	{r4, r5, r6, pc}
 1972              	.L327:
 1973 0020 022D     		cmp	r5, #2
 1974 0022 05D8     		bhi	.L328
 1975 0024 2200     		movs	r2, r4
 1976              	.L334:
 1977 0026 3100     		movs	r1, r6
 1978 0028 2800     		movs	r0, r5
 1979 002a FFF7FEFF 		bl	set_modem_adr_profile
 1980 002e 0400     		movs	r4, r0
 1981              	.L328:
 1982 0030 013D     		subs	r5, r5, #1
 1983 0032 022D     		cmp	r5, #2
 1984 0034 01D8     		bhi	.L329
 1985 0036 FFF7FEFF 		bl	lorawan_api_reset_no_rx_packet_in_mobile_mode_cnt
 1986              	.L329:
 1987 003a 0020     		movs	r0, #0
 1988 003c 8442     		cmp	r4, r0
 1989 003e EED1     		bne	.L326
 1990 0040 0449     		ldr	r1, .L335
 1991 0042 0548     		ldr	r0, .L335+4
 1992 0044 FFF7FEFF 		bl	smtc_modem_hal_print_trace
 1993 0048 0448     		ldr	r0, .L335+8
 1994 004a FFF7FEFF 		bl	smtc_modem_hal_print_trace
 1995 004e 0420     		movs	r0, #4
 1996 0050 E5E7     		b	.L326
 1997              	.L336:
 1998 0052 C046     		.align	2
 1999              	.L335:
 2000 0054 00000000 		.word	.LANCHOR8
 2001 0058 00000000 		.word	.LC70
 2002 005c 30000000 		.word	.LC3
 2004              		.section	.text.smtc_modem_get_available_datarates,"ax",%progbits
 2005              		.align	1
 2006              		.global	smtc_modem_get_available_datarates
 2007              		.syntax unified
 2008              		.code	16
 2009              		.thumb_func
 2010              		.fpu softvfp
 2012              	smtc_modem_get_available_datarates:
 2013              		@ args = 0, pretend = 0, frame = 0
 2014              		@ frame_needed = 0, uses_anonymous_args = 0
 2015 0000 70B5     		push	{r4, r5, r6, lr}
 2016 0002 0D00     		movs	r5, r1
 2017 0004 FFF7FEFF 		bl	modem_get_test_mode_status
 2018 0008 0400     		movs	r4, r0
 2019 000a 0520     		movs	r0, #5
 2020 000c 002C     		cmp	r4, #0
 2021 000e 06D1     		bne	.L338
 2022 0010 0138     		subs	r0, r0, #1
ARM GAS  /tmp/cc0VPHID.s 			page 36


 2023 0012 002D     		cmp	r5, #0
 2024 0014 03D0     		beq	.L338
 2025 0016 FFF7FEFF 		bl	lorawan_api_mask_tx_dr_channel_up_dwell_time_check
 2026 001a 2880     		strh	r0, [r5]
 2027 001c 2000     		movs	r0, r4
 2028              	.L338:
 2029              		@ sp needed
 2030 001e 70BD     		pop	{r4, r5, r6, pc}
 2032              		.section	.text.smtc_modem_dm_get_fport,"ax",%progbits
 2033              		.align	1
 2034              		.global	smtc_modem_dm_get_fport
 2035              		.syntax unified
 2036              		.code	16
 2037              		.thumb_func
 2038              		.fpu softvfp
 2040              	smtc_modem_dm_get_fport:
 2041              		@ args = 0, pretend = 0, frame = 0
 2042              		@ frame_needed = 0, uses_anonymous_args = 0
 2043 0000 70B5     		push	{r4, r5, r6, lr}
 2044 0002 0500     		movs	r5, r0
 2045 0004 FFF7FEFF 		bl	modem_get_test_mode_status
 2046 0008 0400     		movs	r4, r0
 2047 000a 0520     		movs	r0, #5
 2048 000c 002C     		cmp	r4, #0
 2049 000e 06D1     		bne	.L342
 2050 0010 0138     		subs	r0, r0, #1
 2051 0012 002D     		cmp	r5, #0
 2052 0014 03D0     		beq	.L342
 2053 0016 FFF7FEFF 		bl	get_modem_dm_port
 2054 001a 2870     		strb	r0, [r5]
 2055 001c 2000     		movs	r0, r4
 2056              	.L342:
 2057              		@ sp needed
 2058 001e 70BD     		pop	{r4, r5, r6, pc}
 2060              		.section	.rodata.smtc_modem_dm_set_fport.str1.1,"aMS",%progbits,1
 2061              	.LC74:
 2062 0000 1B5B303B 		.ascii	"\033[0;31mERROR: %s call with DM port not valid\015"
 2062      33316D45 
 2062      52524F52 
 2062      3A202573 
 2062      2063616C 
 2063 002d 0A00     		.ascii	"\012\000"
 2064              		.section	.text.smtc_modem_dm_set_fport,"ax",%progbits
 2065              		.align	1
 2066              		.global	smtc_modem_dm_set_fport
 2067              		.syntax unified
 2068              		.code	16
 2069              		.thumb_func
 2070              		.fpu softvfp
 2072              	smtc_modem_dm_set_fport:
 2073              		@ args = 0, pretend = 0, frame = 0
 2074              		@ frame_needed = 0, uses_anonymous_args = 0
 2075 0000 70B5     		push	{r4, r5, r6, lr}
 2076 0002 0500     		movs	r5, r0
 2077 0004 FFF7FEFF 		bl	modem_get_test_mode_status
 2078 0008 0523     		movs	r3, #5
 2079 000a 041E     		subs	r4, r0, #0
ARM GAS  /tmp/cc0VPHID.s 			page 37


 2080 000c 0DD1     		bne	.L346
 2081 000e 2800     		movs	r0, r5
 2082 0010 FFF7FEFF 		bl	set_modem_dm_port
 2083 0014 2300     		movs	r3, r4
 2084 0016 0028     		cmp	r0, #0
 2085 0018 07D1     		bne	.L346
 2086 001a 0549     		ldr	r1, .L349
 2087 001c 0548     		ldr	r0, .L349+4
 2088 001e FFF7FEFF 		bl	smtc_modem_hal_print_trace
 2089 0022 0548     		ldr	r0, .L349+8
 2090 0024 FFF7FEFF 		bl	smtc_modem_hal_print_trace
 2091 0028 0423     		movs	r3, #4
 2092              	.L346:
 2093              		@ sp needed
 2094 002a 1800     		movs	r0, r3
 2095 002c 70BD     		pop	{r4, r5, r6, pc}
 2096              	.L350:
 2097 002e C046     		.align	2
 2098              	.L349:
 2099 0030 00000000 		.word	.LANCHOR9
 2100 0034 00000000 		.word	.LC74
 2101 0038 30000000 		.word	.LC3
 2103              		.section	.text.smtc_modem_dm_get_info_interval,"ax",%progbits
 2104              		.align	1
 2105              		.global	smtc_modem_dm_get_info_interval
 2106              		.syntax unified
 2107              		.code	16
 2108              		.thumb_func
 2109              		.fpu softvfp
 2111              	smtc_modem_dm_get_info_interval:
 2112              		@ args = 0, pretend = 0, frame = 0
 2113              		@ frame_needed = 0, uses_anonymous_args = 0
 2114 0000 70B5     		push	{r4, r5, r6, lr}
 2115 0002 0600     		movs	r6, r0
 2116 0004 0D00     		movs	r5, r1
 2117 0006 FFF7FEFF 		bl	modem_get_test_mode_status
 2118 000a 0400     		movs	r4, r0
 2119 000c 0520     		movs	r0, #5
 2120 000e 002C     		cmp	r4, #0
 2121 0010 0DD1     		bne	.L352
 2122 0012 0138     		subs	r0, r0, #1
 2123 0014 002E     		cmp	r6, #0
 2124 0016 0AD0     		beq	.L352
 2125 0018 002D     		cmp	r5, #0
 2126 001a 08D0     		beq	.L352
 2127 001c FFF7FEFF 		bl	get_modem_dm_interval
 2128 0020 0300     		movs	r3, r0
 2129 0022 8209     		lsrs	r2, r0, #6
 2130 0024 3F20     		movs	r0, #63
 2131 0026 0340     		ands	r3, r0
 2132 0028 2000     		movs	r0, r4
 2133 002a 3270     		strb	r2, [r6]
 2134 002c 2B70     		strb	r3, [r5]
 2135              	.L352:
 2136              		@ sp needed
 2137 002e 70BD     		pop	{r4, r5, r6, pc}
 2139              		.section	.rodata.smtc_modem_dm_set_info_interval.str1.1,"aMS",%progbits,1
ARM GAS  /tmp/cc0VPHID.s 			page 38


 2140              	.LC78:
 2141 0000 1B5B303B 		.ascii	"\033[0;31mERROR: %s call but interval not valid\015"
 2141      33316D45 
 2141      52524F52 
 2141      3A202573 
 2141      2063616C 
 2142 002d 0A00     		.ascii	"\012\000"
 2143              		.section	.text.smtc_modem_dm_set_info_interval,"ax",%progbits
 2144              		.align	1
 2145              		.global	smtc_modem_dm_set_info_interval
 2146              		.syntax unified
 2147              		.code	16
 2148              		.thumb_func
 2149              		.fpu softvfp
 2151              	smtc_modem_dm_set_info_interval:
 2152              		@ args = 0, pretend = 0, frame = 0
 2153              		@ frame_needed = 0, uses_anonymous_args = 0
 2154 0000 F8B5     		push	{r3, r4, r5, r6, r7, lr}
 2155 0002 0400     		movs	r4, r0
 2156 0004 0F00     		movs	r7, r1
 2157 0006 FFF7FEFF 		bl	modem_get_test_mode_status
 2158 000a 0525     		movs	r5, #5
 2159 000c 061E     		subs	r6, r0, #0
 2160 000e 12D1     		bne	.L357
 2161 0010 013D     		subs	r5, r5, #1
 2162 0012 032C     		cmp	r4, #3
 2163 0014 0FD8     		bhi	.L357
 2164 0016 3F2F     		cmp	r7, #63
 2165 0018 0DD8     		bhi	.L357
 2166 001a A001     		lsls	r0, r4, #6
 2167 001c 3843     		orrs	r0, r7
 2168 001e C0B2     		uxtb	r0, r0
 2169 0020 FFF7FEFF 		bl	set_modem_dm_interval
 2170 0024 0028     		cmp	r0, #0
 2171 0026 08D1     		bne	.L358
 2172 0028 0748     		ldr	r0, .L362
 2173 002a 0849     		ldr	r1, .L362+4
 2174 002c FFF7FEFF 		bl	smtc_modem_hal_print_trace
 2175 0030 0748     		ldr	r0, .L362+8
 2176 0032 FFF7FEFF 		bl	smtc_modem_hal_print_trace
 2177              	.L357:
 2178              		@ sp needed
 2179 0036 2800     		movs	r0, r5
 2180 0038 F8BD     		pop	{r3, r4, r5, r6, r7, pc}
 2181              	.L358:
 2182 003a FFF7FEFF 		bl	get_modem_dm_interval_second
 2183 003e FFF7FEFF 		bl	modem_supervisor_add_task_dm_status
 2184 0042 3500     		movs	r5, r6
 2185 0044 F7E7     		b	.L357
 2186              	.L363:
 2187 0046 C046     		.align	2
 2188              	.L362:
 2189 0048 00000000 		.word	.LC78
 2190 004c 00000000 		.word	.LANCHOR10
 2191 0050 30000000 		.word	.LC3
 2193              		.section	.text.smtc_modem_dm_get_info_fields,"ax",%progbits
 2194              		.align	1
ARM GAS  /tmp/cc0VPHID.s 			page 39


 2195              		.global	smtc_modem_dm_get_info_fields
 2196              		.syntax unified
 2197              		.code	16
 2198              		.thumb_func
 2199              		.fpu softvfp
 2201              	smtc_modem_dm_get_info_fields:
 2202              		@ args = 0, pretend = 0, frame = 0
 2203              		@ frame_needed = 0, uses_anonymous_args = 0
 2204 0000 70B5     		push	{r4, r5, r6, lr}
 2205 0002 0600     		movs	r6, r0
 2206 0004 0D00     		movs	r5, r1
 2207 0006 FFF7FEFF 		bl	modem_get_test_mode_status
 2208 000a 0400     		movs	r4, r0
 2209 000c 0520     		movs	r0, #5
 2210 000e 002C     		cmp	r4, #0
 2211 0010 0AD1     		bne	.L365
 2212 0012 0138     		subs	r0, r0, #1
 2213 0014 002E     		cmp	r6, #0
 2214 0016 07D0     		beq	.L365
 2215 0018 002D     		cmp	r5, #0
 2216 001a 05D0     		beq	.L365
 2217 001c 2100     		movs	r1, r4
 2218 001e 3000     		movs	r0, r6
 2219 0020 FFF7FEFF 		bl	get_dm_info_tag_list
 2220 0024 2870     		strb	r0, [r5]
 2221 0026 2000     		movs	r0, r4
 2222              	.L365:
 2223              		@ sp needed
 2224 0028 70BD     		pop	{r4, r5, r6, pc}
 2226              		.section	.text.smtc_modem_dm_set_info_fields,"ax",%progbits
 2227              		.align	1
 2228              		.global	smtc_modem_dm_set_info_fields
 2229              		.syntax unified
 2230              		.code	16
 2231              		.thumb_func
 2232              		.fpu softvfp
 2234              	smtc_modem_dm_set_info_fields:
 2235              		@ args = 0, pretend = 0, frame = 0
 2236              		@ frame_needed = 0, uses_anonymous_args = 0
 2237 0000 70B5     		push	{r4, r5, r6, lr}
 2238 0002 0500     		movs	r5, r0
 2239 0004 0E00     		movs	r6, r1
 2240 0006 FFF7FEFF 		bl	modem_get_test_mode_status
 2241 000a 0523     		movs	r3, #5
 2242 000c 041E     		subs	r4, r0, #0
 2243 000e 0AD1     		bne	.L370
 2244 0010 002D     		cmp	r5, #0
 2245 0012 07D0     		beq	.L371
 2246 0014 0200     		movs	r2, r0
 2247 0016 3100     		movs	r1, r6
 2248 0018 2800     		movs	r0, r5
 2249 001a FFF7FEFF 		bl	set_dm_info
 2250 001e 2300     		movs	r3, r4
 2251 0020 0028     		cmp	r0, #0
 2252 0022 00D1     		bne	.L370
 2253              	.L371:
 2254 0024 0423     		movs	r3, #4
ARM GAS  /tmp/cc0VPHID.s 			page 40


 2255              	.L370:
 2256              		@ sp needed
 2257 0026 1800     		movs	r0, r3
 2258 0028 70BD     		pop	{r4, r5, r6, pc}
 2260              		.section	.text.smtc_modem_dm_request_single_uplink,"ax",%progbits
 2261              		.align	1
 2262              		.global	smtc_modem_dm_request_single_uplink
 2263              		.syntax unified
 2264              		.code	16
 2265              		.thumb_func
 2266              		.fpu softvfp
 2268              	smtc_modem_dm_request_single_uplink:
 2269              		@ args = 0, pretend = 0, frame = 0
 2270              		@ frame_needed = 0, uses_anonymous_args = 0
 2271 0000 70B5     		push	{r4, r5, r6, lr}
 2272 0002 0500     		movs	r5, r0
 2273 0004 0E00     		movs	r6, r1
 2274 0006 FFF7FEFF 		bl	modem_get_test_mode_status
 2275 000a 0523     		movs	r3, #5
 2276 000c 041E     		subs	r4, r0, #0
 2277 000e 02D1     		bne	.L378
 2278 0010 002D     		cmp	r5, #0
 2279 0012 02D1     		bne	.L379
 2280              	.L380:
 2281 0014 0423     		movs	r3, #4
 2282              	.L378:
 2283              		@ sp needed
 2284 0016 1800     		movs	r0, r3
 2285 0018 70BD     		pop	{r4, r5, r6, pc}
 2286              	.L379:
 2287 001a FFF7FEFF 		bl	is_modem_connected
 2288 001e 0623     		movs	r3, #6
 2289 0020 0028     		cmp	r0, #0
 2290 0022 F8D0     		beq	.L378
 2291 0024 0122     		movs	r2, #1
 2292 0026 3100     		movs	r1, r6
 2293 0028 2800     		movs	r0, r5
 2294 002a FFF7FEFF 		bl	set_dm_info
 2295 002e 0028     		cmp	r0, #0
 2296 0030 F0D0     		beq	.L380
 2297 0032 FFF7FEFF 		bl	modem_supervisor_add_task_dm_status_now
 2298 0036 2300     		movs	r3, r4
 2299 0038 EDE7     		b	.L378
 2301              		.section	.text.smtc_modem_dm_set_user_data,"ax",%progbits
 2302              		.align	1
 2303              		.global	smtc_modem_dm_set_user_data
 2304              		.syntax unified
 2305              		.code	16
 2306              		.thumb_func
 2307              		.fpu softvfp
 2309              	smtc_modem_dm_set_user_data:
 2310              		@ args = 0, pretend = 0, frame = 0
 2311              		@ frame_needed = 0, uses_anonymous_args = 0
 2312 0000 70B5     		push	{r4, r5, r6, lr}
 2313 0002 0500     		movs	r5, r0
 2314 0004 FFF7FEFF 		bl	modem_get_test_mode_status
 2315 0008 0400     		movs	r4, r0
ARM GAS  /tmp/cc0VPHID.s 			page 41


 2316 000a 0520     		movs	r0, #5
 2317 000c 002C     		cmp	r4, #0
 2318 000e 06D1     		bne	.L388
 2319 0010 0138     		subs	r0, r0, #1
 2320 0012 002D     		cmp	r5, #0
 2321 0014 03D0     		beq	.L388
 2322 0016 2800     		movs	r0, r5
 2323 0018 FFF7FEFF 		bl	set_modem_appstatus
 2324 001c 2000     		movs	r0, r4
 2325              	.L388:
 2326              		@ sp needed
 2327 001e 70BD     		pop	{r4, r5, r6, pc}
 2329              		.section	.text.smtc_modem_dm_get_user_data,"ax",%progbits
 2330              		.align	1
 2331              		.global	smtc_modem_dm_get_user_data
 2332              		.syntax unified
 2333              		.code	16
 2334              		.thumb_func
 2335              		.fpu softvfp
 2337              	smtc_modem_dm_get_user_data:
 2338              		@ args = 0, pretend = 0, frame = 0
 2339              		@ frame_needed = 0, uses_anonymous_args = 0
 2340 0000 70B5     		push	{r4, r5, r6, lr}
 2341 0002 0500     		movs	r5, r0
 2342 0004 FFF7FEFF 		bl	modem_get_test_mode_status
 2343 0008 0400     		movs	r4, r0
 2344 000a 0520     		movs	r0, #5
 2345 000c 002C     		cmp	r4, #0
 2346 000e 06D1     		bne	.L392
 2347 0010 0138     		subs	r0, r0, #1
 2348 0012 002D     		cmp	r5, #0
 2349 0014 03D0     		beq	.L392
 2350 0016 2800     		movs	r0, r5
 2351 0018 FFF7FEFF 		bl	get_modem_appstatus
 2352 001c 2000     		movs	r0, r4
 2353              	.L392:
 2354              		@ sp needed
 2355 001e 70BD     		pop	{r4, r5, r6, pc}
 2357              		.section	.rodata.smtc_modem_join_network.str1.1,"aMS",%progbits,1
 2358              	.LC82:
 2359 0000 1B5B303B 		.ascii	"\033[0;31mERROR: %s call but the device is configur"
 2359      33316D45 
 2359      52524F52 
 2359      3A202573 
 2359      2063616C 
 2360 0030 65642069 		.ascii	"ed in ABP mode\015\012\000"
 2360      6E204142 
 2360      50206D6F 
 2360      64650D0A 
 2360      00
 2361              	.LC86:
 2362 0041 1B5B303B 		.ascii	"\033[0;31mERROR: %s Modem is muted\015\012\000"
 2362      33316D45 
 2362      52524F52 
 2362      3A202573 
 2362      204D6F64 
 2363              		.section	.text.smtc_modem_join_network,"ax",%progbits
ARM GAS  /tmp/cc0VPHID.s 			page 42


 2364              		.align	1
 2365              		.global	smtc_modem_join_network
 2366              		.syntax unified
 2367              		.code	16
 2368              		.thumb_func
 2369              		.fpu softvfp
 2371              	smtc_modem_join_network:
 2372              		@ args = 0, pretend = 0, frame = 0
 2373              		@ frame_needed = 0, uses_anonymous_args = 0
 2374 0000 10B5     		push	{r4, lr}
 2375 0002 FFF7FEFF 		bl	modem_get_test_mode_status
 2376 0006 0524     		movs	r4, #5
 2377 0008 0028     		cmp	r0, #0
 2378 000a 18D1     		bne	.L396
 2379 000c FFF7FEFF 		bl	lorawan_api_get_activation_mode
 2380 0010 0128     		cmp	r0, #1
 2381 0012 08D1     		bne	.L397
 2382 0014 1349     		ldr	r1, .L403
 2383 0016 1448     		ldr	r0, .L403+4
 2384              	.L402:
 2385 0018 FFF7FEFF 		bl	smtc_modem_hal_print_trace
 2386 001c 1348     		ldr	r0, .L403+8
 2387 001e FFF7FEFF 		bl	smtc_modem_hal_print_trace
 2388 0022 0624     		movs	r4, #6
 2389 0024 0BE0     		b	.L396
 2390              	.L397:
 2391 0026 FFF7FEFF 		bl	get_join_state
 2392 002a 041E     		subs	r4, r0, #0
 2393 002c 09D0     		beq	.L398
 2394 002e 0D49     		ldr	r1, .L403
 2395 0030 0F48     		ldr	r0, .L403+12
 2396 0032 FFF7FEFF 		bl	smtc_modem_hal_print_trace
 2397 0036 0D48     		ldr	r0, .L403+8
 2398 0038 FFF7FEFF 		bl	smtc_modem_hal_print_trace
 2399 003c 0524     		movs	r4, #5
 2400              	.L396:
 2401              		@ sp needed
 2402 003e 2000     		movs	r0, r4
 2403 0040 10BD     		pop	{r4, pc}
 2404              	.L398:
 2405 0042 FFF7FEFF 		bl	get_modem_muted
 2406 0046 FF28     		cmp	r0, #255
 2407 0048 02D1     		bne	.L399
 2408 004a 0649     		ldr	r1, .L403
 2409 004c 0948     		ldr	r0, .L403+16
 2410 004e E3E7     		b	.L402
 2411              	.L399:
 2412 0050 FFF7FEFF 		bl	get_modem_suspend
 2413 0054 0128     		cmp	r0, #1
 2414 0056 02D1     		bne	.L400
 2415 0058 0249     		ldr	r1, .L403
 2416 005a 0748     		ldr	r0, .L403+20
 2417 005c DCE7     		b	.L402
 2418              	.L400:
 2419 005e FFF7FEFF 		bl	modem_supervisor_add_task_join
 2420 0062 ECE7     		b	.L396
 2421              	.L404:
ARM GAS  /tmp/cc0VPHID.s 			page 43


 2422              		.align	2
 2423              	.L403:
 2424 0064 00000000 		.word	.LANCHOR11
 2425 0068 00000000 		.word	.LC82
 2426 006c 30000000 		.word	.LC3
 2427 0070 00000000 		.word	.LC49
 2428 0074 41000000 		.word	.LC86
 2429 0078 35000000 		.word	.LC5
 2431              		.section	.text.smtc_modem_leave_network,"ax",%progbits
 2432              		.align	1
 2433              		.global	smtc_modem_leave_network
 2434              		.syntax unified
 2435              		.code	16
 2436              		.thumb_func
 2437              		.fpu softvfp
 2439              	smtc_modem_leave_network:
 2440              		@ args = 0, pretend = 0, frame = 0
 2441              		@ frame_needed = 0, uses_anonymous_args = 0
 2442 0000 10B5     		push	{r4, lr}
 2443 0002 FFF7FEFF 		bl	modem_get_test_mode_status
 2444 0006 0400     		movs	r4, r0
 2445 0008 0520     		movs	r0, #5
 2446 000a 002C     		cmp	r4, #0
 2447 000c 02D1     		bne	.L406
 2448 000e FFF7FEFF 		bl	modem_leave
 2449 0012 2000     		movs	r0, r4
 2450              	.L406:
 2451              		@ sp needed
 2452 0014 10BD     		pop	{r4, pc}
 2454              		.section	.rodata.smtc_modem_suspend_radio_communications.str1.1,"aMS",%progbits,1
 2455              	.LC90:
 2456 0000 1B5B303B 		.ascii	"\033[0;31mERROR: %s call but suspend value is not v"
 2456      33316D45 
 2456      52524F52 
 2456      3A202573 
 2456      2063616C 
 2457 0030 616C6964 		.ascii	"alid\015\012\000"
 2457      0D0A00
 2458              		.section	.text.smtc_modem_suspend_radio_communications,"ax",%progbits
 2459              		.align	1
 2460              		.global	smtc_modem_suspend_radio_communications
 2461              		.syntax unified
 2462              		.code	16
 2463              		.thumb_func
 2464              		.fpu softvfp
 2466              	smtc_modem_suspend_radio_communications:
 2467              		@ args = 0, pretend = 0, frame = 0
 2468              		@ frame_needed = 0, uses_anonymous_args = 0
 2469 0000 70B5     		push	{r4, r5, r6, lr}
 2470 0002 0500     		movs	r5, r0
 2471 0004 FFF7FEFF 		bl	modem_get_test_mode_status
 2472 0008 0523     		movs	r3, #5
 2473 000a 041E     		subs	r4, r0, #0
 2474 000c 0DD1     		bne	.L409
 2475 000e 2800     		movs	r0, r5
 2476 0010 FFF7FEFF 		bl	set_modem_suspend
 2477 0014 2300     		movs	r3, r4
ARM GAS  /tmp/cc0VPHID.s 			page 44


 2478 0016 0028     		cmp	r0, #0
 2479 0018 07D1     		bne	.L409
 2480 001a 0549     		ldr	r1, .L412
 2481 001c 0548     		ldr	r0, .L412+4
 2482 001e FFF7FEFF 		bl	smtc_modem_hal_print_trace
 2483 0022 0548     		ldr	r0, .L412+8
 2484 0024 FFF7FEFF 		bl	smtc_modem_hal_print_trace
 2485 0028 0423     		movs	r3, #4
 2486              	.L409:
 2487              		@ sp needed
 2488 002a 1800     		movs	r0, r3
 2489 002c 70BD     		pop	{r4, r5, r6, pc}
 2490              	.L413:
 2491 002e C046     		.align	2
 2492              	.L412:
 2493 0030 00000000 		.word	.LANCHOR12
 2494 0034 00000000 		.word	.LC90
 2495 0038 30000000 		.word	.LC3
 2497              		.section	.rodata.smtc_modem_get_next_tx_max_payload.str1.1,"aMS",%progbits,1
 2498              	.LC94:
 2499 0000 1B5B303B 		.ascii	"\033[0;31mERROR: %s call but the device is not join"
 2499      33316D45 
 2499      52524F52 
 2499      3A202573 
 2499      2063616C 
 2500 0030 0D0A00   		.ascii	"\015\012\000"
 2501              		.section	.text.smtc_modem_get_next_tx_max_payload,"ax",%progbits
 2502              		.align	1
 2503              		.global	smtc_modem_get_next_tx_max_payload
 2504              		.syntax unified
 2505              		.code	16
 2506              		.thumb_func
 2507              		.fpu softvfp
 2509              	smtc_modem_get_next_tx_max_payload:
 2510              		@ args = 0, pretend = 0, frame = 0
 2511              		@ frame_needed = 0, uses_anonymous_args = 0
 2512 0000 70B5     		push	{r4, r5, r6, lr}
 2513 0002 0C00     		movs	r4, r1
 2514 0004 FFF7FEFF 		bl	modem_get_test_mode_status
 2515 0008 0500     		movs	r5, r0
 2516 000a 0520     		movs	r0, #5
 2517 000c 002D     		cmp	r5, #0
 2518 000e 0AD1     		bne	.L415
 2519 0010 0138     		subs	r0, r0, #1
 2520 0012 002C     		cmp	r4, #0
 2521 0014 07D0     		beq	.L415
 2522 0016 FFF7FEFF 		bl	get_join_state
 2523 001a 0228     		cmp	r0, #2
 2524 001c 04D1     		bne	.L416
 2525 001e FFF7FEFF 		bl	lorawan_api_next_max_payload_length_get
 2526 0022 2070     		strb	r0, [r4]
 2527 0024 2800     		movs	r0, r5
 2528              	.L415:
 2529              		@ sp needed
 2530 0026 70BD     		pop	{r4, r5, r6, pc}
 2531              	.L416:
 2532 0028 0449     		ldr	r1, .L419
ARM GAS  /tmp/cc0VPHID.s 			page 45


 2533 002a 0548     		ldr	r0, .L419+4
 2534 002c FFF7FEFF 		bl	smtc_modem_hal_print_trace
 2535 0030 0448     		ldr	r0, .L419+8
 2536 0032 FFF7FEFF 		bl	smtc_modem_hal_print_trace
 2537 0036 0620     		movs	r0, #6
 2538 0038 2570     		strb	r5, [r4]
 2539 003a F4E7     		b	.L415
 2540              	.L420:
 2541              		.align	2
 2542              	.L419:
 2543 003c 00000000 		.word	.LANCHOR13
 2544 0040 00000000 		.word	.LC94
 2545 0044 30000000 		.word	.LC3
 2547              		.section	.text.smtc_modem_request_uplink,"ax",%progbits
 2548              		.align	1
 2549              		.global	smtc_modem_request_uplink
 2550              		.syntax unified
 2551              		.code	16
 2552              		.thumb_func
 2553              		.fpu softvfp
 2555              	smtc_modem_request_uplink:
 2556              		@ args = 4, pretend = 0, frame = 0
 2557              		@ frame_needed = 0, uses_anonymous_args = 0
 2558 0000 F7B5     		push	{r0, r1, r2, r4, r5, r6, r7, lr}
 2559 0002 1C00     		movs	r4, r3
 2560 0004 08AB     		add	r3, sp, #32
 2561 0006 1F78     		ldrb	r7, [r3]
 2562 0008 0D00     		movs	r5, r1
 2563 000a 1600     		movs	r6, r2
 2564 000c FFF7FEFF 		bl	modem_get_test_mode_status
 2565 0010 0300     		movs	r3, r0
 2566 0012 0520     		movs	r0, #5
 2567 0014 002B     		cmp	r3, #0
 2568 0016 09D1     		bne	.L422
 2569 0018 0138     		subs	r0, r0, #1
 2570 001a 002C     		cmp	r4, #0
 2571 001c 06D0     		beq	.L422
 2572 001e 0093     		str	r3, [sp]
 2573 0020 2200     		movs	r2, r4
 2574 0022 3B00     		movs	r3, r7
 2575 0024 3100     		movs	r1, r6
 2576 0026 2800     		movs	r0, r5
 2577 0028 FFF7FEFF 		bl	smtc_modem_send_tx.constprop.0
 2578              	.L422:
 2579              		@ sp needed
 2580 002c FEBD     		pop	{r1, r2, r3, r4, r5, r6, r7, pc}
 2582              		.section	.text.smtc_modem_request_extended_uplink,"ax",%progbits
 2583              		.align	1
 2584              		.global	smtc_modem_request_extended_uplink
 2585              		.syntax unified
 2586              		.code	16
 2587              		.thumb_func
 2588              		.fpu softvfp
 2590              	smtc_modem_request_extended_uplink:
 2591              		@ args = 12, pretend = 0, frame = 0
 2592              		@ frame_needed = 0, uses_anonymous_args = 0
 2593 0000 10B5     		push	{r4, lr}
ARM GAS  /tmp/cc0VPHID.s 			page 46


 2594 0002 FFF7FEFF 		bl	modem_get_test_mode_status
 2595              		@ sp needed
 2596 0006 431E     		subs	r3, r0, #1
 2597 0008 9841     		sbcs	r0, r0, r3
 2598 000a 0430     		adds	r0, r0, #4
 2599 000c 10BD     		pop	{r4, pc}
 2601              		.section	.text.smtc_modem_abort_extended_uplink,"ax",%progbits
 2602              		.align	1
 2603              		.global	smtc_modem_abort_extended_uplink
 2604              		.syntax unified
 2605              		.code	16
 2606              		.thumb_func
 2607              		.fpu softvfp
 2609              	smtc_modem_abort_extended_uplink:
 2610              		@ args = 0, pretend = 0, frame = 0
 2611              		@ frame_needed = 0, uses_anonymous_args = 0
 2612 0000 10B5     		push	{r4, lr}
 2613 0002 FFF7FEFF 		bl	modem_get_test_mode_status
 2614              		@ sp needed
 2615 0006 431E     		subs	r3, r0, #1
 2616 0008 9841     		sbcs	r0, r0, r3
 2617 000a 0430     		adds	r0, r0, #4
 2618 000c 10BD     		pop	{r4, pc}
 2620              		.section	.text.smtc_modem_request_emergency_uplink,"ax",%progbits
 2621              		.align	1
 2622              		.global	smtc_modem_request_emergency_uplink
 2623              		.syntax unified
 2624              		.code	16
 2625              		.thumb_func
 2626              		.fpu softvfp
 2628              	smtc_modem_request_emergency_uplink:
 2629              		@ args = 4, pretend = 0, frame = 0
 2630              		@ frame_needed = 0, uses_anonymous_args = 0
 2631 0000 F7B5     		push	{r0, r1, r2, r4, r5, r6, r7, lr}
 2632 0002 1C00     		movs	r4, r3
 2633 0004 08AB     		add	r3, sp, #32
 2634 0006 1F78     		ldrb	r7, [r3]
 2635 0008 0D00     		movs	r5, r1
 2636 000a 1600     		movs	r6, r2
 2637 000c FFF7FEFF 		bl	modem_get_test_mode_status
 2638 0010 0300     		movs	r3, r0
 2639 0012 0520     		movs	r0, #5
 2640 0014 002B     		cmp	r3, #0
 2641 0016 0AD1     		bne	.L432
 2642 0018 0138     		subs	r0, r0, #1
 2643 001a 002C     		cmp	r4, #0
 2644 001c 07D0     		beq	.L432
 2645 001e 0133     		adds	r3, r3, #1
 2646 0020 0093     		str	r3, [sp]
 2647 0022 2200     		movs	r2, r4
 2648 0024 3B00     		movs	r3, r7
 2649 0026 3100     		movs	r1, r6
 2650 0028 2800     		movs	r0, r5
 2651 002a FFF7FEFF 		bl	smtc_modem_send_tx.constprop.0
 2652              	.L432:
 2653              		@ sp needed
 2654 002e FEBD     		pop	{r1, r2, r3, r4, r5, r6, r7, pc}
ARM GAS  /tmp/cc0VPHID.s 			page 47


 2656              		.section	.text.smtc_modem_request_empty_uplink,"ax",%progbits
 2657              		.align	1
 2658              		.global	smtc_modem_request_empty_uplink
 2659              		.syntax unified
 2660              		.code	16
 2661              		.thumb_func
 2662              		.fpu softvfp
 2664              	smtc_modem_request_empty_uplink:
 2665              		@ args = 0, pretend = 0, frame = 24
 2666              		@ frame_needed = 0, uses_anonymous_args = 0
 2667 0000 F0B5     		push	{r4, r5, r6, r7, lr}
 2668 0002 87B0     		sub	sp, sp, #28
 2669 0004 1F00     		movs	r7, r3
 2670 0006 0E00     		movs	r6, r1
 2671 0008 1500     		movs	r5, r2
 2672 000a FFF7FEFF 		bl	modem_get_test_mode_status
 2673 000e 0300     		movs	r3, r0
 2674 0010 0520     		movs	r0, #5
 2675 0012 002B     		cmp	r3, #0
 2676 0014 16D1     		bne	.L436
 2677 0016 FFF7FEFF 		bl	is_modem_connected
 2678 001a 0028     		cmp	r0, #0
 2679 001c 2AD0     		beq	.L437
 2680 001e 002E     		cmp	r6, #0
 2681 0020 17D0     		beq	.L438
 2682 0022 6B1E     		subs	r3, r5, #1
 2683 0024 DBB2     		uxtb	r3, r3
 2684 0026 DE2B     		cmp	r3, #222
 2685 0028 0ED8     		bhi	.L439
 2686              	.L441:
 2687 002a FFF7FEFF 		bl	get_modem_dm_port
 2688 002e 8542     		cmp	r5, r0
 2689 0030 0FD1     		bne	.L438
 2690              	.L440:
 2691 0032 2A00     		movs	r2, r5
 2692 0034 1049     		ldr	r1, .L453
 2693 0036 1148     		ldr	r0, .L453+4
 2694 0038 FFF7FEFF 		bl	smtc_modem_hal_print_trace
 2695 003c 1048     		ldr	r0, .L453+8
 2696 003e FFF7FEFF 		bl	smtc_modem_hal_print_trace
 2697 0042 0420     		movs	r0, #4
 2698              	.L436:
 2699 0044 07B0     		add	sp, sp, #28
 2700              		@ sp needed
 2701 0046 F0BD     		pop	{r4, r5, r6, r7, pc}
 2702              	.L439:
 2703 0048 FFF7FEFF 		bl	lorawan_api_modem_certification_is_enabled
 2704 004c 0028     		cmp	r0, #0
 2705 004e ECD1     		bne	.L441
 2706 0050 EFE7     		b	.L440
 2707              	.L438:
 2708 0052 0123     		movs	r3, #1
 2709 0054 01AC     		add	r4, sp, #4
 2710 0056 2372     		strb	r3, [r4, #8]
 2711 0058 0023     		movs	r3, #0
 2712 005a 6572     		strb	r5, [r4, #9]
 2713 005c 2370     		strb	r3, [r4]
ARM GAS  /tmp/cc0VPHID.s 			page 48


 2714 005e A672     		strb	r6, [r4, #10]
 2715 0060 6774     		strb	r7, [r4, #17]
 2716 0062 2374     		strb	r3, [r4, #16]
 2717 0064 FFF7FEFF 		bl	smtc_modem_hal_get_time_in_s
 2718 0068 0290     		str	r0, [sp, #8]
 2719 006a 2000     		movs	r0, r4
 2720 006c FFF7FEFF 		bl	modem_supervisor_add_task
 2721 0070 0028     		cmp	r0, #0
 2722 0072 E7D0     		beq	.L436
 2723              	.L437:
 2724 0074 0620     		movs	r0, #6
 2725 0076 E5E7     		b	.L436
 2726              	.L454:
 2727              		.align	2
 2728              	.L453:
 2729 0078 00000000 		.word	.LANCHOR14
 2730 007c 00000000 		.word	.LC15
 2731 0080 30000000 		.word	.LC3
 2733              		.section	.rodata.smtc_modem_file_upload_init.str1.1,"aMS",%progbits,1
 2734              	.LC100:
 2735 0000 1B5B303B 		.ascii	"\033[0;31mERROR: Upload initialization fails: size "
 2735      33316D45 
 2735      52524F52 
 2735      3A205570 
 2735      6C6F6164 
 2736 0030 3D203020 		.ascii	"= 0 is not allowed\015\012\000"
 2736      6973206E 
 2736      6F742061 
 2736      6C6C6F77 
 2736      65640D0A 
 2737              	.LC103:
 2738 0045 1B5B303B 		.ascii	"\033[0;31mERROR: File Upload still in going\015\012"
 2738      33316D45 
 2738      52524F52 
 2738      3A204669 
 2738      6C652055 
 2739 006f 00       		.ascii	"\000"
 2740              	.LC105:
 2741 0070 1B5B303B 		.ascii	"\033[0;31mERROR: Upload file data is null\015\012\000"
 2741      33316D45 
 2741      52524F52 
 2741      3A205570 
 2741      6C6F6164 
 2742              	.LC108:
 2743 0099 1B5B303B 		.ascii	"\033[0;31mERROR: Upload initialization fails\015\012"
 2743      33316D45 
 2743      52524F52 
 2743      3A205570 
 2743      6C6F6164 
 2744 00c4 00       		.ascii	"\000"
 2745              	.LC111:
 2746 00c5 25732C20 		.ascii	"%s, cipher_mode: %d, size:%d, average_delay:%d, ses"
 2746      63697068 
 2746      65725F6D 
 2746      6F64653A 
 2746      2025642C 
 2747 00f8 73696F6E 		.ascii	"sion counter:%d\000"
ARM GAS  /tmp/cc0VPHID.s 			page 49


 2747      20636F75 
 2747      6E746572 
 2747      3A256400 
 2748              		.section	.text.smtc_modem_file_upload_init,"ax",%progbits
 2749              		.align	1
 2750              		.global	smtc_modem_file_upload_init
 2751              		.syntax unified
 2752              		.code	16
 2753              		.thumb_func
 2754              		.fpu softvfp
 2756              	smtc_modem_file_upload_init:
 2757              		@ args = 8, pretend = 0, frame = 16
 2758              		@ frame_needed = 0, uses_anonymous_args = 0
 2759 0000 F0B5     		push	{r4, r5, r6, r7, lr}
 2760 0002 89B0     		sub	sp, sp, #36
 2761 0004 0493     		str	r3, [sp, #16]
 2762 0006 0EAB     		add	r3, sp, #56
 2763 0008 1500     		movs	r5, r2
 2764 000a 1E88     		ldrh	r6, [r3]
 2765 000c 0791     		str	r1, [sp, #28]
 2766 000e FFF7FEFF 		bl	modem_get_test_mode_status
 2767 0012 0524     		movs	r4, #5
 2768 0014 0590     		str	r0, [sp, #20]
 2769 0016 0028     		cmp	r0, #0
 2770 0018 10D1     		bne	.L456
 2771 001a 2648     		ldr	r0, .L468
 2772 001c 002E     		cmp	r6, #0
 2773 001e 30D0     		beq	.L467
 2774 0020 0424     		movs	r4, #4
 2775 0022 012D     		cmp	r5, #1
 2776 0024 0AD8     		bhi	.L456
 2777 0026 FFF7FEFF 		bl	modem_get_upload_state
 2778 002a 0128     		cmp	r0, #1
 2779 002c 09D1     		bne	.L458
 2780              	.L459:
 2781 002e 2248     		ldr	r0, .L468+4
 2782 0030 FFF7FEFF 		bl	smtc_modem_hal_print_trace
 2783 0034 2148     		ldr	r0, .L468+8
 2784 0036 FFF7FEFF 		bl	smtc_modem_hal_print_trace
 2785 003a 0524     		movs	r4, #5
 2786              	.L456:
 2787 003c 2000     		movs	r0, r4
 2788 003e 09B0     		add	sp, sp, #36
 2789              		@ sp needed
 2790 0040 F0BD     		pop	{r4, r5, r6, r7, pc}
 2791              	.L458:
 2792 0042 FFF7FEFF 		bl	modem_get_upload_state
 2793 0046 0228     		cmp	r0, #2
 2794 0048 F1D0     		beq	.L459
 2795 004a 049B     		ldr	r3, [sp, #16]
 2796 004c 002B     		cmp	r3, #0
 2797 004e 06D1     		bne	.L460
 2798 0050 1B48     		ldr	r0, .L468+12
 2799 0052 FFF7FEFF 		bl	smtc_modem_hal_print_trace
 2800 0056 1948     		ldr	r0, .L468+8
 2801 0058 FFF7FEFF 		bl	smtc_modem_hal_print_trace
 2802 005c EEE7     		b	.L456
ARM GAS  /tmp/cc0VPHID.s 			page 50


 2803              	.L460:
 2804 005e FFF7FEFF 		bl	modem_context_compute_and_get_next_dm_upload_sctr
 2805 0062 079A     		ldr	r2, [sp, #28]
 2806 0064 0F9B     		ldr	r3, [sp, #60]
 2807 0066 174F     		ldr	r7, .L468+16
 2808 0068 0690     		str	r0, [sp, #24]
 2809 006a 0290     		str	r0, [sp, #8]
 2810 006c 0092     		str	r2, [sp]
 2811 006e 3800     		movs	r0, r7
 2812 0070 3200     		movs	r2, r6
 2813 0072 0599     		ldr	r1, [sp, #20]
 2814 0074 9BB2     		uxth	r3, r3
 2815 0076 0195     		str	r5, [sp, #4]
 2816 0078 FFF7FEFF 		bl	file_upload_init
 2817 007c 041E     		subs	r4, r0, #0
 2818 007e 07D0     		beq	.L461
 2819 0080 1148     		ldr	r0, .L468+20
 2820              	.L467:
 2821 0082 FFF7FEFF 		bl	smtc_modem_hal_print_trace
 2822 0086 0D48     		ldr	r0, .L468+8
 2823 0088 FFF7FEFF 		bl	smtc_modem_hal_print_trace
 2824 008c 0424     		movs	r4, #4
 2825 008e D5E7     		b	.L456
 2826              	.L461:
 2827 0090 069B     		ldr	r3, [sp, #24]
 2828 0092 2A00     		movs	r2, r5
 2829 0094 0193     		str	r3, [sp, #4]
 2830 0096 0F9B     		ldr	r3, [sp, #60]
 2831 0098 0C49     		ldr	r1, .L468+24
 2832 009a 0093     		str	r3, [sp]
 2833 009c 0C48     		ldr	r0, .L468+28
 2834 009e 3300     		movs	r3, r6
 2835 00a0 FFF7FEFF 		bl	smtc_modem_hal_print_trace
 2836 00a4 3800     		movs	r0, r7
 2837 00a6 0499     		ldr	r1, [sp, #16]
 2838 00a8 FFF7FEFF 		bl	file_upload_attach_file_buffer
 2839 00ac 0120     		movs	r0, #1
 2840 00ae FFF7FEFF 		bl	modem_set_upload_state
 2841 00b2 C3E7     		b	.L456
 2842              	.L469:
 2843              		.align	2
 2844              	.L468:
 2845 00b4 00000000 		.word	.LC100
 2846 00b8 45000000 		.word	.LC103
 2847 00bc 30000000 		.word	.LC3
 2848 00c0 70000000 		.word	.LC105
 2849 00c4 A8040000 		.word	smtc_modem_services_ctx+1192
 2850 00c8 99000000 		.word	.LC108
 2851 00cc 00000000 		.word	.LANCHOR15
 2852 00d0 C5000000 		.word	.LC111
 2854              		.section	.rodata.smtc_modem_file_upload_start.str1.1,"aMS",%progbits,1
 2855              	.LC113:
 2856 0000 1B5B303B 		.ascii	"\033[0;31mERROR: FileUpload still in progress..\015"
 2856      33316D45 
 2856      52524F52 
 2856      3A204669 
 2856      6C655570 
ARM GAS  /tmp/cc0VPHID.s 			page 51


 2857 002d 0A00     		.ascii	"\012\000"
 2858              	.LC116:
 2859 002f 1B5B303B 		.ascii	"\033[0;31mERROR: File upload session not initialize"
 2859      33316D45 
 2859      52524F52 
 2859      3A204669 
 2859      6C652075 
 2860 005f 640D0A00 		.ascii	"d\015\012\000"
 2861              		.section	.text.smtc_modem_file_upload_start,"ax",%progbits
 2862              		.align	1
 2863              		.global	smtc_modem_file_upload_start
 2864              		.syntax unified
 2865              		.code	16
 2866              		.thumb_func
 2867              		.fpu softvfp
 2869              	smtc_modem_file_upload_start:
 2870              		@ args = 0, pretend = 0, frame = 0
 2871              		@ frame_needed = 0, uses_anonymous_args = 0
 2872 0000 70B5     		push	{r4, r5, r6, lr}
 2873 0002 FFF7FEFF 		bl	modem_get_test_mode_status
 2874 0006 0523     		movs	r3, #5
 2875 0008 041E     		subs	r4, r0, #0
 2876 000a 0FD1     		bne	.L471
 2877 000c FFF7FEFF 		bl	is_modem_connected
 2878 0010 0623     		movs	r3, #6
 2879 0012 0028     		cmp	r0, #0
 2880 0014 0AD0     		beq	.L471
 2881 0016 FFF7FEFF 		bl	modem_get_upload_state
 2882 001a 0228     		cmp	r0, #2
 2883 001c 08D1     		bne	.L472
 2884 001e 1348     		ldr	r0, .L476
 2885 0020 FFF7FEFF 		bl	smtc_modem_hal_print_trace
 2886 0024 1248     		ldr	r0, .L476+4
 2887 0026 FFF7FEFF 		bl	smtc_modem_hal_print_trace
 2888 002a 0523     		movs	r3, #5
 2889              	.L471:
 2890              		@ sp needed
 2891 002c 1800     		movs	r0, r3
 2892 002e 70BD     		pop	{r4, r5, r6, pc}
 2893              	.L472:
 2894 0030 FFF7FEFF 		bl	modem_get_upload_state
 2895 0034 0500     		movs	r5, r0
 2896 0036 0128     		cmp	r0, #1
 2897 0038 07D0     		beq	.L473
 2898 003a 0E48     		ldr	r0, .L476+8
 2899 003c FFF7FEFF 		bl	smtc_modem_hal_print_trace
 2900 0040 0B48     		ldr	r0, .L476+4
 2901 0042 FFF7FEFF 		bl	smtc_modem_hal_print_trace
 2902 0046 0323     		movs	r3, #3
 2903 0048 F0E7     		b	.L471
 2904              	.L473:
 2905 004a 0B48     		ldr	r0, .L476+12
 2906 004c FFF7FEFF 		bl	file_upload_prepare_upload
 2907 0050 0221     		movs	r1, #2
 2908 0052 2000     		movs	r0, r4
 2909 0054 FFF7FEFF 		bl	smtc_modem_hal_get_random_nb_in_range
 2910 0058 FFF7FEFF 		bl	modem_supervisor_add_task_file_upload
ARM GAS  /tmp/cc0VPHID.s 			page 52


 2911 005c 0220     		movs	r0, #2
 2912 005e FFF7FEFF 		bl	modem_set_upload_state
 2913 0062 2800     		movs	r0, r5
 2914 0064 FFF7FEFF 		bl	set_modem_status_file_upload
 2915 0068 2300     		movs	r3, r4
 2916 006a DFE7     		b	.L471
 2917              	.L477:
 2918              		.align	2
 2919              	.L476:
 2920 006c 00000000 		.word	.LC113
 2921 0070 30000000 		.word	.LC3
 2922 0074 2F000000 		.word	.LC116
 2923 0078 A8040000 		.word	smtc_modem_services_ctx+1192
 2925              		.section	.rodata.smtc_modem_file_upload_reset.str1.1,"aMS",%progbits,1
 2926              	.LC119:
 2927 0000 1B5B303B 		.ascii	"\033[0;31mERROR: No file upload session is on going"
 2927      33316D45 
 2927      52524F52 
 2927      3A204E6F 
 2927      2066696C 
 2928 0030 0D0A00   		.ascii	"\015\012\000"
 2929              	.LC122:
 2930 0033 1B5B303B 		.ascii	"\033[0;33mWARN: File Upload Cancel and session rese"
 2930      33336D57 
 2930      41524E3A 
 2930      2046696C 
 2930      65205570 
 2931 0063 74210D0A 		.ascii	"t!\015\012\000"
 2931      00
 2932              		.section	.text.smtc_modem_file_upload_reset,"ax",%progbits
 2933              		.align	1
 2934              		.global	smtc_modem_file_upload_reset
 2935              		.syntax unified
 2936              		.code	16
 2937              		.thumb_func
 2938              		.fpu softvfp
 2940              	smtc_modem_file_upload_reset:
 2941              		@ args = 0, pretend = 0, frame = 0
 2942              		@ frame_needed = 0, uses_anonymous_args = 0
 2943 0000 70B5     		push	{r4, r5, r6, lr}
 2944 0002 FFF7FEFF 		bl	modem_get_test_mode_status
 2945 0006 0400     		movs	r4, r0
 2946 0008 0520     		movs	r0, #5
 2947 000a 002C     		cmp	r4, #0
 2948 000c 0BD1     		bne	.L479
 2949 000e FFF7FEFF 		bl	modem_get_upload_state
 2950 0012 0E4D     		ldr	r5, .L486
 2951 0014 0028     		cmp	r0, #0
 2952 0016 07D1     		bne	.L480
 2953              	.L481:
 2954 0018 0D48     		ldr	r0, .L486+4
 2955 001a FFF7FEFF 		bl	smtc_modem_hal_print_trace
 2956 001e 2800     		movs	r0, r5
 2957 0020 FFF7FEFF 		bl	smtc_modem_hal_print_trace
 2958 0024 0320     		movs	r0, #3
 2959              	.L479:
 2960              		@ sp needed
ARM GAS  /tmp/cc0VPHID.s 			page 53


 2961 0026 70BD     		pop	{r4, r5, r6, pc}
 2962              	.L480:
 2963 0028 FFF7FEFF 		bl	modem_get_upload_state
 2964 002c 0328     		cmp	r0, #3
 2965 002e F3D0     		beq	.L481
 2966 0030 0848     		ldr	r0, .L486+8
 2967 0032 FFF7FEFF 		bl	smtc_modem_hal_print_trace
 2968 0036 2800     		movs	r0, r5
 2969 0038 FFF7FEFF 		bl	smtc_modem_hal_print_trace
 2970 003c 2000     		movs	r0, r4
 2971 003e FFF7FEFF 		bl	modem_set_upload_state
 2972 0042 2000     		movs	r0, r4
 2973 0044 FFF7FEFF 		bl	set_modem_status_file_upload
 2974 0048 2000     		movs	r0, r4
 2975 004a ECE7     		b	.L479
 2976              	.L487:
 2977              		.align	2
 2978              	.L486:
 2979 004c 30000000 		.word	.LC3
 2980 0050 00000000 		.word	.LC119
 2981 0054 33000000 		.word	.LC122
 2983              		.section	.rodata.smtc_modem_stream_init.str1.1,"aMS",%progbits,1
 2984              	.LC124:
 2985 0000 1B5B303B 		.ascii	"\033[0;31mERROR: STREAM_INIT fport invalid\015\012\000"
 2985      33316D45 
 2985      52524F52 
 2985      3A205354 
 2985      5245414D 
 2986              	.LC127:
 2987 002a 1B5B303B 		.ascii	"\033[0;31mERROR: STREAM_INIT encryption mode invali"
 2987      33316D45 
 2987      52524F52 
 2987      3A205354 
 2987      5245414D 
 2988 005a 640D0A00 		.ascii	"d\015\012\000"
 2989              	.LC129:
 2990 005e 53545245 		.ascii	"STREAM_INIT Using default DM port\015\012\000"
 2990      414D5F49 
 2990      4E495420 
 2990      5573696E 
 2990      67206465 
 2991              	.LC131:
 2992 0082 25732573 		.ascii	"%s%s\000"
 2992      00
 2993              	.LC134:
 2994 0087 1B5B303B 		.ascii	"\033[0;31mERROR: STREAM_INIT FAILED\015\012\000"
 2994      33316D45 
 2994      52524F52 
 2994      3A205354 
 2994      5245414D 
 2995              	.LC136:
 2996 00aa 1B5B303B 		.ascii	"\033[0;31mERROR: STREAM_INIT ENCRYPTION FAILED\015\012"
 2996      33316D45 
 2996      52524F52 
 2996      3A205354 
 2996      5245414D 
 2997 00d7 00       		.ascii	"\000"
ARM GAS  /tmp/cc0VPHID.s 			page 54


 2998              		.section	.text.smtc_modem_stream_init,"ax",%progbits
 2999              		.align	1
 3000              		.global	smtc_modem_stream_init
 3001              		.syntax unified
 3002              		.code	16
 3003              		.thumb_func
 3004              		.fpu softvfp
 3006              	smtc_modem_stream_init:
 3007              		@ args = 0, pretend = 0, frame = 8
 3008              		@ frame_needed = 0, uses_anonymous_args = 0
 3009 0000 F7B5     		push	{r0, r1, r2, r4, r5, r6, r7, lr}
 3010 0002 0D00     		movs	r5, r1
 3011 0004 1600     		movs	r6, r2
 3012 0006 0193     		str	r3, [sp, #4]
 3013 0008 FFF7FEFF 		bl	modem_get_test_mode_status
 3014 000c 0524     		movs	r4, #5
 3015 000e 0028     		cmp	r0, #0
 3016 0010 0BD1     		bne	.L489
 3017 0012 2248     		ldr	r0, .L501
 3018 0014 DF2D     		cmp	r5, #223
 3019 0016 02D8     		bhi	.L499
 3020 0018 012E     		cmp	r6, #1
 3021 001a 08D9     		bls	.L491
 3022 001c 2048     		ldr	r0, .L501+4
 3023              	.L499:
 3024 001e FFF7FEFF 		bl	smtc_modem_hal_print_trace
 3025 0022 2048     		ldr	r0, .L501+8
 3026 0024 FFF7FEFF 		bl	smtc_modem_hal_print_trace
 3027 0028 0424     		movs	r4, #4
 3028              	.L489:
 3029              		@ sp needed
 3030 002a 2000     		movs	r0, r4
 3031 002c FEBD     		pop	{r1, r2, r3, r4, r5, r6, r7, pc}
 3032              	.L491:
 3033 002e 002D     		cmp	r5, #0
 3034 0030 07D1     		bne	.L492
 3035 0032 1D4A     		ldr	r2, .L501+12
 3036 0034 1B49     		ldr	r1, .L501+8
 3037 0036 1D48     		ldr	r0, .L501+16
 3038 0038 FFF7FEFF 		bl	smtc_modem_hal_print_trace
 3039 003c FFF7FEFF 		bl	get_modem_dm_port
 3040 0040 0500     		movs	r5, r0
 3041              	.L492:
 3042 0042 1B4F     		ldr	r7, .L501+20
 3043 0044 3800     		movs	r0, r7
 3044 0046 FFF7FEFF 		bl	stream_reset
 3045 004a 3800     		movs	r0, r7
 3046 004c FFF7FEFF 		bl	stream_init
 3047 0050 041E     		subs	r4, r0, #0
 3048 0052 1848     		ldr	r0, .L501+24
 3049 0054 07D1     		bne	.L500
 3050 0056 012E     		cmp	r6, #1
 3051 0058 0CD1     		bne	.L494
 3052 005a 3800     		movs	r0, r7
 3053 005c FFF7FEFF 		bl	stream_enable_encryption
 3054 0060 0028     		cmp	r0, #0
 3055 0062 07D0     		beq	.L494
ARM GAS  /tmp/cc0VPHID.s 			page 55


 3056 0064 1448     		ldr	r0, .L501+28
 3057              	.L500:
 3058 0066 FFF7FEFF 		bl	smtc_modem_hal_print_trace
 3059 006a 0E48     		ldr	r0, .L501+8
 3060 006c FFF7FEFF 		bl	smtc_modem_hal_print_trace
 3061 0070 0624     		movs	r4, #6
 3062 0072 DAE7     		b	.L489
 3063              	.L494:
 3064 0074 0820     		movs	r0, #8
 3065 0076 FFF7FEFF 		bl	modem_supervisor_remove_task
 3066 007a 2800     		movs	r0, r5
 3067 007c FFF7FEFF 		bl	modem_set_stream_port
 3068 0080 3800     		movs	r0, r7
 3069 0082 0199     		ldr	r1, [sp, #4]
 3070 0084 FFF7FEFF 		bl	stream_set_rr
 3071 0088 0125     		movs	r5, #1
 3072 008a 3000     		movs	r0, r6
 3073 008c 2840     		ands	r0, r5
 3074 008e FFF7FEFF 		bl	modem_set_stream_encryption
 3075 0092 2800     		movs	r0, r5
 3076 0094 FFF7FEFF 		bl	modem_set_stream_state
 3077 0098 C7E7     		b	.L489
 3078              	.L502:
 3079 009a C046     		.align	2
 3080              	.L501:
 3081 009c 00000000 		.word	.LC124
 3082 00a0 2A000000 		.word	.LC127
 3083 00a4 30000000 		.word	.LC3
 3084 00a8 5E000000 		.word	.LC129
 3085 00ac 82000000 		.word	.LC131
 3086 00b0 54000000 		.word	smtc_modem_services_ctx+84
 3087 00b4 87000000 		.word	.LC134
 3088 00b8 AA000000 		.word	.LC136
 3090              		.section	.rodata.smtc_modem_stream_add_data.str1.1,"aMS",%progbits,1
 3091              	.LC138:
 3092 0000 1B5B303B 		.ascii	"\033[0;31mERROR: Stream implicit init failed\015\012"
 3092      33316D45 
 3092      52524F52 
 3092      3A205374 
 3092      7265616D 
 3093 002b 00       		.ascii	"\000"
 3094              	.LC142:
 3095 002c 1B5B303B 		.ascii	"\033[0;31mERROR: STREAM ADD DATA: Invalid length\015"
 3095      33316D45 
 3095      52524F52 
 3095      3A205354 
 3095      5245414D 
 3096 005a 0A00     		.ascii	"\012\000"
 3097              	.LC144:
 3098 005c 1B5B303B 		.ascii	"\033[0;31mERROR: STREAM ADD DATA: Buffer is full\015"
 3098      33316D45 
 3098      52524F52 
 3098      3A205354 
 3098      5245414D 
 3099 008a 0A00     		.ascii	"\012\000"
 3100              	.LC146:
 3101 008c 1B5B303B 		.ascii	"\033[0;31mERROR: STREAM ADD DATA: No data record pr"
ARM GAS  /tmp/cc0VPHID.s 			page 56


 3101      33316D45 
 3101      52524F52 
 3101      3A205354 
 3101      5245414D 
 3102 00bc 6F766964 		.ascii	"ovided\015\012\000"
 3102      65640D0A 
 3102      00
 3103              	.LC148:
 3104 00c5 1B5B303B 		.ascii	"\033[0;32mINFO: STREAM_SEND [OK]\015\012\000"
 3104      33326D49 
 3104      4E464F3A 
 3104      20535452 
 3104      45414D5F 
 3105              		.section	.text.smtc_modem_stream_add_data,"ax",%progbits
 3106              		.align	1
 3107              		.global	smtc_modem_stream_add_data
 3108              		.syntax unified
 3109              		.code	16
 3110              		.thumb_func
 3111              		.fpu softvfp
 3113              	smtc_modem_stream_add_data:
 3114              		@ args = 0, pretend = 0, frame = 8
 3115              		@ frame_needed = 0, uses_anonymous_args = 0
 3116 0000 F7B5     		push	{r0, r1, r2, r4, r5, r6, r7, lr}
 3117 0002 0700     		movs	r7, r0
 3118 0004 0E00     		movs	r6, r1
 3119 0006 0192     		str	r2, [sp, #4]
 3120 0008 FFF7FEFF 		bl	modem_get_test_mode_status
 3121 000c 0524     		movs	r4, #5
 3122 000e 0028     		cmp	r0, #0
 3123 0010 1CD1     		bne	.L504
 3124 0012 013C     		subs	r4, r4, #1
 3125 0014 002E     		cmp	r6, #0
 3126 0016 19D0     		beq	.L504
 3127 0018 FFF7FEFF 		bl	is_modem_connected
 3128 001c 0234     		adds	r4, r4, #2
 3129 001e 0028     		cmp	r0, #0
 3130 0020 14D0     		beq	.L504
 3131 0022 FFF7FEFF 		bl	modem_get_stream_state
 3132 0026 214D     		ldr	r5, .L515
 3133 0028 041E     		subs	r4, r0, #0
 3134 002a 11D1     		bne	.L505
 3135 002c FFF7FEFF 		bl	get_modem_dm_port
 3136 0030 2200     		movs	r2, r4
 3137 0032 0100     		movs	r1, r0
 3138 0034 6E23     		movs	r3, #110
 3139 0036 3800     		movs	r0, r7
 3140 0038 FFF7FEFF 		bl	smtc_modem_stream_init
 3141 003c 041E     		subs	r4, r0, #0
 3142 003e 07D0     		beq	.L505
 3143 0040 1B48     		ldr	r0, .L515+4
 3144 0042 FFF7FEFF 		bl	smtc_modem_hal_print_trace
 3145 0046 2800     		movs	r0, r5
 3146 0048 FFF7FEFF 		bl	smtc_modem_hal_print_trace
 3147              	.L504:
 3148              		@ sp needed
 3149 004c 2000     		movs	r0, r4
ARM GAS  /tmp/cc0VPHID.s 			page 57


 3150 004e FEBD     		pop	{r1, r2, r3, r4, r5, r6, r7, pc}
 3151              	.L505:
 3152 0050 3100     		movs	r1, r6
 3153 0052 019A     		ldr	r2, [sp, #4]
 3154 0054 1748     		ldr	r0, .L515+8
 3155 0056 FFF7FEFF 		bl	stream_add_data
 3156 005a 0328     		cmp	r0, #3
 3157 005c 0BD0     		beq	.L506
 3158 005e 0428     		cmp	r0, #4
 3159 0060 11D0     		beq	.L507
 3160 0062 0128     		cmp	r0, #1
 3161 0064 17D1     		bne	.L508
 3162 0066 1448     		ldr	r0, .L515+12
 3163 0068 FFF7FEFF 		bl	smtc_modem_hal_print_trace
 3164 006c 2800     		movs	r0, r5
 3165 006e FFF7FEFF 		bl	smtc_modem_hal_print_trace
 3166 0072 0424     		movs	r4, #4
 3167 0074 EAE7     		b	.L504
 3168              	.L506:
 3169 0076 1148     		ldr	r0, .L515+16
 3170 0078 FFF7FEFF 		bl	smtc_modem_hal_print_trace
 3171 007c 2800     		movs	r0, r5
 3172 007e FFF7FEFF 		bl	smtc_modem_hal_print_trace
 3173 0082 0524     		movs	r4, #5
 3174 0084 E2E7     		b	.L504
 3175              	.L507:
 3176 0086 0E48     		ldr	r0, .L515+20
 3177 0088 FFF7FEFF 		bl	smtc_modem_hal_print_trace
 3178 008c 2800     		movs	r0, r5
 3179 008e FFF7FEFF 		bl	smtc_modem_hal_print_trace
 3180 0092 0624     		movs	r4, #6
 3181 0094 DAE7     		b	.L504
 3182              	.L508:
 3183 0096 FFF7FEFF 		bl	modem_supervisor_add_task_stream
 3184 009a 0A48     		ldr	r0, .L515+24
 3185 009c FFF7FEFF 		bl	smtc_modem_hal_print_trace
 3186 00a0 2800     		movs	r0, r5
 3187 00a2 FFF7FEFF 		bl	smtc_modem_hal_print_trace
 3188 00a6 0024     		movs	r4, #0
 3189 00a8 D0E7     		b	.L504
 3190              	.L516:
 3191 00aa C046     		.align	2
 3192              	.L515:
 3193 00ac 30000000 		.word	.LC3
 3194 00b0 00000000 		.word	.LC138
 3195 00b4 54000000 		.word	smtc_modem_services_ctx+84
 3196 00b8 2C000000 		.word	.LC142
 3197 00bc 5C000000 		.word	.LC144
 3198 00c0 8C000000 		.word	.LC146
 3199 00c4 C5000000 		.word	.LC148
 3201              		.section	.text.smtc_modem_stream_status,"ax",%progbits
 3202              		.align	1
 3203              		.global	smtc_modem_stream_status
 3204              		.syntax unified
 3205              		.code	16
 3206              		.thumb_func
 3207              		.fpu softvfp
ARM GAS  /tmp/cc0VPHID.s 			page 58


 3209              	smtc_modem_stream_status:
 3210              		@ args = 0, pretend = 0, frame = 0
 3211              		@ frame_needed = 0, uses_anonymous_args = 0
 3212 0000 70B5     		push	{r4, r5, r6, lr}
 3213 0002 0D00     		movs	r5, r1
 3214 0004 1600     		movs	r6, r2
 3215 0006 FFF7FEFF 		bl	modem_get_test_mode_status
 3216 000a 0523     		movs	r3, #5
 3217 000c 041E     		subs	r4, r0, #0
 3218 000e 0FD1     		bne	.L518
 3219 0010 013B     		subs	r3, r3, #1
 3220 0012 002D     		cmp	r5, #0
 3221 0014 0CD0     		beq	.L518
 3222 0016 002E     		cmp	r6, #0
 3223 0018 0AD0     		beq	.L518
 3224 001a FFF7FEFF 		bl	modem_get_stream_state
 3225 001e 0323     		movs	r3, #3
 3226 0020 0028     		cmp	r0, #0
 3227 0022 05D0     		beq	.L518
 3228 0024 3200     		movs	r2, r6
 3229 0026 2900     		movs	r1, r5
 3230 0028 0248     		ldr	r0, .L523
 3231 002a FFF7FEFF 		bl	stream_status
 3232 002e 2300     		movs	r3, r4
 3233              	.L518:
 3234              		@ sp needed
 3235 0030 1800     		movs	r0, r3
 3236 0032 70BD     		pop	{r4, r5, r6, pc}
 3237              	.L524:
 3238              		.align	2
 3239              	.L523:
 3240 0034 54000000 		.word	smtc_modem_services_ctx+84
 3242              		.section	.text.smtc_modem_set_certification_mode,"ax",%progbits
 3243              		.align	1
 3244              		.global	smtc_modem_set_certification_mode
 3245              		.syntax unified
 3246              		.code	16
 3247              		.thumb_func
 3248              		.fpu softvfp
 3250              	smtc_modem_set_certification_mode:
 3251              		@ args = 0, pretend = 0, frame = 0
 3252              		@ frame_needed = 0, uses_anonymous_args = 0
 3253 0000 70B5     		push	{r4, r5, r6, lr}
 3254 0002 0C00     		movs	r4, r1
 3255 0004 FFF7FEFF 		bl	modem_get_test_mode_status
 3256 0008 0526     		movs	r6, #5
 3257 000a 051E     		subs	r5, r0, #0
 3258 000c 0AD1     		bne	.L526
 3259 000e 2000     		movs	r0, r4
 3260 0010 FFF7FEFF 		bl	lorawan_api_modem_certification_set
 3261 0014 2E00     		movs	r6, r5
 3262 0016 FFF7FEFF 		bl	smtc_secure_element_store_context
 3263 001a 002C     		cmp	r4, #0
 3264 001c 02D1     		bne	.L526
 3265 001e 0120     		movs	r0, #1
 3266 0020 FFF7FEFF 		bl	smtc_modem_test_duty_cycle_app_activate
 3267              	.L526:
ARM GAS  /tmp/cc0VPHID.s 			page 59


 3268              		@ sp needed
 3269 0024 3000     		movs	r0, r6
 3270 0026 70BD     		pop	{r4, r5, r6, pc}
 3272              		.section	.text.smtc_modem_increment_event_middleware,"ax",%progbits
 3273              		.align	1
 3274              		.global	smtc_modem_increment_event_middleware
 3275              		.syntax unified
 3276              		.code	16
 3277              		.thumb_func
 3278              		.fpu softvfp
 3280              	smtc_modem_increment_event_middleware:
 3281              		@ args = 0, pretend = 0, frame = 0
 3282              		@ frame_needed = 0, uses_anonymous_args = 0
 3283 0000 0200     		movs	r2, r0
 3284 0002 163A     		subs	r2, r2, #22
 3285 0004 0423     		movs	r3, #4
 3286 0006 10B5     		push	{r4, lr}
 3287 0008 022A     		cmp	r2, #2
 3288 000a 02D8     		bhi	.L530
 3289 000c FFF7FEFF 		bl	increment_asynchronous_msgnumber
 3290 0010 0023     		movs	r3, #0
 3291              	.L530:
 3292              		@ sp needed
 3293 0012 1800     		movs	r0, r3
 3294 0014 10BD     		pop	{r4, pc}
 3296              		.section	.text.smtc_modem_get_certification_mode,"ax",%progbits
 3297              		.align	1
 3298              		.global	smtc_modem_get_certification_mode
 3299              		.syntax unified
 3300              		.code	16
 3301              		.thumb_func
 3302              		.fpu softvfp
 3304              	smtc_modem_get_certification_mode:
 3305              		@ args = 0, pretend = 0, frame = 0
 3306              		@ frame_needed = 0, uses_anonymous_args = 0
 3307 0000 70B5     		push	{r4, r5, r6, lr}
 3308 0002 0D00     		movs	r5, r1
 3309 0004 FFF7FEFF 		bl	modem_get_test_mode_status
 3310 0008 0400     		movs	r4, r0
 3311 000a 0520     		movs	r0, #5
 3312 000c 002C     		cmp	r4, #0
 3313 000e 08D1     		bne	.L533
 3314 0010 0138     		subs	r0, r0, #1
 3315 0012 002D     		cmp	r5, #0
 3316 0014 05D0     		beq	.L533
 3317 0016 FFF7FEFF 		bl	lorawan_api_modem_certification_is_enabled
 3318 001a 431E     		subs	r3, r0, #1
 3319 001c 9841     		sbcs	r0, r0, r3
 3320 001e 2870     		strb	r0, [r5]
 3321 0020 2000     		movs	r0, r4
 3322              	.L533:
 3323              		@ sp needed
 3324 0022 70BD     		pop	{r4, r5, r6, pc}
 3326              		.section	.text.smtc_modem_connection_timeout_set_thresholds,"ax",%progbits
 3327              		.align	1
 3328              		.global	smtc_modem_connection_timeout_set_thresholds
 3329              		.syntax unified
ARM GAS  /tmp/cc0VPHID.s 			page 60


 3330              		.code	16
 3331              		.thumb_func
 3332              		.fpu softvfp
 3334              	smtc_modem_connection_timeout_set_thresholds:
 3335              		@ args = 0, pretend = 0, frame = 0
 3336              		@ frame_needed = 0, uses_anonymous_args = 0
 3337 0000 70B5     		push	{r4, r5, r6, lr}
 3338 0002 0E00     		movs	r6, r1
 3339 0004 1500     		movs	r5, r2
 3340 0006 FFF7FEFF 		bl	modem_get_test_mode_status
 3341 000a 0400     		movs	r4, r0
 3342 000c 0520     		movs	r0, #5
 3343 000e 002C     		cmp	r4, #0
 3344 0010 06D1     		bne	.L537
 3345 0012 3000     		movs	r0, r6
 3346 0014 FFF7FEFF 		bl	modem_set_adr_mobile_timeout_config
 3347 0018 2800     		movs	r0, r5
 3348 001a FFF7FEFF 		bl	lorawan_api_set_no_rx_packet_threshold
 3349 001e 2000     		movs	r0, r4
 3350              	.L537:
 3351              		@ sp needed
 3352 0020 70BD     		pop	{r4, r5, r6, pc}
 3354              		.section	.text.smtc_modem_connection_timeout_get_thresholds,"ax",%progbits
 3355              		.align	1
 3356              		.global	smtc_modem_connection_timeout_get_thresholds
 3357              		.syntax unified
 3358              		.code	16
 3359              		.thumb_func
 3360              		.fpu softvfp
 3362              	smtc_modem_connection_timeout_get_thresholds:
 3363              		@ args = 0, pretend = 0, frame = 0
 3364              		@ frame_needed = 0, uses_anonymous_args = 0
 3365 0000 70B5     		push	{r4, r5, r6, lr}
 3366 0002 0E00     		movs	r6, r1
 3367 0004 1500     		movs	r5, r2
 3368 0006 FFF7FEFF 		bl	modem_get_test_mode_status
 3369 000a 0400     		movs	r4, r0
 3370 000c 0520     		movs	r0, #5
 3371 000e 002C     		cmp	r4, #0
 3372 0010 0BD1     		bne	.L540
 3373 0012 0138     		subs	r0, r0, #1
 3374 0014 002E     		cmp	r6, #0
 3375 0016 08D0     		beq	.L540
 3376 0018 002D     		cmp	r5, #0
 3377 001a 06D0     		beq	.L540
 3378 001c FFF7FEFF 		bl	modem_get_adr_mobile_timeout_config
 3379 0020 3080     		strh	r0, [r6]
 3380 0022 FFF7FEFF 		bl	lorawan_api_get_no_rx_packet_threshold
 3381 0026 2880     		strh	r0, [r5]
 3382 0028 2000     		movs	r0, r4
 3383              	.L540:
 3384              		@ sp needed
 3385 002a 70BD     		pop	{r4, r5, r6, pc}
 3387              		.section	.text.smtc_modem_connection_timeout_get_current_values,"ax",%progbits
 3388              		.align	1
 3389              		.global	smtc_modem_connection_timeout_get_current_values
 3390              		.syntax unified
ARM GAS  /tmp/cc0VPHID.s 			page 61


 3391              		.code	16
 3392              		.thumb_func
 3393              		.fpu softvfp
 3395              	smtc_modem_connection_timeout_get_current_values:
 3396              		@ args = 0, pretend = 0, frame = 0
 3397              		@ frame_needed = 0, uses_anonymous_args = 0
 3398 0000 70B5     		push	{r4, r5, r6, lr}
 3399 0002 0E00     		movs	r6, r1
 3400 0004 1500     		movs	r5, r2
 3401 0006 FFF7FEFF 		bl	modem_get_test_mode_status
 3402 000a 0400     		movs	r4, r0
 3403 000c 0520     		movs	r0, #5
 3404 000e 002C     		cmp	r4, #0
 3405 0010 0BD1     		bne	.L545
 3406 0012 0138     		subs	r0, r0, #1
 3407 0014 002E     		cmp	r6, #0
 3408 0016 08D0     		beq	.L545
 3409 0018 002D     		cmp	r5, #0
 3410 001a 06D0     		beq	.L545
 3411 001c FFF7FEFF 		bl	lorawan_api_get_current_no_rx_packet_in_mobile_mode_cnt
 3412 0020 3080     		strh	r0, [r6]
 3413 0022 FFF7FEFF 		bl	lorawan_api_get_current_adr_ack_cnt
 3414 0026 2880     		strh	r0, [r5]
 3415 0028 2000     		movs	r0, r4
 3416              	.L545:
 3417              		@ sp needed
 3418 002a 70BD     		pop	{r4, r5, r6, pc}
 3420              		.section	.text.smtc_modem_lorawan_get_lost_connection_counter,"ax",%progbits
 3421              		.align	1
 3422              		.global	smtc_modem_lorawan_get_lost_connection_counter
 3423              		.syntax unified
 3424              		.code	16
 3425              		.thumb_func
 3426              		.fpu softvfp
 3428              	smtc_modem_lorawan_get_lost_connection_counter:
 3429              		@ args = 0, pretend = 0, frame = 0
 3430              		@ frame_needed = 0, uses_anonymous_args = 0
 3431 0000 70B5     		push	{r4, r5, r6, lr}
 3432 0002 0D00     		movs	r5, r1
 3433 0004 FFF7FEFF 		bl	modem_get_test_mode_status
 3434 0008 0400     		movs	r4, r0
 3435 000a 0520     		movs	r0, #5
 3436 000c 002C     		cmp	r4, #0
 3437 000e 06D1     		bne	.L550
 3438 0010 0138     		subs	r0, r0, #1
 3439 0012 002D     		cmp	r5, #0
 3440 0014 03D0     		beq	.L550
 3441 0016 FFF7FEFF 		bl	lorawan_api_get_current_no_rx_packet_cnt
 3442 001a 2880     		strh	r0, [r5]
 3443 001c 2000     		movs	r0, r4
 3444              	.L550:
 3445              		@ sp needed
 3446 001e 70BD     		pop	{r4, r5, r6, pc}
 3448              		.section	.text.smtc_modem_get_duty_cycle_status,"ax",%progbits
 3449              		.align	1
 3450              		.global	smtc_modem_get_duty_cycle_status
 3451              		.syntax unified
ARM GAS  /tmp/cc0VPHID.s 			page 62


 3452              		.code	16
 3453              		.thumb_func
 3454              		.fpu softvfp
 3456              	smtc_modem_get_duty_cycle_status:
 3457              		@ args = 0, pretend = 0, frame = 0
 3458              		@ frame_needed = 0, uses_anonymous_args = 0
 3459 0000 70B5     		push	{r4, r5, r6, lr}
 3460 0002 0500     		movs	r5, r0
 3461 0004 FFF7FEFF 		bl	modem_get_test_mode_status
 3462 0008 0400     		movs	r4, r0
 3463 000a 0520     		movs	r0, #5
 3464 000c 002C     		cmp	r4, #0
 3465 000e 07D1     		bne	.L554
 3466 0010 0138     		subs	r0, r0, #1
 3467 0012 002D     		cmp	r5, #0
 3468 0014 04D0     		beq	.L554
 3469 0016 FFF7FEFF 		bl	lorawan_api_next_free_duty_cycle_ms_get
 3470 001a 4042     		rsbs	r0, r0, #0
 3471 001c 2860     		str	r0, [r5]
 3472 001e 2000     		movs	r0, r4
 3473              	.L554:
 3474              		@ sp needed
 3475 0020 70BD     		pop	{r4, r5, r6, pc}
 3477              		.section	.text.smtc_modem_rp_abort_user_radio_access_task,"ax",%progbits
 3478              		.align	1
 3479              		.global	smtc_modem_rp_abort_user_radio_access_task
 3480              		.syntax unified
 3481              		.code	16
 3482              		.thumb_func
 3483              		.fpu softvfp
 3485              	smtc_modem_rp_abort_user_radio_access_task:
 3486              		@ args = 0, pretend = 0, frame = 0
 3487              		@ frame_needed = 0, uses_anonymous_args = 0
 3488 0000 0300     		movs	r3, r0
 3489 0002 10B5     		push	{r4, lr}
 3490 0004 0128     		cmp	r0, #1
 3491 0006 06D0     		beq	.L558
 3492 0008 0228     		cmp	r0, #2
 3493 000a 0CD0     		beq	.L559
 3494 000c 0420     		movs	r0, #4
 3495 000e 0121     		movs	r1, #1
 3496 0010 002B     		cmp	r3, #0
 3497 0012 01D0     		beq	.L566
 3498              	.L560:
 3499              		@ sp needed
 3500 0014 10BD     		pop	{r4, pc}
 3501              	.L558:
 3502 0016 0821     		movs	r1, #8
 3503              	.L566:
 3504 0018 0448     		ldr	r0, .L567
 3505 001a FFF7FEFF 		bl	rp_task_abort
 3506 001e 0028     		cmp	r0, #0
 3507 0020 F8D0     		beq	.L560
 3508 0022 0620     		movs	r0, #6
 3509 0024 F6E7     		b	.L560
 3510              	.L559:
 3511 0026 0921     		movs	r1, #9
ARM GAS  /tmp/cc0VPHID.s 			page 63


 3512 0028 F6E7     		b	.L566
 3513              	.L568:
 3514 002a C046     		.align	2
 3515              	.L567:
 3516 002c 00000000 		.word	modem_radio_planner
 3518              		.section	.text.smtc_modem_rp_add_user_radio_access_task,"ax",%progbits
 3519              		.align	1
 3520              		.global	smtc_modem_rp_add_user_radio_access_task
 3521              		.syntax unified
 3522              		.code	16
 3523              		.thumb_func
 3524              		.fpu softvfp
 3526              	smtc_modem_rp_add_user_radio_access_task:
 3527              		@ args = 0, pretend = 0, frame = 168
 3528              		@ frame_needed = 0, uses_anonymous_args = 0
 3529 0000 70B5     		push	{r4, r5, r6, lr}
 3530 0002 ACB0     		sub	sp, sp, #176
 3531 0004 0400     		movs	r4, r0
 3532 0006 FFF7FEFF 		bl	modem_get_test_mode_status
 3533 000a 0100     		movs	r1, r0
 3534 000c 0520     		movs	r0, #5
 3535 000e 0029     		cmp	r1, #0
 3536 0010 2DD1     		bne	.L570
 3537 0012 0BAD     		add	r5, sp, #44
 3538 0014 8422     		movs	r2, #132
 3539 0016 2800     		movs	r0, r5
 3540 0018 FFF7FEFF 		bl	memset
 3541 001c 237B     		ldrb	r3, [r4, #12]
 3542 001e 012B     		cmp	r3, #1
 3543 0020 27D0     		beq	.L571
 3544 0022 022B     		cmp	r3, #2
 3545 0024 2AD0     		beq	.L572
 3546 0026 0420     		movs	r0, #4
 3547 0028 002B     		cmp	r3, #0
 3548 002a 20D1     		bne	.L570
 3549 002c 0126     		movs	r6, #1
 3550 002e 164B     		ldr	r3, .L579
 3551 0030 6269     		ldr	r2, [r4, #20]
 3552 0032 1A60     		str	r2, [r3]
 3553              	.L573:
 3554 0034 1822     		movs	r2, #24
 3555 0036 0021     		movs	r1, #0
 3556 0038 04A8     		add	r0, sp, #16
 3557 003a FFF7FEFF 		bl	memset
 3558 003e 02AB     		add	r3, sp, #8
 3559 0040 1E72     		strb	r6, [r3, #8]
 3560 0042 2369     		ldr	r3, [r4, #16]
 3561 0044 1148     		ldr	r0, .L579+4
 3562 0046 0593     		str	r3, [sp, #20]
 3563 0048 2378     		ldrb	r3, [r4]
 3564 004a 04A9     		add	r1, sp, #16
 3565 004c 5A1E     		subs	r2, r3, #1
 3566 004e 9341     		sbcs	r3, r3, r2
 3567 0050 02AA     		add	r2, sp, #8
 3568 0052 9374     		strb	r3, [r2, #18]
 3569 0054 6368     		ldr	r3, [r4, #4]
 3570 0056 0095     		str	r5, [sp]
ARM GAS  /tmp/cc0VPHID.s 			page 64


 3571 0058 0793     		str	r3, [sp, #28]
 3572 005a A368     		ldr	r3, [r4, #8]
 3573 005c 0393     		str	r3, [sp, #12]
 3574 005e 0A93     		str	r3, [sp, #40]
 3575 0060 0023     		movs	r3, #0
 3576 0062 1A00     		movs	r2, r3
 3577 0064 FFF7FEFF 		bl	rp_task_enqueue
 3578 0068 0028     		cmp	r0, #0
 3579 006a 00D0     		beq	.L570
 3580 006c 0620     		movs	r0, #6
 3581              	.L570:
 3582 006e 2CB0     		add	sp, sp, #176
 3583              		@ sp needed
 3584 0070 70BD     		pop	{r4, r5, r6, pc}
 3585              	.L571:
 3586 0072 074B     		ldr	r3, .L579+8
 3587 0074 6269     		ldr	r2, [r4, #20]
 3588 0076 0826     		movs	r6, #8
 3589 0078 1A60     		str	r2, [r3]
 3590 007a DBE7     		b	.L573
 3591              	.L572:
 3592 007c 054B     		ldr	r3, .L579+12
 3593 007e 6269     		ldr	r2, [r4, #20]
 3594 0080 0926     		movs	r6, #9
 3595 0082 1A60     		str	r2, [r3]
 3596 0084 D6E7     		b	.L573
 3597              	.L580:
 3598 0086 C046     		.align	2
 3599              	.L579:
 3600 0088 00000000 		.word	.LANCHOR16
 3601 008c 00000000 		.word	modem_radio_planner
 3602 0090 00000000 		.word	.LANCHOR17
 3603 0094 00000000 		.word	.LANCHOR18
 3605              		.section	.rodata.smtc_modem_suspend_before_user_radio_access.str1.1,"aMS",%progbits,1
 3606              	.LC156:
 3607 0000 53757370 		.ascii	"Suspend modem user radio access\015\012\000"
 3607      656E6420 
 3607      6D6F6465 
 3607      6D207573 
 3607      65722072 
 3608              		.section	.text.smtc_modem_suspend_before_user_radio_access,"ax",%progbits
 3609              		.align	1
 3610              		.global	smtc_modem_suspend_before_user_radio_access
 3611              		.syntax unified
 3612              		.code	16
 3613              		.thumb_func
 3614              		.fpu softvfp
 3616              	smtc_modem_suspend_before_user_radio_access:
 3617              		@ args = 0, pretend = 0, frame = 0
 3618              		@ frame_needed = 0, uses_anonymous_args = 0
 3619 0000 10B5     		push	{r4, lr}
 3620 0002 FFF7FEFF 		bl	modem_get_test_mode_status
 3621 0006 0523     		movs	r3, #5
 3622 0008 041E     		subs	r4, r0, #0
 3623 000a 0CD1     		bne	.L582
 3624 000c 0120     		movs	r0, #1
 3625 000e FFF7FEFF 		bl	smtc_modem_suspend_radio_communications
ARM GAS  /tmp/cc0VPHID.s 			page 65


 3626 0012 0648     		ldr	r0, .L585
 3627 0014 FFF7FEFF 		bl	smtc_modem_hal_print_trace
 3628 0018 0E20     		movs	r0, #14
 3629 001a FFF7FEFF 		bl	modem_context_suspend_user_radio_access
 3630 001e 2300     		movs	r3, r4
 3631 0020 0028     		cmp	r0, #0
 3632 0022 00D1     		bne	.L582
 3633 0024 0633     		adds	r3, r3, #6
 3634              	.L582:
 3635 0026 1800     		movs	r0, r3
 3636              		@ sp needed
 3637 0028 10BD     		pop	{r4, pc}
 3638              	.L586:
 3639 002a C046     		.align	2
 3640              	.L585:
 3641 002c 00000000 		.word	.LC156
 3643              		.section	.rodata.smtc_modem_resume_after_user_radio_access.str1.1,"aMS",%progbits,1
 3644              	.LC158:
 3645 0000 52657375 		.ascii	"Resume modem user radio access\015\012\000"
 3645      6D65206D 
 3645      6F64656D 
 3645      20757365 
 3645      72207261 
 3646              		.section	.text.smtc_modem_resume_after_user_radio_access,"ax",%progbits
 3647              		.align	1
 3648              		.global	smtc_modem_resume_after_user_radio_access
 3649              		.syntax unified
 3650              		.code	16
 3651              		.thumb_func
 3652              		.fpu softvfp
 3654              	smtc_modem_resume_after_user_radio_access:
 3655              		@ args = 0, pretend = 0, frame = 0
 3656              		@ frame_needed = 0, uses_anonymous_args = 0
 3657 0000 10B5     		push	{r4, lr}
 3658 0002 FFF7FEFF 		bl	modem_get_test_mode_status
 3659 0006 0400     		movs	r4, r0
 3660 0008 0520     		movs	r0, #5
 3661 000a 002C     		cmp	r4, #0
 3662 000c 08D1     		bne	.L588
 3663 000e 0548     		ldr	r0, .L590
 3664 0010 FFF7FEFF 		bl	smtc_modem_hal_print_trace
 3665 0014 FFF7FEFF 		bl	modem_context_resume_user_radio_access
 3666 0018 2000     		movs	r0, r4
 3667 001a FFF7FEFF 		bl	smtc_modem_suspend_radio_communications
 3668 001e 2000     		movs	r0, r4
 3669              	.L588:
 3670              		@ sp needed
 3671 0020 10BD     		pop	{r4, pc}
 3672              	.L591:
 3673 0022 C046     		.align	2
 3674              	.L590:
 3675 0024 00000000 		.word	.LC158
 3677              		.section	.text.smtc_modem_get_stack_state,"ax",%progbits
 3678              		.align	1
 3679              		.global	smtc_modem_get_stack_state
 3680              		.syntax unified
 3681              		.code	16
ARM GAS  /tmp/cc0VPHID.s 			page 66


 3682              		.thumb_func
 3683              		.fpu softvfp
 3685              	smtc_modem_get_stack_state:
 3686              		@ args = 0, pretend = 0, frame = 0
 3687              		@ frame_needed = 0, uses_anonymous_args = 0
 3688 0000 70B5     		push	{r4, r5, r6, lr}
 3689 0002 0C00     		movs	r4, r1
 3690 0004 FFF7FEFF 		bl	modem_get_test_mode_status
 3691 0008 0500     		movs	r5, r0
 3692 000a 0520     		movs	r0, #5
 3693 000c 002D     		cmp	r5, #0
 3694 000e 07D1     		bne	.L593
 3695 0010 0138     		subs	r0, r0, #1
 3696 0012 002C     		cmp	r4, #0
 3697 0014 04D0     		beq	.L593
 3698 0016 FFF7FEFF 		bl	lorawan_api_state_get
 3699 001a 0028     		cmp	r0, #0
 3700 001c 01D1     		bne	.L594
 3701 001e 2070     		strb	r0, [r4]
 3702              	.L593:
 3703              		@ sp needed
 3704 0020 70BD     		pop	{r4, r5, r6, pc}
 3705              	.L594:
 3706 0022 0223     		movs	r3, #2
 3707 0024 0428     		cmp	r0, #4
 3708 0026 00D0     		beq	.L598
 3709 0028 0123     		movs	r3, #1
 3710              	.L598:
 3711 002a 2800     		movs	r0, r5
 3712 002c 2370     		strb	r3, [r4]
 3713 002e F7E7     		b	.L593
 3715              		.section	.text.smtc_modem_set_network_type,"ax",%progbits
 3716              		.align	1
 3717              		.global	smtc_modem_set_network_type
 3718              		.syntax unified
 3719              		.code	16
 3720              		.thumb_func
 3721              		.fpu softvfp
 3723              	smtc_modem_set_network_type:
 3724              		@ args = 0, pretend = 0, frame = 0
 3725              		@ frame_needed = 0, uses_anonymous_args = 0
 3726 0000 70B5     		push	{r4, r5, r6, lr}
 3727 0002 0D00     		movs	r5, r1
 3728 0004 FFF7FEFF 		bl	modem_get_test_mode_status
 3729 0008 0400     		movs	r4, r0
 3730 000a 0520     		movs	r0, #5
 3731 000c 002C     		cmp	r4, #0
 3732 000e 03D1     		bne	.L600
 3733 0010 2800     		movs	r0, r5
 3734 0012 FFF7FEFF 		bl	modem_context_set_network_type
 3735 0016 2000     		movs	r0, r4
 3736              	.L600:
 3737              		@ sp needed
 3738 0018 70BD     		pop	{r4, r5, r6, pc}
 3740              		.section	.text.smtc_modem_get_network_type,"ax",%progbits
 3741              		.align	1
 3742              		.global	smtc_modem_get_network_type
ARM GAS  /tmp/cc0VPHID.s 			page 67


 3743              		.syntax unified
 3744              		.code	16
 3745              		.thumb_func
 3746              		.fpu softvfp
 3748              	smtc_modem_get_network_type:
 3749              		@ args = 0, pretend = 0, frame = 0
 3750              		@ frame_needed = 0, uses_anonymous_args = 0
 3751 0000 70B5     		push	{r4, r5, r6, lr}
 3752 0002 0D00     		movs	r5, r1
 3753 0004 FFF7FEFF 		bl	modem_get_test_mode_status
 3754 0008 0400     		movs	r4, r0
 3755 000a 0520     		movs	r0, #5
 3756 000c 002C     		cmp	r4, #0
 3757 000e 06D1     		bne	.L603
 3758 0010 0138     		subs	r0, r0, #1
 3759 0012 002D     		cmp	r5, #0
 3760 0014 03D0     		beq	.L603
 3761 0016 FFF7FEFF 		bl	modem_context_get_network_type
 3762 001a 2870     		strb	r0, [r5]
 3763 001c 2000     		movs	r0, r4
 3764              	.L603:
 3765              		@ sp needed
 3766 001e 70BD     		pop	{r4, r5, r6, pc}
 3768              		.section	.rodata.smtc_modem_lbt_set_parameters.str1.1,"aMS",%progbits,1
 3769              	.LC160:
 3770 0000 4C42542C 		.ascii	"LBT, duration:%d, threshold:%d, bw:%d\015\012\000"
 3770      20647572 
 3770      6174696F 
 3770      6E3A2564 
 3770      2C207468 
 3771              		.section	.text.smtc_modem_lbt_set_parameters,"ax",%progbits
 3772              		.align	1
 3773              		.global	smtc_modem_lbt_set_parameters
 3774              		.syntax unified
 3775              		.code	16
 3776              		.thumb_func
 3777              		.fpu softvfp
 3779              	smtc_modem_lbt_set_parameters:
 3780              		@ args = 0, pretend = 0, frame = 0
 3781              		@ frame_needed = 0, uses_anonymous_args = 0
 3782 0000 F8B5     		push	{r3, r4, r5, r6, r7, lr}
 3783 0002 0D00     		movs	r5, r1
 3784 0004 1600     		movs	r6, r2
 3785 0006 1F00     		movs	r7, r3
 3786 0008 FFF7FEFF 		bl	modem_get_test_mode_status
 3787 000c 0400     		movs	r4, r0
 3788 000e 0520     		movs	r0, #5
 3789 0010 002C     		cmp	r4, #0
 3790 0012 0ED1     		bne	.L607
 3791 0014 3B00     		movs	r3, r7
 3792 0016 3200     		movs	r2, r6
 3793 0018 2900     		movs	r1, r5
 3794 001a 0648     		ldr	r0, .L609
 3795 001c FFF7FEFF 		bl	smtc_modem_hal_print_trace
 3796 0020 3A00     		movs	r2, r7
 3797 0022 2800     		movs	r0, r5
 3798 0024 3100     		movs	r1, r6
ARM GAS  /tmp/cc0VPHID.s 			page 68


 3799 0026 FFF7FEFF 		bl	lorawan_api_lbt_set_parameters
 3800 002a 0122     		movs	r2, #1
 3801 002c 2000     		movs	r0, r4
 3802 002e 024B     		ldr	r3, .L609+4
 3803 0030 1A70     		strb	r2, [r3]
 3804              	.L607:
 3805              		@ sp needed
 3806 0032 F8BD     		pop	{r3, r4, r5, r6, r7, pc}
 3807              	.L610:
 3808              		.align	2
 3809              	.L609:
 3810 0034 00000000 		.word	.LC160
 3811 0038 00000000 		.word	.LANCHOR19
 3813              		.section	.text.smtc_modem_lbt_get_parameters,"ax",%progbits
 3814              		.align	1
 3815              		.global	smtc_modem_lbt_get_parameters
 3816              		.syntax unified
 3817              		.code	16
 3818              		.thumb_func
 3819              		.fpu softvfp
 3821              	smtc_modem_lbt_get_parameters:
 3822              		@ args = 0, pretend = 0, frame = 0
 3823              		@ frame_needed = 0, uses_anonymous_args = 0
 3824 0000 F8B5     		push	{r3, r4, r5, r6, r7, lr}
 3825 0002 0D00     		movs	r5, r1
 3826 0004 1600     		movs	r6, r2
 3827 0006 1F00     		movs	r7, r3
 3828 0008 FFF7FEFF 		bl	modem_get_test_mode_status
 3829 000c 0400     		movs	r4, r0
 3830 000e 0520     		movs	r0, #5
 3831 0010 002C     		cmp	r4, #0
 3832 0012 0CD1     		bne	.L612
 3833 0014 0138     		subs	r0, r0, #1
 3834 0016 002D     		cmp	r5, #0
 3835 0018 09D0     		beq	.L612
 3836 001a 002E     		cmp	r6, #0
 3837 001c 07D0     		beq	.L612
 3838 001e 002F     		cmp	r7, #0
 3839 0020 05D0     		beq	.L612
 3840 0022 2800     		movs	r0, r5
 3841 0024 3A00     		movs	r2, r7
 3842 0026 3100     		movs	r1, r6
 3843 0028 FFF7FEFF 		bl	lorawan_api_lbt_get_parameters
 3844 002c 2000     		movs	r0, r4
 3845              	.L612:
 3846              		@ sp needed
 3847 002e F8BD     		pop	{r3, r4, r5, r6, r7, pc}
 3849              		.section	.rodata.smtc_modem_lbt_set_state.str1.1,"aMS",%progbits,1
 3850              	.LC164:
 3851 0000 1B5B303B 		.ascii	"\033[0;31mERROR: A configuration shall be set befor"
 3851      33316D45 
 3851      52524F52 
 3851      3A204120 
 3851      636F6E66 
 3852 0030 65207374 		.ascii	"e starting LBT \015\012\000"
 3852      61727469 
 3852      6E67204C 
ARM GAS  /tmp/cc0VPHID.s 			page 69


 3852      4254200D 
 3852      0A00
 3853              		.section	.text.smtc_modem_lbt_set_state,"ax",%progbits
 3854              		.align	1
 3855              		.global	smtc_modem_lbt_set_state
 3856              		.syntax unified
 3857              		.code	16
 3858              		.thumb_func
 3859              		.fpu softvfp
 3861              	smtc_modem_lbt_set_state:
 3862              		@ args = 0, pretend = 0, frame = 0
 3863              		@ frame_needed = 0, uses_anonymous_args = 0
 3864 0000 70B5     		push	{r4, r5, r6, lr}
 3865 0002 0C00     		movs	r4, r1
 3866 0004 FFF7FEFF 		bl	modem_get_test_mode_status
 3867 0008 0500     		movs	r5, r0
 3868 000a 0520     		movs	r0, #5
 3869 000c 002D     		cmp	r5, #0
 3870 000e 09D1     		bne	.L618
 3871 0010 002C     		cmp	r4, #0
 3872 0012 10D0     		beq	.L619
 3873 0014 0A4B     		ldr	r3, .L622
 3874 0016 1B78     		ldrb	r3, [r3]
 3875 0018 002B     		cmp	r3, #0
 3876 001a 04D0     		beq	.L620
 3877 001c 0438     		subs	r0, r0, #4
 3878 001e FFF7FEFF 		bl	lorawan_api_lbt_set_state
 3879 0022 2800     		movs	r0, r5
 3880              	.L618:
 3881              		@ sp needed
 3882 0024 70BD     		pop	{r4, r5, r6, pc}
 3883              	.L620:
 3884 0026 0748     		ldr	r0, .L622+4
 3885 0028 FFF7FEFF 		bl	smtc_modem_hal_print_trace
 3886 002c 0648     		ldr	r0, .L622+8
 3887 002e FFF7FEFF 		bl	smtc_modem_hal_print_trace
 3888 0032 0620     		movs	r0, #6
 3889 0034 F6E7     		b	.L618
 3890              	.L619:
 3891 0036 2000     		movs	r0, r4
 3892 0038 FFF7FEFF 		bl	lorawan_api_lbt_set_state
 3893 003c 2000     		movs	r0, r4
 3894 003e F1E7     		b	.L618
 3895              	.L623:
 3896              		.align	2
 3897              	.L622:
 3898 0040 00000000 		.word	.LANCHOR19
 3899 0044 00000000 		.word	.LC164
 3900 0048 30000000 		.word	.LC3
 3902              		.section	.text.smtc_modem_lbt_get_state,"ax",%progbits
 3903              		.align	1
 3904              		.global	smtc_modem_lbt_get_state
 3905              		.syntax unified
 3906              		.code	16
 3907              		.thumb_func
 3908              		.fpu softvfp
 3910              	smtc_modem_lbt_get_state:
ARM GAS  /tmp/cc0VPHID.s 			page 70


 3911              		@ args = 0, pretend = 0, frame = 0
 3912              		@ frame_needed = 0, uses_anonymous_args = 0
 3913 0000 70B5     		push	{r4, r5, r6, lr}
 3914 0002 0D00     		movs	r5, r1
 3915 0004 FFF7FEFF 		bl	modem_get_test_mode_status
 3916 0008 0400     		movs	r4, r0
 3917 000a 0520     		movs	r0, #5
 3918 000c 002C     		cmp	r4, #0
 3919 000e 06D1     		bne	.L625
 3920 0010 0138     		subs	r0, r0, #1
 3921 0012 002D     		cmp	r5, #0
 3922 0014 03D0     		beq	.L625
 3923 0016 FFF7FEFF 		bl	lorawan_api_lbt_get_state
 3924 001a 2870     		strb	r0, [r5]
 3925 001c 2000     		movs	r0, r4
 3926              	.L625:
 3927              		@ sp needed
 3928 001e 70BD     		pop	{r4, r5, r6, pc}
 3930              		.section	.text.smtc_modem_set_nb_trans,"ax",%progbits
 3931              		.align	1
 3932              		.global	smtc_modem_set_nb_trans
 3933              		.syntax unified
 3934              		.code	16
 3935              		.thumb_func
 3936              		.fpu softvfp
 3938              	smtc_modem_set_nb_trans:
 3939              		@ args = 0, pretend = 0, frame = 0
 3940              		@ frame_needed = 0, uses_anonymous_args = 0
 3941 0000 10B5     		push	{r4, lr}
 3942 0002 0C00     		movs	r4, r1
 3943 0004 FFF7FEFF 		bl	modem_get_test_mode_status
 3944 0008 0523     		movs	r3, #5
 3945 000a 0028     		cmp	r0, #0
 3946 000c 05D1     		bne	.L629
 3947 000e 2000     		movs	r0, r4
 3948 0010 FFF7FEFF 		bl	lorawan_api_nb_trans_set
 3949 0014 431E     		subs	r3, r0, #1
 3950 0016 9841     		sbcs	r0, r0, r3
 3951 0018 8300     		lsls	r3, r0, #2
 3952              	.L629:
 3953 001a 1800     		movs	r0, r3
 3954              		@ sp needed
 3955 001c 10BD     		pop	{r4, pc}
 3957              		.section	.text.smtc_modem_get_nb_trans,"ax",%progbits
 3958              		.align	1
 3959              		.global	smtc_modem_get_nb_trans
 3960              		.syntax unified
 3961              		.code	16
 3962              		.thumb_func
 3963              		.fpu softvfp
 3965              	smtc_modem_get_nb_trans:
 3966              		@ args = 0, pretend = 0, frame = 0
 3967              		@ frame_needed = 0, uses_anonymous_args = 0
 3968 0000 70B5     		push	{r4, r5, r6, lr}
 3969 0002 0D00     		movs	r5, r1
 3970 0004 FFF7FEFF 		bl	modem_get_test_mode_status
 3971 0008 0400     		movs	r4, r0
ARM GAS  /tmp/cc0VPHID.s 			page 71


 3972 000a 0520     		movs	r0, #5
 3973 000c 002C     		cmp	r4, #0
 3974 000e 06D1     		bne	.L633
 3975 0010 0138     		subs	r0, r0, #1
 3976 0012 002D     		cmp	r5, #0
 3977 0014 03D0     		beq	.L633
 3978 0016 FFF7FEFF 		bl	lorawan_api_nb_trans_get
 3979 001a 2870     		strb	r0, [r5]
 3980 001c 2000     		movs	r0, r4
 3981              	.L633:
 3982              		@ sp needed
 3983 001e 70BD     		pop	{r4, r5, r6, pc}
 3985              		.section	.text.smtc_modem_set_crystal_error_ppm,"ax",%progbits
 3986              		.align	1
 3987              		.global	smtc_modem_set_crystal_error_ppm
 3988              		.syntax unified
 3989              		.code	16
 3990              		.thumb_func
 3991              		.fpu softvfp
 3993              	smtc_modem_set_crystal_error_ppm:
 3994              		@ args = 0, pretend = 0, frame = 0
 3995              		@ frame_needed = 0, uses_anonymous_args = 0
 3996 0000 70B5     		push	{r4, r5, r6, lr}
 3997 0002 0500     		movs	r5, r0
 3998 0004 FFF7FEFF 		bl	modem_get_test_mode_status
 3999 0008 0400     		movs	r4, r0
 4000 000a 0520     		movs	r0, #5
 4001 000c 002C     		cmp	r4, #0
 4002 000e 03D1     		bne	.L637
 4003 0010 2800     		movs	r0, r5
 4004 0012 FFF7FEFF 		bl	lorawan_api_set_crystal_error
 4005 0016 2000     		movs	r0, r4
 4006              	.L637:
 4007              		@ sp needed
 4008 0018 70BD     		pop	{r4, r5, r6, pc}
 4010              		.section	.text.smtc_modem_get_crystal_error_ppm,"ax",%progbits
 4011              		.align	1
 4012              		.global	smtc_modem_get_crystal_error_ppm
 4013              		.syntax unified
 4014              		.code	16
 4015              		.thumb_func
 4016              		.fpu softvfp
 4018              	smtc_modem_get_crystal_error_ppm:
 4019              		@ args = 0, pretend = 0, frame = 0
 4020              		@ frame_needed = 0, uses_anonymous_args = 0
 4021 0000 70B5     		push	{r4, r5, r6, lr}
 4022 0002 0500     		movs	r5, r0
 4023 0004 FFF7FEFF 		bl	modem_get_test_mode_status
 4024 0008 0400     		movs	r4, r0
 4025 000a 0520     		movs	r0, #5
 4026 000c 002C     		cmp	r4, #0
 4027 000e 06D1     		bne	.L640
 4028 0010 0138     		subs	r0, r0, #1
 4029 0012 002D     		cmp	r5, #0
 4030 0014 03D0     		beq	.L640
 4031 0016 FFF7FEFF 		bl	lorawan_api_get_crystal_error
 4032 001a 2860     		str	r0, [r5]
ARM GAS  /tmp/cc0VPHID.s 			page 72


 4033 001c 2000     		movs	r0, r4
 4034              	.L640:
 4035              		@ sp needed
 4036 001e 70BD     		pop	{r4, r5, r6, pc}
 4038              		.section	.text.smtc_modem_lorawan_request_link_check,"ax",%progbits
 4039              		.align	1
 4040              		.global	smtc_modem_lorawan_request_link_check
 4041              		.syntax unified
 4042              		.code	16
 4043              		.thumb_func
 4044              		.fpu softvfp
 4046              	smtc_modem_lorawan_request_link_check:
 4047              		@ args = 0, pretend = 0, frame = 0
 4048              		@ frame_needed = 0, uses_anonymous_args = 0
 4049 0000 10B5     		push	{r4, lr}
 4050 0002 FFF7FEFF 		bl	modem_get_test_mode_status
 4051 0006 0523     		movs	r3, #5
 4052 0008 041E     		subs	r4, r0, #0
 4053 000a 08D1     		bne	.L644
 4054 000c FFF7FEFF 		bl	is_modem_connected
 4055 0010 0623     		movs	r3, #6
 4056 0012 0028     		cmp	r0, #0
 4057 0014 03D0     		beq	.L644
 4058 0016 2000     		movs	r0, r4
 4059 0018 FFF7FEFF 		bl	modem_supervisor_add_task_link_check_req
 4060 001c 2300     		movs	r3, r4
 4061              	.L644:
 4062              		@ sp needed
 4063 001e 1800     		movs	r0, r3
 4064 0020 10BD     		pop	{r4, pc}
 4066              		.section	.text.smtc_modem_lorawan_class_b_request_ping_slot_info,"ax",%progbits
 4067              		.align	1
 4068              		.global	smtc_modem_lorawan_class_b_request_ping_slot_info
 4069              		.syntax unified
 4070              		.code	16
 4071              		.thumb_func
 4072              		.fpu softvfp
 4074              	smtc_modem_lorawan_class_b_request_ping_slot_info:
 4075              		@ args = 0, pretend = 0, frame = 0
 4076              		@ frame_needed = 0, uses_anonymous_args = 0
 4077 0000 10B5     		push	{r4, lr}
 4078 0002 FFF7FEFF 		bl	modem_get_test_mode_status
 4079 0006 0523     		movs	r3, #5
 4080 0008 041E     		subs	r4, r0, #0
 4081 000a 08D1     		bne	.L649
 4082 000c FFF7FEFF 		bl	is_modem_connected
 4083 0010 0623     		movs	r3, #6
 4084 0012 0028     		cmp	r0, #0
 4085 0014 03D0     		beq	.L649
 4086 0016 2000     		movs	r0, r4
 4087 0018 FFF7FEFF 		bl	modem_supervisor_add_task_ping_slot_info_req
 4088 001c 2300     		movs	r3, r4
 4089              	.L649:
 4090              		@ sp needed
 4091 001e 1800     		movs	r0, r3
 4092 0020 10BD     		pop	{r4, pc}
 4094              		.section	.text.smtc_modem_class_b_set_ping_slot_periodicity,"ax",%progbits
ARM GAS  /tmp/cc0VPHID.s 			page 73


 4095              		.align	1
 4096              		.global	smtc_modem_class_b_set_ping_slot_periodicity
 4097              		.syntax unified
 4098              		.code	16
 4099              		.thumb_func
 4100              		.fpu softvfp
 4102              	smtc_modem_class_b_set_ping_slot_periodicity:
 4103              		@ args = 0, pretend = 0, frame = 0
 4104              		@ frame_needed = 0, uses_anonymous_args = 0
 4105 0000 10B5     		push	{r4, lr}
 4106 0002 0C00     		movs	r4, r1
 4107 0004 FFF7FEFF 		bl	modem_get_test_mode_status
 4108 0008 0523     		movs	r3, #5
 4109 000a 0028     		cmp	r0, #0
 4110 000c 05D1     		bne	.L654
 4111 000e 2000     		movs	r0, r4
 4112 0010 FFF7FEFF 		bl	lorawan_api_set_ping_slot_periodicity
 4113 0014 431E     		subs	r3, r0, #1
 4114 0016 9841     		sbcs	r0, r0, r3
 4115 0018 8300     		lsls	r3, r0, #2
 4116              	.L654:
 4117 001a 1800     		movs	r0, r3
 4118              		@ sp needed
 4119 001c 10BD     		pop	{r4, pc}
 4121              		.section	.text.smtc_modem_class_b_get_ping_slot_periodicity,"ax",%progbits
 4122              		.align	1
 4123              		.global	smtc_modem_class_b_get_ping_slot_periodicity
 4124              		.syntax unified
 4125              		.code	16
 4126              		.thumb_func
 4127              		.fpu softvfp
 4129              	smtc_modem_class_b_get_ping_slot_periodicity:
 4130              		@ args = 0, pretend = 0, frame = 0
 4131              		@ frame_needed = 0, uses_anonymous_args = 0
 4132 0000 70B5     		push	{r4, r5, r6, lr}
 4133 0002 0D00     		movs	r5, r1
 4134 0004 FFF7FEFF 		bl	modem_get_test_mode_status
 4135 0008 0400     		movs	r4, r0
 4136 000a 0520     		movs	r0, #5
 4137 000c 002C     		cmp	r4, #0
 4138 000e 06D1     		bne	.L658
 4139 0010 0138     		subs	r0, r0, #1
 4140 0012 002D     		cmp	r5, #0
 4141 0014 03D0     		beq	.L658
 4142 0016 FFF7FEFF 		bl	lorawan_api_get_ping_slot_periodicity
 4143 001a 2870     		strb	r0, [r5]
 4144 001c 2000     		movs	r0, r4
 4145              	.L658:
 4146              		@ sp needed
 4147 001e 70BD     		pop	{r4, r5, r6, pc}
 4149              		.section	.text.smtc_modem_d2d_class_b_request_uplink,"ax",%progbits
 4150              		.align	1
 4151              		.global	smtc_modem_d2d_class_b_request_uplink
 4152              		.syntax unified
 4153              		.code	16
 4154              		.thumb_func
 4155              		.fpu softvfp
ARM GAS  /tmp/cc0VPHID.s 			page 74


 4157              	smtc_modem_d2d_class_b_request_uplink:
 4158              		@ args = 8, pretend = 0, frame = 0
 4159              		@ frame_needed = 0, uses_anonymous_args = 0
 4160              		@ link register save eliminated.
 4161 0000 0620     		movs	r0, #6
 4162              		@ sp needed
 4163 0002 7047     		bx	lr
 4165              		.section	.text.smtc_modem_d2d_class_b_get_tx_max_payload,"ax",%progbits
 4166              		.align	1
 4167              		.global	smtc_modem_d2d_class_b_get_tx_max_payload
 4168              		.syntax unified
 4169              		.code	16
 4170              		.thumb_func
 4171              		.fpu softvfp
 4173              	smtc_modem_d2d_class_b_get_tx_max_payload:
 4174              		@ args = 0, pretend = 0, frame = 0
 4175              		@ frame_needed = 0, uses_anonymous_args = 0
 4176              		@ link register save eliminated.
 4177 0000 0620     		movs	r0, #6
 4178              		@ sp needed
 4179 0002 7047     		bx	lr
 4181              		.section	.text.smtc_modem_get_network_frame_pending_status,"ax",%progbits
 4182              		.align	1
 4183              		.global	smtc_modem_get_network_frame_pending_status
 4184              		.syntax unified
 4185              		.code	16
 4186              		.thumb_func
 4187              		.fpu softvfp
 4189              	smtc_modem_get_network_frame_pending_status:
 4190              		@ args = 0, pretend = 0, frame = 0
 4191              		@ frame_needed = 0, uses_anonymous_args = 0
 4192 0000 70B5     		push	{r4, r5, r6, lr}
 4193 0002 0D00     		movs	r5, r1
 4194 0004 FFF7FEFF 		bl	modem_get_test_mode_status
 4195 0008 0400     		movs	r4, r0
 4196 000a 0520     		movs	r0, #5
 4197 000c 002C     		cmp	r4, #0
 4198 000e 06D1     		bne	.L664
 4199 0010 0138     		subs	r0, r0, #1
 4200 0012 002D     		cmp	r5, #0
 4201 0014 03D0     		beq	.L664
 4202 0016 FFF7FEFF 		bl	lorawan_api_rx_fpending_bit_get
 4203 001a 2870     		strb	r0, [r5]
 4204 001c 2000     		movs	r0, r4
 4205              	.L664:
 4206              		@ sp needed
 4207 001e 70BD     		pop	{r4, r5, r6, pc}
 4209              		.section	.text.smtc_modem_set_adr_ack_limit_delay,"ax",%progbits
 4210              		.align	1
 4211              		.global	smtc_modem_set_adr_ack_limit_delay
 4212              		.syntax unified
 4213              		.code	16
 4214              		.thumb_func
 4215              		.fpu softvfp
 4217              	smtc_modem_set_adr_ack_limit_delay:
 4218              		@ args = 0, pretend = 0, frame = 0
 4219              		@ frame_needed = 0, uses_anonymous_args = 0
ARM GAS  /tmp/cc0VPHID.s 			page 75


 4220 0000 70B5     		push	{r4, r5, r6, lr}
 4221 0002 0C00     		movs	r4, r1
 4222 0004 1500     		movs	r5, r2
 4223 0006 FFF7FEFF 		bl	modem_get_test_mode_status
 4224 000a 0523     		movs	r3, #5
 4225 000c 0028     		cmp	r0, #0
 4226 000e 06D1     		bne	.L668
 4227 0010 2900     		movs	r1, r5
 4228 0012 2000     		movs	r0, r4
 4229 0014 FFF7FEFF 		bl	lorawan_api_set_adr_ack_limit_delay
 4230 0018 431E     		subs	r3, r0, #1
 4231 001a 9841     		sbcs	r0, r0, r3
 4232 001c 8300     		lsls	r3, r0, #2
 4233              	.L668:
 4234 001e 1800     		movs	r0, r3
 4235              		@ sp needed
 4236 0020 70BD     		pop	{r4, r5, r6, pc}
 4238              		.section	.text.smtc_modem_get_adr_ack_limit_delay,"ax",%progbits
 4239              		.align	1
 4240              		.global	smtc_modem_get_adr_ack_limit_delay
 4241              		.syntax unified
 4242              		.code	16
 4243              		.thumb_func
 4244              		.fpu softvfp
 4246              	smtc_modem_get_adr_ack_limit_delay:
 4247              		@ args = 0, pretend = 0, frame = 0
 4248              		@ frame_needed = 0, uses_anonymous_args = 0
 4249 0000 70B5     		push	{r4, r5, r6, lr}
 4250 0002 0D00     		movs	r5, r1
 4251 0004 1600     		movs	r6, r2
 4252 0006 FFF7FEFF 		bl	modem_get_test_mode_status
 4253 000a 0400     		movs	r4, r0
 4254 000c 0520     		movs	r0, #5
 4255 000e 002C     		cmp	r4, #0
 4256 0010 09D1     		bne	.L672
 4257 0012 0138     		subs	r0, r0, #1
 4258 0014 002D     		cmp	r5, #0
 4259 0016 06D0     		beq	.L672
 4260 0018 002E     		cmp	r6, #0
 4261 001a 04D0     		beq	.L672
 4262 001c 2800     		movs	r0, r5
 4263 001e 3100     		movs	r1, r6
 4264 0020 FFF7FEFF 		bl	lorawan_api_get_adr_ack_limit_delay
 4265 0024 2000     		movs	r0, r4
 4266              	.L672:
 4267              		@ sp needed
 4268 0026 70BD     		pop	{r4, r5, r6, pc}
 4270              		.section	.text.smtc_modem_get_pin,"ax",%progbits
 4271              		.align	1
 4272              		.global	smtc_modem_get_pin
 4273              		.syntax unified
 4274              		.code	16
 4275              		.thumb_func
 4276              		.fpu softvfp
 4278              	smtc_modem_get_pin:
 4279              		@ args = 0, pretend = 0, frame = 0
 4280              		@ frame_needed = 0, uses_anonymous_args = 0
ARM GAS  /tmp/cc0VPHID.s 			page 76


 4281 0000 10B5     		push	{r4, lr}
 4282 0002 FFF7FEFF 		bl	modem_get_test_mode_status
 4283              		@ sp needed
 4284 0006 4342     		rsbs	r3, r0, #0
 4285 0008 5841     		adcs	r0, r0, r3
 4286 000a 0530     		adds	r0, r0, #5
 4287 000c 10BD     		pop	{r4, pc}
 4289              		.section	.text.smtc_modem_get_chip_eui,"ax",%progbits
 4290              		.align	1
 4291              		.global	smtc_modem_get_chip_eui
 4292              		.syntax unified
 4293              		.code	16
 4294              		.thumb_func
 4295              		.fpu softvfp
 4297              	smtc_modem_get_chip_eui:
 4298              		@ args = 0, pretend = 0, frame = 0
 4299              		@ frame_needed = 0, uses_anonymous_args = 0
 4300 0000 10B5     		push	{r4, lr}
 4301 0002 FFF7FEFF 		bl	modem_get_test_mode_status
 4302              		@ sp needed
 4303 0006 4342     		rsbs	r3, r0, #0
 4304 0008 5841     		adcs	r0, r0, r3
 4305 000a 0530     		adds	r0, r0, #5
 4306 000c 10BD     		pop	{r4, pc}
 4308              		.section	.text.smtc_modem_derive_keys,"ax",%progbits
 4309              		.align	1
 4310              		.global	smtc_modem_derive_keys
 4311              		.syntax unified
 4312              		.code	16
 4313              		.thumb_func
 4314              		.fpu softvfp
 4316              	smtc_modem_derive_keys:
 4317              		@ args = 0, pretend = 0, frame = 0
 4318              		@ frame_needed = 0, uses_anonymous_args = 0
 4319 0000 10B5     		push	{r4, lr}
 4320 0002 FFF7FEFF 		bl	modem_get_test_mode_status
 4321 0006 0028     		cmp	r0, #0
 4322 0008 04D1     		bne	.L683
 4323 000a FFF7FEFF 		bl	get_join_state
 4324 000e 0623     		movs	r3, #6
 4325 0010 0028     		cmp	r0, #0
 4326 0012 00D0     		beq	.L684
 4327              	.L683:
 4328 0014 0523     		movs	r3, #5
 4329              	.L684:
 4330              		@ sp needed
 4331 0016 1800     		movs	r0, r3
 4332 0018 10BD     		pop	{r4, pc}
 4334              		.section	.text.convert_rp_to_user_radio_access_status,"ax",%progbits
 4335              		.align	1
 4336              		.global	convert_rp_to_user_radio_access_status
 4337              		.syntax unified
 4338              		.code	16
 4339              		.thumb_func
 4340              		.fpu softvfp
 4342              	convert_rp_to_user_radio_access_status:
 4343              		@ args = 0, pretend = 0, frame = 0
ARM GAS  /tmp/cc0VPHID.s 			page 77


 4344              		@ frame_needed = 0, uses_anonymous_args = 0
 4345              		@ link register save eliminated.
 4346 0000 0300     		movs	r3, r0
 4347 0002 0920     		movs	r0, #9
 4348 0004 0A2B     		cmp	r3, #10
 4349 0006 01D8     		bhi	.L688
 4350 0008 014A     		ldr	r2, .L690
 4351 000a D05C     		ldrb	r0, [r2, r3]
 4352              	.L688:
 4353              		@ sp needed
 4354 000c 7047     		bx	lr
 4355              	.L691:
 4356 000e C046     		.align	2
 4357              	.L690:
 4358 0010 00000000 		.word	.LANCHOR20
 4360              		.section	.rodata.smtc_modem_get_event.str1.1,"aMS",%progbits,1
 4361              	.LC169:
 4362 0000 1B5B303B 		.ascii	"\033[0;31mERROR: crash log :%s\012\000"
 4362      33316D45 
 4362      52524F52 
 4362      3A206372 
 4362      61736820 
 4363              	.LC172:
 4364 001d 1B5B303B 		.ascii	"\033[0;31mERROR: -> asynchronous_msgnumber overlap\000"
 4364      33316D45 
 4364      52524F52 
 4364      3A202D3E 
 4364      20617379 
 4365              		.section	.text.smtc_modem_get_event,"ax",%progbits
 4366              		.align	1
 4367              		.global	smtc_modem_get_event
 4368              		.syntax unified
 4369              		.code	16
 4370              		.thumb_func
 4371              		.fpu softvfp
 4373              	smtc_modem_get_event:
 4374              		@ args = 0, pretend = 0, frame = 24
 4375              		@ frame_needed = 0, uses_anonymous_args = 0
 4376 0000 F0B5     		push	{r4, r5, r6, r7, lr}
 4377 0002 8BB0     		sub	sp, sp, #44
 4378 0004 0400     		movs	r4, r0
 4379 0006 0E00     		movs	r6, r1
 4380 0008 FFF7FEFF 		bl	modem_get_test_mode_status
 4381 000c 0525     		movs	r5, #5
 4382 000e 0028     		cmp	r0, #0
 4383 0010 21D1     		bne	.L693
 4384 0012 013D     		subs	r5, r5, #1
 4385 0014 002C     		cmp	r4, #0
 4386 0016 1ED0     		beq	.L693
 4387 0018 002E     		cmp	r6, #0
 4388 001a 1CD0     		beq	.L693
 4389 001c FFF7FEFF 		bl	get_asynchronous_msgnumber
 4390 0020 0500     		movs	r5, r0
 4391 0022 1928     		cmp	r0, #25
 4392 0024 1AD9     		bls	.L694
 4393 0026 4C4C     		ldr	r4, .L720
 4394 0028 2000     		movs	r0, r4
ARM GAS  /tmp/cc0VPHID.s 			page 78


 4395 002a FFF7FEFF 		bl	smtc_modem_hal_store_crashlog
 4396 002e 0120     		movs	r0, #1
 4397 0030 FFF7FEFF 		bl	smtc_modem_hal_set_crashlog_status
 4398 0034 2100     		movs	r1, r4
 4399 0036 4948     		ldr	r0, .L720+4
 4400 0038 FFF7FEFF 		bl	smtc_modem_hal_print_trace
 4401 003c 484C     		ldr	r4, .L720+8
 4402 003e 2000     		movs	r0, r4
 4403 0040 FFF7FEFF 		bl	smtc_modem_hal_print_trace
 4404 0044 4748     		ldr	r0, .L720+12
 4405 0046 FFF7FEFF 		bl	smtc_modem_hal_print_trace
 4406 004a 2000     		movs	r0, r4
 4407 004c FFF7FEFF 		bl	smtc_modem_hal_print_trace
 4408 0050 FFF7FEFF 		bl	smtc_modem_hal_reset_mcu
 4409              	.L719:
 4410 0054 0025     		movs	r5, #0
 4411              	.L693:
 4412 0056 2800     		movs	r0, r5
 4413 0058 0BB0     		add	sp, sp, #44
 4414              		@ sp needed
 4415 005a F0BD     		pop	{r4, r5, r6, r7, pc}
 4416              	.L694:
 4417 005c 0028     		cmp	r0, #0
 4418 005e 78D0     		beq	.L695
 4419 0060 FFF7FEFF 		bl	get_last_msg_event
 4420 0064 6070     		strb	r0, [r4, #1]
 4421 0066 FFF7FEFF 		bl	get_modem_event_count
 4422 006a 013D     		subs	r5, r5, #1
 4423 006c 0138     		subs	r0, r0, #1
 4424 006e A070     		strb	r0, [r4, #2]
 4425 0070 3570     		strb	r5, [r6]
 4426 0072 6078     		ldrb	r0, [r4, #1]
 4427 0074 1828     		cmp	r0, #24
 4428 0076 11D8     		bhi	.L696
 4429 0078 FFF7FEFF 		bl	__gnu_thumb1_case_uqi
 4430              	.L698:
 4431 007c 0D       		.byte	(.L710-.L698)/2
 4432 007d 10       		.byte	(.L696-.L698)/2
 4433 007e 10       		.byte	(.L696-.L698)/2
 4434 007f 4B       		.byte	(.L709-.L698)/2
 4435 0080 18       		.byte	(.L708-.L698)/2
 4436 0081 47       		.byte	(.L707-.L698)/2
 4437 0082 4D       		.byte	(.L706-.L698)/2
 4438 0083 4F       		.byte	(.L705-.L698)/2
 4439 0084 10       		.byte	(.L696-.L698)/2
 4440 0085 10       		.byte	(.L696-.L698)/2
 4441 0086 10       		.byte	(.L696-.L698)/2
 4442 0087 10       		.byte	(.L696-.L698)/2
 4443 0088 10       		.byte	(.L696-.L698)/2
 4444 0089 55       		.byte	(.L704-.L698)/2
 4445 008a 10       		.byte	(.L696-.L698)/2
 4446 008b 10       		.byte	(.L696-.L698)/2
 4447 008c 57       		.byte	(.L703-.L698)/2
 4448 008d 65       		.byte	(.L702-.L698)/2
 4449 008e 5D       		.byte	(.L701-.L698)/2
 4450 008f 67       		.byte	(.L700-.L698)/2
 4451 0090 69       		.byte	(.L699-.L698)/2
ARM GAS  /tmp/cc0VPHID.s 			page 79


 4452 0091 10       		.byte	(.L696-.L698)/2
 4453 0092 48       		.byte	(.L697-.L698)/2
 4454 0093 48       		.byte	(.L697-.L698)/2
 4455 0094 48       		.byte	(.L697-.L698)/2
 4456 0095 00       		.p2align 1
 4457              	.L710:
 4458 0096 FFF7FEFF 		bl	lorawan_api_nb_reset_get
 4459 009a A080     		strh	r0, [r4, #4]
 4460              	.L696:
 4461 009c 0022     		movs	r2, #0
 4462 009e 6078     		ldrb	r0, [r4, #1]
 4463 00a0 1100     		movs	r1, r2
 4464 00a2 FFF7FEFF 		bl	set_modem_event_count_and_status
 4465 00a6 FFF7FEFF 		bl	decrement_asynchronous_msgnumber
 4466 00aa D3E7     		b	.L719
 4467              	.L708:
 4468 00ac FFF7FEFF 		bl	lorawan_api_get_fifo_obj
 4469 00b0 1423     		movs	r3, #20
 4470 00b2 2200     		movs	r2, r4
 4471 00b4 2100     		movs	r1, r4
 4472 00b6 0293     		str	r3, [sp, #8]
 4473 00b8 013B     		subs	r3, r3, #1
 4474 00ba 6B44     		add	r3, r3, sp
 4475 00bc 05AD     		add	r5, sp, #20
 4476 00be FA32     		adds	r2, r2, #250
 4477 00c0 0193     		str	r3, [sp, #4]
 4478 00c2 0095     		str	r5, [sp]
 4479 00c4 F223     		movs	r3, #242
 4480 00c6 0831     		adds	r1, r1, #8
 4481 00c8 FFF7FEFF 		bl	fifo_ctrl_get
 4482 00cc 0622     		movs	r2, #6
 4483 00ce AB5E     		ldrsh	r3, [r5, r2]
 4484 00d0 1A00     		movs	r2, r3
 4485 00d2 8032     		adds	r2, r2, #128
 4486 00d4 92B2     		uxth	r2, r2
 4487 00d6 BF2A     		cmp	r2, #191
 4488 00d8 11D8     		bhi	.L711
 4489 00da 4033     		adds	r3, r3, #64
 4490              	.L717:
 4491 00dc 2371     		strb	r3, [r4, #4]
 4492 00de 0422     		movs	r2, #4
 4493 00e0 AB5E     		ldrsh	r3, [r5, r2]
 4494 00e2 9B00     		lsls	r3, r3, #2
 4495 00e4 6371     		strb	r3, [r4, #5]
 4496 00e6 2B89     		ldrh	r3, [r5, #8]
 4497 00e8 5BBA     		rev16	r3, r3
 4498 00ea E380     		strh	r3, [r4, #6]
 4499 00ec 2300     		movs	r3, r4
 4500 00ee AA7A     		ldrb	r2, [r5, #10]
 4501 00f0 FC33     		adds	r3, r3, #252
 4502 00f2 1A70     		strb	r2, [r3]
 4503 00f4 EA68     		ldr	r2, [r5, #12]
 4504 00f6 5A60     		str	r2, [r3, #4]
 4505 00f8 2A7C     		ldrb	r2, [r5, #16]
 4506 00fa 1A72     		strb	r2, [r3, #8]
 4507 00fc CEE7     		b	.L696
 4508              	.L711:
ARM GAS  /tmp/cc0VPHID.s 			page 80


 4509 00fe 3F2B     		cmp	r3, #63
 4510 0100 01DD     		ble	.L713
 4511 0102 7F23     		movs	r3, #127
 4512 0104 EAE7     		b	.L717
 4513              	.L713:
 4514 0106 8023     		movs	r3, #128
 4515 0108 E8E7     		b	.L717
 4516              	.L707:
 4517 010a 0520     		movs	r0, #5
 4518              	.L697:
 4519 010c FFF7FEFF 		bl	get_modem_event_status
 4520 0110 07E0     		b	.L718
 4521              	.L709:
 4522 0112 0320     		movs	r0, #3
 4523 0114 FAE7     		b	.L697
 4524              	.L706:
 4525 0116 0620     		movs	r0, #6
 4526 0118 F8E7     		b	.L697
 4527              	.L705:
 4528 011a FFF7FEFF 		bl	get_modem_muted
 4529 011e 431E     		subs	r3, r0, #1
 4530 0120 9841     		sbcs	r0, r0, r3
 4531              	.L718:
 4532 0122 2071     		strb	r0, [r4, #4]
 4533 0124 BAE7     		b	.L696
 4534              	.L704:
 4535 0126 0D20     		movs	r0, #13
 4536 0128 F0E7     		b	.L697
 4537              	.L703:
 4538 012a A11D     		adds	r1, r4, #6
 4539 012c 601D     		adds	r0, r4, #5
 4540 012e FFF7FEFF 		bl	lorawan_api_get_link_check_ans
 4541 0132 6078     		ldrb	r0, [r4, #1]
 4542 0134 EAE7     		b	.L697
 4543              	.L701:
 4544 0136 0C4B     		ldr	r3, .L720+16
 4545 0138 1B68     		ldr	r3, [r3]
 4546 013a A360     		str	r3, [r4, #8]
 4547 013c 0B4B     		ldr	r3, .L720+20
 4548 013e 1878     		ldrb	r0, [r3]
 4549 0140 FFF7FEFF 		bl	convert_rp_to_user_radio_access_status
 4550 0144 EDE7     		b	.L718
 4551              	.L702:
 4552 0146 1120     		movs	r0, #17
 4553 0148 E0E7     		b	.L697
 4554              	.L700:
 4555 014a 1320     		movs	r0, #19
 4556 014c DEE7     		b	.L697
 4557              	.L699:
 4558 014e 1420     		movs	r0, #20
 4559 0150 DCE7     		b	.L697
 4560              	.L695:
 4561 0152 FF23     		movs	r3, #255
 4562 0154 6370     		strb	r3, [r4, #1]
 4563 0156 7EE7     		b	.L693
 4564              	.L721:
 4565              		.align	2
ARM GAS  /tmp/cc0VPHID.s 			page 81


 4566              	.L720:
 4567 0158 00000000 		.word	.LANCHOR21
 4568 015c 00000000 		.word	.LC169
 4569 0160 30000000 		.word	.LC3
 4570 0164 1D000000 		.word	.LC172
 4571 0168 00000000 		.word	.LANCHOR2
 4572 016c 00000000 		.word	.LANCHOR1
 4574              		.section	.text.callback_rp_user_radio_access_2,"ax",%progbits
 4575              		.align	1
 4576              		.global	callback_rp_user_radio_access_2
 4577              		.syntax unified
 4578              		.code	16
 4579              		.thumb_func
 4580              		.fpu softvfp
 4582              	callback_rp_user_radio_access_2:
 4583              		@ args = 0, pretend = 0, frame = 16
 4584              		@ frame_needed = 0, uses_anonymous_args = 0
 4585 0000 7FB5     		push	{r0, r1, r2, r3, r4, r5, r6, lr}
 4586 0002 02AC     		add	r4, sp, #8
 4587 0004 0500     		movs	r5, r0
 4588 0006 0822     		movs	r2, #8
 4589 0008 0021     		movs	r1, #0
 4590 000a 2000     		movs	r0, r4
 4591 000c FFF7FEFF 		bl	memset
 4592 0010 6A46     		mov	r2, sp
 4593 0012 0023     		movs	r3, #0
 4594 0014 561C     		adds	r6, r2, #1
 4595 0016 5380     		strh	r3, [r2, #2]
 4596 0018 0921     		movs	r1, #9
 4597 001a 2800     		movs	r0, r5
 4598 001c 0193     		str	r3, [sp, #4]
 4599 001e 01AA     		add	r2, sp, #4
 4600 0020 3300     		movs	r3, r6
 4601 0022 FFF7FEFF 		bl	rp_get_status
 4602 0026 6B46     		mov	r3, sp
 4603 0028 0921     		movs	r1, #9
 4604 002a 9A1C     		adds	r2, r3, #2
 4605 002c 2800     		movs	r0, r5
 4606 002e FFF7FEFF 		bl	rp_get_and_clear_raw_radio_irq
 4607 0032 0223     		movs	r3, #2
 4608 0034 2370     		strb	r3, [r4]
 4609 0036 019B     		ldr	r3, [sp, #4]
 4610 0038 3078     		ldrb	r0, [r6]
 4611 003a 0393     		str	r3, [sp, #12]
 4612 003c FFF7FEFF 		bl	convert_rp_to_user_radio_access_status
 4613 0040 6B46     		mov	r3, sp
 4614 0042 5B88     		ldrh	r3, [r3, #2]
 4615 0044 6070     		strb	r0, [r4, #1]
 4616 0046 6380     		strh	r3, [r4, #2]
 4617 0048 034B     		ldr	r3, .L727
 4618 004a 1B68     		ldr	r3, [r3]
 4619 004c 002B     		cmp	r3, #0
 4620 004e 01D0     		beq	.L722
 4621 0050 2000     		movs	r0, r4
 4622 0052 9847     		blx	r3
 4623              	.L722:
 4624              		@ sp needed
ARM GAS  /tmp/cc0VPHID.s 			page 82


 4625 0054 7FBD     		pop	{r0, r1, r2, r3, r4, r5, r6, pc}
 4626              	.L728:
 4627 0056 C046     		.align	2
 4628              	.L727:
 4629 0058 00000000 		.word	.LANCHOR18
 4631              		.section	.text.callback_rp_user_radio_access_1,"ax",%progbits
 4632              		.align	1
 4633              		.global	callback_rp_user_radio_access_1
 4634              		.syntax unified
 4635              		.code	16
 4636              		.thumb_func
 4637              		.fpu softvfp
 4639              	callback_rp_user_radio_access_1:
 4640              		@ args = 0, pretend = 0, frame = 16
 4641              		@ frame_needed = 0, uses_anonymous_args = 0
 4642 0000 7FB5     		push	{r0, r1, r2, r3, r4, r5, r6, lr}
 4643 0002 02AC     		add	r4, sp, #8
 4644 0004 0500     		movs	r5, r0
 4645 0006 0822     		movs	r2, #8
 4646 0008 0021     		movs	r1, #0
 4647 000a 2000     		movs	r0, r4
 4648 000c FFF7FEFF 		bl	memset
 4649 0010 6A46     		mov	r2, sp
 4650 0012 0023     		movs	r3, #0
 4651 0014 561C     		adds	r6, r2, #1
 4652 0016 5380     		strh	r3, [r2, #2]
 4653 0018 0821     		movs	r1, #8
 4654 001a 2800     		movs	r0, r5
 4655 001c 0193     		str	r3, [sp, #4]
 4656 001e 01AA     		add	r2, sp, #4
 4657 0020 3300     		movs	r3, r6
 4658 0022 FFF7FEFF 		bl	rp_get_status
 4659 0026 6B46     		mov	r3, sp
 4660 0028 0821     		movs	r1, #8
 4661 002a 9A1C     		adds	r2, r3, #2
 4662 002c 2800     		movs	r0, r5
 4663 002e FFF7FEFF 		bl	rp_get_and_clear_raw_radio_irq
 4664 0032 0123     		movs	r3, #1
 4665 0034 2370     		strb	r3, [r4]
 4666 0036 019B     		ldr	r3, [sp, #4]
 4667 0038 3078     		ldrb	r0, [r6]
 4668 003a 0393     		str	r3, [sp, #12]
 4669 003c FFF7FEFF 		bl	convert_rp_to_user_radio_access_status
 4670 0040 6B46     		mov	r3, sp
 4671 0042 5B88     		ldrh	r3, [r3, #2]
 4672 0044 6070     		strb	r0, [r4, #1]
 4673 0046 6380     		strh	r3, [r4, #2]
 4674 0048 034B     		ldr	r3, .L734
 4675 004a 1B68     		ldr	r3, [r3]
 4676 004c 002B     		cmp	r3, #0
 4677 004e 01D0     		beq	.L729
 4678 0050 2000     		movs	r0, r4
 4679 0052 9847     		blx	r3
 4680              	.L729:
 4681              		@ sp needed
 4682 0054 7FBD     		pop	{r0, r1, r2, r3, r4, r5, r6, pc}
 4683              	.L735:
ARM GAS  /tmp/cc0VPHID.s 			page 83


 4684 0056 C046     		.align	2
 4685              	.L734:
 4686 0058 00000000 		.word	.LANCHOR17
 4688              		.section	.text.callback_rp_user_radio_access_0,"ax",%progbits
 4689              		.align	1
 4690              		.global	callback_rp_user_radio_access_0
 4691              		.syntax unified
 4692              		.code	16
 4693              		.thumb_func
 4694              		.fpu softvfp
 4696              	callback_rp_user_radio_access_0:
 4697              		@ args = 0, pretend = 0, frame = 16
 4698              		@ frame_needed = 0, uses_anonymous_args = 0
 4699 0000 F0B5     		push	{r4, r5, r6, r7, lr}
 4700 0002 85B0     		sub	sp, sp, #20
 4701 0004 02AC     		add	r4, sp, #8
 4702 0006 0500     		movs	r5, r0
 4703 0008 0822     		movs	r2, #8
 4704 000a 0021     		movs	r1, #0
 4705 000c 2000     		movs	r0, r4
 4706 000e FFF7FEFF 		bl	memset
 4707 0012 6B46     		mov	r3, sp
 4708 0014 0026     		movs	r6, #0
 4709 0016 5F1C     		adds	r7, r3, #1
 4710 0018 0121     		movs	r1, #1
 4711 001a 2800     		movs	r0, r5
 4712 001c 5E80     		strh	r6, [r3, #2]
 4713 001e 01AA     		add	r2, sp, #4
 4714 0020 3B00     		movs	r3, r7
 4715 0022 0196     		str	r6, [sp, #4]
 4716 0024 FFF7FEFF 		bl	rp_get_status
 4717 0028 6B46     		mov	r3, sp
 4718 002a 0121     		movs	r1, #1
 4719 002c 9A1C     		adds	r2, r3, #2
 4720 002e 2800     		movs	r0, r5
 4721 0030 FFF7FEFF 		bl	rp_get_and_clear_raw_radio_irq
 4722 0034 019B     		ldr	r3, [sp, #4]
 4723 0036 3878     		ldrb	r0, [r7]
 4724 0038 0393     		str	r3, [sp, #12]
 4725 003a 2670     		strb	r6, [r4]
 4726 003c FFF7FEFF 		bl	convert_rp_to_user_radio_access_status
 4727 0040 6B46     		mov	r3, sp
 4728 0042 5B88     		ldrh	r3, [r3, #2]
 4729 0044 6070     		strb	r0, [r4, #1]
 4730 0046 6380     		strh	r3, [r4, #2]
 4731 0048 034B     		ldr	r3, .L741
 4732 004a 1B68     		ldr	r3, [r3]
 4733 004c B342     		cmp	r3, r6
 4734 004e 01D0     		beq	.L736
 4735 0050 2000     		movs	r0, r4
 4736 0052 9847     		blx	r3
 4737              	.L736:
 4738 0054 05B0     		add	sp, sp, #20
 4739              		@ sp needed
 4740 0056 F0BD     		pop	{r4, r5, r6, r7, pc}
 4741              	.L742:
 4742              		.align	2
ARM GAS  /tmp/cc0VPHID.s 			page 84


 4743              	.L741:
 4744 0058 00000000 		.word	.LANCHOR16
 4746              		.section	.text.convert_rp_to_user_radio_access_rp_status,"ax",%progbits
 4747              		.align	1
 4748              		.global	convert_rp_to_user_radio_access_rp_status
 4749              		.syntax unified
 4750              		.code	16
 4751              		.thumb_func
 4752              		.fpu softvfp
 4754              	convert_rp_to_user_radio_access_rp_status:
 4755              		@ args = 0, pretend = 0, frame = 0
 4756              		@ frame_needed = 0, uses_anonymous_args = 0
 4757 0000 10B5     		push	{r4, lr}
 4758 0002 FFF7FEFF 		bl	convert_rp_to_user_radio_access_status
 4759              		@ sp needed
 4760 0006 10BD     		pop	{r4, pc}
 4762              		.global	smtc_modem_services_ctx
 4763              		.section	.bss.lbt_config_available,"aw",%nobits
 4764              		.set	.LANCHOR19,. + 0
 4767              	lbt_config_available:
 4768 0000 00       		.space	1
 4769              		.section	.bss.modem_buffer,"aw",%nobits
 4770              		.align	2
 4773              	modem_buffer:
 4774 0000 00000000 		.space	242
 4774      00000000 
 4774      00000000 
 4774      00000000 
 4774      00000000 
 4775              		.section	.bss.modem_radio_planner,"aw",%nobits
 4776              		.align	2
 4779              	modem_radio_planner:
 4780 0000 00000000 		.space	2504
 4780      00000000 
 4780      00000000 
 4780      00000000 
 4780      00000000 
 4781              		.section	.bss.smtc_modem_services_ctx,"aw",%nobits
 4782              		.align	2
 4785              	smtc_modem_services_ctx:
 4786 0000 00000000 		.space	1228
 4786      00000000 
 4786      00000000 
 4786      00000000 
 4786      00000000 
 4787              		.section	.bss.user_end_task_callback_0,"aw",%nobits
 4788              		.align	2
 4789              		.set	.LANCHOR16,. + 0
 4792              	user_end_task_callback_0:
 4793 0000 00000000 		.space	4
 4794              		.section	.bss.user_end_task_callback_1,"aw",%nobits
 4795              		.align	2
 4796              		.set	.LANCHOR17,. + 0
 4799              	user_end_task_callback_1:
 4800 0000 00000000 		.space	4
 4801              		.section	.bss.user_end_task_callback_2,"aw",%nobits
 4802              		.align	2
ARM GAS  /tmp/cc0VPHID.s 			page 85


 4803              		.set	.LANCHOR18,. + 0
 4806              	user_end_task_callback_2:
 4807 0000 00000000 		.space	4
 4808              		.section	.bss.user_radio_irq_status,"aw",%nobits
 4809              		.set	.LANCHOR1,. + 0
 4812              	user_radio_irq_status:
 4813 0000 00       		.space	1
 4814              		.section	.bss.user_radio_irq_timestamp,"aw",%nobits
 4815              		.align	2
 4816              		.set	.LANCHOR2,. + 0
 4819              	user_radio_irq_timestamp:
 4820 0000 00000000 		.space	4
 4821              		.section	.rodata.CSWTCH.143,"a"
 4822              		.set	.LANCHOR20,. + 0
 4825              	CSWTCH.143:
 4826 0000 00       		.byte	0
 4827 0001 01       		.byte	1
 4828 0002 02       		.byte	2
 4829 0003 03       		.byte	3
 4830 0004 04       		.byte	4
 4831 0005 05       		.byte	5
 4832 0006 09       		.byte	9
 4833 0007 09       		.byte	9
 4834 0008 06       		.byte	6
 4835 0009 07       		.byte	7
 4836 000a 08       		.byte	8
 4837              		.section	.rodata.__func__.0,"a"
 4838              		.set	.LANCHOR15,. + 0
 4841              	__func__.0:
 4842 0000 736D7463 		.ascii	"smtc_modem_file_upload_init\000"
 4842      5F6D6F64 
 4842      656D5F66 
 4842      696C655F 
 4842      75706C6F 
 4843              		.section	.rodata.__func__.1,"a"
 4844              		.set	.LANCHOR14,. + 0
 4847              	__func__.1:
 4848 0000 736D7463 		.ascii	"smtc_modem_send_empty_tx\000"
 4848      5F6D6F64 
 4848      656D5F73 
 4848      656E645F 
 4848      656D7074 
 4849              		.section	.rodata.__func__.10,"a"
 4850              		.set	.LANCHOR6,. + 0
 4853              	__func__.10:
 4854 0000 736D7463 		.ascii	"smtc_modem_set_nwkkey\000"
 4854      5F6D6F64 
 4854      656D5F73 
 4854      65745F6E 
 4854      776B6B65 
 4855              		.section	.rodata.__func__.11,"a"
 4856              		.set	.LANCHOR5,. + 0
 4859              	__func__.11:
 4860 0000 736D7463 		.ascii	"smtc_modem_set_deveui\000"
 4860      5F6D6F64 
 4860      656D5F73 
 4860      65745F64 
ARM GAS  /tmp/cc0VPHID.s 			page 86


 4860      65766575 
 4861              		.section	.rodata.__func__.12,"a"
 4862              		.set	.LANCHOR4,. + 0
 4865              	__func__.12:
 4866 0000 736D7463 		.ascii	"smtc_modem_set_joineui\000"
 4866      5F6D6F64 
 4866      656D5F73 
 4866      65745F6A 
 4866      6F696E65 
 4867              		.section	.rodata.__func__.13,"a"
 4868              		.set	.LANCHOR0,. + 0
 4871              	__func__.13:
 4872 0000 69735F6D 		.ascii	"is_modem_connected\000"
 4872      6F64656D 
 4872      5F636F6E 
 4872      6E656374 
 4872      656400
 4873              		.section	.rodata.__func__.14,"a"
 4874              		.set	.LANCHOR21,. + 0
 4877              	__func__.14:
 4878 0000 736D7463 		.ascii	"smtc_modem_get_event\000"
 4878      5F6D6F64 
 4878      656D5F67 
 4878      65745F65 
 4878      76656E74 
 4879              		.section	.rodata.__func__.2,"a"
 4880              		.set	.LANCHOR3,. + 0
 4883              	__func__.2:
 4884 0000 736D7463 		.ascii	"smtc_modem_send_tx\000"
 4884      5F6D6F64 
 4884      656D5F73 
 4884      656E645F 
 4884      747800
 4885              		.section	.rodata.__func__.3,"a"
 4886              		.set	.LANCHOR13,. + 0
 4889              	__func__.3:
 4890 0000 736D7463 		.ascii	"smtc_modem_get_next_tx_max_payload\000"
 4890      5F6D6F64 
 4890      656D5F67 
 4890      65745F6E 
 4890      6578745F 
 4891              		.section	.rodata.__func__.4,"a"
 4892              		.set	.LANCHOR12,. + 0
 4895              	__func__.4:
 4896 0000 736D7463 		.ascii	"smtc_modem_suspend_radio_communications\000"
 4896      5F6D6F64 
 4896      656D5F73 
 4896      75737065 
 4896      6E645F72 
 4897              		.section	.rodata.__func__.5,"a"
 4898              		.set	.LANCHOR11,. + 0
 4901              	__func__.5:
 4902 0000 736D7463 		.ascii	"smtc_modem_join_network\000"
 4902      5F6D6F64 
 4902      656D5F6A 
 4902      6F696E5F 
 4902      6E657477 
ARM GAS  /tmp/cc0VPHID.s 			page 87


 4903              		.section	.rodata.__func__.6,"a"
 4904              		.set	.LANCHOR10,. + 0
 4907              	__func__.6:
 4908 0000 736D7463 		.ascii	"smtc_modem_dm_set_info_interval\000"
 4908      5F6D6F64 
 4908      656D5F64 
 4908      6D5F7365 
 4908      745F696E 
 4909              		.section	.rodata.__func__.7,"a"
 4910              		.set	.LANCHOR9,. + 0
 4913              	__func__.7:
 4914 0000 736D7463 		.ascii	"smtc_modem_dm_set_fport\000"
 4914      5F6D6F64 
 4914      656D5F64 
 4914      6D5F7365 
 4914      745F6670 
 4915              		.section	.rodata.__func__.8,"a"
 4916              		.set	.LANCHOR8,. + 0
 4919              	__func__.8:
 4920 0000 736D7463 		.ascii	"smtc_modem_adr_set_profile\000"
 4920      5F6D6F64 
 4920      656D5F61 
 4920      64725F73 
 4920      65745F70 
 4921              		.section	.rodata.__func__.9,"a"
 4922              		.set	.LANCHOR7,. + 0
 4925              	__func__.9:
 4926 0000 736D7463 		.ascii	"smtc_modem_set_region\000"
 4926      5F6D6F64 
 4926      656D5F73 
 4926      65745F72 
 4926      6567696F 
 4927              		.ident	"GCC: (15:10.3-2021.07-4) 10.3.1 20210621 (release)"
ARM GAS  /tmp/cc0VPHID.s 			page 88

