ARM GAS  /tmp/ccF2CynX.s 			page 1


   1              		.cpu cortex-m4
   2              		.eabi_attribute 27, 1
   3              		.eabi_attribute 28, 1
   4              		.eabi_attribute 23, 1
   5              		.eabi_attribute 24, 1
   6              		.eabi_attribute 25, 1
   7              		.eabi_attribute 26, 1
   8              		.eabi_attribute 30, 4
   9              		.eabi_attribute 34, 1
  10              		.eabi_attribute 18, 4
  11              		.file	"ral_lr11xx_bsp.c"
  12              		.text
  13              		.section	.text.ral_lr11xx_bsp_get_rf_switch_cfg,"ax",%progbits
  14              		.align	1
  15              		.global	ral_lr11xx_bsp_get_rf_switch_cfg
  16              		.arch armv7e-m
  17              		.syntax unified
  18              		.thumb
  19              		.thumb_func
  20              		.fpu fpv4-sp-d16
  22              	ral_lr11xx_bsp_get_rf_switch_cfg:
  23              		@ args = 0, pretend = 0, frame = 0
  24              		@ frame_needed = 0, uses_anonymous_args = 0
  25              		@ link register save eliminated.
  26 0000 024B     		ldr	r3, .L2
  27 0002 0B60     		str	r3, [r1]	@ unaligned
  28 0004 024B     		ldr	r3, .L2+4
  29 0006 4B60     		str	r3, [r1, #4]	@ unaligned
  30 0008 7047     		bx	lr
  31              	.L3:
  32 000a 00BF     		.align	2
  33              	.L2:
  34 000c 0F000103 		.word	50397199
  35 0010 02000408 		.word	134479874
  37              		.section	.text.ral_lr11xx_bsp_get_reg_mode,"ax",%progbits
  38              		.align	1
  39              		.global	ral_lr11xx_bsp_get_reg_mode
  40              		.syntax unified
  41              		.thumb
  42              		.thumb_func
  43              		.fpu fpv4-sp-d16
  45              	ral_lr11xx_bsp_get_reg_mode:
  46              		@ args = 0, pretend = 0, frame = 0
  47              		@ frame_needed = 0, uses_anonymous_args = 0
  48              		@ link register save eliminated.
  49 0000 0123     		movs	r3, #1
  50 0002 0B70     		strb	r3, [r1]
  51 0004 7047     		bx	lr
  53              		.section	.text.ral_lr11xx_bsp_get_xosc_cfg,"ax",%progbits
  54              		.align	1
  55              		.global	ral_lr11xx_bsp_get_xosc_cfg
  56              		.syntax unified
  57              		.thumb
  58              		.thumb_func
  59              		.fpu fpv4-sp-d16
  61              	ral_lr11xx_bsp_get_xosc_cfg:
  62              		@ args = 0, pretend = 0, frame = 0
ARM GAS  /tmp/ccF2CynX.s 			page 2


  63              		@ frame_needed = 0, uses_anonymous_args = 0
  64 0000 70B5     		push	{r4, r5, r6, lr}
  65 0002 0E46     		mov	r6, r1
  66 0004 1546     		mov	r5, r2
  67 0006 1C46     		mov	r4, r3
  68 0008 FFF7FEFF 		bl	smtc_modem_hal_get_radio_tcxo_startup_delay_ms
  69 000c 0123     		movs	r3, #1
  70 000e 3370     		strb	r3, [r6]
  71 0010 0223     		movs	r3, #2
  72 0012 2B70     		strb	r3, [r5]
  73 0014 FFF7FEFF 		bl	lr11xx_radio_convert_time_in_ms_to_rtc_step
  74 0018 2060     		str	r0, [r4]
  75 001a 70BD     		pop	{r4, r5, r6, pc}
  77              		.section	.text.ral_lr11xx_bsp_get_crc_state,"ax",%progbits
  78              		.align	1
  79              		.global	ral_lr11xx_bsp_get_crc_state
  80              		.syntax unified
  81              		.thumb
  82              		.thumb_func
  83              		.fpu fpv4-sp-d16
  85              	ral_lr11xx_bsp_get_crc_state:
  86              		@ args = 0, pretend = 0, frame = 0
  87              		@ frame_needed = 0, uses_anonymous_args = 0
  88              		@ link register save eliminated.
  89 0000 0023     		movs	r3, #0
  90 0002 0B70     		strb	r3, [r1]
  91 0004 7047     		bx	lr
  93              		.section	.text.ral_lr11xx_bsp_get_rssi_calibration_table,"ax",%progbits
  94              		.align	1
  95              		.global	ral_lr11xx_bsp_get_rssi_calibration_table
  96              		.syntax unified
  97              		.thumb
  98              		.thumb_func
  99              		.fpu fpv4-sp-d16
 101              	ral_lr11xx_bsp_get_rssi_calibration_table:
 102              		@ args = 0, pretend = 0, frame = 0
 103              		@ frame_needed = 0, uses_anonymous_args = 0
 104              		@ link register save eliminated.
 105 0000 1A4B     		ldr	r3, .L13
 106 0002 9942     		cmp	r1, r3
 107 0004 10D8     		bhi	.L8
 108 0006 0023     		movs	r3, #0
 109 0008 5382     		strh	r3, [r2, #18]	@ movhi
 110 000a 194B     		ldr	r3, .L13+4
 111 000c 1360     		str	r3, [r2]	@ unaligned
 112 000e 194B     		ldr	r3, .L13+8
 113 0010 5360     		str	r3, [r2, #4]	@ unaligned
 114 0012 03F10233 		add	r3, r3, #33686018
 115 0016 03F58073 		add	r3, r3, #256
 116 001a 9360     		str	r3, [r2, #8]	@ unaligned
 117 001c 4FF00633 		mov	r3, #101058054
 118              	.L12:
 119 0020 D360     		str	r3, [r2, #12]	@ unaligned
 120 0022 0623     		movs	r3, #6
 121              	.L11:
 122 0024 1374     		strb	r3, [r2, #16]
 123 0026 7047     		bx	lr
ARM GAS  /tmp/ccF2CynX.s 			page 3


 124              	.L8:
 125 0028 C91A     		subs	r1, r1, r3
 126 002a 134B     		ldr	r3, .L13+12
 127 002c 9942     		cmp	r1, r3
 128 002e 0CD8     		bhi	.L10
 129 0030 0023     		movs	r3, #0
 130 0032 5382     		strh	r3, [r2, #18]	@ movhi
 131 0034 114B     		ldr	r3, .L13+16
 132 0036 1360     		str	r3, [r2]	@ unaligned
 133 0038 114B     		ldr	r3, .L13+20
 134 003a 5360     		str	r3, [r2, #4]	@ unaligned
 135 003c 03F18073 		add	r3, r3, #16777216
 136 0040 03F20123 		addw	r3, r3, #513
 137 0044 9360     		str	r3, [r2, #8]	@ unaligned
 138 0046 0F4B     		ldr	r3, .L13+24
 139 0048 EAE7     		b	.L12
 140              	.L10:
 141 004a 40F2EE73 		movw	r3, #2030
 142 004e 5382     		strh	r3, [r2, #18]	@ movhi
 143 0050 0D4B     		ldr	r3, .L13+28
 144 0052 1360     		str	r3, [r2]	@ unaligned
 145 0054 0D4B     		ldr	r3, .L13+32
 146 0056 5360     		str	r3, [r2, #4]	@ unaligned
 147 0058 0D4B     		ldr	r3, .L13+36
 148 005a 9360     		str	r3, [r2, #8]	@ unaligned
 149 005c A3F14173 		sub	r3, r3, #50593792
 150 0060 A3F20243 		subw	r3, r3, #1026
 151 0064 D360     		str	r3, [r2, #12]	@ unaligned
 152 0066 0923     		movs	r3, #9
 153 0068 DCE7     		b	.L11
 154              	.L14:
 155 006a 00BF     		.align	2
 156              	.L13:
 157 006c 0046C323 		.word	600000000
 158 0070 0C0C0E00 		.word	920588
 159 0074 01030404 		.word	67371777
 160 0078 004E7253 		.word	1400000000
 161 007c 02020203 		.word	50463234
 162 0080 03040504 		.word	67437571
 163 0084 06060607 		.word	117835270
 164 0088 06070604 		.word	67503878
 165 008c 03040E0C 		.word	202245123
 166 0090 0E0C0C0C 		.word	202116110
 168              		.section	.text.ral_lr11xx_bsp_get_lora_cad_det_peak,"ax",%progbits
 169              		.align	1
 170              		.global	ral_lr11xx_bsp_get_lora_cad_det_peak
 171              		.syntax unified
 172              		.thumb
 173              		.thumb_func
 174              		.fpu fpv4-sp-d16
 176              	ral_lr11xx_bsp_get_lora_cad_det_peak:
 177              		@ args = 0, pretend = 0, frame = 0
 178              		@ frame_needed = 0, uses_anonymous_args = 0
 179              		@ link register save eliminated.
 180 0000 7047     		bx	lr
 182              		.section	.text.ral_lr11xx_bsp_get_rx_boost_cfg,"ax",%progbits
 183              		.align	1
ARM GAS  /tmp/ccF2CynX.s 			page 4


 184              		.global	ral_lr11xx_bsp_get_rx_boost_cfg
 185              		.syntax unified
 186              		.thumb
 187              		.thumb_func
 188              		.fpu fpv4-sp-d16
 190              	ral_lr11xx_bsp_get_rx_boost_cfg:
 191              		@ args = 0, pretend = 0, frame = 0
 192              		@ frame_needed = 0, uses_anonymous_args = 0
 193              		@ link register save eliminated.
 194 0000 0023     		movs	r3, #0
 195 0002 0B70     		strb	r3, [r1]
 196 0004 7047     		bx	lr
 198              		.section	.text.ral_lr11xx_bsp_get_lfclk_cfg_in_sleep,"ax",%progbits
 199              		.align	1
 200              		.global	ral_lr11xx_bsp_get_lfclk_cfg_in_sleep
 201              		.syntax unified
 202              		.thumb
 203              		.thumb_func
 204              		.fpu fpv4-sp-d16
 206              	ral_lr11xx_bsp_get_lfclk_cfg_in_sleep:
 207              		@ args = 0, pretend = 0, frame = 0
 208              		@ frame_needed = 0, uses_anonymous_args = 0
 209              		@ link register save eliminated.
 210 0000 0123     		movs	r3, #1
 211 0002 0B70     		strb	r3, [r1]
 212 0004 7047     		bx	lr
 214              		.section	.text.lr11xx_get_tx_cfg,"ax",%progbits
 215              		.align	1
 216              		.global	lr11xx_get_tx_cfg
 217              		.syntax unified
 218              		.thumb
 219              		.thumb_func
 220              		.fpu fpv4-sp-d16
 222              	lr11xx_get_tx_cfg:
 223              		@ args = 0, pretend = 0, frame = 0
 224              		@ frame_needed = 0, uses_anonymous_args = 0
 225 0000 0223     		movs	r3, #2
 226 0002 30B5     		push	{r4, r5, lr}
 227 0004 1371     		strb	r3, [r2, #4]
 228 0006 0328     		cmp	r0, #3
 229 0008 3AD8     		bhi	.L18
 230 000a DFE800F0 		tbb	[pc, r0]
 231              	.L21:
 232 000e 02       		.byte	(.L24-.L21)/2
 233 000f 1C       		.byte	(.L23-.L21)/2
 234 0010 3A       		.byte	(.L22-.L21)/2
 235 0011 59       		.byte	(.L20-.L21)/2
 236              		.p2align 1
 237              	.L24:
 238 0012 0F29     		cmp	r1, #15
 239 0014 6FF01003 		mvn	r3, #16
 240 0018 A8BF     		it	ge
 241 001a 0F21     		movge	r1, #15
 242 001c 9942     		cmp	r1, r3
 243 001e B8BF     		it	lt
 244 0020 1946     		movlt	r1, r3
 245 0022 0023     		movs	r3, #0
ARM GAS  /tmp/ccF2CynX.s 			page 5


 246 0024 1370     		strb	r3, [r2]
 247 0026 5370     		strb	r3, [r2, #1]
 248 0028 2E48     		ldr	r0, .L32
 249 002a 01F11103 		add	r3, r1, #17
 250 002e 5BB2     		sxtb	r3, r3
 251              	.L30:
 252 0030 03EB4303 		add	r3, r3, r3, lsl #1
 253 0034 C418     		adds	r4, r0, r3
 254 0036 C35C     		ldrb	r3, [r0, r3]	@ zero_extendqisi2
 255 0038 6578     		ldrb	r5, [r4, #1]	@ zero_extendqisi2
 256 003a A478     		ldrb	r4, [r4, #2]	@ zero_extendqisi2
 257 003c 9570     		strb	r5, [r2, #2]
 258 003e D470     		strb	r4, [r2, #3]
 259 0040 5371     		strb	r3, [r2, #5]
 260 0042 9171     		strb	r1, [r2, #6]
 261 0044 1CE0     		b	.L18
 262              	.L23:
 263 0046 1629     		cmp	r1, #22
 264 0048 0B46     		mov	r3, r1
 265 004a 6FF00800 		mvn	r0, #8
 266 004e A8BF     		it	ge
 267 0050 1623     		movge	r3, #22
 268 0052 8342     		cmp	r3, r0
 269 0054 B8BF     		it	lt
 270 0056 0346     		movlt	r3, r0
 271 0058 0829     		cmp	r1, #8
 272 005a D4BF     		ite	le
 273 005c 0021     		movle	r1, #0
 274 005e 0121     		movgt	r1, #1
 275 0060 9371     		strb	r3, [r2, #6]
 276 0062 0933     		adds	r3, r3, #9
 277 0064 0120     		movs	r0, #1
 278 0066 5170     		strb	r1, [r2, #1]
 279 0068 5BB2     		sxtb	r3, r3
 280 006a 1F49     		ldr	r1, .L32+4
 281 006c 1070     		strb	r0, [r2]
 282 006e 03EB4303 		add	r3, r3, r3, lsl #1
 283              	.L31:
 284 0072 5818     		adds	r0, r3, r1
 285 0074 5B5C     		ldrb	r3, [r3, r1]	@ zero_extendqisi2
 286 0076 4478     		ldrb	r4, [r0, #1]	@ zero_extendqisi2
 287 0078 8078     		ldrb	r0, [r0, #2]	@ zero_extendqisi2
 288 007a 9470     		strb	r4, [r2, #2]
 289 007c D070     		strb	r0, [r2, #3]
 290 007e 5371     		strb	r3, [r2, #5]
 291              	.L18:
 292 0080 30BD     		pop	{r4, r5, pc}
 293              	.L22:
 294 0082 11F1110F 		cmn	r1, #17
 295 0086 0CDA     		bge	.L25
 296 0088 EF23     		movs	r3, #239
 297 008a 9371     		strb	r3, [r2, #6]
 298 008c 6FF01001 		mvn	r1, #16
 299              	.L26:
 300 0090 0023     		movs	r3, #0
 301 0092 1370     		strb	r3, [r2]
 302 0094 5370     		strb	r3, [r2, #1]
ARM GAS  /tmp/ccF2CynX.s 			page 6


 303 0096 1131     		adds	r1, r1, #17
 304 0098 124B     		ldr	r3, .L32
 305 009a 49B2     		sxtb	r1, r1
 306              	.L29:
 307 009c 01EB4101 		add	r1, r1, r1, lsl #1
 308 00a0 E7E7     		b	.L31
 309              	.L25:
 310 00a2 1629     		cmp	r1, #22
 311 00a4 08DD     		ble	.L27
 312 00a6 1621     		movs	r1, #22
 313 00a8 9171     		strb	r1, [r2, #6]
 314              	.L28:
 315 00aa 0123     		movs	r3, #1
 316 00ac 0931     		adds	r1, r1, #9
 317 00ae 1370     		strb	r3, [r2]
 318 00b0 5370     		strb	r3, [r2, #1]
 319 00b2 49B2     		sxtb	r1, r1
 320 00b4 0C4B     		ldr	r3, .L32+4
 321 00b6 F1E7     		b	.L29
 322              	.L27:
 323 00b8 0F29     		cmp	r1, #15
 324 00ba 9171     		strb	r1, [r2, #6]
 325 00bc F5DC     		bgt	.L28
 326 00be E7E7     		b	.L26
 327              	.L20:
 328 00c0 0D29     		cmp	r1, #13
 329 00c2 6FF01103 		mvn	r3, #17
 330 00c6 A8BF     		it	ge
 331 00c8 0D21     		movge	r1, #13
 332 00ca 9942     		cmp	r1, r3
 333 00cc B8BF     		it	lt
 334 00ce 1946     		movlt	r1, r3
 335 00d0 0223     		movs	r3, #2
 336 00d2 1370     		strb	r3, [r2]
 337 00d4 0023     		movs	r3, #0
 338 00d6 5370     		strb	r3, [r2, #1]
 339 00d8 01F11203 		add	r3, r1, #18
 340 00dc 0348     		ldr	r0, .L32+8
 341 00de 5BB2     		sxtb	r3, r3
 342 00e0 A6E7     		b	.L30
 343              	.L33:
 344 00e2 00BF     		.align	2
 345              	.L32:
 346 00e4 00000000 		.word	.LANCHOR0
 347 00e8 00000000 		.word	.LANCHOR1
 348 00ec 00000000 		.word	.LANCHOR2
 350              		.section	.text.ral_lr11xx_bsp_get_tx_cfg,"ax",%progbits
 351              		.align	1
 352              		.global	ral_lr11xx_bsp_get_tx_cfg
 353              		.syntax unified
 354              		.thumb
 355              		.thumb_func
 356              		.fpu fpv4-sp-d16
 358              	ral_lr11xx_bsp_get_tx_cfg:
 359              		@ args = 0, pretend = 0, frame = 8
 360              		@ frame_needed = 0, uses_anonymous_args = 0
 361 0000 13B5     		push	{r0, r1, r4, lr}
ARM GAS  /tmp/ccF2CynX.s 			page 7


 362 0002 0C46     		mov	r4, r1
 363 0004 0192     		str	r2, [sp, #4]
 364 0006 FFF7FEFF 		bl	radio_utilities_get_tx_power_offset
 365 000a 94F90010 		ldrsb	r1, [r4]
 366 000e 6468     		ldr	r4, [r4, #4]
 367 0010 019A     		ldr	r2, [sp, #4]
 368 0012 0144     		add	r1, r1, r0
 369 0014 0548     		ldr	r0, .L37
 370 0016 49B2     		sxtb	r1, r1
 371 0018 8442     		cmp	r4, r0
 372 001a 8CBF     		ite	hi
 373 001c 0320     		movhi	r0, #3
 374 001e 0220     		movls	r0, #2
 375 0020 02B0     		add	sp, sp, #8
 376              		@ sp needed
 377 0022 BDE81040 		pop	{r4, lr}
 378 0026 FFF7FEBF 		b	lr11xx_get_tx_cfg
 379              	.L38:
 380 002a 00BF     		.align	2
 381              	.L37:
 382 002c FF170D8F 		.word	-1894967297
 384              		.global	pa_hf_cfg_table
 385              		.global	pa_hp_cfg_table
 386              		.global	pa_lp_cfg_table
 387              		.section	.rodata.pa_hf_cfg_table,"a"
 388              		.set	.LANCHOR2,. + 0
 391              	pa_hf_cfg_table:
 392 0000 EE       		.byte	-18
 393 0001 04       		.byte	4
 394 0002 00       		.byte	0
 395 0003 EE       		.byte	-18
 396 0004 04       		.byte	4
 397 0005 00       		.byte	0
 398 0006 EF       		.byte	-17
 399 0007 04       		.byte	4
 400 0008 00       		.byte	0
 401 0009 F0       		.byte	-16
 402 000a 04       		.byte	4
 403 000b 00       		.byte	0
 404 000c F1       		.byte	-15
 405 000d 04       		.byte	4
 406 000e 00       		.byte	0
 407 000f F2       		.byte	-14
 408 0010 04       		.byte	4
 409 0011 00       		.byte	0
 410 0012 F2       		.byte	-14
 411 0013 04       		.byte	4
 412 0014 00       		.byte	0
 413 0015 F4       		.byte	-12
 414 0016 04       		.byte	4
 415 0017 00       		.byte	0
 416 0018 F6       		.byte	-10
 417 0019 04       		.byte	4
 418 001a 00       		.byte	0
 419 001b F7       		.byte	-9
 420 001c 04       		.byte	4
 421 001d 00       		.byte	0
ARM GAS  /tmp/ccF2CynX.s 			page 8


 422 001e F8       		.byte	-8
 423 001f 04       		.byte	4
 424 0020 00       		.byte	0
 425 0021 F9       		.byte	-7
 426 0022 04       		.byte	4
 427 0023 00       		.byte	0
 428 0024 FA       		.byte	-6
 429 0025 04       		.byte	4
 430 0026 00       		.byte	0
 431 0027 FB       		.byte	-5
 432 0028 04       		.byte	4
 433 0029 00       		.byte	0
 434 002a FC       		.byte	-4
 435 002b 04       		.byte	4
 436 002c 00       		.byte	0
 437 002d FD       		.byte	-3
 438 002e 04       		.byte	4
 439 002f 00       		.byte	0
 440 0030 FE       		.byte	-2
 441 0031 03       		.byte	3
 442 0032 00       		.byte	0
 443 0033 FF       		.byte	-1
 444 0034 04       		.byte	4
 445 0035 00       		.byte	0
 446 0036 00       		.byte	0
 447 0037 04       		.byte	4
 448 0038 00       		.byte	0
 449 0039 01       		.byte	1
 450 003a 00       		.byte	0
 451 003b 00       		.byte	0
 452 003c 02       		.byte	2
 453 003d 00       		.byte	0
 454 003e 00       		.byte	0
 455 003f 04       		.byte	4
 456 0040 04       		.byte	4
 457 0041 00       		.byte	0
 458 0042 05       		.byte	5
 459 0043 04       		.byte	4
 460 0044 00       		.byte	0
 461 0045 06       		.byte	6
 462 0046 04       		.byte	4
 463 0047 00       		.byte	0
 464 0048 07       		.byte	7
 465 0049 04       		.byte	4
 466 004a 00       		.byte	0
 467 004b 08       		.byte	8
 468 004c 04       		.byte	4
 469 004d 00       		.byte	0
 470 004e 09       		.byte	9
 471 004f 04       		.byte	4
 472 0050 00       		.byte	0
 473 0051 0A       		.byte	10
 474 0052 04       		.byte	4
 475 0053 00       		.byte	0
 476 0054 0B       		.byte	11
 477 0055 04       		.byte	4
 478 0056 00       		.byte	0
ARM GAS  /tmp/ccF2CynX.s 			page 9


 479 0057 0C       		.byte	12
 480 0058 03       		.byte	3
 481 0059 00       		.byte	0
 482 005a 0D       		.byte	13
 483 005b 04       		.byte	4
 484 005c 00       		.byte	0
 485 005d 0D       		.byte	13
 486 005e 00       		.byte	0
 487 005f 00       		.byte	0
 488              		.section	.rodata.pa_hp_cfg_table,"a"
 489              		.set	.LANCHOR1,. + 0
 492              	pa_hp_cfg_table:
 493 0000 09       		.byte	9
 494 0001 00       		.byte	0
 495 0002 00       		.byte	0
 496 0003 0A       		.byte	10
 497 0004 00       		.byte	0
 498 0005 00       		.byte	0
 499 0006 0B       		.byte	11
 500 0007 00       		.byte	0
 501 0008 00       		.byte	0
 502 0009 0C       		.byte	12
 503 000a 00       		.byte	0
 504 000b 00       		.byte	0
 505 000c 0D       		.byte	13
 506 000d 00       		.byte	0
 507 000e 00       		.byte	0
 508 000f 0D       		.byte	13
 509 0010 01       		.byte	1
 510 0011 00       		.byte	0
 511 0012 0D       		.byte	13
 512 0013 02       		.byte	2
 513 0014 00       		.byte	0
 514 0015 11       		.byte	17
 515 0016 02       		.byte	2
 516 0017 00       		.byte	0
 517 0018 0E       		.byte	14
 518 0019 04       		.byte	4
 519 001a 00       		.byte	0
 520 001b 0C       		.byte	12
 521 001c 00       		.byte	0
 522 001d 01       		.byte	1
 523 001e 0D       		.byte	13
 524 001f 00       		.byte	0
 525 0020 01       		.byte	1
 526 0021 0D       		.byte	13
 527 0022 01       		.byte	1
 528 0023 01       		.byte	1
 529 0024 0D       		.byte	13
 530 0025 02       		.byte	2
 531 0026 01       		.byte	1
 532 0027 0F       		.byte	15
 533 0028 00       		.byte	0
 534 0029 02       		.byte	2
 535 002a 0F       		.byte	15
 536 002b 04       		.byte	4
 537 002c 01       		.byte	1
ARM GAS  /tmp/ccF2CynX.s 			page 10


 538 002d 0E       		.byte	14
 539 002e 02       		.byte	2
 540 002f 02       		.byte	2
 541 0030 0E       		.byte	14
 542 0031 01       		.byte	1
 543 0032 03       		.byte	3
 544 0033 11       		.byte	17
 545 0034 04       		.byte	4
 546 0035 02       		.byte	2
 547 0036 16       		.byte	22
 548 0037 00       		.byte	0
 549 0038 01       		.byte	1
 550 0039 16       		.byte	22
 551 003a 01       		.byte	1
 552 003b 01       		.byte	1
 553 003c 16       		.byte	22
 554 003d 02       		.byte	2
 555 003e 01       		.byte	1
 556 003f 16       		.byte	22
 557 0040 03       		.byte	3
 558 0041 01       		.byte	1
 559 0042 16       		.byte	22
 560 0043 00       		.byte	0
 561 0044 03       		.byte	3
 562 0045 16       		.byte	22
 563 0046 01       		.byte	1
 564 0047 03       		.byte	3
 565 0048 16       		.byte	22
 566 0049 04       		.byte	4
 567 004a 02       		.byte	2
 568 004b 16       		.byte	22
 569 004c 01       		.byte	1
 570 004d 04       		.byte	4
 571 004e 16       		.byte	22
 572 004f 02       		.byte	2
 573 0050 04       		.byte	4
 574 0051 16       		.byte	22
 575 0052 01       		.byte	1
 576 0053 06       		.byte	6
 577 0054 16       		.byte	22
 578 0055 03       		.byte	3
 579 0056 05       		.byte	5
 580 0057 16       		.byte	22
 581 0058 03       		.byte	3
 582 0059 07       		.byte	7
 583 005a 16       		.byte	22
 584 005b 04       		.byte	4
 585 005c 06       		.byte	6
 586 005d 16       		.byte	22
 587 005e 04       		.byte	4
 588 005f 07       		.byte	7
 589              		.section	.rodata.pa_lp_cfg_table,"a"
 590              		.set	.LANCHOR0,. + 0
 593              	pa_lp_cfg_table:
 594 0000 F1       		.byte	-15
 595 0001 00       		.byte	0
 596 0002 00       		.byte	0
ARM GAS  /tmp/ccF2CynX.s 			page 11


 597 0003 F2       		.byte	-14
 598 0004 00       		.byte	0
 599 0005 00       		.byte	0
 600 0006 F3       		.byte	-13
 601 0007 00       		.byte	0
 602 0008 00       		.byte	0
 603 0009 F4       		.byte	-12
 604 000a 00       		.byte	0
 605 000b 00       		.byte	0
 606 000c F5       		.byte	-11
 607 000d 00       		.byte	0
 608 000e 00       		.byte	0
 609 000f F7       		.byte	-9
 610 0010 00       		.byte	0
 611 0011 00       		.byte	0
 612 0012 F8       		.byte	-8
 613 0013 00       		.byte	0
 614 0014 00       		.byte	0
 615 0015 F9       		.byte	-7
 616 0016 00       		.byte	0
 617 0017 00       		.byte	0
 618 0018 FA       		.byte	-6
 619 0019 00       		.byte	0
 620 001a 00       		.byte	0
 621 001b FB       		.byte	-5
 622 001c 00       		.byte	0
 623 001d 00       		.byte	0
 624 001e FC       		.byte	-4
 625 001f 00       		.byte	0
 626 0020 00       		.byte	0
 627 0021 FD       		.byte	-3
 628 0022 00       		.byte	0
 629 0023 00       		.byte	0
 630 0024 FE       		.byte	-2
 631 0025 00       		.byte	0
 632 0026 00       		.byte	0
 633 0027 FF       		.byte	-1
 634 0028 00       		.byte	0
 635 0029 00       		.byte	0
 636 002a 00       		.byte	0
 637 002b 00       		.byte	0
 638 002c 00       		.byte	0
 639 002d 01       		.byte	1
 640 002e 00       		.byte	0
 641 002f 00       		.byte	0
 642 0030 02       		.byte	2
 643 0031 00       		.byte	0
 644 0032 00       		.byte	0
 645 0033 03       		.byte	3
 646 0034 00       		.byte	0
 647 0035 00       		.byte	0
 648 0036 03       		.byte	3
 649 0037 01       		.byte	1
 650 0038 00       		.byte	0
 651 0039 04       		.byte	4
 652 003a 01       		.byte	1
 653 003b 00       		.byte	0
ARM GAS  /tmp/ccF2CynX.s 			page 12


 654 003c 07       		.byte	7
 655 003d 00       		.byte	0
 656 003e 00       		.byte	0
 657 003f 08       		.byte	8
 658 0040 00       		.byte	0
 659 0041 00       		.byte	0
 660 0042 09       		.byte	9
 661 0043 00       		.byte	0
 662 0044 00       		.byte	0
 663 0045 0A       		.byte	10
 664 0046 00       		.byte	0
 665 0047 00       		.byte	0
 666 0048 0C       		.byte	12
 667 0049 00       		.byte	0
 668 004a 00       		.byte	0
 669 004b 0D       		.byte	13
 670 004c 00       		.byte	0
 671 004d 00       		.byte	0
 672 004e 0E       		.byte	14
 673 004f 00       		.byte	0
 674 0050 00       		.byte	0
 675 0051 0D       		.byte	13
 676 0052 01       		.byte	1
 677 0053 00       		.byte	0
 678 0054 0D       		.byte	13
 679 0055 02       		.byte	2
 680 0056 00       		.byte	0
 681 0057 0E       		.byte	14
 682 0058 02       		.byte	2
 683 0059 00       		.byte	0
 684 005a 0E       		.byte	14
 685 005b 03       		.byte	3
 686 005c 00       		.byte	0
 687 005d 0E       		.byte	14
 688 005e 04       		.byte	4
 689 005f 00       		.byte	0
 690 0060 0E       		.byte	14
 691 0061 07       		.byte	7
 692 0062 00       		.byte	0
 693              		.ident	"GCC: (15:10.3-2021.07-4) 10.3.1 20210621 (release)"
ARM GAS  /tmp/ccF2CynX.s 			page 13

