ARM GAS  /tmp/ccbltdli.s 			page 1


   1              		.cpu cortex-m4
   2              		.eabi_attribute 27, 1
   3              		.eabi_attribute 28, 1
   4              		.eabi_attribute 23, 1
   5              		.eabi_attribute 24, 1
   6              		.eabi_attribute 25, 1
   7              		.eabi_attribute 26, 1
   8              		.eabi_attribute 30, 4
   9              		.eabi_attribute 34, 1
  10              		.eabi_attribute 18, 4
  11              		.file	"smtc_hal_mcu.c"
  12              		.text
  13              		.section	.text.hal_mcu_wait_us,"ax",%progbits
  14              		.align	1
  15              		.p2align 2,,3
  16              		.global	hal_mcu_wait_us
  17              		.arch armv7e-m
  18              		.syntax unified
  19              		.thumb
  20              		.thumb_func
  21              		.fpu fpv4-sp-d16
  23              	hal_mcu_wait_us:
  24              		@ args = 0, pretend = 0, frame = 16
  25              		@ frame_needed = 1, uses_anonymous_args = 0
  26              		@ link register save eliminated.
  27 0000 80B4     		push	{r7}
  28 0002 85B0     		sub	sp, sp, #20
  29 0004 00AF     		add	r7, sp, #0
  30 0006 7860     		str	r0, [r7, #4]
  31 0008 7B68     		ldr	r3, [r7, #4]
  32 000a 4FF47A72 		mov	r2, #1000
  33 000e 02FB03F3 		mul	r3, r2, r3
  34 0012 0C4A     		ldr	r2, .L4
  35 0014 82FB0312 		smull	r1, r2, r2, r3
  36 0018 9210     		asrs	r2, r2, #2
  37 001a DB17     		asrs	r3, r3, #31
  38 001c D31A     		subs	r3, r2, r3
  39 001e BB60     		str	r3, [r7, #8]
  40 0020 0023     		movs	r3, #0
  41 0022 FB60     		str	r3, [r7, #12]
  42 0024 03E0     		b	.L2
  43              	.L3:
  44              		.syntax unified
  45              	@ 177 "smtc_hal_l4/smtc_hal_mcu.c" 1
  46 0026 00BF     		nop
  47              	@ 0 "" 2
  48              		.thumb
  49              		.syntax unified
  50 0028 FB68     		ldr	r3, [r7, #12]
  51 002a 0133     		adds	r3, r3, #1
  52 002c FB60     		str	r3, [r7, #12]
  53              	.L2:
  54 002e FA68     		ldr	r2, [r7, #12]
  55 0030 BB68     		ldr	r3, [r7, #8]
  56 0032 9A42     		cmp	r2, r3
  57 0034 F7D3     		bcc	.L3
  58 0036 00BF     		nop
ARM GAS  /tmp/ccbltdli.s 			page 2


  59 0038 00BF     		nop
  60 003a 1437     		adds	r7, r7, #20
  61 003c BD46     		mov	sp, r7
  62              		@ sp needed
  63 003e 5DF8047B 		ldr	r7, [sp], #4
  64 0042 7047     		bx	lr
  65              	.L5:
  66              		.align	2
  67              	.L4:
  68 0044 B9757907 		.word	125400505
  70              		.section	.text.hal_mcu_critical_section_begin,"ax",%progbits
  71              		.align	1
  72              		.global	hal_mcu_critical_section_begin
  73              		.syntax unified
  74              		.thumb
  75              		.thumb_func
  76              		.fpu fpv4-sp-d16
  78              	hal_mcu_critical_section_begin:
  79              		@ args = 0, pretend = 0, frame = 0
  80              		@ frame_needed = 0, uses_anonymous_args = 0
  81              		@ link register save eliminated.
  82              		.syntax unified
  83              	@ 453 "mcu_drivers/cmsis/Core/Include/cmsis_gcc.h" 1
  84 0000 EFF31083 		MRS r3, primask
  85              	@ 0 "" 2
  86              		.thumb
  87              		.syntax unified
  88 0004 0360     		str	r3, [r0]
  89              		.syntax unified
  90              	@ 209 "mcu_drivers/cmsis/Core/Include/cmsis_gcc.h" 1
  91 0006 72B6     		cpsid i
  92              	@ 0 "" 2
  93              		.thumb
  94              		.syntax unified
  95 0008 7047     		bx	lr
  97              		.section	.text.hal_mcu_critical_section_end,"ax",%progbits
  98              		.align	1
  99              		.global	hal_mcu_critical_section_end
 100              		.syntax unified
 101              		.thumb
 102              		.thumb_func
 103              		.fpu fpv4-sp-d16
 105              	hal_mcu_critical_section_end:
 106              		@ args = 0, pretend = 0, frame = 0
 107              		@ frame_needed = 0, uses_anonymous_args = 0
 108              		@ link register save eliminated.
 109 0000 0368     		ldr	r3, [r0]
 110              		.syntax unified
 111              	@ 481 "mcu_drivers/cmsis/Core/Include/cmsis_gcc.h" 1
 112 0002 83F31088 		MSR primask, r3
 113              	@ 0 "" 2
 114              		.thumb
 115              		.syntax unified
 116 0006 7047     		bx	lr
 118              		.section	.text.hal_mcu_disable_irq,"ax",%progbits
 119              		.align	1
 120              		.global	hal_mcu_disable_irq
ARM GAS  /tmp/ccbltdli.s 			page 3


 121              		.syntax unified
 122              		.thumb
 123              		.thumb_func
 124              		.fpu fpv4-sp-d16
 126              	hal_mcu_disable_irq:
 127              		@ args = 0, pretend = 0, frame = 0
 128              		@ frame_needed = 0, uses_anonymous_args = 0
 129              		@ link register save eliminated.
 130              		.syntax unified
 131              	@ 209 "mcu_drivers/cmsis/Core/Include/cmsis_gcc.h" 1
 132 0000 72B6     		cpsid i
 133              	@ 0 "" 2
 134              		.thumb
 135              		.syntax unified
 136 0002 7047     		bx	lr
 138              		.section	.text.hal_mcu_enable_irq,"ax",%progbits
 139              		.align	1
 140              		.global	hal_mcu_enable_irq
 141              		.syntax unified
 142              		.thumb
 143              		.thumb_func
 144              		.fpu fpv4-sp-d16
 146              	hal_mcu_enable_irq:
 147              		@ args = 0, pretend = 0, frame = 0
 148              		@ frame_needed = 0, uses_anonymous_args = 0
 149              		@ link register save eliminated.
 150              		.syntax unified
 151              	@ 198 "mcu_drivers/cmsis/Core/Include/cmsis_gcc.h" 1
 152 0000 62B6     		cpsie i
 153              	@ 0 "" 2
 154              		.thumb
 155              		.syntax unified
 156 0002 7047     		bx	lr
 158              		.section	.text.hal_mcu_reset,"ax",%progbits
 159              		.align	1
 160              		.global	hal_mcu_reset
 161              		.syntax unified
 162              		.thumb
 163              		.thumb_func
 164              		.fpu fpv4-sp-d16
 166              	hal_mcu_reset:
 167              		@ Volatile: function does not return.
 168              		@ args = 0, pretend = 0, frame = 0
 169              		@ frame_needed = 0, uses_anonymous_args = 0
 170              		@ link register save eliminated.
 171              		.syntax unified
 172              	@ 209 "mcu_drivers/cmsis/Core/Include/cmsis_gcc.h" 1
 173 0000 72B6     		cpsid i
 174              	@ 0 "" 2
 175              	@ 946 "mcu_drivers/cmsis/Core/Include/cmsis_gcc.h" 1
 176 0002 BFF34F8F 		dsb 0xF
 177              	@ 0 "" 2
 178              		.thumb
 179              		.syntax unified
 180 0006 0549     		ldr	r1, .L12
 181 0008 054B     		ldr	r3, .L12+4
 182 000a CA68     		ldr	r2, [r1, #12]
ARM GAS  /tmp/ccbltdli.s 			page 4


 183 000c 02F4E062 		and	r2, r2, #1792
 184 0010 1343     		orrs	r3, r3, r2
 185 0012 CB60     		str	r3, [r1, #12]
 186              		.syntax unified
 187              	@ 946 "mcu_drivers/cmsis/Core/Include/cmsis_gcc.h" 1
 188 0014 BFF34F8F 		dsb 0xF
 189              	@ 0 "" 2
 190              		.thumb
 191              		.syntax unified
 192              	.L11:
 193              		.syntax unified
 194              	@ 1944 "mcu_drivers/cmsis/Core/Include/core_cm4.h" 1
 195 0018 00BF     		nop
 196              	@ 0 "" 2
 197              		.thumb
 198              		.syntax unified
 199 001a FDE7     		b	.L11
 200              	.L13:
 201              		.align	2
 202              	.L12:
 203 001c 00ED00E0 		.word	-536810240
 204 0020 0400FA05 		.word	100270084
 206              		.section	.text.hal_mcu_init,"ax",%progbits
 207              		.align	1
 208              		.global	hal_mcu_init
 209              		.syntax unified
 210              		.thumb
 211              		.thumb_func
 212              		.fpu fpv4-sp-d16
 214              	hal_mcu_init:
 215              		@ args = 0, pretend = 0, frame = 240
 216              		@ frame_needed = 0, uses_anonymous_args = 0
 217 0000 70B5     		push	{r4, r5, r6, lr}
 218 0002 BCB0     		sub	sp, sp, #240
 219 0004 FFF7FEFF 		bl	HAL_Init
 220 0008 4422     		movs	r2, #68
 221 000a 0021     		movs	r1, #0
 222 000c 08A8     		add	r0, sp, #32
 223 000e FFF7FEFF 		bl	memset
 224 0012 5A4D     		ldr	r5, .L17
 225 0014 1422     		movs	r2, #20
 226 0016 0021     		movs	r1, #0
 227 0018 02A8     		add	r0, sp, #8
 228 001a FFF7FEFF 		bl	memset
 229 001e 8822     		movs	r2, #136
 230 0020 0021     		movs	r1, #0
 231 0022 1AA8     		add	r0, sp, #104
 232 0024 FFF7FEFF 		bl	memset
 233 0028 FFF7FEFF 		bl	HAL_PWR_EnableBkUpAccess
 234 002c D5F89030 		ldr	r3, [r5, #144]
 235 0030 23F01803 		bic	r3, r3, #24
 236 0034 C5F89030 		str	r3, [r5, #144]
 237 0038 0E23     		movs	r3, #14
 238 003a 0122     		movs	r2, #1
 239 003c 0893     		str	r3, [sp, #32]
 240 003e 4FF48073 		mov	r3, #256
 241 0042 CDE90A23 		strd	r2, [sp, #40]
ARM GAS  /tmp/ccbltdli.s 			page 5


 242 0046 1022     		movs	r2, #16
 243 0048 0123     		movs	r3, #1
 244 004a CDE90C23 		strd	r2, [sp, #48]
 245 004e 0222     		movs	r2, #2
 246 0050 0223     		movs	r3, #2
 247 0052 CDE91223 		strd	r2, [sp, #72]
 248 0056 0122     		movs	r2, #1
 249 0058 0A23     		movs	r3, #10
 250 005a CDE91423 		strd	r2, [sp, #80]
 251 005e 0226     		movs	r6, #2
 252 0060 0722     		movs	r2, #7
 253 0062 0223     		movs	r3, #2
 254 0064 08A8     		add	r0, sp, #32
 255 0066 CDE91623 		strd	r2, [sp, #88]
 256 006a 1896     		str	r6, [sp, #96]
 257 006c FFF7FEFF 		bl	HAL_RCC_OscConfig
 258 0070 70B1     		cbz	r0, .L15
 259              	.L16:
 260 0072 4349     		ldr	r1, .L17+4
 261 0074 4348     		ldr	r0, .L17+8
 262 0076 FFF7FEFF 		bl	hal_trace_print_var
 263 007a 4348     		ldr	r0, .L17+12
 264 007c FFF7FEFF 		bl	hal_trace_print_var
 265 0080 4248     		ldr	r0, .L17+16
 266 0082 FFF7FEFF 		bl	hal_trace_print_var
 267 0086 4048     		ldr	r0, .L17+12
 268 0088 FFF7FEFF 		bl	hal_trace_print_var
 269 008c FFF7FEFF 		bl	hal_mcu_reset
 270              	.L15:
 271 0090 0F22     		movs	r2, #15
 272 0092 0323     		movs	r3, #3
 273 0094 CDE90223 		strd	r2, [sp, #8]
 274 0098 0690     		str	r0, [sp, #24]
 275 009a 0022     		movs	r2, #0
 276 009c 0023     		movs	r3, #0
 277 009e 0421     		movs	r1, #4
 278 00a0 02A8     		add	r0, sp, #8
 279 00a2 CDE90423 		strd	r2, [sp, #16]
 280 00a6 FFF7FEFF 		bl	HAL_RCC_ClockConfig
 281 00aa 0028     		cmp	r0, #0
 282 00ac E1D1     		bne	.L16
 283 00ae 4FF48073 		mov	r3, #256
 284 00b2 3B93     		str	r3, [sp, #236]
 285 00b4 4FF44021 		mov	r1, #786432
 286 00b8 4FF44013 		mov	r3, #3145728
 287 00bc CDE93113 		strd	r1, r3, [sp, #196]
 288 00c0 334A     		ldr	r2, .L17+20
 289 00c2 2990     		str	r0, [sp, #164]
 290 00c4 4FF08063 		mov	r3, #67108864
 291 00c8 3793     		str	r3, [sp, #220]
 292 00ca 0223     		movs	r3, #2
 293 00cc CDE91A23 		strd	r2, [sp, #104]
 294 00d0 0122     		movs	r2, #1
 295 00d2 0C23     		movs	r3, #12
 296 00d4 CDE91C23 		strd	r2, [sp, #112]
 297 00d8 0722     		movs	r2, #7
 298 00da 0423     		movs	r3, #4
ARM GAS  /tmp/ccbltdli.s 			page 6


 299 00dc CDE91E23 		strd	r2, [sp, #120]
 300 00e0 1AA8     		add	r0, sp, #104
 301 00e2 0222     		movs	r2, #2
 302 00e4 4FF48013 		mov	r3, #1048576
 303 00e8 CDE92023 		strd	r2, [sp, #128]
 304 00ec FFF7FEFF 		bl	HAL_RCCEx_PeriphCLKConfig
 305 00f0 0446     		mov	r4, r0
 306 00f2 0028     		cmp	r0, #0
 307 00f4 BDD1     		bne	.L16
 308 00f6 AB6D     		ldr	r3, [r5, #88]
 309 00f8 43F08053 		orr	r3, r3, #268435456
 310 00fc AB65     		str	r3, [r5, #88]
 311 00fe AB6D     		ldr	r3, [r5, #88]
 312 0100 03F08053 		and	r3, r3, #268435456
 313 0104 0193     		str	r3, [sp, #4]
 314 0106 019B     		ldr	r3, [sp, #4]
 315 0108 AB68     		ldr	r3, [r5, #8]
 316 010a 43F40043 		orr	r3, r3, #32768
 317 010e AB60     		str	r3, [r5, #8]
 318 0110 FFF7FEFF 		bl	hal_watchdog_init
 319 0114 FFF7FEFF 		bl	uart2_init
 320 0118 0121     		movs	r1, #1
 321 011a 0820     		movs	r0, #8
 322 011c FFF7FEFF 		bl	hal_gpio_init_out
 323 0120 2346     		mov	r3, r4
 324 0122 2246     		mov	r2, r4
 325 0124 2146     		mov	r1, r4
 326 0126 1320     		movs	r0, #19
 327 0128 FFF7FEFF 		bl	hal_gpio_init_in
 328 012c 2346     		mov	r3, r4
 329 012e 0122     		movs	r2, #1
 330 0130 3146     		mov	r1, r6
 331 0132 1420     		movs	r0, #20
 332 0134 FFF7FEFF 		bl	hal_gpio_init_in
 333 0138 2046     		mov	r0, r4
 334 013a 0121     		movs	r1, #1
 335 013c FFF7FEFF 		bl	hal_gpio_init_out
 336 0140 2146     		mov	r1, r4
 337 0142 1020     		movs	r0, #16
 338 0144 FFF7FEFF 		bl	hal_gpio_init_out
 339 0148 2146     		mov	r1, r4
 340 014a 2120     		movs	r0, #33
 341 014c FFF7FEFF 		bl	hal_gpio_init_out
 342 0150 2146     		mov	r1, r4
 343 0152 2020     		movs	r0, #32
 344 0154 FFF7FEFF 		bl	hal_gpio_init_out
 345 0158 2146     		mov	r1, r4
 346 015a 1520     		movs	r0, #21
 347 015c FFF7FEFF 		bl	hal_gpio_init_out
 348 0160 2046     		mov	r0, r4
 349 0162 FFF7FEFF 		bl	hal_lp_timer_init
 350 0166 0523     		movs	r3, #5
 351 0168 0622     		movs	r2, #6
 352 016a 0721     		movs	r1, #7
 353 016c 0120     		movs	r0, #1
 354 016e FFF7FEFF 		bl	hal_spi_init
 355 0172 3CB0     		add	sp, sp, #240
ARM GAS  /tmp/ccbltdli.s 			page 7


 356              		@ sp needed
 357 0174 BDE87040 		pop	{r4, r5, r6, lr}
 358 0178 FFF7FEBF 		b	hal_rtc_init
 359              	.L18:
 360              		.align	2
 361              	.L17:
 362 017c 00100240 		.word	1073876992
 363 0180 00000000 		.word	.LANCHOR0
 364 0184 00000000 		.word	.LANCHOR1
 365 0188 1C000000 		.word	.LANCHOR1+28
 366 018c 21000000 		.word	.LANCHOR1+33
 367 0190 02060600 		.word	394754
 369              		.section	.text.hal_mcu_set_sleep_for_ms,"ax",%progbits
 370              		.align	1
 371              		.global	hal_mcu_set_sleep_for_ms
 372              		.syntax unified
 373              		.thumb
 374              		.thumb_func
 375              		.fpu fpv4-sp-d16
 377              	hal_mcu_set_sleep_for_ms:
 378              		@ args = 0, pretend = 0, frame = 96
 379              		@ frame_needed = 0, uses_anonymous_args = 0
 380 0000 10B5     		push	{r4, lr}
 381 0002 0028     		cmp	r0, #0
 382 0004 98B0     		sub	sp, sp, #96
 383 0006 57DD     		ble	.L19
 384 0008 FFF7FEFF 		bl	hal_rtc_wakeup_timer_set_ms
 385 000c FFF7FEFF 		bl	HAL_SuspendTick
 386 0010 0120     		movs	r0, #1
 387 0012 FFF7FEFF 		bl	hal_spi_de_init
 388 0016 FFF7FEFF 		bl	uart2_deinit
 389 001a 0120     		movs	r0, #1
 390 001c FFF7FEFF 		bl	HAL_PWREx_EnterSTOP2Mode
 391 0020 1422     		movs	r2, #20
 392 0022 0021     		movs	r1, #0
 393 0024 02A8     		add	r0, sp, #8
 394 0026 FFF7FEFF 		bl	memset
 395 002a 4422     		movs	r2, #68
 396 002c 0021     		movs	r1, #0
 397 002e 07A8     		add	r0, sp, #28
 398 0030 FFF7FEFF 		bl	memset
 399 0034 0024     		movs	r4, #0
 400 0036 214B     		ldr	r3, .L23
 401 0038 0094     		str	r4, [sp]
 402 003a 9A6D     		ldr	r2, [r3, #88]
 403 003c 42F08052 		orr	r2, r2, #268435456
 404 0040 9A65     		str	r2, [r3, #88]
 405 0042 9B6D     		ldr	r3, [r3, #88]
 406 0044 03F08053 		and	r3, r3, #268435456
 407 0048 0193     		str	r3, [sp, #4]
 408 004a 07A8     		add	r0, sp, #28
 409 004c 019B     		ldr	r3, [sp, #4]
 410 004e FFF7FEFF 		bl	HAL_RCC_GetOscConfig
 411 0052 0223     		movs	r3, #2
 412 0054 07A8     		add	r0, sp, #28
 413 0056 0794     		str	r4, [sp, #28]
 414 0058 1193     		str	r3, [sp, #68]
ARM GAS  /tmp/ccbltdli.s 			page 8


 415 005a FFF7FEFF 		bl	HAL_RCC_OscConfig
 416 005e 70B1     		cbz	r0, .L21
 417              	.L22:
 418 0060 1749     		ldr	r1, .L23+4
 419 0062 1848     		ldr	r0, .L23+8
 420 0064 FFF7FEFF 		bl	hal_trace_print_var
 421 0068 1748     		ldr	r0, .L23+12
 422 006a FFF7FEFF 		bl	hal_trace_print_var
 423 006e 1748     		ldr	r0, .L23+16
 424 0070 FFF7FEFF 		bl	hal_trace_print_var
 425 0074 1448     		ldr	r0, .L23+12
 426 0076 FFF7FEFF 		bl	hal_trace_print_var
 427 007a FFF7FEFF 		bl	hal_mcu_reset
 428              	.L21:
 429 007e 6946     		mov	r1, sp
 430 0080 02A8     		add	r0, sp, #8
 431 0082 FFF7FEFF 		bl	HAL_RCC_GetClockConfig
 432 0086 0122     		movs	r2, #1
 433 0088 0323     		movs	r3, #3
 434 008a 0099     		ldr	r1, [sp]
 435 008c 02A8     		add	r0, sp, #8
 436 008e CDE90223 		strd	r2, [sp, #8]
 437 0092 FFF7FEFF 		bl	HAL_RCC_ClockConfig
 438 0096 0028     		cmp	r0, #0
 439 0098 E2D1     		bne	.L22
 440 009a FFF7FEFF 		bl	uart2_init
 441 009e 0523     		movs	r3, #5
 442 00a0 0622     		movs	r2, #6
 443 00a2 0721     		movs	r1, #7
 444 00a4 0120     		movs	r0, #1
 445 00a6 FFF7FEFF 		bl	hal_spi_init
 446 00aa FFF7FEFF 		bl	HAL_ResumeTick
 447 00ae 18B0     		add	sp, sp, #96
 448              		@ sp needed
 449 00b0 BDE81040 		pop	{r4, lr}
 450 00b4 FFF7FEBF 		b	hal_rtc_wakeup_timer_stop
 451              	.L19:
 452 00b8 18B0     		add	sp, sp, #96
 453              		@ sp needed
 454 00ba 10BD     		pop	{r4, pc}
 455              	.L24:
 456              		.align	2
 457              	.L23:
 458 00bc 00100240 		.word	1073876992
 459 00c0 00000000 		.word	.LANCHOR2
 460 00c4 00000000 		.word	.LANCHOR1
 461 00c8 1C000000 		.word	.LANCHOR1+28
 462 00cc 21000000 		.word	.LANCHOR1+33
 464              		.section	.text.SysTick_Handler,"ax",%progbits
 465              		.align	1
 466              		.global	SysTick_Handler
 467              		.syntax unified
 468              		.thumb
 469              		.thumb_func
 470              		.fpu fpv4-sp-d16
 472              	SysTick_Handler:
 473              		@ args = 0, pretend = 0, frame = 0
ARM GAS  /tmp/ccbltdli.s 			page 9


 474              		@ frame_needed = 0, uses_anonymous_args = 0
 475 0000 08B5     		push	{r3, lr}
 476 0002 FFF7FEFF 		bl	HAL_IncTick
 477 0006 BDE80840 		pop	{r3, lr}
 478 000a FFF7FEBF 		b	HAL_SYSTICK_IRQHandler
 480              		.section	.text.HAL_MspInit,"ax",%progbits
 481              		.align	1
 482              		.global	HAL_MspInit
 483              		.syntax unified
 484              		.thumb
 485              		.thumb_func
 486              		.fpu fpv4-sp-d16
 488              	HAL_MspInit:
 489              		@ args = 0, pretend = 0, frame = 0
 490              		@ frame_needed = 0, uses_anonymous_args = 0
 491 0000 0022     		movs	r2, #0
 492 0002 08B5     		push	{r3, lr}
 493 0004 1146     		mov	r1, r2
 494 0006 6FF00B00 		mvn	r0, #11
 495 000a FFF7FEFF 		bl	HAL_NVIC_SetPriority
 496 000e 0022     		movs	r2, #0
 497 0010 1146     		mov	r1, r2
 498 0012 6FF00A00 		mvn	r0, #10
 499 0016 FFF7FEFF 		bl	HAL_NVIC_SetPriority
 500 001a 0022     		movs	r2, #0
 501 001c 1146     		mov	r1, r2
 502 001e 6FF00900 		mvn	r0, #9
 503 0022 FFF7FEFF 		bl	HAL_NVIC_SetPriority
 504 0026 0022     		movs	r2, #0
 505 0028 1146     		mov	r1, r2
 506 002a 6FF00400 		mvn	r0, #4
 507 002e FFF7FEFF 		bl	HAL_NVIC_SetPriority
 508 0032 0022     		movs	r2, #0
 509 0034 1146     		mov	r1, r2
 510 0036 6FF00300 		mvn	r0, #3
 511 003a FFF7FEFF 		bl	HAL_NVIC_SetPriority
 512 003e 0022     		movs	r2, #0
 513 0040 1146     		mov	r1, r2
 514 0042 6FF00100 		mvn	r0, #1
 515 0046 FFF7FEFF 		bl	HAL_NVIC_SetPriority
 516 004a 0022     		movs	r2, #0
 517 004c BDE80840 		pop	{r3, lr}
 518 0050 1146     		mov	r1, r2
 519 0052 4FF0FF30 		mov	r0, #-1
 520 0056 FFF7FEBF 		b	HAL_NVIC_SetPriority
 522              		.section	.text.HardFault_Handler,"ax",%progbits
 523              		.align	1
 524              		.global	HardFault_Handler
 525              		.syntax unified
 526              		.thumb
 527              		.thumb_func
 528              		.fpu fpv4-sp-d16
 530              	HardFault_Handler:
 531              		@ Volatile: function does not return.
 532              		@ args = 0, pretend = 0, frame = 0
 533              		@ frame_needed = 0, uses_anonymous_args = 0
 534 0000 08B5     		push	{r3, lr}
ARM GAS  /tmp/ccbltdli.s 			page 10


 535 0002 0948     		ldr	r0, .L29
 536 0004 FFF7FEFF 		bl	hal_trace_print_var
 537 0008 0848     		ldr	r0, .L29+4
 538 000a FFF7FEFF 		bl	hal_trace_print_var
 539 000e 0848     		ldr	r0, .L29+8
 540 0010 FFF7FEFF 		bl	hal_trace_print_var
 541 0014 0548     		ldr	r0, .L29+4
 542 0016 FFF7FEFF 		bl	hal_trace_print_var
 543 001a 0648     		ldr	r0, .L29+12
 544 001c FFF7FEFF 		bl	hal_trace_print_var
 545 0020 0248     		ldr	r0, .L29+4
 546 0022 FFF7FEFF 		bl	hal_trace_print_var
 547              	.L28:
 548 0026 FEE7     		b	.L28
 549              	.L30:
 550              		.align	2
 551              	.L29:
 552 0028 33000000 		.word	.LANCHOR1+51
 553 002c 1C000000 		.word	.LANCHOR1+28
 554 0030 49000000 		.word	.LANCHOR1+73
 555 0034 6A000000 		.word	.LANCHOR1+106
 557              		.section	.rodata
 558              		.set	.LANCHOR1,. + 0
 559              	.LC0:
 560 0000 1B5B303B 		.ascii	"\033[0;31mERROR: mcu_panic:%s\012\000"
 560      33316D45 
 560      52524F52 
 560      3A206D63 
 560      755F7061 
 561              	.LC1:
 562 001c 1B5B306D 		.ascii	"\033[0m\000"
 562      00
 563              	.LC2:
 564 0021 1B5B303B 		.ascii	"\033[0;31mERROR: -> \000"
 564      33316D45 
 564      52524F52 
 564      3A202D3E 
 564      2000
 565              	.LC3:
 566 0033 1B5B303B 		.ascii	"\033[0;31mERROR: \033[0;31m\000"
 566      33316D45 
 566      52524F52 
 566      3A201B5B 
 566      303B3331 
 567              	.LC4:
 568 0049 1B5B303B 		.ascii	"\033[0;31mERROR: HARDFAULT_Handler\012\000"
 568      33316D45 
 568      52524F52 
 568      3A204841 
 568      52444641 
 569              	.LC5:
 570 006a 1B5B303B 		.ascii	"\033[0;31mERROR: \033[0m\000"
 570      33316D45 
 570      52524F52 
 570      3A201B5B 
 570      306D00
 571              		.section	.rodata.__func__.0,"a"
ARM GAS  /tmp/ccbltdli.s 			page 11


 572              		.set	.LANCHOR2,. + 0
 575              	__func__.0:
 576 0000 6C706D5F 		.ascii	"lpm_mcu_reinit\000"
 576      6D63755F 
 576      7265696E 
 576      697400
 577              		.section	.rodata.__func__.1,"a"
 578              		.set	.LANCHOR0,. + 0
 581              	__func__.1:
 582 0000 73797374 		.ascii	"system_clock_config\000"
 582      656D5F63 
 582      6C6F636B 
 582      5F636F6E 
 582      66696700 
 583              		.ident	"GCC: (15:10.3-2021.07-4) 10.3.1 20210621 (release)"
ARM GAS  /tmp/ccbltdli.s 			page 12

