ARM GAS  /tmp/cci9a6sN.s 			page 1


   1              		.cpu cortex-m4
   2              		.eabi_attribute 27, 1
   3              		.eabi_attribute 28, 1
   4              		.eabi_attribute 23, 1
   5              		.eabi_attribute 24, 1
   6              		.eabi_attribute 25, 1
   7              		.eabi_attribute 26, 1
   8              		.eabi_attribute 30, 4
   9              		.eabi_attribute 34, 1
  10              		.eabi_attribute 18, 4
  11              		.file	"smtc_modem_hal.c"
  12              		.text
  13              		.section	.text.smtc_modem_hal_reset_mcu,"ax",%progbits
  14              		.align	1
  15              		.global	smtc_modem_hal_reset_mcu
  16              		.arch armv7e-m
  17              		.syntax unified
  18              		.thumb
  19              		.thumb_func
  20              		.fpu fpv4-sp-d16
  22              	smtc_modem_hal_reset_mcu:
  23              		@ args = 0, pretend = 0, frame = 0
  24              		@ frame_needed = 0, uses_anonymous_args = 0
  25              		@ link register save eliminated.
  26 0000 FFF7FEBF 		b	hal_mcu_reset
  28              		.section	.text.smtc_modem_hal_reload_wdog,"ax",%progbits
  29              		.align	1
  30              		.global	smtc_modem_hal_reload_wdog
  31              		.syntax unified
  32              		.thumb
  33              		.thumb_func
  34              		.fpu fpv4-sp-d16
  36              	smtc_modem_hal_reload_wdog:
  37              		@ args = 0, pretend = 0, frame = 0
  38              		@ frame_needed = 0, uses_anonymous_args = 0
  39              		@ link register save eliminated.
  40 0000 FFF7FEBF 		b	hal_watchdog_reload
  42              		.section	.text.smtc_modem_hal_get_time_in_s,"ax",%progbits
  43              		.align	1
  44              		.global	smtc_modem_hal_get_time_in_s
  45              		.syntax unified
  46              		.thumb
  47              		.thumb_func
  48              		.fpu fpv4-sp-d16
  50              	smtc_modem_hal_get_time_in_s:
  51              		@ args = 0, pretend = 0, frame = 0
  52              		@ frame_needed = 0, uses_anonymous_args = 0
  53              		@ link register save eliminated.
  54 0000 FFF7FEBF 		b	hal_rtc_get_time_s
  56              		.section	.text.smtc_modem_hal_get_time_in_ms,"ax",%progbits
  57              		.align	1
  58              		.global	smtc_modem_hal_get_time_in_ms
  59              		.syntax unified
  60              		.thumb
  61              		.thumb_func
  62              		.fpu fpv4-sp-d16
  64              	smtc_modem_hal_get_time_in_ms:
ARM GAS  /tmp/cci9a6sN.s 			page 2


  65              		@ args = 0, pretend = 0, frame = 0
  66              		@ frame_needed = 0, uses_anonymous_args = 0
  67              		@ link register save eliminated.
  68 0000 FFF7FEBF 		b	hal_rtc_get_time_ms
  70              		.section	.text.smtc_modem_hal_start_timer,"ax",%progbits
  71              		.align	1
  72              		.global	smtc_modem_hal_start_timer
  73              		.syntax unified
  74              		.thumb
  75              		.thumb_func
  76              		.fpu fpv4-sp-d16
  78              	smtc_modem_hal_start_timer:
  79              		@ args = 0, pretend = 0, frame = 8
  80              		@ frame_needed = 0, uses_anonymous_args = 0
  81 0000 07B5     		push	{r0, r1, r2, lr}
  82 0002 CDE90021 		strd	r2, r1, [sp]
  83 0006 0146     		mov	r1, r0
  84 0008 6A46     		mov	r2, sp
  85 000a 0020     		movs	r0, #0
  86 000c FFF7FEFF 		bl	hal_lp_timer_start
  87 0010 03B0     		add	sp, sp, #12
  88              		@ sp needed
  89 0012 5DF804FB 		ldr	pc, [sp], #4
  91              		.section	.text.smtc_modem_hal_stop_timer,"ax",%progbits
  92              		.align	1
  93              		.global	smtc_modem_hal_stop_timer
  94              		.syntax unified
  95              		.thumb
  96              		.thumb_func
  97              		.fpu fpv4-sp-d16
  99              	smtc_modem_hal_stop_timer:
 100              		@ args = 0, pretend = 0, frame = 0
 101              		@ frame_needed = 0, uses_anonymous_args = 0
 102              		@ link register save eliminated.
 103 0000 0020     		movs	r0, #0
 104 0002 FFF7FEBF 		b	hal_lp_timer_stop
 106              		.section	.text.smtc_modem_hal_disable_modem_irq,"ax",%progbits
 107              		.align	1
 108              		.global	smtc_modem_hal_disable_modem_irq
 109              		.syntax unified
 110              		.thumb
 111              		.thumb_func
 112              		.fpu fpv4-sp-d16
 114              	smtc_modem_hal_disable_modem_irq:
 115              		@ args = 0, pretend = 0, frame = 0
 116              		@ frame_needed = 0, uses_anonymous_args = 0
 117 0000 08B5     		push	{r3, lr}
 118 0002 FFF7FEFF 		bl	hal_gpio_irq_disable
 119 0006 BDE80840 		pop	{r3, lr}
 120 000a 0020     		movs	r0, #0
 121 000c FFF7FEBF 		b	hal_lp_timer_irq_disable
 123              		.section	.text.smtc_modem_hal_enable_modem_irq,"ax",%progbits
 124              		.align	1
 125              		.global	smtc_modem_hal_enable_modem_irq
 126              		.syntax unified
 127              		.thumb
 128              		.thumb_func
ARM GAS  /tmp/cci9a6sN.s 			page 3


 129              		.fpu fpv4-sp-d16
 131              	smtc_modem_hal_enable_modem_irq:
 132              		@ args = 0, pretend = 0, frame = 0
 133              		@ frame_needed = 0, uses_anonymous_args = 0
 134 0000 08B5     		push	{r3, lr}
 135 0002 FFF7FEFF 		bl	hal_gpio_irq_enable
 136 0006 BDE80840 		pop	{r3, lr}
 137 000a 0020     		movs	r0, #0
 138 000c FFF7FEBF 		b	hal_lp_timer_irq_enable
 140              		.section	.rodata.smtc_modem_hal_context_restore.str1.1,"aMS",%progbits,1
 141              	.LC0:
 142 0000 1B5B303B 		.ascii	"\033[0;31mERROR: mcu_panic:%s\012\000"
 142      33316D45 
 142      52524F52 
 142      3A206D63 
 142      755F7061 
 143              	.LC1:
 144 001c 1B5B306D 		.ascii	"\033[0m\000"
 144      00
 145              	.LC2:
 146 0021 1B5B303B 		.ascii	"\033[0;31mERROR: -> \000"
 146      33316D45 
 146      52524F52 
 146      3A202D3E 
 146      2000
 147              		.section	.text.smtc_modem_hal_context_restore,"ax",%progbits
 148              		.align	1
 149              		.global	smtc_modem_hal_context_restore
 150              		.syntax unified
 151              		.thumb
 152              		.thumb_func
 153              		.fpu fpv4-sp-d16
 155              	smtc_modem_hal_context_restore:
 156              		@ args = 0, pretend = 0, frame = 0
 157              		@ frame_needed = 0, uses_anonymous_args = 0
 158 0000 10B5     		push	{r4, lr}
 159 0002 0C46     		mov	r4, r1
 160 0004 1146     		mov	r1, r2
 161 0006 1A46     		mov	r2, r3
 162 0008 0528     		cmp	r0, #5
 163 000a 1CD8     		bhi	.L10
 164 000c DFE800F0 		tbb	[pc, r0]
 165              	.L12:
 166 0010 03       		.byte	(.L17-.L12)/2
 167 0011 08       		.byte	(.L16-.L12)/2
 168 0012 0A       		.byte	(.L15-.L12)/2
 169 0013 0F       		.byte	(.L14-.L12)/2
 170 0014 14       		.byte	(.L13-.L12)/2
 171 0015 16       		.byte	(.L11-.L12)/2
 172              		.p2align 1
 173              	.L17:
 174 0016 1448     		ldr	r0, .L19
 175              	.L18:
 176 0018 BDE81040 		pop	{r4, lr}
 177 001c FFF7FEBF 		b	hal_flash_read_buffer
 178              	.L16:
 179 0020 1248     		ldr	r0, .L19+4
ARM GAS  /tmp/cci9a6sN.s 			page 4


 180 0022 F9E7     		b	.L18
 181              	.L15:
 182 0024 04F10060 		add	r0, r4, #134217728
 183 0028 00F5FE20 		add	r0, r0, #520192
 184 002c F4E7     		b	.L18
 185              	.L14:
 186 002e 04F10060 		add	r0, r4, #134217728
 187 0032 00F59620 		add	r0, r0, #307200
 188 0036 EFE7     		b	.L18
 189              	.L13:
 190 0038 0D48     		ldr	r0, .L19+8
 191 003a EDE7     		b	.L18
 192              	.L11:
 193 003c 04F10060 		add	r0, r4, #134217728
 194 0040 00F5C820 		add	r0, r0, #409600
 195 0044 E8E7     		b	.L18
 196              	.L10:
 197 0046 0B49     		ldr	r1, .L19+12
 198 0048 0B48     		ldr	r0, .L19+16
 199 004a FFF7FEFF 		bl	hal_trace_print_var
 200 004e 0B48     		ldr	r0, .L19+20
 201 0050 FFF7FEFF 		bl	hal_trace_print_var
 202 0054 0A48     		ldr	r0, .L19+24
 203 0056 FFF7FEFF 		bl	hal_trace_print_var
 204 005a 0848     		ldr	r0, .L19+20
 205 005c FFF7FEFF 		bl	hal_trace_print_var
 206 0060 BDE81040 		pop	{r4, lr}
 207 0064 FFF7FEBF 		b	hal_mcu_reset
 208              	.L20:
 209              		.align	2
 210              	.L19:
 211 0068 00F80708 		.word	134739968
 212 006c 00E80708 		.word	134735872
 213 0070 00E00708 		.word	134733824
 214 0074 00000000 		.word	.LANCHOR0
 215 0078 00000000 		.word	.LC0
 216 007c 1C000000 		.word	.LC1
 217 0080 21000000 		.word	.LC2
 219              		.section	.text.smtc_modem_hal_context_store,"ax",%progbits
 220              		.align	1
 221              		.global	smtc_modem_hal_context_store
 222              		.syntax unified
 223              		.thumb
 224              		.thumb_func
 225              		.fpu fpv4-sp-d16
 227              	smtc_modem_hal_context_store:
 228              		@ args = 0, pretend = 0, frame = 8
 229              		@ frame_needed = 0, uses_anonymous_args = 0
 230 0000 37B5     		push	{r0, r1, r2, r4, r5, lr}
 231 0002 1446     		mov	r4, r2
 232 0004 0D46     		mov	r5, r1
 233 0006 1A46     		mov	r2, r3
 234 0008 0528     		cmp	r0, #5
 235 000a 32D8     		bhi	.L22
 236 000c DFE800F0 		tbb	[pc, r0]
 237              	.L24:
 238 0010 03       		.byte	(.L29-.L24)/2
ARM GAS  /tmp/cci9a6sN.s 			page 5


 239 0011 10       		.byte	(.L28-.L24)/2
 240 0012 19       		.byte	(.L27-.L24)/2
 241 0013 43       		.byte	(.L21-.L24)/2
 242 0014 22       		.byte	(.L25-.L24)/2
 243 0015 2B       		.byte	(.L23-.L24)/2
 244              		.p2align 1
 245              	.L29:
 246 0016 0121     		movs	r1, #1
 247 0018 2048     		ldr	r0, .L31
 248 001a 0192     		str	r2, [sp, #4]
 249 001c FFF7FEFF 		bl	hal_flash_erase_page
 250 0020 019A     		ldr	r2, [sp, #4]
 251 0022 1E48     		ldr	r0, .L31
 252 0024 2146     		mov	r1, r4
 253              	.L30:
 254 0026 03B0     		add	sp, sp, #12
 255              		@ sp needed
 256 0028 BDE83040 		pop	{r4, r5, lr}
 257 002c FFF7FEBF 		b	hal_flash_write_buffer
 258              	.L28:
 259 0030 0121     		movs	r1, #1
 260 0032 1B48     		ldr	r0, .L31+4
 261 0034 0192     		str	r2, [sp, #4]
 262 0036 FFF7FEFF 		bl	hal_flash_erase_page
 263 003a 019A     		ldr	r2, [sp, #4]
 264 003c 1848     		ldr	r0, .L31+4
 265 003e 2146     		mov	r1, r4
 266 0040 F1E7     		b	.L30
 267              	.L27:
 268 0042 0121     		movs	r1, #1
 269 0044 1748     		ldr	r0, .L31+8
 270 0046 0192     		str	r2, [sp, #4]
 271 0048 FFF7FEFF 		bl	hal_flash_erase_page
 272 004c 019A     		ldr	r2, [sp, #4]
 273 004e 1548     		ldr	r0, .L31+8
 274 0050 2146     		mov	r1, r4
 275 0052 E8E7     		b	.L30
 276              	.L25:
 277 0054 0121     		movs	r1, #1
 278 0056 1448     		ldr	r0, .L31+12
 279 0058 0192     		str	r2, [sp, #4]
 280 005a FFF7FEFF 		bl	hal_flash_erase_page
 281 005e 019A     		ldr	r2, [sp, #4]
 282 0060 1148     		ldr	r0, .L31+12
 283 0062 2146     		mov	r1, r4
 284 0064 DFE7     		b	.L30
 285              	.L23:
 286 0066 05F10060 		add	r0, r5, #134217728
 287 006a 2146     		mov	r1, r4
 288 006c 00F5C820 		add	r0, r0, #409600
 289 0070 D9E7     		b	.L30
 290              	.L22:
 291 0072 0E49     		ldr	r1, .L31+16
 292 0074 0E48     		ldr	r0, .L31+20
 293 0076 FFF7FEFF 		bl	hal_trace_print_var
 294 007a 0E48     		ldr	r0, .L31+24
 295 007c FFF7FEFF 		bl	hal_trace_print_var
ARM GAS  /tmp/cci9a6sN.s 			page 6


 296 0080 0D48     		ldr	r0, .L31+28
 297 0082 FFF7FEFF 		bl	hal_trace_print_var
 298 0086 0B48     		ldr	r0, .L31+24
 299 0088 FFF7FEFF 		bl	hal_trace_print_var
 300 008c 03B0     		add	sp, sp, #12
 301              		@ sp needed
 302 008e BDE83040 		pop	{r4, r5, lr}
 303 0092 FFF7FEBF 		b	hal_mcu_reset
 304              	.L21:
 305 0096 03B0     		add	sp, sp, #12
 306              		@ sp needed
 307 0098 30BD     		pop	{r4, r5, pc}
 308              	.L32:
 309 009a 00BF     		.align	2
 310              	.L31:
 311 009c 00F80708 		.word	134739968
 312 00a0 00E80708 		.word	134735872
 313 00a4 00F00708 		.word	134737920
 314 00a8 00E00708 		.word	134733824
 315 00ac 00000000 		.word	.LANCHOR1
 316 00b0 00000000 		.word	.LC0
 317 00b4 1C000000 		.word	.LC1
 318 00b8 21000000 		.word	.LC2
 320              		.section	.text.smtc_modem_hal_context_flash_pages_erase,"ax",%progbits
 321              		.align	1
 322              		.global	smtc_modem_hal_context_flash_pages_erase
 323              		.syntax unified
 324              		.thumb
 325              		.thumb_func
 326              		.fpu fpv4-sp-d16
 328              	smtc_modem_hal_context_flash_pages_erase:
 329              		@ args = 0, pretend = 0, frame = 0
 330              		@ frame_needed = 0, uses_anonymous_args = 0
 331 0000 0528     		cmp	r0, #5
 332 0002 08B5     		push	{r3, lr}
 333 0004 0B46     		mov	r3, r1
 334 0006 1146     		mov	r1, r2
 335 0008 07D1     		bne	.L34
 336 000a 03F10060 		add	r0, r3, #134217728
 337 000e 00F5C820 		add	r0, r0, #409600
 338 0012 BDE80840 		pop	{r3, lr}
 339 0016 FFF7FEBF 		b	hal_flash_erase_page
 340              	.L34:
 341 001a 0849     		ldr	r1, .L35
 342 001c 0848     		ldr	r0, .L35+4
 343 001e FFF7FEFF 		bl	hal_trace_print_var
 344 0022 0848     		ldr	r0, .L35+8
 345 0024 FFF7FEFF 		bl	hal_trace_print_var
 346 0028 0748     		ldr	r0, .L35+12
 347 002a FFF7FEFF 		bl	hal_trace_print_var
 348 002e 0548     		ldr	r0, .L35+8
 349 0030 FFF7FEFF 		bl	hal_trace_print_var
 350 0034 BDE80840 		pop	{r3, lr}
 351 0038 FFF7FEBF 		b	hal_mcu_reset
 352              	.L36:
 353              		.align	2
 354              	.L35:
ARM GAS  /tmp/cci9a6sN.s 			page 7


 355 003c 00000000 		.word	.LANCHOR2
 356 0040 00000000 		.word	.LC0
 357 0044 1C000000 		.word	.LC1
 358 0048 21000000 		.word	.LC2
 360              		.section	.text.smtc_modem_hal_crashlog_store,"ax",%progbits
 361              		.align	1
 362              		.global	smtc_modem_hal_crashlog_store
 363              		.syntax unified
 364              		.thumb
 365              		.thumb_func
 366              		.fpu fpv4-sp-d16
 368              	smtc_modem_hal_crashlog_store:
 369              		@ args = 0, pretend = 0, frame = 0
 370              		@ frame_needed = 0, uses_anonymous_args = 0
 371 0000 10B5     		push	{r4, lr}
 372 0002 084C     		ldr	r4, .L38
 373 0004 F229     		cmp	r1, #242
 374 0006 2346     		mov	r3, r4
 375 0008 28BF     		it	cs
 376 000a F221     		movcs	r1, #242
 377 000c 2170     		strb	r1, [r4]
 378 000e 13F8012B 		ldrb	r2, [r3], #1	@ zero_extendqisi2
 379 0012 0146     		mov	r1, r0
 380 0014 1846     		mov	r0, r3
 381 0016 FFF7FEFF 		bl	memcpy
 382 001a 0123     		movs	r3, #1
 383 001c 84F8F330 		strb	r3, [r4, #243]
 384 0020 10BD     		pop	{r4, pc}
 385              	.L39:
 386 0022 00BF     		.align	2
 387              	.L38:
 388 0024 00000000 		.word	.LANCHOR3
 390              		.section	.text.smtc_modem_hal_crashlog_restore,"ax",%progbits
 391              		.align	1
 392              		.global	smtc_modem_hal_crashlog_restore
 393              		.syntax unified
 394              		.thumb
 395              		.thumb_func
 396              		.fpu fpv4-sp-d16
 398              	smtc_modem_hal_crashlog_restore:
 399              		@ args = 0, pretend = 0, frame = 0
 400              		@ frame_needed = 0, uses_anonymous_args = 0
 401              		@ link register save eliminated.
 402 0000 054B     		ldr	r3, .L43
 403 0002 1A78     		ldrb	r2, [r3]	@ zero_extendqisi2
 404 0004 F22A     		cmp	r2, #242
 405 0006 96BF     		itet	ls
 406 0008 1A78     		ldrbls	r2, [r3]	@ zero_extendqisi2
 407 000a F222     		movhi	r2, #242
 408 000c D2B2     		uxtbls	r2, r2
 409 000e 0A70     		strb	r2, [r1]
 410 0010 0249     		ldr	r1, .L43+4
 411 0012 FFF7FEBF 		b	memcpy
 412              	.L44:
 413 0016 00BF     		.align	2
 414              	.L43:
 415 0018 00000000 		.word	.LANCHOR3
ARM GAS  /tmp/cci9a6sN.s 			page 8


 416 001c 01000000 		.word	.LANCHOR3+1
 418              		.section	.text.smtc_modem_hal_crashlog_set_status,"ax",%progbits
 419              		.align	1
 420              		.global	smtc_modem_hal_crashlog_set_status
 421              		.syntax unified
 422              		.thumb
 423              		.thumb_func
 424              		.fpu fpv4-sp-d16
 426              	smtc_modem_hal_crashlog_set_status:
 427              		@ args = 0, pretend = 0, frame = 0
 428              		@ frame_needed = 0, uses_anonymous_args = 0
 429              		@ link register save eliminated.
 430 0000 014B     		ldr	r3, .L46
 431 0002 83F8F300 		strb	r0, [r3, #243]
 432 0006 7047     		bx	lr
 433              	.L47:
 434              		.align	2
 435              	.L46:
 436 0008 00000000 		.word	.LANCHOR3
 438              		.section	.text.smtc_modem_hal_crashlog_get_status,"ax",%progbits
 439              		.align	1
 440              		.global	smtc_modem_hal_crashlog_get_status
 441              		.syntax unified
 442              		.thumb
 443              		.thumb_func
 444              		.fpu fpv4-sp-d16
 446              	smtc_modem_hal_crashlog_get_status:
 447              		@ args = 0, pretend = 0, frame = 0
 448              		@ frame_needed = 0, uses_anonymous_args = 0
 449              		@ link register save eliminated.
 450 0000 014B     		ldr	r3, .L49
 451 0002 93F8F300 		ldrb	r0, [r3, #243]	@ zero_extendqisi2
 452 0006 7047     		bx	lr
 453              	.L50:
 454              		.align	2
 455              	.L49:
 456 0008 00000000 		.word	.LANCHOR3
 458              		.section	.rodata.smtc_modem_hal_on_panic.str1.1,"aMS",%progbits,1
 459              	.LC3:
 460 0000 25733A25 		.ascii	"%s:%lu \000"
 460      6C752000 
 461              	.LC4:
 462 0008 1B5B303B 		.ascii	"\033[0;31mERROR: Modem panic: %s\012\000"
 462      33316D45 
 462      52524F52 
 462      3A204D6F 
 462      64656D20 
 463              		.section	.text.smtc_modem_hal_on_panic,"ax",%progbits
 464              		.align	1
 465              		.global	smtc_modem_hal_on_panic
 466              		.syntax unified
 467              		.thumb
 468              		.thumb_func
 469              		.fpu fpv4-sp-d16
 471              	smtc_modem_hal_on_panic:
 472              		@ args = 4, pretend = 8, frame = 272
 473              		@ frame_needed = 0, uses_anonymous_args = 1
ARM GAS  /tmp/cci9a6sN.s 			page 9


 474 0000 0CB4     		push	{r2, r3}
 475 0002 70B5     		push	{r4, r5, r6, lr}
 476 0004 C6B0     		sub	sp, sp, #280
 477 0006 4AAC     		add	r4, sp, #296
 478 0008 0390     		str	r0, [sp, #12]
 479 000a 0D46     		mov	r5, r1
 480 000c FB22     		movs	r2, #251
 481 000e 0021     		movs	r1, #0
 482 0010 07A8     		add	r0, sp, #28
 483 0012 54F8046B 		ldr	r6, [r4], #4
 484 0016 0691     		str	r1, [sp, #24]
 485 0018 FFF7FEFF 		bl	memset
 486 001c 039B     		ldr	r3, [sp, #12]
 487 001e 0095     		str	r5, [sp]
 488 0020 104A     		ldr	r2, .L52
 489 0022 FF21     		movs	r1, #255
 490 0024 06A8     		add	r0, sp, #24
 491 0026 FFF7FEFF 		bl	snprintf
 492 002a 06AB     		add	r3, sp, #24
 493 002c 2246     		mov	r2, r4
 494 002e C5B2     		uxtb	r5, r0
 495 0030 3146     		mov	r1, r6
 496 0032 53FA80F0 		uxtab	r0, r3, r0
 497 0036 0594     		str	r4, [sp, #20]
 498 0038 FFF7FEFF 		bl	vsprintf
 499 003c 2844     		add	r0, r0, r5
 500 003e C1B2     		uxtb	r1, r0
 501 0040 06A8     		add	r0, sp, #24
 502 0042 FFF7FEFF 		bl	smtc_modem_hal_crashlog_store
 503 0046 06A9     		add	r1, sp, #24
 504 0048 0748     		ldr	r0, .L52+4
 505 004a FFF7FEFF 		bl	hal_trace_print_var
 506 004e 0748     		ldr	r0, .L52+8
 507 0050 FFF7FEFF 		bl	hal_trace_print_var
 508 0054 FFF7FEFF 		bl	hal_mcu_reset
 509 0058 46B0     		add	sp, sp, #280
 510              		@ sp needed
 511 005a BDE87040 		pop	{r4, r5, r6, lr}
 512 005e 02B0     		add	sp, sp, #8
 513 0060 7047     		bx	lr
 514              	.L53:
 515 0062 00BF     		.align	2
 516              	.L52:
 517 0064 00000000 		.word	.LC3
 518 0068 08000000 		.word	.LC4
 519 006c 1C000000 		.word	.LC1
 521              		.section	.text.smtc_modem_hal_get_random_nb_in_range,"ax",%progbits
 522              		.align	1
 523              		.global	smtc_modem_hal_get_random_nb_in_range
 524              		.syntax unified
 525              		.thumb
 526              		.thumb_func
 527              		.fpu fpv4-sp-d16
 529              	smtc_modem_hal_get_random_nb_in_range:
 530              		@ args = 0, pretend = 0, frame = 0
 531              		@ frame_needed = 0, uses_anonymous_args = 0
 532              		@ link register save eliminated.
ARM GAS  /tmp/cci9a6sN.s 			page 10


 533 0000 FFF7FEBF 		b	hal_rng_get_random_in_range
 535              		.section	.text.smtc_modem_hal_irq_config_radio_irq,"ax",%progbits
 536              		.align	1
 537              		.global	smtc_modem_hal_irq_config_radio_irq
 538              		.syntax unified
 539              		.thumb
 540              		.thumb_func
 541              		.fpu fpv4-sp-d16
 543              	smtc_modem_hal_irq_config_radio_irq:
 544              		@ args = 0, pretend = 0, frame = 0
 545              		@ frame_needed = 0, uses_anonymous_args = 0
 546              		@ link register save eliminated.
 547 0000 034B     		ldr	r3, .L56
 548 0002 1422     		movs	r2, #20
 549 0004 C3E90110 		strd	r1, r0, [r3, #4]
 550 0008 1846     		mov	r0, r3
 551 000a 1A70     		strb	r2, [r3]
 552 000c FFF7FEBF 		b	hal_gpio_irq_attach
 553              	.L57:
 554              		.align	2
 555              	.L56:
 556 0010 00000000 		.word	.LANCHOR4
 558              		.section	.text.smtc_modem_hal_radio_irq_clear_pending,"ax",%progbits
 559              		.align	1
 560              		.global	smtc_modem_hal_radio_irq_clear_pending
 561              		.syntax unified
 562              		.thumb
 563              		.thumb_func
 564              		.fpu fpv4-sp-d16
 566              	smtc_modem_hal_radio_irq_clear_pending:
 567              		@ args = 0, pretend = 0, frame = 0
 568              		@ frame_needed = 0, uses_anonymous_args = 0
 569              		@ link register save eliminated.
 570 0000 1420     		movs	r0, #20
 571 0002 FFF7FEBF 		b	hal_gpio_clear_pending_irq
 573              		.section	.text.smtc_modem_hal_start_radio_tcxo,"ax",%progbits
 574              		.align	1
 575              		.global	smtc_modem_hal_start_radio_tcxo
 576              		.syntax unified
 577              		.thumb
 578              		.thumb_func
 579              		.fpu fpv4-sp-d16
 581              	smtc_modem_hal_start_radio_tcxo:
 582              		@ args = 0, pretend = 0, frame = 0
 583              		@ frame_needed = 0, uses_anonymous_args = 0
 584              		@ link register save eliminated.
 585 0000 7047     		bx	lr
 587              		.section	.text.smtc_modem_hal_stop_radio_tcxo,"ax",%progbits
 588              		.align	1
 589              		.global	smtc_modem_hal_stop_radio_tcxo
 590              		.syntax unified
 591              		.thumb
 592              		.thumb_func
 593              		.fpu fpv4-sp-d16
 595              	smtc_modem_hal_stop_radio_tcxo:
 596              		@ args = 0, pretend = 0, frame = 0
 597              		@ frame_needed = 0, uses_anonymous_args = 0
ARM GAS  /tmp/cci9a6sN.s 			page 11


 598              		@ link register save eliminated.
 599 0000 7047     		bx	lr
 601              		.section	.text.smtc_modem_hal_get_radio_tcxo_startup_delay_ms,"ax",%progbits
 602              		.align	1
 603              		.global	smtc_modem_hal_get_radio_tcxo_startup_delay_ms
 604              		.syntax unified
 605              		.thumb
 606              		.thumb_func
 607              		.fpu fpv4-sp-d16
 609              	smtc_modem_hal_get_radio_tcxo_startup_delay_ms:
 610              		@ args = 0, pretend = 0, frame = 0
 611              		@ frame_needed = 0, uses_anonymous_args = 0
 612              		@ link register save eliminated.
 613 0000 0520     		movs	r0, #5
 614 0002 7047     		bx	lr
 616              		.section	.text.smtc_modem_hal_set_ant_switch,"ax",%progbits
 617              		.align	1
 618              		.global	smtc_modem_hal_set_ant_switch
 619              		.syntax unified
 620              		.thumb
 621              		.thumb_func
 622              		.fpu fpv4-sp-d16
 624              	smtc_modem_hal_set_ant_switch:
 625              		@ args = 0, pretend = 0, frame = 0
 626              		@ frame_needed = 0, uses_anonymous_args = 0
 627              		@ link register save eliminated.
 628 0000 7047     		bx	lr
 630              		.section	.text.smtc_modem_hal_get_battery_level,"ax",%progbits
 631              		.align	1
 632              		.global	smtc_modem_hal_get_battery_level
 633              		.syntax unified
 634              		.thumb
 635              		.thumb_func
 636              		.fpu fpv4-sp-d16
 638              	smtc_modem_hal_get_battery_level:
 639              		@ args = 0, pretend = 0, frame = 0
 640              		@ frame_needed = 0, uses_anonymous_args = 0
 641              		@ link register save eliminated.
 642 0000 FF20     		movs	r0, #255
 643 0002 7047     		bx	lr
 645              		.section	.text.smtc_modem_hal_get_board_delay_ms,"ax",%progbits
 646              		.align	1
 647              		.global	smtc_modem_hal_get_board_delay_ms
 648              		.syntax unified
 649              		.thumb
 650              		.thumb_func
 651              		.fpu fpv4-sp-d16
 653              	smtc_modem_hal_get_board_delay_ms:
 654              		@ args = 0, pretend = 0, frame = 0
 655              		@ frame_needed = 0, uses_anonymous_args = 0
 656              		@ link register save eliminated.
 657 0000 0120     		movs	r0, #1
 658 0002 7047     		bx	lr
 660              		.section	.text.smtc_modem_hal_print_trace,"ax",%progbits
 661              		.align	1
 662              		.global	smtc_modem_hal_print_trace
 663              		.syntax unified
ARM GAS  /tmp/cci9a6sN.s 			page 12


 664              		.thumb
 665              		.thumb_func
 666              		.fpu fpv4-sp-d16
 668              	smtc_modem_hal_print_trace:
 669              		@ args = 4, pretend = 16, frame = 8
 670              		@ frame_needed = 0, uses_anonymous_args = 1
 671 0000 0FB4     		push	{r0, r1, r2, r3}
 672 0002 07B5     		push	{r0, r1, r2, lr}
 673 0004 04A9     		add	r1, sp, #16
 674 0006 51F8040B 		ldr	r0, [r1], #4
 675 000a 0191     		str	r1, [sp, #4]
 676 000c FFF7FEFF 		bl	hal_trace_print
 677 0010 03B0     		add	sp, sp, #12
 678              		@ sp needed
 679 0012 5DF804EB 		ldr	lr, [sp], #4
 680 0016 04B0     		add	sp, sp, #16
 681 0018 7047     		bx	lr
 683              		.section	.text.smtc_modem_hal_get_temperature,"ax",%progbits
 684              		.align	1
 685              		.global	smtc_modem_hal_get_temperature
 686              		.syntax unified
 687              		.thumb
 688              		.thumb_func
 689              		.fpu fpv4-sp-d16
 691              	smtc_modem_hal_get_temperature:
 692              		@ args = 0, pretend = 0, frame = 0
 693              		@ frame_needed = 0, uses_anonymous_args = 0
 694              		@ link register save eliminated.
 695 0000 1920     		movs	r0, #25
 696 0002 7047     		bx	lr
 698              		.section	.text.smtc_modem_hal_get_voltage_mv,"ax",%progbits
 699              		.align	1
 700              		.global	smtc_modem_hal_get_voltage_mv
 701              		.syntax unified
 702              		.thumb
 703              		.thumb_func
 704              		.fpu fpv4-sp-d16
 706              	smtc_modem_hal_get_voltage_mv:
 707              		@ args = 0, pretend = 0, frame = 0
 708              		@ frame_needed = 0, uses_anonymous_args = 0
 709              		@ link register save eliminated.
 710 0000 40F6E440 		movw	r0, #3300
 711 0004 7047     		bx	lr
 713              		.section	.text.smtc_modem_hal_store_and_forward_get_number_of_pages,"ax",%progbits
 714              		.align	1
 715              		.global	smtc_modem_hal_store_and_forward_get_number_of_pages
 716              		.syntax unified
 717              		.thumb
 718              		.thumb_func
 719              		.fpu fpv4-sp-d16
 721              	smtc_modem_hal_store_and_forward_get_number_of_pages:
 722              		@ args = 0, pretend = 0, frame = 0
 723              		@ frame_needed = 0, uses_anonymous_args = 0
 724              		@ link register save eliminated.
 725 0000 0A20     		movs	r0, #10
 726 0002 7047     		bx	lr
 728              		.section	.text.smtc_modem_hal_flash_get_page_size,"ax",%progbits
ARM GAS  /tmp/cci9a6sN.s 			page 13


 729              		.align	1
 730              		.global	smtc_modem_hal_flash_get_page_size
 731              		.syntax unified
 732              		.thumb
 733              		.thumb_func
 734              		.fpu fpv4-sp-d16
 736              	smtc_modem_hal_flash_get_page_size:
 737              		@ args = 0, pretend = 0, frame = 0
 738              		@ frame_needed = 0, uses_anonymous_args = 0
 739              		@ link register save eliminated.
 740 0000 FFF7FEBF 		b	hal_flash_get_page_size
 742              		.section	.text.smtc_modem_hal_user_lbm_irq,"ax",%progbits
 743              		.align	1
 744              		.global	smtc_modem_hal_user_lbm_irq
 745              		.syntax unified
 746              		.thumb
 747              		.thumb_func
 748              		.fpu fpv4-sp-d16
 750              	smtc_modem_hal_user_lbm_irq:
 751              		@ args = 0, pretend = 0, frame = 0
 752              		@ frame_needed = 0, uses_anonymous_args = 0
 753              		@ link register save eliminated.
 754 0000 7047     		bx	lr
 756              		.section	.bss.radio_dio_irq,"aw",%nobits
 757              		.align	2
 758              		.set	.LANCHOR4,. + 0
 761              	radio_dio_irq:
 762 0000 00000000 		.space	12
 762      00000000 
 762      00000000 
 763              		.section	.noinit,"aw"
 764              		.set	.LANCHOR3,. + 0
 767              	crashlog_length_noinit:
 768 0000 00       		.space	1
 771              	crashlog_buff_noinit:
 772 0001 00000000 		.space	242
 772      00000000 
 772      00000000 
 772      00000000 
 772      00000000 
 775              	crashlog_available_noinit:
 776 00f3 00       		.space	1
 777              		.section	.rodata.__func__.0,"a"
 778              		.set	.LANCHOR2,. + 0
 781              	__func__.0:
 782 0000 736D7463 		.ascii	"smtc_modem_hal_context_flash_pages_erase\000"
 782      5F6D6F64 
 782      656D5F68 
 782      616C5F63 
 782      6F6E7465 
 783              		.section	.rodata.__func__.1,"a"
 784              		.set	.LANCHOR1,. + 0
 787              	__func__.1:
 788 0000 736D7463 		.ascii	"smtc_modem_hal_context_store\000"
 788      5F6D6F64 
 788      656D5F68 
 788      616C5F63 
ARM GAS  /tmp/cci9a6sN.s 			page 14


 788      6F6E7465 
 789              		.section	.rodata.__func__.2,"a"
 790              		.set	.LANCHOR0,. + 0
 793              	__func__.2:
 794 0000 736D7463 		.ascii	"smtc_modem_hal_context_restore\000"
 794      5F6D6F64 
 794      656D5F68 
 794      616C5F63 
 794      6F6E7465 
 795              		.ident	"GCC: (15:10.3-2021.07-4) 10.3.1 20210621 (release)"
ARM GAS  /tmp/cci9a6sN.s 			page 15

