ARM GAS  /tmp/ccyevdF4.s 			page 1


   1              		.cpu cortex-m4
   2              		.eabi_attribute 27, 1
   3              		.eabi_attribute 28, 1
   4              		.eabi_attribute 23, 1
   5              		.eabi_attribute 24, 1
   6              		.eabi_attribute 25, 1
   7              		.eabi_attribute 26, 1
   8              		.eabi_attribute 30, 4
   9              		.eabi_attribute 34, 1
  10              		.eabi_attribute 18, 4
  11              		.file	"smtc_hal_rng.c"
  12              		.text
  13              		.section	.rodata.hal_rng_get_random.str1.1,"aMS",%progbits,1
  14              	.LC0:
  15 0000 1B5B303B 		.ascii	"\033[0;31mERROR: mcu_panic:%s\012\000"
  15      33316D45 
  15      52524F52 
  15      3A206D63 
  15      755F7061 
  16              	.LC1:
  17 001c 1B5B306D 		.ascii	"\033[0m\000"
  17      00
  18              	.LC2:
  19 0021 1B5B303B 		.ascii	"\033[0;31mERROR: -> \000"
  19      33316D45 
  19      52524F52 
  19      3A202D3E 
  19      2000
  20              		.section	.text.hal_rng_get_random,"ax",%progbits
  21              		.align	1
  22              		.global	hal_rng_get_random
  23              		.arch armv7e-m
  24              		.syntax unified
  25              		.thumb
  26              		.thumb_func
  27              		.fpu fpv4-sp-d16
  29              	hal_rng_get_random:
  30              		@ args = 0, pretend = 0, frame = 8
  31              		@ frame_needed = 0, uses_anonymous_args = 0
  32 0000 07B5     		push	{r0, r1, r2, lr}
  33 0002 0023     		movs	r3, #0
  34 0004 1848     		ldr	r0, .L10
  35 0006 0193     		str	r3, [sp, #4]
  36 0008 184B     		ldr	r3, .L10+4
  37 000a 0360     		str	r3, [r0]
  38 000c FFF7FEFF 		bl	HAL_RNG_Init
  39 0010 70B1     		cbz	r0, .L2
  40 0012 1749     		ldr	r1, .L10+8
  41 0014 1748     		ldr	r0, .L10+12
  42 0016 FFF7FEFF 		bl	hal_trace_print_var
  43 001a 1748     		ldr	r0, .L10+16
  44 001c FFF7FEFF 		bl	hal_trace_print_var
  45 0020 1648     		ldr	r0, .L10+20
  46 0022 FFF7FEFF 		bl	hal_trace_print_var
  47 0026 1448     		ldr	r0, .L10+16
  48 0028 FFF7FEFF 		bl	hal_trace_print_var
  49 002c FFF7FEFF 		bl	hal_mcu_reset
ARM GAS  /tmp/ccyevdF4.s 			page 2


  50              	.L2:
  51 0030 0D48     		ldr	r0, .L10
  52 0032 01A9     		add	r1, sp, #4
  53 0034 FFF7FEFF 		bl	HAL_RNG_GenerateRandomNumber
  54 0038 70B1     		cbz	r0, .L3
  55 003a 0D49     		ldr	r1, .L10+8
  56 003c 0D48     		ldr	r0, .L10+12
  57 003e FFF7FEFF 		bl	hal_trace_print_var
  58 0042 0D48     		ldr	r0, .L10+16
  59 0044 FFF7FEFF 		bl	hal_trace_print_var
  60 0048 0C48     		ldr	r0, .L10+20
  61 004a FFF7FEFF 		bl	hal_trace_print_var
  62 004e 0A48     		ldr	r0, .L10+16
  63 0050 FFF7FEFF 		bl	hal_trace_print_var
  64 0054 FFF7FEFF 		bl	hal_mcu_reset
  65              	.L3:
  66 0058 0348     		ldr	r0, .L10
  67 005a FFF7FEFF 		bl	HAL_RNG_DeInit
  68 005e 0198     		ldr	r0, [sp, #4]
  69 0060 03B0     		add	sp, sp, #12
  70              		@ sp needed
  71 0062 5DF804FB 		ldr	pc, [sp], #4
  72              	.L11:
  73 0066 00BF     		.align	2
  74              	.L10:
  75 0068 00000000 		.word	.LANCHOR0
  76 006c 00080650 		.word	1342572544
  77 0070 00000000 		.word	.LANCHOR1
  78 0074 00000000 		.word	.LC0
  79 0078 1C000000 		.word	.LC1
  80 007c 21000000 		.word	.LC2
  82              		.section	.text.hal_rng_get_random_in_range,"ax",%progbits
  83              		.align	1
  84              		.global	hal_rng_get_random_in_range
  85              		.syntax unified
  86              		.thumb
  87              		.thumb_func
  88              		.fpu fpv4-sp-d16
  90              	hal_rng_get_random_in_range:
  91              		@ args = 0, pretend = 0, frame = 0
  92              		@ frame_needed = 0, uses_anonymous_args = 0
  93 0000 8842     		cmp	r0, r1
  94 0002 38B5     		push	{r3, r4, r5, lr}
  95 0004 0446     		mov	r4, r0
  96 0006 0D46     		mov	r5, r1
  97 0008 0AD8     		bhi	.L13
  98 000a FFF7FEFF 		bl	hal_rng_get_random
  99 000e 0346     		mov	r3, r0
 100 0010 681C     		adds	r0, r5, #1
 101 0012 001B     		subs	r0, r0, r4
 102 0014 B3FBF0F1 		udiv	r1, r3, r0
 103 0018 01FB1033 		mls	r3, r1, r0, r3
 104 001c 1819     		adds	r0, r3, r4
 105              	.L12:
 106 001e 38BD     		pop	{r3, r4, r5, pc}
 107              	.L13:
 108 0020 FFF7FEFF 		bl	hal_rng_get_random
ARM GAS  /tmp/ccyevdF4.s 			page 3


 109 0024 641B     		subs	r4, r4, r5
 110 0026 0346     		mov	r3, r0
 111 0028 0134     		adds	r4, r4, #1
 112 002a B0FBF4F0 		udiv	r0, r0, r4
 113 002e 00FB1433 		mls	r3, r0, r4, r3
 114 0032 5819     		adds	r0, r3, r5
 115 0034 F3E7     		b	.L12
 117              		.section	.text.hal_rng_get_signed_random_in_range,"ax",%progbits
 118              		.align	1
 119              		.global	hal_rng_get_signed_random_in_range
 120              		.syntax unified
 121              		.thumb
 122              		.thumb_func
 123              		.fpu fpv4-sp-d16
 125              	hal_rng_get_signed_random_in_range:
 126              		@ args = 0, pretend = 0, frame = 0
 127              		@ frame_needed = 0, uses_anonymous_args = 0
 128 0000 8842     		cmp	r0, r1
 129 0002 38B5     		push	{r3, r4, r5, lr}
 130 0004 0546     		mov	r5, r0
 131 0006 0C46     		mov	r4, r1
 132 0008 05DC     		bgt	.L16
 133 000a 091A     		subs	r1, r1, r0
 134 000c 0020     		movs	r0, #0
 135 000e FFF7FEFF 		bl	hal_rng_get_random_in_range
 136 0012 2844     		add	r0, r0, r5
 137              	.L15:
 138 0014 38BD     		pop	{r3, r4, r5, pc}
 139              	.L16:
 140 0016 411A     		subs	r1, r0, r1
 141 0018 0020     		movs	r0, #0
 142 001a FFF7FEFF 		bl	hal_rng_get_random_in_range
 143 001e 2044     		add	r0, r0, r4
 144 0020 F8E7     		b	.L15
 146              		.section	.text.HAL_RNG_MspInit,"ax",%progbits
 147              		.align	1
 148              		.global	HAL_RNG_MspInit
 149              		.syntax unified
 150              		.thumb
 151              		.thumb_func
 152              		.fpu fpv4-sp-d16
 154              	HAL_RNG_MspInit:
 155              		@ args = 0, pretend = 0, frame = 144
 156              		@ frame_needed = 0, uses_anonymous_args = 0
 157 0000 00B5     		push	{lr}
 158 0002 A5B0     		sub	sp, sp, #148
 159 0004 8822     		movs	r2, #136
 160 0006 0021     		movs	r1, #0
 161 0008 02A8     		add	r0, sp, #8
 162 000a FFF7FEFF 		bl	memset
 163 000e 02A8     		add	r0, sp, #8
 164 0010 FFF7FEFF 		bl	HAL_RCCEx_GetPeriphCLKConfig
 165 0014 4FF48023 		mov	r3, #262144
 166 0018 02A8     		add	r0, sp, #8
 167 001a 0293     		str	r3, [sp, #8]
 168 001c FFF7FEFF 		bl	HAL_RCCEx_PeriphCLKConfig
 169 0020 70B1     		cbz	r0, .L19
ARM GAS  /tmp/ccyevdF4.s 			page 4


 170 0022 0E49     		ldr	r1, .L23
 171 0024 0E48     		ldr	r0, .L23+4
 172 0026 FFF7FEFF 		bl	hal_trace_print_var
 173 002a 0E48     		ldr	r0, .L23+8
 174 002c FFF7FEFF 		bl	hal_trace_print_var
 175 0030 0D48     		ldr	r0, .L23+12
 176 0032 FFF7FEFF 		bl	hal_trace_print_var
 177 0036 0B48     		ldr	r0, .L23+8
 178 0038 FFF7FEFF 		bl	hal_trace_print_var
 179 003c FFF7FEFF 		bl	hal_mcu_reset
 180              	.L19:
 181 0040 0A4B     		ldr	r3, .L23+16
 182 0042 DA6C     		ldr	r2, [r3, #76]
 183 0044 42F48022 		orr	r2, r2, #262144
 184 0048 DA64     		str	r2, [r3, #76]
 185 004a DB6C     		ldr	r3, [r3, #76]
 186 004c 03F48023 		and	r3, r3, #262144
 187 0050 0193     		str	r3, [sp, #4]
 188 0052 019B     		ldr	r3, [sp, #4]
 189 0054 25B0     		add	sp, sp, #148
 190              		@ sp needed
 191 0056 5DF804FB 		ldr	pc, [sp], #4
 192              	.L24:
 193 005a 00BF     		.align	2
 194              	.L23:
 195 005c 00000000 		.word	.LANCHOR2
 196 0060 00000000 		.word	.LC0
 197 0064 1C000000 		.word	.LC1
 198 0068 21000000 		.word	.LC2
 199 006c 00100240 		.word	1073876992
 201              		.section	.text.HAL_RNG_MspDeInit,"ax",%progbits
 202              		.align	1
 203              		.global	HAL_RNG_MspDeInit
 204              		.syntax unified
 205              		.thumb
 206              		.thumb_func
 207              		.fpu fpv4-sp-d16
 209              	HAL_RNG_MspDeInit:
 210              		@ args = 0, pretend = 0, frame = 0
 211              		@ frame_needed = 0, uses_anonymous_args = 0
 212              		@ link register save eliminated.
 213 0000 064B     		ldr	r3, .L26
 214 0002 DA6A     		ldr	r2, [r3, #44]
 215 0004 42F48022 		orr	r2, r2, #262144
 216 0008 DA62     		str	r2, [r3, #44]
 217 000a DA6A     		ldr	r2, [r3, #44]
 218 000c 22F48022 		bic	r2, r2, #262144
 219 0010 DA62     		str	r2, [r3, #44]
 220 0012 DA6C     		ldr	r2, [r3, #76]
 221 0014 22F48022 		bic	r2, r2, #262144
 222 0018 DA64     		str	r2, [r3, #76]
 223 001a 7047     		bx	lr
 224              	.L27:
 225              		.align	2
 226              	.L26:
 227 001c 00100240 		.word	1073876992
 229              		.section	.bss.rng_handle,"aw",%nobits
ARM GAS  /tmp/ccyevdF4.s 			page 5


 230              		.align	2
 231              		.set	.LANCHOR0,. + 0
 234              	rng_handle:
 235 0000 00000000 		.space	16
 235      00000000 
 235      00000000 
 235      00000000 
 236              		.section	.rodata.__func__.0,"a"
 237              		.set	.LANCHOR2,. + 0
 240              	__func__.0:
 241 0000 48414C5F 		.ascii	"HAL_RNG_MspInit\000"
 241      524E475F 
 241      4D737049 
 241      6E697400 
 242              		.section	.rodata.__func__.1,"a"
 243              		.set	.LANCHOR1,. + 0
 246              	__func__.1:
 247 0000 68616C5F 		.ascii	"hal_rng_get_random\000"
 247      726E675F 
 247      6765745F 
 247      72616E64 
 247      6F6D00
 248              		.ident	"GCC: (15:10.3-2021.07-4) 10.3.1 20210621 (release)"
ARM GAS  /tmp/ccyevdF4.s 			page 6

