ARM GAS  /tmp/ccSBqdOb.s 			page 1


   1              		.cpu cortex-m4
   2              		.eabi_attribute 27, 1
   3              		.eabi_attribute 28, 1
   4              		.eabi_attribute 23, 1
   5              		.eabi_attribute 24, 1
   6              		.eabi_attribute 25, 1
   7              		.eabi_attribute 26, 1
   8              		.eabi_attribute 30, 4
   9              		.eabi_attribute 34, 1
  10              		.eabi_attribute 18, 4
  11              		.file	"lr11xx_hal.c"
  12              		.text
  13              		.section	.text.lr11xx_hal_reset,"ax",%progbits
  14              		.align	1
  15              		.global	lr11xx_hal_reset
  16              		.arch armv7e-m
  17              		.syntax unified
  18              		.thumb
  19              		.thumb_func
  20              		.fpu fpv4-sp-d16
  22              	lr11xx_hal_reset:
  23              		@ args = 0, pretend = 0, frame = 0
  24              		@ frame_needed = 0, uses_anonymous_args = 0
  25 0000 0021     		movs	r1, #0
  26 0002 08B5     		push	{r3, lr}
  27 0004 0846     		mov	r0, r1
  28 0006 FFF7FEFF 		bl	hal_gpio_set_value
  29 000a 41F28830 		movw	r0, #5000
  30 000e FFF7FEFF 		bl	hal_mcu_wait_us
  31 0012 0121     		movs	r1, #1
  32 0014 0020     		movs	r0, #0
  33 0016 FFF7FEFF 		bl	hal_gpio_set_value
  34 001a 41F28830 		movw	r0, #5000
  35 001e FFF7FEFF 		bl	hal_mcu_wait_us
  36 0022 0448     		ldr	r0, .L2
  37 0024 FFF7FEFF 		bl	hal_mcu_wait_us
  38 0028 034B     		ldr	r3, .L2+4
  39 002a 0122     		movs	r2, #1
  40 002c 1A70     		strb	r2, [r3]
  41 002e 0020     		movs	r0, #0
  42 0030 08BD     		pop	{r3, pc}
  43              	.L3:
  44 0032 00BF     		.align	2
  45              	.L2:
  46 0034 400D0300 		.word	200000
  47 0038 00000000 		.word	.LANCHOR0
  49              		.section	.text.lr11xx_hal_wait_on_busy,"ax",%progbits
  50              		.align	1
  51              		.global	lr11xx_hal_wait_on_busy
  52              		.syntax unified
  53              		.thumb
  54              		.thumb_func
  55              		.fpu fpv4-sp-d16
  57              	lr11xx_hal_wait_on_busy:
  58              		@ args = 0, pretend = 0, frame = 0
  59              		@ frame_needed = 0, uses_anonymous_args = 0
  60 0000 08B5     		push	{r3, lr}
ARM GAS  /tmp/ccSBqdOb.s 			page 2


  61              	.L5:
  62 0002 1320     		movs	r0, #19
  63 0004 FFF7FEFF 		bl	hal_gpio_get_value
  64 0008 0128     		cmp	r0, #1
  65 000a FAD0     		beq	.L5
  66 000c 08BD     		pop	{r3, pc}
  68              		.section	.text.lr11xx_hal_abort_blocking_cmd,"ax",%progbits
  69              		.align	1
  70              		.global	lr11xx_hal_abort_blocking_cmd
  71              		.syntax unified
  72              		.thumb
  73              		.thumb_func
  74              		.fpu fpv4-sp-d16
  76              	lr11xx_hal_abort_blocking_cmd:
  77              		@ args = 0, pretend = 0, frame = 8
  78              		@ frame_needed = 0, uses_anonymous_args = 0
  79 0000 37B5     		push	{r0, r1, r2, r4, r5, lr}
  80 0002 0021     		movs	r1, #0
  81 0004 0820     		movs	r0, #8
  82 0006 0191     		str	r1, [sp, #4]
  83 0008 FFF7FEFF 		bl	hal_gpio_set_value
  84 000c 01AD     		add	r5, sp, #4
  85 000e 0424     		movs	r4, #4
  86              	.L9:
  87 0010 013C     		subs	r4, r4, #1
  88 0012 15F8011B 		ldrb	r1, [r5], #1	@ zero_extendqisi2
  89 0016 0120     		movs	r0, #1
  90 0018 A4B2     		uxth	r4, r4
  91 001a FFF7FEFF 		bl	hal_spi_in_out
  92 001e 002C     		cmp	r4, #0
  93 0020 F6D1     		bne	.L9
  94 0022 0121     		movs	r1, #1
  95 0024 0820     		movs	r0, #8
  96 0026 FFF7FEFF 		bl	hal_gpio_set_value
  97 002a FFF7FEFF 		bl	lr11xx_hal_wait_on_busy
  98 002e 2046     		mov	r0, r4
  99 0030 03B0     		add	sp, sp, #12
 100              		@ sp needed
 101 0032 30BD     		pop	{r4, r5, pc}
 103              		.section	.text.lr11xx_hal_check_device_ready,"ax",%progbits
 104              		.align	1
 105              		.global	lr11xx_hal_check_device_ready
 106              		.syntax unified
 107              		.thumb
 108              		.thumb_func
 109              		.fpu fpv4-sp-d16
 111              	lr11xx_hal_check_device_ready:
 112              		@ args = 0, pretend = 0, frame = 0
 113              		@ frame_needed = 0, uses_anonymous_args = 0
 114 0000 10B5     		push	{r4, lr}
 115 0002 0A4C     		ldr	r4, .L13
 116 0004 2378     		ldrb	r3, [r4]	@ zero_extendqisi2
 117 0006 03F0FF01 		and	r1, r3, #255
 118 000a 1BB1     		cbz	r3, .L12
 119 000c BDE81040 		pop	{r4, lr}
 120 0010 FFF7FEBF 		b	lr11xx_hal_wait_on_busy
 121              	.L12:
ARM GAS  /tmp/ccSBqdOb.s 			page 3


 122 0014 0820     		movs	r0, #8
 123 0016 FFF7FEFF 		bl	hal_gpio_set_value
 124 001a 0121     		movs	r1, #1
 125 001c 0820     		movs	r0, #8
 126 001e FFF7FEFF 		bl	hal_gpio_set_value
 127 0022 FFF7FEFF 		bl	lr11xx_hal_wait_on_busy
 128 0026 0123     		movs	r3, #1
 129 0028 2370     		strb	r3, [r4]
 130 002a 10BD     		pop	{r4, pc}
 131              	.L14:
 132              		.align	2
 133              	.L13:
 134 002c 00000000 		.word	.LANCHOR0
 136              		.section	.text.lr11xx_hal_write,"ax",%progbits
 137              		.align	1
 138              		.global	lr11xx_hal_write
 139              		.syntax unified
 140              		.thumb
 141              		.thumb_func
 142              		.fpu fpv4-sp-d16
 144              	lr11xx_hal_write:
 145              		@ args = 4, pretend = 0, frame = 0
 146              		@ frame_needed = 0, uses_anonymous_args = 0
 147 0000 F8B5     		push	{r3, r4, r5, r6, r7, lr}
 148 0002 0D46     		mov	r5, r1
 149 0004 1646     		mov	r6, r2
 150 0006 1C46     		mov	r4, r3
 151 0008 FFF7FEFF 		bl	lr11xx_hal_check_device_ready
 152 000c 0021     		movs	r1, #0
 153 000e 0820     		movs	r0, #8
 154 0010 FFF7FEFF 		bl	hal_gpio_set_value
 155 0014 2F46     		mov	r7, r5
 156 0016 2E44     		add	r6, r6, r5
 157              	.L16:
 158 0018 B742     		cmp	r7, r6
 159 001a 17D1     		bne	.L17
 160 001c BDF81860 		ldrh	r6, [sp, #24]
 161 0020 2644     		add	r6, r6, r4
 162              	.L18:
 163 0022 B442     		cmp	r4, r6
 164 0024 18D1     		bne	.L19
 165 0026 0121     		movs	r1, #1
 166 0028 0820     		movs	r0, #8
 167 002a FFF7FEFF 		bl	hal_gpio_set_value
 168 002e 2B78     		ldrb	r3, [r5]	@ zero_extendqisi2
 169 0030 012B     		cmp	r3, #1
 170 0032 09D1     		bne	.L20
 171 0034 6B78     		ldrb	r3, [r5, #1]	@ zero_extendqisi2
 172 0036 1B2B     		cmp	r3, #27
 173 0038 06D1     		bne	.L20
 174 003a 0A4B     		ldr	r3, .L21
 175 003c 0022     		movs	r2, #0
 176 003e 4FF4FA70 		mov	r0, #500
 177 0042 1A70     		strb	r2, [r3]
 178 0044 FFF7FEFF 		bl	hal_mcu_wait_us
 179              	.L20:
 180 0048 0020     		movs	r0, #0
ARM GAS  /tmp/ccSBqdOb.s 			page 4


 181 004a F8BD     		pop	{r3, r4, r5, r6, r7, pc}
 182              	.L17:
 183 004c 17F8011B 		ldrb	r1, [r7], #1	@ zero_extendqisi2
 184 0050 0120     		movs	r0, #1
 185 0052 FFF7FEFF 		bl	hal_spi_in_out
 186 0056 DFE7     		b	.L16
 187              	.L19:
 188 0058 14F8011B 		ldrb	r1, [r4], #1	@ zero_extendqisi2
 189 005c 0120     		movs	r0, #1
 190 005e FFF7FEFF 		bl	hal_spi_in_out
 191 0062 DEE7     		b	.L18
 192              	.L22:
 193              		.align	2
 194              	.L21:
 195 0064 00000000 		.word	.LANCHOR0
 197              		.section	.text.lr11xx_hal_read,"ax",%progbits
 198              		.align	1
 199              		.global	lr11xx_hal_read
 200              		.syntax unified
 201              		.thumb
 202              		.thumb_func
 203              		.fpu fpv4-sp-d16
 205              	lr11xx_hal_read:
 206              		@ args = 4, pretend = 0, frame = 0
 207              		@ frame_needed = 0, uses_anonymous_args = 0
 208 0000 F8B5     		push	{r3, r4, r5, r6, r7, lr}
 209 0002 0C46     		mov	r4, r1
 210 0004 1646     		mov	r6, r2
 211 0006 1F46     		mov	r7, r3
 212 0008 BDF81850 		ldrh	r5, [sp, #24]
 213 000c FFF7FEFF 		bl	lr11xx_hal_check_device_ready
 214 0010 0021     		movs	r1, #0
 215 0012 0820     		movs	r0, #8
 216 0014 FFF7FEFF 		bl	hal_gpio_set_value
 217 0018 2644     		add	r6, r6, r4
 218              	.L24:
 219 001a B442     		cmp	r4, r6
 220 001c 20D1     		bne	.L25
 221 001e 0121     		movs	r1, #1
 222 0020 0820     		movs	r0, #8
 223 0022 FFF7FEFF 		bl	hal_gpio_set_value
 224 0026 CDB1     		cbz	r5, .L26
 225 0028 FFF7FEFF 		bl	lr11xx_hal_check_device_ready
 226 002c 0021     		movs	r1, #0
 227 002e 0820     		movs	r0, #8
 228 0030 FFF7FEFF 		bl	hal_gpio_set_value
 229 0034 0021     		movs	r1, #0
 230 0036 0120     		movs	r0, #1
 231 0038 FFF7FEFF 		bl	hal_spi_in_out
 232 003c 6A1E     		subs	r2, r5, #1
 233 003e 7C1E     		subs	r4, r7, #1
 234 0040 17FA82F7 		uxtah	r7, r7, r2
 235              	.L27:
 236 0044 0021     		movs	r1, #0
 237 0046 0120     		movs	r0, #1
 238 0048 FFF7FEFF 		bl	hal_spi_in_out
 239 004c 04F8010F 		strb	r0, [r4, #1]!
ARM GAS  /tmp/ccSBqdOb.s 			page 5


 240 0050 BC42     		cmp	r4, r7
 241 0052 F7D1     		bne	.L27
 242 0054 0121     		movs	r1, #1
 243 0056 0820     		movs	r0, #8
 244 0058 FFF7FEFF 		bl	hal_gpio_set_value
 245              	.L26:
 246 005c 0020     		movs	r0, #0
 247 005e F8BD     		pop	{r3, r4, r5, r6, r7, pc}
 248              	.L25:
 249 0060 14F8011B 		ldrb	r1, [r4], #1	@ zero_extendqisi2
 250 0064 0120     		movs	r0, #1
 251 0066 FFF7FEFF 		bl	hal_spi_in_out
 252 006a D6E7     		b	.L24
 254              		.section	.text.lr11xx_hal_direct_read,"ax",%progbits
 255              		.align	1
 256              		.global	lr11xx_hal_direct_read
 257              		.syntax unified
 258              		.thumb
 259              		.thumb_func
 260              		.fpu fpv4-sp-d16
 262              	lr11xx_hal_direct_read:
 263              		@ args = 0, pretend = 0, frame = 0
 264              		@ frame_needed = 0, uses_anonymous_args = 0
 265 0000 38B5     		push	{r3, r4, r5, lr}
 266 0002 0C46     		mov	r4, r1
 267 0004 1546     		mov	r5, r2
 268 0006 FFF7FEFF 		bl	lr11xx_hal_check_device_ready
 269 000a 0021     		movs	r1, #0
 270 000c 0820     		movs	r0, #8
 271 000e FFF7FEFF 		bl	hal_gpio_set_value
 272 0012 2544     		add	r5, r5, r4
 273              	.L33:
 274 0014 AC42     		cmp	r4, r5
 275 0016 05D1     		bne	.L34
 276 0018 0121     		movs	r1, #1
 277 001a 0820     		movs	r0, #8
 278 001c FFF7FEFF 		bl	hal_gpio_set_value
 279 0020 0020     		movs	r0, #0
 280 0022 38BD     		pop	{r3, r4, r5, pc}
 281              	.L34:
 282 0024 0021     		movs	r1, #0
 283 0026 0120     		movs	r0, #1
 284 0028 FFF7FEFF 		bl	hal_spi_in_out
 285 002c 04F8010B 		strb	r0, [r4], #1
 286 0030 F0E7     		b	.L33
 288              		.section	.text.lr11xx_hal_wakeup,"ax",%progbits
 289              		.align	1
 290              		.global	lr11xx_hal_wakeup
 291              		.syntax unified
 292              		.thumb
 293              		.thumb_func
 294              		.fpu fpv4-sp-d16
 296              	lr11xx_hal_wakeup:
 297              		@ args = 0, pretend = 0, frame = 0
 298              		@ frame_needed = 0, uses_anonymous_args = 0
 299 0000 08B5     		push	{r3, lr}
 300 0002 FFF7FEFF 		bl	lr11xx_hal_check_device_ready
ARM GAS  /tmp/ccSBqdOb.s 			page 6


 301 0006 0020     		movs	r0, #0
 302 0008 08BD     		pop	{r3, pc}
 304              		.section	.data.radio_mode,"aw"
 305              		.set	.LANCHOR0,. + 0
 308              	radio_mode:
 309 0000 01       		.byte	1
 310              		.ident	"GCC: (15:10.3-2021.07-4) 10.3.1 20210621 (release)"
ARM GAS  /tmp/ccSBqdOb.s 			page 7

