ARM GAS  /tmp/ccZFsNAf.s 			page 1


   1              		.cpu cortex-m4
   2              		.eabi_attribute 27, 1
   3              		.eabi_attribute 28, 1
   4              		.eabi_attribute 23, 1
   5              		.eabi_attribute 24, 1
   6              		.eabi_attribute 25, 1
   7              		.eabi_attribute 26, 1
   8              		.eabi_attribute 30, 4
   9              		.eabi_attribute 34, 1
  10              		.eabi_attribute 18, 4
  11              		.file	"smtc_hal_uart.c"
  12              		.text
  13              		.section	.rodata.uart4_init.str1.1,"aMS",%progbits,1
  14              	.LC0:
  15 0000 1B5B303B 		.ascii	"\033[0;31mERROR: mcu_panic:%s\012\000"
  15      33316D45 
  15      52524F52 
  15      3A206D63 
  15      755F7061 
  16              	.LC1:
  17 001c 1B5B306D 		.ascii	"\033[0m\000"
  17      00
  18              	.LC2:
  19 0021 1B5B303B 		.ascii	"\033[0;31mERROR: -> \000"
  19      33316D45 
  19      52524F52 
  19      3A202D3E 
  19      2000
  20              		.section	.text.uart4_init,"ax",%progbits
  21              		.align	1
  22              		.global	uart4_init
  23              		.arch armv7e-m
  24              		.syntax unified
  25              		.thumb
  26              		.thumb_func
  27              		.fpu fpv4-sp-d16
  29              	uart4_init:
  30              		@ args = 0, pretend = 0, frame = 8
  31              		@ frame_needed = 0, uses_anonymous_args = 0
  32 0000 1D4B     		ldr	r3, .L3
  33 0002 07B5     		push	{r0, r1, r2, lr}
  34 0004 9A6C     		ldr	r2, [r3, #72]
  35 0006 42F00202 		orr	r2, r2, #2
  36 000a 9A64     		str	r2, [r3, #72]
  37 000c 9B6C     		ldr	r3, [r3, #72]
  38 000e 0022     		movs	r2, #0
  39 0010 03F00203 		and	r3, r3, #2
  40 0014 1146     		mov	r1, r2
  41 0016 0193     		str	r3, [sp, #4]
  42 0018 3C20     		movs	r0, #60
  43 001a 019B     		ldr	r3, [sp, #4]
  44 001c FFF7FEFF 		bl	HAL_NVIC_SetPriority
  45 0020 3C20     		movs	r0, #60
  46 0022 FFF7FEFF 		bl	HAL_NVIC_EnableIRQ
  47 0026 1548     		ldr	r0, .L3+4
  48 0028 154A     		ldr	r2, .L3+8
  49 002a 4FF4E133 		mov	r3, #115200
ARM GAS  /tmp/ccZFsNAf.s 			page 2


  50 002e C0E90023 		strd	r2, r3, [r0]
  51 0032 0023     		movs	r3, #0
  52 0034 0C22     		movs	r2, #12
  53 0036 C0E90233 		strd	r3, r3, [r0, #8]
  54 003a C0E90523 		strd	r2, r3, [r0, #20]
  55 003e C0E90733 		strd	r3, r3, [r0, #28]
  56 0042 0361     		str	r3, [r0, #16]
  57 0044 4362     		str	r3, [r0, #36]
  58 0046 FFF7FEFF 		bl	HAL_UART_Init
  59 004a 88B1     		cbz	r0, .L1
  60 004c 0D49     		ldr	r1, .L3+12
  61 004e 0E48     		ldr	r0, .L3+16
  62 0050 FFF7FEFF 		bl	hal_trace_print_var
  63 0054 0D48     		ldr	r0, .L3+20
  64 0056 FFF7FEFF 		bl	hal_trace_print_var
  65 005a 0D48     		ldr	r0, .L3+24
  66 005c FFF7FEFF 		bl	hal_trace_print_var
  67 0060 0A48     		ldr	r0, .L3+20
  68 0062 FFF7FEFF 		bl	hal_trace_print_var
  69 0066 03B0     		add	sp, sp, #12
  70              		@ sp needed
  71 0068 5DF804EB 		ldr	lr, [sp], #4
  72 006c FFF7FEBF 		b	hal_mcu_reset
  73              	.L1:
  74 0070 03B0     		add	sp, sp, #12
  75              		@ sp needed
  76 0072 5DF804FB 		ldr	pc, [sp], #4
  77              	.L4:
  78 0076 00BF     		.align	2
  79              	.L3:
  80 0078 00100240 		.word	1073876992
  81 007c 00000000 		.word	.LANCHOR0
  82 0080 004C0040 		.word	1073761280
  83 0084 00000000 		.word	.LANCHOR1
  84 0088 00000000 		.word	.LC0
  85 008c 1C000000 		.word	.LC1
  86 0090 21000000 		.word	.LC2
  88              		.section	.text.uart4_deinit,"ax",%progbits
  89              		.align	1
  90              		.global	uart4_deinit
  91              		.syntax unified
  92              		.thumb
  93              		.thumb_func
  94              		.fpu fpv4-sp-d16
  96              	uart4_deinit:
  97              		@ args = 0, pretend = 0, frame = 0
  98              		@ frame_needed = 0, uses_anonymous_args = 0
  99              		@ link register save eliminated.
 100 0000 0148     		ldr	r0, .L6
 101 0002 FFF7FEBF 		b	HAL_UART_DeInit
 102              	.L7:
 103 0006 00BF     		.align	2
 104              	.L6:
 105 0008 00000000 		.word	.LANCHOR0
 107              		.section	.text.uart2_init,"ax",%progbits
 108              		.align	1
 109              		.global	uart2_init
ARM GAS  /tmp/ccZFsNAf.s 			page 3


 110              		.syntax unified
 111              		.thumb
 112              		.thumb_func
 113              		.fpu fpv4-sp-d16
 115              	uart2_init:
 116              		@ args = 0, pretend = 0, frame = 0
 117              		@ frame_needed = 0, uses_anonymous_args = 0
 118 0000 1248     		ldr	r0, .L10
 119 0002 134A     		ldr	r2, .L10+4
 120 0004 08B5     		push	{r3, lr}
 121 0006 4FF4E133 		mov	r3, #115200
 122 000a C0E90023 		strd	r2, r3, [r0]
 123 000e 0023     		movs	r3, #0
 124 0010 0822     		movs	r2, #8
 125 0012 C0E90233 		strd	r3, r3, [r0, #8]
 126 0016 C0E90523 		strd	r2, r3, [r0, #20]
 127 001a C0E90733 		strd	r3, r3, [r0, #28]
 128 001e 0361     		str	r3, [r0, #16]
 129 0020 4362     		str	r3, [r0, #36]
 130 0022 FFF7FEFF 		bl	HAL_UART_Init
 131 0026 80B1     		cbz	r0, .L8
 132 0028 0A49     		ldr	r1, .L10+8
 133 002a 0B48     		ldr	r0, .L10+12
 134 002c FFF7FEFF 		bl	hal_trace_print_var
 135 0030 0A48     		ldr	r0, .L10+16
 136 0032 FFF7FEFF 		bl	hal_trace_print_var
 137 0036 0A48     		ldr	r0, .L10+20
 138 0038 FFF7FEFF 		bl	hal_trace_print_var
 139 003c 0748     		ldr	r0, .L10+16
 140 003e FFF7FEFF 		bl	hal_trace_print_var
 141 0042 BDE80840 		pop	{r3, lr}
 142 0046 FFF7FEBF 		b	hal_mcu_reset
 143              	.L8:
 144 004a 08BD     		pop	{r3, pc}
 145              	.L11:
 146              		.align	2
 147              	.L10:
 148 004c 00000000 		.word	.LANCHOR2
 149 0050 00440040 		.word	1073759232
 150 0054 00000000 		.word	.LANCHOR3
 151 0058 00000000 		.word	.LC0
 152 005c 1C000000 		.word	.LC1
 153 0060 21000000 		.word	.LC2
 155              		.section	.text.uart2_deinit,"ax",%progbits
 156              		.align	1
 157              		.global	uart2_deinit
 158              		.syntax unified
 159              		.thumb
 160              		.thumb_func
 161              		.fpu fpv4-sp-d16
 163              	uart2_deinit:
 164              		@ args = 0, pretend = 0, frame = 0
 165              		@ frame_needed = 0, uses_anonymous_args = 0
 166              		@ link register save eliminated.
 167 0000 0148     		ldr	r0, .L13
 168 0002 FFF7FEBF 		b	HAL_UART_DeInit
 169              	.L14:
ARM GAS  /tmp/ccZFsNAf.s 			page 4


 170 0006 00BF     		.align	2
 171              	.L13:
 172 0008 00000000 		.word	.LANCHOR2
 174              		.section	.text.uart4_dma_start_rx,"ax",%progbits
 175              		.align	1
 176              		.global	uart4_dma_start_rx
 177              		.syntax unified
 178              		.thumb
 179              		.thumb_func
 180              		.fpu fpv4-sp-d16
 182              	uart4_dma_start_rx:
 183              		@ args = 0, pretend = 0, frame = 8
 184              		@ frame_needed = 0, uses_anonymous_args = 0
 185 0000 37B5     		push	{r0, r1, r2, r4, r5, lr}
 186 0002 074D     		ldr	r5, .L16
 187 0004 0191     		str	r1, [sp, #4]
 188 0006 0446     		mov	r4, r0
 189 0008 2846     		mov	r0, r5
 190 000a FFF7FEFF 		bl	HAL_UART_DMAStop
 191 000e 019A     		ldr	r2, [sp, #4]
 192 0010 2146     		mov	r1, r4
 193 0012 2846     		mov	r0, r5
 194 0014 03B0     		add	sp, sp, #12
 195              		@ sp needed
 196 0016 BDE83040 		pop	{r4, r5, lr}
 197 001a FFF7FEBF 		b	HAL_UART_Receive_DMA
 198              	.L17:
 199 001e 00BF     		.align	2
 200              	.L16:
 201 0020 00000000 		.word	.LANCHOR0
 203              		.section	.text.uart4_dma_stop_rx,"ax",%progbits
 204              		.align	1
 205              		.global	uart4_dma_stop_rx
 206              		.syntax unified
 207              		.thumb
 208              		.thumb_func
 209              		.fpu fpv4-sp-d16
 211              	uart4_dma_stop_rx:
 212              		@ args = 0, pretend = 0, frame = 0
 213              		@ frame_needed = 0, uses_anonymous_args = 0
 214              		@ link register save eliminated.
 215 0000 0148     		ldr	r0, .L19
 216 0002 FFF7FEBF 		b	HAL_UART_DMAStop
 217              	.L20:
 218 0006 00BF     		.align	2
 219              	.L19:
 220 0008 00000000 		.word	.LANCHOR0
 222              		.section	.text.uart4_tx,"ax",%progbits
 223              		.align	1
 224              		.global	uart4_tx
 225              		.syntax unified
 226              		.thumb
 227              		.thumb_func
 228              		.fpu fpv4-sp-d16
 230              	uart4_tx:
 231              		@ args = 0, pretend = 0, frame = 0
 232              		@ frame_needed = 0, uses_anonymous_args = 0
ARM GAS  /tmp/ccZFsNAf.s 			page 5


 233              		@ link register save eliminated.
 234 0000 0A46     		mov	r2, r1
 235 0002 6FF07F43 		mvn	r3, #-16777216
 236 0006 0146     		mov	r1, r0
 237 0008 0148     		ldr	r0, .L22
 238 000a FFF7FEBF 		b	HAL_UART_Transmit
 239              	.L23:
 240 000e 00BF     		.align	2
 241              	.L22:
 242 0010 00000000 		.word	.LANCHOR0
 244              		.section	.text.uart2_tx,"ax",%progbits
 245              		.align	1
 246              		.global	uart2_tx
 247              		.syntax unified
 248              		.thumb
 249              		.thumb_func
 250              		.fpu fpv4-sp-d16
 252              	uart2_tx:
 253              		@ args = 0, pretend = 0, frame = 0
 254              		@ frame_needed = 0, uses_anonymous_args = 0
 255              		@ link register save eliminated.
 256 0000 0A46     		mov	r2, r1
 257 0002 6FF07F43 		mvn	r3, #-16777216
 258 0006 0146     		mov	r1, r0
 259 0008 0148     		ldr	r0, .L25
 260 000a FFF7FEBF 		b	HAL_UART_Transmit
 261              	.L26:
 262 000e 00BF     		.align	2
 263              	.L25:
 264 0010 00000000 		.word	.LANCHOR2
 266              		.section	.text.HAL_UART_MspInit,"ax",%progbits
 267              		.align	1
 268              		.global	HAL_UART_MspInit
 269              		.syntax unified
 270              		.thumb
 271              		.thumb_func
 272              		.fpu fpv4-sp-d16
 274              	HAL_UART_MspInit:
 275              		@ args = 0, pretend = 0, frame = 40
 276              		@ frame_needed = 0, uses_anonymous_args = 0
 277 0000 30B5     		push	{r4, r5, lr}
 278 0002 0368     		ldr	r3, [r0]
 279 0004 3D4A     		ldr	r2, .L35
 280 0006 9342     		cmp	r3, r2
 281 0008 8BB0     		sub	sp, sp, #44
 282 000a 0546     		mov	r5, r0
 283 000c 3DD1     		bne	.L28
 284 000e 3C4B     		ldr	r3, .L35+4
 285 0010 3C48     		ldr	r0, .L35+8
 286 0012 9A6D     		ldr	r2, [r3, #88]
 287 0014 3C4C     		ldr	r4, .L35+12
 288 0016 42F40022 		orr	r2, r2, #524288
 289 001a 9A65     		str	r2, [r3, #88]
 290 001c 9B6D     		ldr	r3, [r3, #88]
 291 001e 03F40023 		and	r3, r3, #524288
 292 0022 0193     		str	r3, [sp, #4]
 293 0024 019B     		ldr	r3, [sp, #4]
ARM GAS  /tmp/ccZFsNAf.s 			page 6


 294 0026 0823     		movs	r3, #8
 295 0028 0893     		str	r3, [sp, #32]
 296 002a 4FF44062 		mov	r2, #3072
 297 002e 0223     		movs	r3, #2
 298 0030 CDE90423 		strd	r2, [sp, #16]
 299 0034 04A9     		add	r1, sp, #16
 300 0036 0022     		movs	r2, #0
 301 0038 0323     		movs	r3, #3
 302 003a CDE90623 		strd	r2, [sp, #24]
 303 003e FFF7FEFF 		bl	HAL_GPIO_Init
 304 0042 324A     		ldr	r2, .L35+16
 305 0044 0223     		movs	r3, #2
 306 0046 C4E90023 		strd	r2, r3, [r4]
 307 004a 2046     		mov	r0, r4
 308 004c 0023     		movs	r3, #0
 309 004e 8022     		movs	r2, #128
 310 0050 C4E90233 		strd	r3, r3, [r4, #8]
 311 0054 C4E90423 		strd	r2, r3, [r4, #16]
 312 0058 C4E90633 		strd	r3, r3, [r4, #24]
 313 005c 2362     		str	r3, [r4, #32]
 314 005e FFF7FEFF 		bl	HAL_DMA_Init
 315 0062 70B1     		cbz	r0, .L29
 316 0064 2A49     		ldr	r1, .L35+20
 317 0066 2B48     		ldr	r0, .L35+24
 318 0068 FFF7FEFF 		bl	hal_trace_print_var
 319 006c 2A48     		ldr	r0, .L35+28
 320 006e FFF7FEFF 		bl	hal_trace_print_var
 321 0072 2A48     		ldr	r0, .L35+32
 322 0074 FFF7FEFF 		bl	hal_trace_print_var
 323 0078 2748     		ldr	r0, .L35+28
 324 007a FFF7FEFF 		bl	hal_trace_print_var
 325 007e FFF7FEFF 		bl	hal_mcu_reset
 326              	.L29:
 327 0082 EC66     		str	r4, [r5, #108]
 328 0084 A562     		str	r5, [r4, #40]
 329              	.L27:
 330 0086 0BB0     		add	sp, sp, #44
 331              		@ sp needed
 332 0088 30BD     		pop	{r4, r5, pc}
 333              	.L28:
 334 008a 254A     		ldr	r2, .L35+36
 335 008c 9342     		cmp	r3, r2
 336 008e 22D1     		bne	.L31
 337 0090 1B4B     		ldr	r3, .L35+4
 338 0092 9A6D     		ldr	r2, [r3, #88]
 339 0094 42F40032 		orr	r2, r2, #131072
 340 0098 9A65     		str	r2, [r3, #88]
 341 009a 9A6D     		ldr	r2, [r3, #88]
 342 009c 0C20     		movs	r0, #12
 343 009e 0221     		movs	r1, #2
 344 00a0 CDE90401 		strd	r0, [sp, #16]
 345 00a4 02F40032 		and	r2, r2, #131072
 346 00a8 0020     		movs	r0, #0
 347 00aa 0321     		movs	r1, #3
 348 00ac 0292     		str	r2, [sp, #8]
 349 00ae CDE90601 		strd	r0, [sp, #24]
 350 00b2 029A     		ldr	r2, [sp, #8]
ARM GAS  /tmp/ccZFsNAf.s 			page 7


 351 00b4 0722     		movs	r2, #7
 352 00b6 0892     		str	r2, [sp, #32]
 353 00b8 DA6C     		ldr	r2, [r3, #76]
 354 00ba 42F00102 		orr	r2, r2, #1
 355 00be DA64     		str	r2, [r3, #76]
 356 00c0 DB6C     		ldr	r3, [r3, #76]
 357 00c2 03F00103 		and	r3, r3, #1
 358 00c6 0393     		str	r3, [sp, #12]
 359 00c8 04A9     		add	r1, sp, #16
 360 00ca 4FF09040 		mov	r0, #1207959552
 361 00ce 039B     		ldr	r3, [sp, #12]
 362 00d0 FFF7FEFF 		bl	HAL_GPIO_Init
 363 00d4 D7E7     		b	.L27
 364              	.L31:
 365 00d6 0E49     		ldr	r1, .L35+20
 366 00d8 0E48     		ldr	r0, .L35+24
 367 00da FFF7FEFF 		bl	hal_trace_print_var
 368 00de 0E48     		ldr	r0, .L35+28
 369 00e0 FFF7FEFF 		bl	hal_trace_print_var
 370 00e4 0D48     		ldr	r0, .L35+32
 371 00e6 FFF7FEFF 		bl	hal_trace_print_var
 372 00ea 0B48     		ldr	r0, .L35+28
 373 00ec FFF7FEFF 		bl	hal_trace_print_var
 374 00f0 0BB0     		add	sp, sp, #44
 375              		@ sp needed
 376 00f2 BDE83040 		pop	{r4, r5, lr}
 377 00f6 FFF7FEBF 		b	hal_mcu_reset
 378              	.L36:
 379 00fa 00BF     		.align	2
 380              	.L35:
 381 00fc 004C0040 		.word	1073761280
 382 0100 00100240 		.word	1073876992
 383 0104 00080048 		.word	1207961600
 384 0108 00000000 		.word	.LANCHOR4
 385 010c 58040240 		.word	1073874008
 386 0110 00000000 		.word	.LANCHOR5
 387 0114 00000000 		.word	.LC0
 388 0118 1C000000 		.word	.LC1
 389 011c 21000000 		.word	.LC2
 390 0120 00440040 		.word	1073759232
 392              		.section	.text.HAL_UART_MspDeInit,"ax",%progbits
 393              		.align	1
 394              		.global	HAL_UART_MspDeInit
 395              		.syntax unified
 396              		.thumb
 397              		.thumb_func
 398              		.fpu fpv4-sp-d16
 400              	HAL_UART_MspDeInit:
 401              		@ args = 0, pretend = 0, frame = 0
 402              		@ frame_needed = 0, uses_anonymous_args = 0
 403 0000 38B5     		push	{r3, r4, r5, lr}
 404 0002 0268     		ldr	r2, [r0]
 405 0004 174B     		ldr	r3, .L40
 406 0006 9A42     		cmp	r2, r3
 407 0008 0446     		mov	r4, r0
 408 000a 15D1     		bne	.L38
 409 000c 164D     		ldr	r5, .L40+4
ARM GAS  /tmp/ccZFsNAf.s 			page 8


 410 000e 1748     		ldr	r0, .L40+8
 411 0010 AB6D     		ldr	r3, [r5, #88]
 412 0012 23F40023 		bic	r3, r3, #524288
 413 0016 AB65     		str	r3, [r5, #88]
 414 0018 4FF48061 		mov	r1, #1024
 415 001c FFF7FEFF 		bl	HAL_GPIO_DeInit
 416 0020 1248     		ldr	r0, .L40+8
 417 0022 4FF40061 		mov	r1, #2048
 418 0026 FFF7FEFF 		bl	HAL_GPIO_DeInit
 419 002a 1148     		ldr	r0, .L40+12
 420 002c FFF7FEFF 		bl	HAL_DMA_DeInit
 421 0030 AB6C     		ldr	r3, [r5, #72]
 422 0032 23F00203 		bic	r3, r3, #2
 423 0036 AB64     		str	r3, [r5, #72]
 424              	.L38:
 425 0038 2268     		ldr	r2, [r4]
 426 003a 0E4B     		ldr	r3, .L40+16
 427 003c 9A42     		cmp	r2, r3
 428 003e 10D1     		bne	.L37
 429 0040 094A     		ldr	r2, .L40+4
 430 0042 936D     		ldr	r3, [r2, #88]
 431 0044 23F40033 		bic	r3, r3, #131072
 432 0048 9365     		str	r3, [r2, #88]
 433 004a 0421     		movs	r1, #4
 434 004c 4FF09040 		mov	r0, #1207959552
 435 0050 FFF7FEFF 		bl	HAL_GPIO_DeInit
 436 0054 BDE83840 		pop	{r3, r4, r5, lr}
 437 0058 0821     		movs	r1, #8
 438 005a 4FF09040 		mov	r0, #1207959552
 439 005e FFF7FEBF 		b	HAL_GPIO_DeInit
 440              	.L37:
 441 0062 38BD     		pop	{r3, r4, r5, pc}
 442              	.L41:
 443              		.align	2
 444              	.L40:
 445 0064 004C0040 		.word	1073761280
 446 0068 00100240 		.word	1073876992
 447 006c 00080048 		.word	1207961600
 448 0070 00000000 		.word	.LANCHOR4
 449 0074 00440040 		.word	1073759232
 451              		.section	.text.DMA2_Channel5_IRQHandler,"ax",%progbits
 452              		.align	1
 453              		.global	DMA2_Channel5_IRQHandler
 454              		.syntax unified
 455              		.thumb
 456              		.thumb_func
 457              		.fpu fpv4-sp-d16
 459              	DMA2_Channel5_IRQHandler:
 460              		@ args = 0, pretend = 0, frame = 0
 461              		@ frame_needed = 0, uses_anonymous_args = 0
 462              		@ link register save eliminated.
 463 0000 0148     		ldr	r0, .L43
 464 0002 FFF7FEBF 		b	HAL_DMA_IRQHandler
 465              	.L44:
 466 0006 00BF     		.align	2
 467              	.L43:
 468 0008 00000000 		.word	.LANCHOR4
ARM GAS  /tmp/ccZFsNAf.s 			page 9


 470              		.section	.bss.hdma_usart4_rx,"aw",%nobits
 471              		.align	2
 472              		.set	.LANCHOR4,. + 0
 475              	hdma_usart4_rx:
 476 0000 00000000 		.space	72
 476      00000000 
 476      00000000 
 476      00000000 
 476      00000000 
 477              		.section	.bss.huart2,"aw",%nobits
 478              		.align	2
 479              		.set	.LANCHOR2,. + 0
 482              	huart2:
 483 0000 00000000 		.space	128
 483      00000000 
 483      00000000 
 483      00000000 
 483      00000000 
 484              		.section	.bss.huart4,"aw",%nobits
 485              		.align	2
 486              		.set	.LANCHOR0,. + 0
 489              	huart4:
 490 0000 00000000 		.space	128
 490      00000000 
 490      00000000 
 490      00000000 
 490      00000000 
 491              		.section	.rodata.__func__.0,"a"
 492              		.set	.LANCHOR5,. + 0
 495              	__func__.0:
 496 0000 48414C5F 		.ascii	"HAL_UART_MspInit\000"
 496      55415254 
 496      5F4D7370 
 496      496E6974 
 496      00
 497              		.section	.rodata.__func__.1,"a"
 498              		.set	.LANCHOR3,. + 0
 501              	__func__.1:
 502 0000 75617274 		.ascii	"uart2_init\000"
 502      325F696E 
 502      697400
 503              		.section	.rodata.__func__.2,"a"
 504              		.set	.LANCHOR1,. + 0
 507              	__func__.2:
 508 0000 75617274 		.ascii	"uart4_init\000"
 508      345F696E 
 508      697400
 509              		.ident	"GCC: (15:10.3-2021.07-4) 10.3.1 20210621 (release)"
ARM GAS  /tmp/ccZFsNAf.s 			page 10

