ARM GAS  /tmp/cc23A179.s 			page 1


   1              		.cpu cortex-m4
   2              		.eabi_attribute 27, 1
   3              		.eabi_attribute 28, 1
   4              		.eabi_attribute 23, 1
   5              		.eabi_attribute 24, 1
   6              		.eabi_attribute 25, 1
   7              		.eabi_attribute 26, 1
   8              		.eabi_attribute 30, 4
   9              		.eabi_attribute 34, 1
  10              		.eabi_attribute 18, 4
  11              		.file	"stm32l4xx_hal_pwr_ex.c"
  12              		.text
  13              		.section	.text.HAL_PWREx_GetVoltageRange,"ax",%progbits
  14              		.align	1
  15              		.global	HAL_PWREx_GetVoltageRange
  16              		.arch armv7e-m
  17              		.syntax unified
  18              		.thumb
  19              		.thumb_func
  20              		.fpu fpv4-sp-d16
  22              	HAL_PWREx_GetVoltageRange:
  23              		@ args = 0, pretend = 0, frame = 0
  24              		@ frame_needed = 0, uses_anonymous_args = 0
  25              		@ link register save eliminated.
  26 0000 024B     		ldr	r3, .L2
  27 0002 1868     		ldr	r0, [r3]
  28 0004 00F4C060 		and	r0, r0, #1536
  29 0008 7047     		bx	lr
  30              	.L3:
  31 000a 00BF     		.align	2
  32              	.L2:
  33 000c 00700040 		.word	1073770496
  35              		.section	.text.HAL_PWREx_ControlVoltageScaling,"ax",%progbits
  36              		.align	1
  37              		.global	HAL_PWREx_ControlVoltageScaling
  38              		.syntax unified
  39              		.thumb
  40              		.thumb_func
  41              		.fpu fpv4-sp-d16
  43              	HAL_PWREx_ControlVoltageScaling:
  44              		@ args = 0, pretend = 0, frame = 0
  45              		@ frame_needed = 0, uses_anonymous_args = 0
  46              		@ link register save eliminated.
  47 0000 174A     		ldr	r2, .L20
  48 0002 1368     		ldr	r3, [r2]
  49 0004 B0F5007F 		cmp	r0, #512
  50 0008 03F4C063 		and	r3, r3, #1536
  51 000c 1DD1     		bne	.L5
  52 000e B3F5007F 		cmp	r3, #512
  53 0012 01D1     		bne	.L6
  54              	.L19:
  55 0014 0020     		movs	r0, #0
  56 0016 7047     		bx	lr
  57              	.L6:
  58 0018 1368     		ldr	r3, [r2]
  59 001a 23F4C063 		bic	r3, r3, #1536
  60 001e 43F40073 		orr	r3, r3, #512
ARM GAS  /tmp/cc23A179.s 			page 2


  61 0022 1360     		str	r3, [r2]
  62 0024 0F4B     		ldr	r3, .L20+4
  63 0026 1B68     		ldr	r3, [r3]
  64 0028 3221     		movs	r1, #50
  65 002a 4B43     		muls	r3, r1, r3
  66 002c 0E49     		ldr	r1, .L20+8
  67 002e B3FBF1F3 		udiv	r3, r3, r1
  68 0032 0133     		adds	r3, r3, #1
  69              	.L8:
  70 0034 5169     		ldr	r1, [r2, #20]
  71 0036 4905     		lsls	r1, r1, #21
  72 0038 00D5     		bpl	.L9
  73 003a 23B9     		cbnz	r3, .L10
  74              	.L9:
  75 003c 5369     		ldr	r3, [r2, #20]
  76 003e 5B05     		lsls	r3, r3, #21
  77 0040 E8D5     		bpl	.L19
  78 0042 0320     		movs	r0, #3
  79 0044 7047     		bx	lr
  80              	.L10:
  81 0046 013B     		subs	r3, r3, #1
  82 0048 F4E7     		b	.L8
  83              	.L5:
  84 004a B3F5806F 		cmp	r3, #1024
  85 004e 1FBF     		itttt	ne
  86 0050 1368     		ldrne	r3, [r2]
  87 0052 23F4C063 		bicne	r3, r3, #1536
  88 0056 43F48063 		orrne	r3, r3, #1024
  89 005a 1360     		strne	r3, [r2]
  90 005c DAE7     		b	.L19
  91              	.L21:
  92 005e 00BF     		.align	2
  93              	.L20:
  94 0060 00700040 		.word	1073770496
  95 0064 00000000 		.word	SystemCoreClock
  96 0068 40420F00 		.word	1000000
  98              		.section	.text.HAL_PWREx_EnableBatteryCharging,"ax",%progbits
  99              		.align	1
 100              		.global	HAL_PWREx_EnableBatteryCharging
 101              		.syntax unified
 102              		.thumb
 103              		.thumb_func
 104              		.fpu fpv4-sp-d16
 106              	HAL_PWREx_EnableBatteryCharging:
 107              		@ args = 0, pretend = 0, frame = 0
 108              		@ frame_needed = 0, uses_anonymous_args = 0
 109              		@ link register save eliminated.
 110 0000 054A     		ldr	r2, .L23
 111 0002 D368     		ldr	r3, [r2, #12]
 112 0004 23F40073 		bic	r3, r3, #512
 113 0008 1843     		orrs	r0, r0, r3
 114 000a D060     		str	r0, [r2, #12]
 115 000c D368     		ldr	r3, [r2, #12]
 116 000e 43F48073 		orr	r3, r3, #256
 117 0012 D360     		str	r3, [r2, #12]
 118 0014 7047     		bx	lr
 119              	.L24:
ARM GAS  /tmp/cc23A179.s 			page 3


 120 0016 00BF     		.align	2
 121              	.L23:
 122 0018 00700040 		.word	1073770496
 124              		.section	.text.HAL_PWREx_DisableBatteryCharging,"ax",%progbits
 125              		.align	1
 126              		.global	HAL_PWREx_DisableBatteryCharging
 127              		.syntax unified
 128              		.thumb
 129              		.thumb_func
 130              		.fpu fpv4-sp-d16
 132              	HAL_PWREx_DisableBatteryCharging:
 133              		@ args = 0, pretend = 0, frame = 0
 134              		@ frame_needed = 0, uses_anonymous_args = 0
 135              		@ link register save eliminated.
 136 0000 024A     		ldr	r2, .L26
 137 0002 D368     		ldr	r3, [r2, #12]
 138 0004 23F48073 		bic	r3, r3, #256
 139 0008 D360     		str	r3, [r2, #12]
 140 000a 7047     		bx	lr
 141              	.L27:
 142              		.align	2
 143              	.L26:
 144 000c 00700040 		.word	1073770496
 146              		.section	.text.HAL_PWREx_EnableVddUSB,"ax",%progbits
 147              		.align	1
 148              		.global	HAL_PWREx_EnableVddUSB
 149              		.syntax unified
 150              		.thumb
 151              		.thumb_func
 152              		.fpu fpv4-sp-d16
 154              	HAL_PWREx_EnableVddUSB:
 155              		@ args = 0, pretend = 0, frame = 0
 156              		@ frame_needed = 0, uses_anonymous_args = 0
 157              		@ link register save eliminated.
 158 0000 024A     		ldr	r2, .L29
 159 0002 5368     		ldr	r3, [r2, #4]
 160 0004 43F48063 		orr	r3, r3, #1024
 161 0008 5360     		str	r3, [r2, #4]
 162 000a 7047     		bx	lr
 163              	.L30:
 164              		.align	2
 165              	.L29:
 166 000c 00700040 		.word	1073770496
 168              		.section	.text.HAL_PWREx_DisableVddUSB,"ax",%progbits
 169              		.align	1
 170              		.global	HAL_PWREx_DisableVddUSB
 171              		.syntax unified
 172              		.thumb
 173              		.thumb_func
 174              		.fpu fpv4-sp-d16
 176              	HAL_PWREx_DisableVddUSB:
 177              		@ args = 0, pretend = 0, frame = 0
 178              		@ frame_needed = 0, uses_anonymous_args = 0
 179              		@ link register save eliminated.
 180 0000 024A     		ldr	r2, .L32
 181 0002 5368     		ldr	r3, [r2, #4]
 182 0004 23F48063 		bic	r3, r3, #1024
ARM GAS  /tmp/cc23A179.s 			page 4


 183 0008 5360     		str	r3, [r2, #4]
 184 000a 7047     		bx	lr
 185              	.L33:
 186              		.align	2
 187              	.L32:
 188 000c 00700040 		.word	1073770496
 190              		.section	.text.HAL_PWREx_EnableVddIO2,"ax",%progbits
 191              		.align	1
 192              		.global	HAL_PWREx_EnableVddIO2
 193              		.syntax unified
 194              		.thumb
 195              		.thumb_func
 196              		.fpu fpv4-sp-d16
 198              	HAL_PWREx_EnableVddIO2:
 199              		@ args = 0, pretend = 0, frame = 0
 200              		@ frame_needed = 0, uses_anonymous_args = 0
 201              		@ link register save eliminated.
 202 0000 024A     		ldr	r2, .L35
 203 0002 5368     		ldr	r3, [r2, #4]
 204 0004 43F40073 		orr	r3, r3, #512
 205 0008 5360     		str	r3, [r2, #4]
 206 000a 7047     		bx	lr
 207              	.L36:
 208              		.align	2
 209              	.L35:
 210 000c 00700040 		.word	1073770496
 212              		.section	.text.HAL_PWREx_DisableVddIO2,"ax",%progbits
 213              		.align	1
 214              		.global	HAL_PWREx_DisableVddIO2
 215              		.syntax unified
 216              		.thumb
 217              		.thumb_func
 218              		.fpu fpv4-sp-d16
 220              	HAL_PWREx_DisableVddIO2:
 221              		@ args = 0, pretend = 0, frame = 0
 222              		@ frame_needed = 0, uses_anonymous_args = 0
 223              		@ link register save eliminated.
 224 0000 024A     		ldr	r2, .L38
 225 0002 5368     		ldr	r3, [r2, #4]
 226 0004 23F40073 		bic	r3, r3, #512
 227 0008 5360     		str	r3, [r2, #4]
 228 000a 7047     		bx	lr
 229              	.L39:
 230              		.align	2
 231              	.L38:
 232 000c 00700040 		.word	1073770496
 234              		.section	.text.HAL_PWREx_EnableInternalWakeUpLine,"ax",%progbits
 235              		.align	1
 236              		.global	HAL_PWREx_EnableInternalWakeUpLine
 237              		.syntax unified
 238              		.thumb
 239              		.thumb_func
 240              		.fpu fpv4-sp-d16
 242              	HAL_PWREx_EnableInternalWakeUpLine:
 243              		@ args = 0, pretend = 0, frame = 0
 244              		@ frame_needed = 0, uses_anonymous_args = 0
 245              		@ link register save eliminated.
ARM GAS  /tmp/cc23A179.s 			page 5


 246 0000 024A     		ldr	r2, .L41
 247 0002 9368     		ldr	r3, [r2, #8]
 248 0004 43F40043 		orr	r3, r3, #32768
 249 0008 9360     		str	r3, [r2, #8]
 250 000a 7047     		bx	lr
 251              	.L42:
 252              		.align	2
 253              	.L41:
 254 000c 00700040 		.word	1073770496
 256              		.section	.text.HAL_PWREx_DisableInternalWakeUpLine,"ax",%progbits
 257              		.align	1
 258              		.global	HAL_PWREx_DisableInternalWakeUpLine
 259              		.syntax unified
 260              		.thumb
 261              		.thumb_func
 262              		.fpu fpv4-sp-d16
 264              	HAL_PWREx_DisableInternalWakeUpLine:
 265              		@ args = 0, pretend = 0, frame = 0
 266              		@ frame_needed = 0, uses_anonymous_args = 0
 267              		@ link register save eliminated.
 268 0000 024A     		ldr	r2, .L44
 269 0002 9368     		ldr	r3, [r2, #8]
 270 0004 23F40043 		bic	r3, r3, #32768
 271 0008 9360     		str	r3, [r2, #8]
 272 000a 7047     		bx	lr
 273              	.L45:
 274              		.align	2
 275              	.L44:
 276 000c 00700040 		.word	1073770496
 278              		.section	.text.HAL_PWREx_EnableGPIOPullUp,"ax",%progbits
 279              		.align	1
 280              		.global	HAL_PWREx_EnableGPIOPullUp
 281              		.syntax unified
 282              		.thumb
 283              		.thumb_func
 284              		.fpu fpv4-sp-d16
 286              	HAL_PWREx_EnableGPIOPullUp:
 287              		@ args = 0, pretend = 0, frame = 0
 288              		@ frame_needed = 0, uses_anonymous_args = 0
 289              		@ link register save eliminated.
 290 0000 0728     		cmp	r0, #7
 291 0002 56D8     		bhi	.L57
 292 0004 DFE800F0 		tbb	[pc, r0]
 293              	.L49:
 294 0008 04       		.byte	(.L56-.L49)/2
 295 0009 12       		.byte	(.L55-.L49)/2
 296 000a 1D       		.byte	(.L54-.L49)/2
 297 000b 26       		.byte	(.L53-.L49)/2
 298 000c 2F       		.byte	(.L52-.L49)/2
 299 000d 38       		.byte	(.L51-.L49)/2
 300 000e 41       		.byte	(.L50-.L49)/2
 301 000f 4A       		.byte	(.L48-.L49)/2
 302              		.p2align 1
 303              	.L56:
 304 0010 294B     		ldr	r3, .L59
 305 0012 186A     		ldr	r0, [r3, #32]
 306 0014 21F48042 		bic	r2, r1, #16384
ARM GAS  /tmp/cc23A179.s 			page 6


 307 0018 0243     		orrs	r2, r2, r0
 308 001a 1A62     		str	r2, [r3, #32]
 309 001c 5A6A     		ldr	r2, [r3, #36]
 310 001e 21F42041 		bic	r1, r1, #40960
 311 0022 22EA0101 		bic	r1, r2, r1
 312 0026 5962     		str	r1, [r3, #36]
 313              	.L58:
 314 0028 0020     		movs	r0, #0
 315 002a 7047     		bx	lr
 316              	.L55:
 317 002c 224B     		ldr	r3, .L59
 318 002e 9A6A     		ldr	r2, [r3, #40]
 319 0030 0A43     		orrs	r2, r2, r1
 320 0032 9A62     		str	r2, [r3, #40]
 321 0034 DA6A     		ldr	r2, [r3, #44]
 322 0036 21F01001 		bic	r1, r1, #16
 323 003a 22EA0101 		bic	r1, r2, r1
 324 003e D962     		str	r1, [r3, #44]
 325 0040 F2E7     		b	.L58
 326              	.L54:
 327 0042 1D4B     		ldr	r3, .L59
 328 0044 1A6B     		ldr	r2, [r3, #48]
 329 0046 0A43     		orrs	r2, r2, r1
 330 0048 1A63     		str	r2, [r3, #48]
 331 004a 5A6B     		ldr	r2, [r3, #52]
 332 004c 22EA0101 		bic	r1, r2, r1
 333 0050 5963     		str	r1, [r3, #52]
 334 0052 E9E7     		b	.L58
 335              	.L53:
 336 0054 184B     		ldr	r3, .L59
 337 0056 9A6B     		ldr	r2, [r3, #56]
 338 0058 0A43     		orrs	r2, r2, r1
 339 005a 9A63     		str	r2, [r3, #56]
 340 005c DA6B     		ldr	r2, [r3, #60]
 341 005e 22EA0101 		bic	r1, r2, r1
 342 0062 D963     		str	r1, [r3, #60]
 343 0064 E0E7     		b	.L58
 344              	.L52:
 345 0066 144B     		ldr	r3, .L59
 346 0068 1A6C     		ldr	r2, [r3, #64]
 347 006a 0A43     		orrs	r2, r2, r1
 348 006c 1A64     		str	r2, [r3, #64]
 349 006e 5A6C     		ldr	r2, [r3, #68]
 350 0070 22EA0101 		bic	r1, r2, r1
 351 0074 5964     		str	r1, [r3, #68]
 352 0076 D7E7     		b	.L58
 353              	.L51:
 354 0078 0F4B     		ldr	r3, .L59
 355 007a 9A6C     		ldr	r2, [r3, #72]
 356 007c 0A43     		orrs	r2, r2, r1
 357 007e 9A64     		str	r2, [r3, #72]
 358 0080 DA6C     		ldr	r2, [r3, #76]
 359 0082 22EA0101 		bic	r1, r2, r1
 360 0086 D964     		str	r1, [r3, #76]
 361 0088 CEE7     		b	.L58
 362              	.L50:
 363 008a 0B4B     		ldr	r3, .L59
ARM GAS  /tmp/cc23A179.s 			page 7


 364 008c 1A6D     		ldr	r2, [r3, #80]
 365 008e 0A43     		orrs	r2, r2, r1
 366 0090 1A65     		str	r2, [r3, #80]
 367 0092 5A6D     		ldr	r2, [r3, #84]
 368 0094 22EA0101 		bic	r1, r2, r1
 369 0098 5965     		str	r1, [r3, #84]
 370 009a C5E7     		b	.L58
 371              	.L48:
 372 009c 064B     		ldr	r3, .L59
 373 009e 9A6D     		ldr	r2, [r3, #88]
 374 00a0 01F00301 		and	r1, r1, #3
 375 00a4 0A43     		orrs	r2, r2, r1
 376 00a6 9A65     		str	r2, [r3, #88]
 377 00a8 DA6D     		ldr	r2, [r3, #92]
 378 00aa 22EA0101 		bic	r1, r2, r1
 379 00ae D965     		str	r1, [r3, #92]
 380 00b0 BAE7     		b	.L58
 381              	.L57:
 382 00b2 0120     		movs	r0, #1
 383 00b4 7047     		bx	lr
 384              	.L60:
 385 00b6 00BF     		.align	2
 386              	.L59:
 387 00b8 00700040 		.word	1073770496
 389              		.section	.text.HAL_PWREx_DisableGPIOPullUp,"ax",%progbits
 390              		.align	1
 391              		.global	HAL_PWREx_DisableGPIOPullUp
 392              		.syntax unified
 393              		.thumb
 394              		.thumb_func
 395              		.fpu fpv4-sp-d16
 397              	HAL_PWREx_DisableGPIOPullUp:
 398              		@ args = 0, pretend = 0, frame = 0
 399              		@ frame_needed = 0, uses_anonymous_args = 0
 400              		@ link register save eliminated.
 401 0000 0728     		cmp	r0, #7
 402 0002 3AD8     		bhi	.L72
 403 0004 DFE800F0 		tbb	[pc, r0]
 404              	.L64:
 405 0008 04       		.byte	(.L71-.L64)/2
 406 0009 0D       		.byte	(.L70-.L64)/2
 407 000a 13       		.byte	(.L69-.L64)/2
 408 000b 19       		.byte	(.L68-.L64)/2
 409 000c 1F       		.byte	(.L67-.L64)/2
 410 000d 25       		.byte	(.L66-.L64)/2
 411 000e 2B       		.byte	(.L65-.L64)/2
 412 000f 31       		.byte	(.L63-.L64)/2
 413              		.p2align 1
 414              	.L71:
 415 0010 1B4A     		ldr	r2, .L74
 416 0012 136A     		ldr	r3, [r2, #32]
 417 0014 21F48041 		bic	r1, r1, #16384
 418 0018 23EA0101 		bic	r1, r3, r1
 419 001c 1162     		str	r1, [r2, #32]
 420              	.L73:
 421 001e 0020     		movs	r0, #0
 422 0020 7047     		bx	lr
ARM GAS  /tmp/cc23A179.s 			page 8


 423              	.L70:
 424 0022 174A     		ldr	r2, .L74
 425 0024 936A     		ldr	r3, [r2, #40]
 426 0026 23EA0101 		bic	r1, r3, r1
 427 002a 9162     		str	r1, [r2, #40]
 428 002c F7E7     		b	.L73
 429              	.L69:
 430 002e 144A     		ldr	r2, .L74
 431 0030 136B     		ldr	r3, [r2, #48]
 432 0032 23EA0101 		bic	r1, r3, r1
 433 0036 1163     		str	r1, [r2, #48]
 434 0038 F1E7     		b	.L73
 435              	.L68:
 436 003a 114A     		ldr	r2, .L74
 437 003c 936B     		ldr	r3, [r2, #56]
 438 003e 23EA0101 		bic	r1, r3, r1
 439 0042 9163     		str	r1, [r2, #56]
 440 0044 EBE7     		b	.L73
 441              	.L67:
 442 0046 0E4A     		ldr	r2, .L74
 443 0048 136C     		ldr	r3, [r2, #64]
 444 004a 23EA0101 		bic	r1, r3, r1
 445 004e 1164     		str	r1, [r2, #64]
 446 0050 E5E7     		b	.L73
 447              	.L66:
 448 0052 0B4A     		ldr	r2, .L74
 449 0054 936C     		ldr	r3, [r2, #72]
 450 0056 23EA0101 		bic	r1, r3, r1
 451 005a 9164     		str	r1, [r2, #72]
 452 005c DFE7     		b	.L73
 453              	.L65:
 454 005e 084A     		ldr	r2, .L74
 455 0060 136D     		ldr	r3, [r2, #80]
 456 0062 23EA0101 		bic	r1, r3, r1
 457 0066 1165     		str	r1, [r2, #80]
 458 0068 D9E7     		b	.L73
 459              	.L63:
 460 006a 054A     		ldr	r2, .L74
 461 006c 936D     		ldr	r3, [r2, #88]
 462 006e 01F00301 		and	r1, r1, #3
 463 0072 23EA0101 		bic	r1, r3, r1
 464 0076 9165     		str	r1, [r2, #88]
 465 0078 D1E7     		b	.L73
 466              	.L72:
 467 007a 0120     		movs	r0, #1
 468 007c 7047     		bx	lr
 469              	.L75:
 470 007e 00BF     		.align	2
 471              	.L74:
 472 0080 00700040 		.word	1073770496
 474              		.section	.text.HAL_PWREx_EnableGPIOPullDown,"ax",%progbits
 475              		.align	1
 476              		.global	HAL_PWREx_EnableGPIOPullDown
 477              		.syntax unified
 478              		.thumb
 479              		.thumb_func
 480              		.fpu fpv4-sp-d16
ARM GAS  /tmp/cc23A179.s 			page 9


 482              	HAL_PWREx_EnableGPIOPullDown:
 483              		@ args = 0, pretend = 0, frame = 0
 484              		@ frame_needed = 0, uses_anonymous_args = 0
 485              		@ link register save eliminated.
 486 0000 0728     		cmp	r0, #7
 487 0002 56D8     		bhi	.L87
 488 0004 DFE800F0 		tbb	[pc, r0]
 489              	.L79:
 490 0008 04       		.byte	(.L86-.L79)/2
 491 0009 12       		.byte	(.L85-.L79)/2
 492 000a 1D       		.byte	(.L84-.L79)/2
 493 000b 26       		.byte	(.L83-.L79)/2
 494 000c 2F       		.byte	(.L82-.L79)/2
 495 000d 38       		.byte	(.L81-.L79)/2
 496 000e 41       		.byte	(.L80-.L79)/2
 497 000f 4A       		.byte	(.L78-.L79)/2
 498              		.p2align 1
 499              	.L86:
 500 0010 294B     		ldr	r3, .L89
 501 0012 586A     		ldr	r0, [r3, #36]
 502 0014 21F42042 		bic	r2, r1, #40960
 503 0018 0243     		orrs	r2, r2, r0
 504 001a 5A62     		str	r2, [r3, #36]
 505 001c 1A6A     		ldr	r2, [r3, #32]
 506 001e 21F48041 		bic	r1, r1, #16384
 507 0022 22EA0101 		bic	r1, r2, r1
 508 0026 1962     		str	r1, [r3, #32]
 509              	.L88:
 510 0028 0020     		movs	r0, #0
 511 002a 7047     		bx	lr
 512              	.L85:
 513 002c 224B     		ldr	r3, .L89
 514 002e D86A     		ldr	r0, [r3, #44]
 515 0030 21F01002 		bic	r2, r1, #16
 516 0034 0243     		orrs	r2, r2, r0
 517 0036 DA62     		str	r2, [r3, #44]
 518 0038 9A6A     		ldr	r2, [r3, #40]
 519 003a 22EA0101 		bic	r1, r2, r1
 520 003e 9962     		str	r1, [r3, #40]
 521 0040 F2E7     		b	.L88
 522              	.L84:
 523 0042 1D4B     		ldr	r3, .L89
 524 0044 5A6B     		ldr	r2, [r3, #52]
 525 0046 0A43     		orrs	r2, r2, r1
 526 0048 5A63     		str	r2, [r3, #52]
 527 004a 1A6B     		ldr	r2, [r3, #48]
 528 004c 22EA0101 		bic	r1, r2, r1
 529 0050 1963     		str	r1, [r3, #48]
 530 0052 E9E7     		b	.L88
 531              	.L83:
 532 0054 184B     		ldr	r3, .L89
 533 0056 DA6B     		ldr	r2, [r3, #60]
 534 0058 0A43     		orrs	r2, r2, r1
 535 005a DA63     		str	r2, [r3, #60]
 536 005c 9A6B     		ldr	r2, [r3, #56]
 537 005e 22EA0101 		bic	r1, r2, r1
 538 0062 9963     		str	r1, [r3, #56]
ARM GAS  /tmp/cc23A179.s 			page 10


 539 0064 E0E7     		b	.L88
 540              	.L82:
 541 0066 144B     		ldr	r3, .L89
 542 0068 5A6C     		ldr	r2, [r3, #68]
 543 006a 0A43     		orrs	r2, r2, r1
 544 006c 5A64     		str	r2, [r3, #68]
 545 006e 1A6C     		ldr	r2, [r3, #64]
 546 0070 22EA0101 		bic	r1, r2, r1
 547 0074 1964     		str	r1, [r3, #64]
 548 0076 D7E7     		b	.L88
 549              	.L81:
 550 0078 0F4B     		ldr	r3, .L89
 551 007a DA6C     		ldr	r2, [r3, #76]
 552 007c 0A43     		orrs	r2, r2, r1
 553 007e DA64     		str	r2, [r3, #76]
 554 0080 9A6C     		ldr	r2, [r3, #72]
 555 0082 22EA0101 		bic	r1, r2, r1
 556 0086 9964     		str	r1, [r3, #72]
 557 0088 CEE7     		b	.L88
 558              	.L80:
 559 008a 0B4B     		ldr	r3, .L89
 560 008c 5A6D     		ldr	r2, [r3, #84]
 561 008e 0A43     		orrs	r2, r2, r1
 562 0090 5A65     		str	r2, [r3, #84]
 563 0092 1A6D     		ldr	r2, [r3, #80]
 564 0094 22EA0101 		bic	r1, r2, r1
 565 0098 1965     		str	r1, [r3, #80]
 566 009a C5E7     		b	.L88
 567              	.L78:
 568 009c 064B     		ldr	r3, .L89
 569 009e DA6D     		ldr	r2, [r3, #92]
 570 00a0 01F00301 		and	r1, r1, #3
 571 00a4 0A43     		orrs	r2, r2, r1
 572 00a6 DA65     		str	r2, [r3, #92]
 573 00a8 9A6D     		ldr	r2, [r3, #88]
 574 00aa 22EA0101 		bic	r1, r2, r1
 575 00ae 9965     		str	r1, [r3, #88]
 576 00b0 BAE7     		b	.L88
 577              	.L87:
 578 00b2 0120     		movs	r0, #1
 579 00b4 7047     		bx	lr
 580              	.L90:
 581 00b6 00BF     		.align	2
 582              	.L89:
 583 00b8 00700040 		.word	1073770496
 585              		.section	.text.HAL_PWREx_DisableGPIOPullDown,"ax",%progbits
 586              		.align	1
 587              		.global	HAL_PWREx_DisableGPIOPullDown
 588              		.syntax unified
 589              		.thumb
 590              		.thumb_func
 591              		.fpu fpv4-sp-d16
 593              	HAL_PWREx_DisableGPIOPullDown:
 594              		@ args = 0, pretend = 0, frame = 0
 595              		@ frame_needed = 0, uses_anonymous_args = 0
 596              		@ link register save eliminated.
 597 0000 0728     		cmp	r0, #7
ARM GAS  /tmp/cc23A179.s 			page 11


 598 0002 3CD8     		bhi	.L102
 599 0004 DFE800F0 		tbb	[pc, r0]
 600              	.L94:
 601 0008 04       		.byte	(.L101-.L94)/2
 602 0009 0D       		.byte	(.L100-.L94)/2
 603 000a 15       		.byte	(.L99-.L94)/2
 604 000b 1B       		.byte	(.L98-.L94)/2
 605 000c 21       		.byte	(.L97-.L94)/2
 606 000d 27       		.byte	(.L96-.L94)/2
 607 000e 2D       		.byte	(.L95-.L94)/2
 608 000f 33       		.byte	(.L93-.L94)/2
 609              		.p2align 1
 610              	.L101:
 611 0010 1C4A     		ldr	r2, .L104
 612 0012 536A     		ldr	r3, [r2, #36]
 613 0014 21F42041 		bic	r1, r1, #40960
 614 0018 23EA0101 		bic	r1, r3, r1
 615 001c 5162     		str	r1, [r2, #36]
 616              	.L103:
 617 001e 0020     		movs	r0, #0
 618 0020 7047     		bx	lr
 619              	.L100:
 620 0022 184A     		ldr	r2, .L104
 621 0024 D36A     		ldr	r3, [r2, #44]
 622 0026 21F01001 		bic	r1, r1, #16
 623 002a 23EA0101 		bic	r1, r3, r1
 624 002e D162     		str	r1, [r2, #44]
 625 0030 F5E7     		b	.L103
 626              	.L99:
 627 0032 144A     		ldr	r2, .L104
 628 0034 536B     		ldr	r3, [r2, #52]
 629 0036 23EA0101 		bic	r1, r3, r1
 630 003a 5163     		str	r1, [r2, #52]
 631 003c EFE7     		b	.L103
 632              	.L98:
 633 003e 114A     		ldr	r2, .L104
 634 0040 D36B     		ldr	r3, [r2, #60]
 635 0042 23EA0101 		bic	r1, r3, r1
 636 0046 D163     		str	r1, [r2, #60]
 637 0048 E9E7     		b	.L103
 638              	.L97:
 639 004a 0E4A     		ldr	r2, .L104
 640 004c 536C     		ldr	r3, [r2, #68]
 641 004e 23EA0101 		bic	r1, r3, r1
 642 0052 5164     		str	r1, [r2, #68]
 643 0054 E3E7     		b	.L103
 644              	.L96:
 645 0056 0B4A     		ldr	r2, .L104
 646 0058 D36C     		ldr	r3, [r2, #76]
 647 005a 23EA0101 		bic	r1, r3, r1
 648 005e D164     		str	r1, [r2, #76]
 649 0060 DDE7     		b	.L103
 650              	.L95:
 651 0062 084A     		ldr	r2, .L104
 652 0064 536D     		ldr	r3, [r2, #84]
 653 0066 23EA0101 		bic	r1, r3, r1
 654 006a 5165     		str	r1, [r2, #84]
ARM GAS  /tmp/cc23A179.s 			page 12


 655 006c D7E7     		b	.L103
 656              	.L93:
 657 006e 054A     		ldr	r2, .L104
 658 0070 D36D     		ldr	r3, [r2, #92]
 659 0072 01F00301 		and	r1, r1, #3
 660 0076 23EA0101 		bic	r1, r3, r1
 661 007a D165     		str	r1, [r2, #92]
 662 007c CFE7     		b	.L103
 663              	.L102:
 664 007e 0120     		movs	r0, #1
 665 0080 7047     		bx	lr
 666              	.L105:
 667 0082 00BF     		.align	2
 668              	.L104:
 669 0084 00700040 		.word	1073770496
 671              		.section	.text.HAL_PWREx_EnablePullUpPullDownConfig,"ax",%progbits
 672              		.align	1
 673              		.global	HAL_PWREx_EnablePullUpPullDownConfig
 674              		.syntax unified
 675              		.thumb
 676              		.thumb_func
 677              		.fpu fpv4-sp-d16
 679              	HAL_PWREx_EnablePullUpPullDownConfig:
 680              		@ args = 0, pretend = 0, frame = 0
 681              		@ frame_needed = 0, uses_anonymous_args = 0
 682              		@ link register save eliminated.
 683 0000 024A     		ldr	r2, .L107
 684 0002 9368     		ldr	r3, [r2, #8]
 685 0004 43F48063 		orr	r3, r3, #1024
 686 0008 9360     		str	r3, [r2, #8]
 687 000a 7047     		bx	lr
 688              	.L108:
 689              		.align	2
 690              	.L107:
 691 000c 00700040 		.word	1073770496
 693              		.section	.text.HAL_PWREx_DisablePullUpPullDownConfig,"ax",%progbits
 694              		.align	1
 695              		.global	HAL_PWREx_DisablePullUpPullDownConfig
 696              		.syntax unified
 697              		.thumb
 698              		.thumb_func
 699              		.fpu fpv4-sp-d16
 701              	HAL_PWREx_DisablePullUpPullDownConfig:
 702              		@ args = 0, pretend = 0, frame = 0
 703              		@ frame_needed = 0, uses_anonymous_args = 0
 704              		@ link register save eliminated.
 705 0000 024A     		ldr	r2, .L110
 706 0002 9368     		ldr	r3, [r2, #8]
 707 0004 23F48063 		bic	r3, r3, #1024
 708 0008 9360     		str	r3, [r2, #8]
 709 000a 7047     		bx	lr
 710              	.L111:
 711              		.align	2
 712              	.L110:
 713 000c 00700040 		.word	1073770496
 715              		.section	.text.HAL_PWREx_EnableSRAM2ContentRetention,"ax",%progbits
 716              		.align	1
ARM GAS  /tmp/cc23A179.s 			page 13


 717              		.global	HAL_PWREx_EnableSRAM2ContentRetention
 718              		.syntax unified
 719              		.thumb
 720              		.thumb_func
 721              		.fpu fpv4-sp-d16
 723              	HAL_PWREx_EnableSRAM2ContentRetention:
 724              		@ args = 0, pretend = 0, frame = 0
 725              		@ frame_needed = 0, uses_anonymous_args = 0
 726              		@ link register save eliminated.
 727 0000 024A     		ldr	r2, .L113
 728 0002 9368     		ldr	r3, [r2, #8]
 729 0004 43F48073 		orr	r3, r3, #256
 730 0008 9360     		str	r3, [r2, #8]
 731 000a 7047     		bx	lr
 732              	.L114:
 733              		.align	2
 734              	.L113:
 735 000c 00700040 		.word	1073770496
 737              		.section	.text.HAL_PWREx_SetSRAM2ContentRetention,"ax",%progbits
 738              		.align	1
 739              		.global	HAL_PWREx_SetSRAM2ContentRetention
 740              		.syntax unified
 741              		.thumb
 742              		.thumb_func
 743              		.fpu fpv4-sp-d16
 745              	HAL_PWREx_SetSRAM2ContentRetention:
 746              		@ args = 0, pretend = 0, frame = 0
 747              		@ frame_needed = 0, uses_anonymous_args = 0
 748              		@ link register save eliminated.
 749 0000 28B9     		cbnz	r0, .L116
 750 0002 094A     		ldr	r2, .L119
 751 0004 9368     		ldr	r3, [r2, #8]
 752 0006 23F48073 		bic	r3, r3, #256
 753 000a 9360     		str	r3, [r2, #8]
 754 000c 7047     		bx	lr
 755              	.L116:
 756 000e B0F5807F 		cmp	r0, #256
 757 0012 01BF     		itttt	eq
 758 0014 044A     		ldreq	r2, .L119
 759 0016 9368     		ldreq	r3, [r2, #8]
 760 0018 43F48073 		orreq	r3, r3, #256
 761 001c 0020     		moveq	r0, #0
 762 001e 0CBF     		ite	eq
 763 0020 9360     		streq	r3, [r2, #8]
 764 0022 0120     		movne	r0, #1
 765 0024 7047     		bx	lr
 766              	.L120:
 767 0026 00BF     		.align	2
 768              	.L119:
 769 0028 00700040 		.word	1073770496
 771              		.section	.text.HAL_PWREx_DisableSRAM2ContentRetention,"ax",%progbits
 772              		.align	1
 773              		.global	HAL_PWREx_DisableSRAM2ContentRetention
 774              		.syntax unified
 775              		.thumb
 776              		.thumb_func
 777              		.fpu fpv4-sp-d16
ARM GAS  /tmp/cc23A179.s 			page 14


 779              	HAL_PWREx_DisableSRAM2ContentRetention:
 780              		@ args = 0, pretend = 0, frame = 0
 781              		@ frame_needed = 0, uses_anonymous_args = 0
 782              		@ link register save eliminated.
 783 0000 0020     		movs	r0, #0
 784 0002 FFF7FEBF 		b	HAL_PWREx_SetSRAM2ContentRetention
 786              		.section	.text.HAL_PWREx_EnablePVM1,"ax",%progbits
 787              		.align	1
 788              		.global	HAL_PWREx_EnablePVM1
 789              		.syntax unified
 790              		.thumb
 791              		.thumb_func
 792              		.fpu fpv4-sp-d16
 794              	HAL_PWREx_EnablePVM1:
 795              		@ args = 0, pretend = 0, frame = 0
 796              		@ frame_needed = 0, uses_anonymous_args = 0
 797              		@ link register save eliminated.
 798 0000 024A     		ldr	r2, .L123
 799 0002 5368     		ldr	r3, [r2, #4]
 800 0004 43F01003 		orr	r3, r3, #16
 801 0008 5360     		str	r3, [r2, #4]
 802 000a 7047     		bx	lr
 803              	.L124:
 804              		.align	2
 805              	.L123:
 806 000c 00700040 		.word	1073770496
 808              		.section	.text.HAL_PWREx_DisablePVM1,"ax",%progbits
 809              		.align	1
 810              		.global	HAL_PWREx_DisablePVM1
 811              		.syntax unified
 812              		.thumb
 813              		.thumb_func
 814              		.fpu fpv4-sp-d16
 816              	HAL_PWREx_DisablePVM1:
 817              		@ args = 0, pretend = 0, frame = 0
 818              		@ frame_needed = 0, uses_anonymous_args = 0
 819              		@ link register save eliminated.
 820 0000 024A     		ldr	r2, .L126
 821 0002 5368     		ldr	r3, [r2, #4]
 822 0004 23F01003 		bic	r3, r3, #16
 823 0008 5360     		str	r3, [r2, #4]
 824 000a 7047     		bx	lr
 825              	.L127:
 826              		.align	2
 827              	.L126:
 828 000c 00700040 		.word	1073770496
 830              		.section	.text.HAL_PWREx_EnablePVM2,"ax",%progbits
 831              		.align	1
 832              		.global	HAL_PWREx_EnablePVM2
 833              		.syntax unified
 834              		.thumb
 835              		.thumb_func
 836              		.fpu fpv4-sp-d16
 838              	HAL_PWREx_EnablePVM2:
 839              		@ args = 0, pretend = 0, frame = 0
 840              		@ frame_needed = 0, uses_anonymous_args = 0
 841              		@ link register save eliminated.
ARM GAS  /tmp/cc23A179.s 			page 15


 842 0000 024A     		ldr	r2, .L129
 843 0002 5368     		ldr	r3, [r2, #4]
 844 0004 43F02003 		orr	r3, r3, #32
 845 0008 5360     		str	r3, [r2, #4]
 846 000a 7047     		bx	lr
 847              	.L130:
 848              		.align	2
 849              	.L129:
 850 000c 00700040 		.word	1073770496
 852              		.section	.text.HAL_PWREx_DisablePVM2,"ax",%progbits
 853              		.align	1
 854              		.global	HAL_PWREx_DisablePVM2
 855              		.syntax unified
 856              		.thumb
 857              		.thumb_func
 858              		.fpu fpv4-sp-d16
 860              	HAL_PWREx_DisablePVM2:
 861              		@ args = 0, pretend = 0, frame = 0
 862              		@ frame_needed = 0, uses_anonymous_args = 0
 863              		@ link register save eliminated.
 864 0000 024A     		ldr	r2, .L132
 865 0002 5368     		ldr	r3, [r2, #4]
 866 0004 23F02003 		bic	r3, r3, #32
 867 0008 5360     		str	r3, [r2, #4]
 868 000a 7047     		bx	lr
 869              	.L133:
 870              		.align	2
 871              	.L132:
 872 000c 00700040 		.word	1073770496
 874              		.section	.text.HAL_PWREx_EnablePVM3,"ax",%progbits
 875              		.align	1
 876              		.global	HAL_PWREx_EnablePVM3
 877              		.syntax unified
 878              		.thumb
 879              		.thumb_func
 880              		.fpu fpv4-sp-d16
 882              	HAL_PWREx_EnablePVM3:
 883              		@ args = 0, pretend = 0, frame = 0
 884              		@ frame_needed = 0, uses_anonymous_args = 0
 885              		@ link register save eliminated.
 886 0000 024A     		ldr	r2, .L135
 887 0002 5368     		ldr	r3, [r2, #4]
 888 0004 43F04003 		orr	r3, r3, #64
 889 0008 5360     		str	r3, [r2, #4]
 890 000a 7047     		bx	lr
 891              	.L136:
 892              		.align	2
 893              	.L135:
 894 000c 00700040 		.word	1073770496
 896              		.section	.text.HAL_PWREx_DisablePVM3,"ax",%progbits
 897              		.align	1
 898              		.global	HAL_PWREx_DisablePVM3
 899              		.syntax unified
 900              		.thumb
 901              		.thumb_func
 902              		.fpu fpv4-sp-d16
 904              	HAL_PWREx_DisablePVM3:
ARM GAS  /tmp/cc23A179.s 			page 16


 905              		@ args = 0, pretend = 0, frame = 0
 906              		@ frame_needed = 0, uses_anonymous_args = 0
 907              		@ link register save eliminated.
 908 0000 024A     		ldr	r2, .L138
 909 0002 5368     		ldr	r3, [r2, #4]
 910 0004 23F04003 		bic	r3, r3, #64
 911 0008 5360     		str	r3, [r2, #4]
 912 000a 7047     		bx	lr
 913              	.L139:
 914              		.align	2
 915              	.L138:
 916 000c 00700040 		.word	1073770496
 918              		.section	.text.HAL_PWREx_EnablePVM4,"ax",%progbits
 919              		.align	1
 920              		.global	HAL_PWREx_EnablePVM4
 921              		.syntax unified
 922              		.thumb
 923              		.thumb_func
 924              		.fpu fpv4-sp-d16
 926              	HAL_PWREx_EnablePVM4:
 927              		@ args = 0, pretend = 0, frame = 0
 928              		@ frame_needed = 0, uses_anonymous_args = 0
 929              		@ link register save eliminated.
 930 0000 024A     		ldr	r2, .L141
 931 0002 5368     		ldr	r3, [r2, #4]
 932 0004 43F08003 		orr	r3, r3, #128
 933 0008 5360     		str	r3, [r2, #4]
 934 000a 7047     		bx	lr
 935              	.L142:
 936              		.align	2
 937              	.L141:
 938 000c 00700040 		.word	1073770496
 940              		.section	.text.HAL_PWREx_DisablePVM4,"ax",%progbits
 941              		.align	1
 942              		.global	HAL_PWREx_DisablePVM4
 943              		.syntax unified
 944              		.thumb
 945              		.thumb_func
 946              		.fpu fpv4-sp-d16
 948              	HAL_PWREx_DisablePVM4:
 949              		@ args = 0, pretend = 0, frame = 0
 950              		@ frame_needed = 0, uses_anonymous_args = 0
 951              		@ link register save eliminated.
 952 0000 024A     		ldr	r2, .L144
 953 0002 5368     		ldr	r3, [r2, #4]
 954 0004 23F08003 		bic	r3, r3, #128
 955 0008 5360     		str	r3, [r2, #4]
 956 000a 7047     		bx	lr
 957              	.L145:
 958              		.align	2
 959              	.L144:
 960 000c 00700040 		.word	1073770496
 962              		.section	.text.HAL_PWREx_ConfigPVM,"ax",%progbits
 963              		.align	1
 964              		.global	HAL_PWREx_ConfigPVM
 965              		.syntax unified
 966              		.thumb
ARM GAS  /tmp/cc23A179.s 			page 17


 967              		.thumb_func
 968              		.fpu fpv4-sp-d16
 970              	HAL_PWREx_ConfigPVM:
 971              		@ args = 0, pretend = 0, frame = 0
 972              		@ frame_needed = 0, uses_anonymous_args = 0
 973              		@ link register save eliminated.
 974 0000 0368     		ldr	r3, [r0]
 975 0002 402B     		cmp	r3, #64
 976 0004 00F08A80 		beq	.L147
 977 0008 05D8     		bhi	.L148
 978 000a 102B     		cmp	r3, #16
 979 000c 2FD0     		beq	.L149
 980 000e 202B     		cmp	r3, #32
 981 0010 5AD0     		beq	.L150
 982              	.L212:
 983 0012 0120     		movs	r0, #1
 984 0014 7047     		bx	lr
 985              	.L148:
 986 0016 802B     		cmp	r3, #128
 987 0018 FBD1     		bne	.L212
 988 001a 554B     		ldr	r3, .L215
 989 001c 5A6A     		ldr	r2, [r3, #36]
 990 001e 22F04002 		bic	r2, r2, #64
 991 0022 5A62     		str	r2, [r3, #36]
 992 0024 1A6A     		ldr	r2, [r3, #32]
 993 0026 22F04002 		bic	r2, r2, #64
 994 002a 1A62     		str	r2, [r3, #32]
 995 002c DA6A     		ldr	r2, [r3, #44]
 996 002e 22F04002 		bic	r2, r2, #64
 997 0032 DA62     		str	r2, [r3, #44]
 998 0034 9A6A     		ldr	r2, [r3, #40]
 999 0036 22F04002 		bic	r2, r2, #64
 1000 003a 9A62     		str	r2, [r3, #40]
 1001 003c 4268     		ldr	r2, [r0, #4]
 1002 003e D103     		lsls	r1, r2, #15
 1003 0040 42BF     		ittt	mi
 1004 0042 196A     		ldrmi	r1, [r3, #32]
 1005 0044 41F04001 		orrmi	r1, r1, #64
 1006 0048 1962     		strmi	r1, [r3, #32]
 1007 004a 9003     		lsls	r0, r2, #14
 1008 004c 42BF     		ittt	mi
 1009 004e 596A     		ldrmi	r1, [r3, #36]
 1010 0050 41F04001 		orrmi	r1, r1, #64
 1011 0054 5962     		strmi	r1, [r3, #36]
 1012 0056 D107     		lsls	r1, r2, #31
 1013 0058 42BF     		ittt	mi
 1014 005a 996A     		ldrmi	r1, [r3, #40]
 1015 005c 41F04001 		orrmi	r1, r1, #64
 1016 0060 9962     		strmi	r1, [r3, #40]
 1017 0062 9207     		lsls	r2, r2, #30
 1018 0064 29D5     		bpl	.L214
 1019 0066 DA6A     		ldr	r2, [r3, #44]
 1020 0068 42F04002 		orr	r2, r2, #64
 1021 006c 2AE0     		b	.L213
 1022              	.L149:
 1023 006e 404B     		ldr	r3, .L215
 1024 0070 5A6A     		ldr	r2, [r3, #36]
ARM GAS  /tmp/cc23A179.s 			page 18


 1025 0072 22F00802 		bic	r2, r2, #8
 1026 0076 5A62     		str	r2, [r3, #36]
 1027 0078 1A6A     		ldr	r2, [r3, #32]
 1028 007a 22F00802 		bic	r2, r2, #8
 1029 007e 1A62     		str	r2, [r3, #32]
 1030 0080 DA6A     		ldr	r2, [r3, #44]
 1031 0082 22F00802 		bic	r2, r2, #8
 1032 0086 DA62     		str	r2, [r3, #44]
 1033 0088 9A6A     		ldr	r2, [r3, #40]
 1034 008a 22F00802 		bic	r2, r2, #8
 1035 008e 9A62     		str	r2, [r3, #40]
 1036 0090 4268     		ldr	r2, [r0, #4]
 1037 0092 D103     		lsls	r1, r2, #15
 1038 0094 42BF     		ittt	mi
 1039 0096 196A     		ldrmi	r1, [r3, #32]
 1040 0098 41F00801 		orrmi	r1, r1, #8
 1041 009c 1962     		strmi	r1, [r3, #32]
 1042 009e 9003     		lsls	r0, r2, #14
 1043 00a0 42BF     		ittt	mi
 1044 00a2 596A     		ldrmi	r1, [r3, #36]
 1045 00a4 41F00801 		orrmi	r1, r1, #8
 1046 00a8 5962     		strmi	r1, [r3, #36]
 1047 00aa D107     		lsls	r1, r2, #31
 1048 00ac 42BF     		ittt	mi
 1049 00ae 996A     		ldrmi	r1, [r3, #40]
 1050 00b0 41F00801 		orrmi	r1, r1, #8
 1051 00b4 9962     		strmi	r1, [r3, #40]
 1052 00b6 9007     		lsls	r0, r2, #30
 1053 00b8 01D4     		bmi	.L156
 1054              	.L214:
 1055 00ba 0020     		movs	r0, #0
 1056 00bc 7047     		bx	lr
 1057              	.L156:
 1058 00be DA6A     		ldr	r2, [r3, #44]
 1059 00c0 42F00802 		orr	r2, r2, #8
 1060              	.L213:
 1061 00c4 DA62     		str	r2, [r3, #44]
 1062 00c6 F8E7     		b	.L214
 1063              	.L150:
 1064 00c8 294B     		ldr	r3, .L215
 1065 00ca 5A6A     		ldr	r2, [r3, #36]
 1066 00cc 22F01002 		bic	r2, r2, #16
 1067 00d0 5A62     		str	r2, [r3, #36]
 1068 00d2 1A6A     		ldr	r2, [r3, #32]
 1069 00d4 22F01002 		bic	r2, r2, #16
 1070 00d8 1A62     		str	r2, [r3, #32]
 1071 00da DA6A     		ldr	r2, [r3, #44]
 1072 00dc 22F01002 		bic	r2, r2, #16
 1073 00e0 DA62     		str	r2, [r3, #44]
 1074 00e2 9A6A     		ldr	r2, [r3, #40]
 1075 00e4 22F01002 		bic	r2, r2, #16
 1076 00e8 9A62     		str	r2, [r3, #40]
 1077 00ea 4268     		ldr	r2, [r0, #4]
 1078 00ec D103     		lsls	r1, r2, #15
 1079 00ee 42BF     		ittt	mi
 1080 00f0 196A     		ldrmi	r1, [r3, #32]
 1081 00f2 41F01001 		orrmi	r1, r1, #16
ARM GAS  /tmp/cc23A179.s 			page 19


 1082 00f6 1962     		strmi	r1, [r3, #32]
 1083 00f8 9003     		lsls	r0, r2, #14
 1084 00fa 42BF     		ittt	mi
 1085 00fc 596A     		ldrmi	r1, [r3, #36]
 1086 00fe 41F01001 		orrmi	r1, r1, #16
 1087 0102 5962     		strmi	r1, [r3, #36]
 1088 0104 D107     		lsls	r1, r2, #31
 1089 0106 42BF     		ittt	mi
 1090 0108 996A     		ldrmi	r1, [r3, #40]
 1091 010a 41F01001 		orrmi	r1, r1, #16
 1092 010e 9962     		strmi	r1, [r3, #40]
 1093 0110 9007     		lsls	r0, r2, #30
 1094 0112 D2D5     		bpl	.L214
 1095 0114 DA6A     		ldr	r2, [r3, #44]
 1096 0116 42F01002 		orr	r2, r2, #16
 1097 011a D3E7     		b	.L213
 1098              	.L147:
 1099 011c 144B     		ldr	r3, .L215
 1100 011e 5A6A     		ldr	r2, [r3, #36]
 1101 0120 22F02002 		bic	r2, r2, #32
 1102 0124 5A62     		str	r2, [r3, #36]
 1103 0126 1A6A     		ldr	r2, [r3, #32]
 1104 0128 22F02002 		bic	r2, r2, #32
 1105 012c 1A62     		str	r2, [r3, #32]
 1106 012e DA6A     		ldr	r2, [r3, #44]
 1107 0130 22F02002 		bic	r2, r2, #32
 1108 0134 DA62     		str	r2, [r3, #44]
 1109 0136 9A6A     		ldr	r2, [r3, #40]
 1110 0138 22F02002 		bic	r2, r2, #32
 1111 013c 9A62     		str	r2, [r3, #40]
 1112 013e 4268     		ldr	r2, [r0, #4]
 1113 0140 D103     		lsls	r1, r2, #15
 1114 0142 42BF     		ittt	mi
 1115 0144 196A     		ldrmi	r1, [r3, #32]
 1116 0146 41F02001 		orrmi	r1, r1, #32
 1117 014a 1962     		strmi	r1, [r3, #32]
 1118 014c 9003     		lsls	r0, r2, #14
 1119 014e 42BF     		ittt	mi
 1120 0150 596A     		ldrmi	r1, [r3, #36]
 1121 0152 41F02001 		orrmi	r1, r1, #32
 1122 0156 5962     		strmi	r1, [r3, #36]
 1123 0158 D107     		lsls	r1, r2, #31
 1124 015a 42BF     		ittt	mi
 1125 015c 996A     		ldrmi	r1, [r3, #40]
 1126 015e 41F02001 		orrmi	r1, r1, #32
 1127 0162 9962     		strmi	r1, [r3, #40]
 1128 0164 9007     		lsls	r0, r2, #30
 1129 0166 A8D5     		bpl	.L214
 1130 0168 DA6A     		ldr	r2, [r3, #44]
 1131 016a 42F02002 		orr	r2, r2, #32
 1132 016e A9E7     		b	.L213
 1133              	.L216:
 1134              		.align	2
 1135              	.L215:
 1136 0170 00040140 		.word	1073808384
 1138              		.section	.text.HAL_PWREx_EnableLowPowerRunMode,"ax",%progbits
 1139              		.align	1
ARM GAS  /tmp/cc23A179.s 			page 20


 1140              		.global	HAL_PWREx_EnableLowPowerRunMode
 1141              		.syntax unified
 1142              		.thumb
 1143              		.thumb_func
 1144              		.fpu fpv4-sp-d16
 1146              	HAL_PWREx_EnableLowPowerRunMode:
 1147              		@ args = 0, pretend = 0, frame = 0
 1148              		@ frame_needed = 0, uses_anonymous_args = 0
 1149              		@ link register save eliminated.
 1150 0000 024A     		ldr	r2, .L218
 1151 0002 1368     		ldr	r3, [r2]
 1152 0004 43F48043 		orr	r3, r3, #16384
 1153 0008 1360     		str	r3, [r2]
 1154 000a 7047     		bx	lr
 1155              	.L219:
 1156              		.align	2
 1157              	.L218:
 1158 000c 00700040 		.word	1073770496
 1160              		.section	.text.HAL_PWREx_DisableLowPowerRunMode,"ax",%progbits
 1161              		.align	1
 1162              		.global	HAL_PWREx_DisableLowPowerRunMode
 1163              		.syntax unified
 1164              		.thumb
 1165              		.thumb_func
 1166              		.fpu fpv4-sp-d16
 1168              	HAL_PWREx_DisableLowPowerRunMode:
 1169              		@ args = 0, pretend = 0, frame = 0
 1170              		@ frame_needed = 0, uses_anonymous_args = 0
 1171              		@ link register save eliminated.
 1172 0000 0C4A     		ldr	r2, .L229
 1173 0002 1368     		ldr	r3, [r2]
 1174 0004 23F48043 		bic	r3, r3, #16384
 1175 0008 1360     		str	r3, [r2]
 1176 000a 0B4B     		ldr	r3, .L229+4
 1177 000c 1B68     		ldr	r3, [r3]
 1178 000e 3221     		movs	r1, #50
 1179 0010 4B43     		muls	r3, r1, r3
 1180 0012 0A49     		ldr	r1, .L229+8
 1181 0014 B3FBF1F3 		udiv	r3, r3, r1
 1182 0018 0133     		adds	r3, r3, #1
 1183              	.L221:
 1184 001a 5169     		ldr	r1, [r2, #20]
 1185 001c 8905     		lsls	r1, r1, #22
 1186 001e 00D5     		bpl	.L222
 1187 0020 33B9     		cbnz	r3, .L223
 1188              	.L222:
 1189 0022 5369     		ldr	r3, [r2, #20]
 1190 0024 13F4007F 		tst	r3, #512
 1191 0028 14BF     		ite	ne
 1192 002a 0320     		movne	r0, #3
 1193 002c 0020     		moveq	r0, #0
 1194 002e 7047     		bx	lr
 1195              	.L223:
 1196 0030 013B     		subs	r3, r3, #1
 1197 0032 F2E7     		b	.L221
 1198              	.L230:
 1199              		.align	2
ARM GAS  /tmp/cc23A179.s 			page 21


 1200              	.L229:
 1201 0034 00700040 		.word	1073770496
 1202 0038 00000000 		.word	SystemCoreClock
 1203 003c 40420F00 		.word	1000000
 1205              		.section	.text.HAL_PWREx_EnterSTOP0Mode,"ax",%progbits
 1206              		.align	1
 1207              		.global	HAL_PWREx_EnterSTOP0Mode
 1208              		.syntax unified
 1209              		.thumb
 1210              		.thumb_func
 1211              		.fpu fpv4-sp-d16
 1213              	HAL_PWREx_EnterSTOP0Mode:
 1214              		@ args = 0, pretend = 0, frame = 0
 1215              		@ frame_needed = 0, uses_anonymous_args = 0
 1216              		@ link register save eliminated.
 1217 0000 0A4A     		ldr	r2, .L234
 1218 0002 1368     		ldr	r3, [r2]
 1219 0004 23F00703 		bic	r3, r3, #7
 1220 0008 1360     		str	r3, [r2]
 1221 000a 094B     		ldr	r3, .L234+4
 1222 000c 1A69     		ldr	r2, [r3, #16]
 1223 000e 0128     		cmp	r0, #1
 1224 0010 42F00402 		orr	r2, r2, #4
 1225 0014 1A61     		str	r2, [r3, #16]
 1226 0016 05D1     		bne	.L232
 1227              		.syntax unified
 1228              	@ 1204 "mcu_drivers/STM32L4xx_HAL_Driver/Src/stm32l4xx_hal_pwr_ex.c" 1
 1229 0018 30BF     		wfi
 1230              	@ 0 "" 2
 1231              		.thumb
 1232              		.syntax unified
 1233              	.L233:
 1234 001a 1A69     		ldr	r2, [r3, #16]
 1235 001c 22F00402 		bic	r2, r2, #4
 1236 0020 1A61     		str	r2, [r3, #16]
 1237 0022 7047     		bx	lr
 1238              	.L232:
 1239              		.syntax unified
 1240              	@ 1209 "mcu_drivers/STM32L4xx_HAL_Driver/Src/stm32l4xx_hal_pwr_ex.c" 1
 1241 0024 40BF     		sev
 1242              	@ 0 "" 2
 1243              	@ 1210 "mcu_drivers/STM32L4xx_HAL_Driver/Src/stm32l4xx_hal_pwr_ex.c" 1
 1244 0026 20BF     		wfe
 1245              	@ 0 "" 2
 1246              	@ 1211 "mcu_drivers/STM32L4xx_HAL_Driver/Src/stm32l4xx_hal_pwr_ex.c" 1
 1247 0028 20BF     		wfe
 1248              	@ 0 "" 2
 1249              		.thumb
 1250              		.syntax unified
 1251 002a F6E7     		b	.L233
 1252              	.L235:
 1253              		.align	2
 1254              	.L234:
 1255 002c 00700040 		.word	1073770496
 1256 0030 00ED00E0 		.word	-536810240
 1258              		.section	.text.HAL_PWREx_EnterSTOP1Mode,"ax",%progbits
 1259              		.align	1
ARM GAS  /tmp/cc23A179.s 			page 22


 1260              		.global	HAL_PWREx_EnterSTOP1Mode
 1261              		.syntax unified
 1262              		.thumb
 1263              		.thumb_func
 1264              		.fpu fpv4-sp-d16
 1266              	HAL_PWREx_EnterSTOP1Mode:
 1267              		@ args = 0, pretend = 0, frame = 0
 1268              		@ frame_needed = 0, uses_anonymous_args = 0
 1269              		@ link register save eliminated.
 1270 0000 0B4A     		ldr	r2, .L239
 1271 0002 1368     		ldr	r3, [r2]
 1272 0004 23F00703 		bic	r3, r3, #7
 1273 0008 43F00103 		orr	r3, r3, #1
 1274 000c 1360     		str	r3, [r2]
 1275 000e 094B     		ldr	r3, .L239+4
 1276 0010 1A69     		ldr	r2, [r3, #16]
 1277 0012 0128     		cmp	r0, #1
 1278 0014 42F00402 		orr	r2, r2, #4
 1279 0018 1A61     		str	r2, [r3, #16]
 1280 001a 05D1     		bne	.L237
 1281              		.syntax unified
 1282              	@ 1255 "mcu_drivers/STM32L4xx_HAL_Driver/Src/stm32l4xx_hal_pwr_ex.c" 1
 1283 001c 30BF     		wfi
 1284              	@ 0 "" 2
 1285              		.thumb
 1286              		.syntax unified
 1287              	.L238:
 1288 001e 1A69     		ldr	r2, [r3, #16]
 1289 0020 22F00402 		bic	r2, r2, #4
 1290 0024 1A61     		str	r2, [r3, #16]
 1291 0026 7047     		bx	lr
 1292              	.L237:
 1293              		.syntax unified
 1294              	@ 1260 "mcu_drivers/STM32L4xx_HAL_Driver/Src/stm32l4xx_hal_pwr_ex.c" 1
 1295 0028 40BF     		sev
 1296              	@ 0 "" 2
 1297              	@ 1261 "mcu_drivers/STM32L4xx_HAL_Driver/Src/stm32l4xx_hal_pwr_ex.c" 1
 1298 002a 20BF     		wfe
 1299              	@ 0 "" 2
 1300              	@ 1262 "mcu_drivers/STM32L4xx_HAL_Driver/Src/stm32l4xx_hal_pwr_ex.c" 1
 1301 002c 20BF     		wfe
 1302              	@ 0 "" 2
 1303              		.thumb
 1304              		.syntax unified
 1305 002e F6E7     		b	.L238
 1306              	.L240:
 1307              		.align	2
 1308              	.L239:
 1309 0030 00700040 		.word	1073770496
 1310 0034 00ED00E0 		.word	-536810240
 1312              		.section	.text.HAL_PWREx_EnterSTOP2Mode,"ax",%progbits
 1313              		.align	1
 1314              		.global	HAL_PWREx_EnterSTOP2Mode
 1315              		.syntax unified
 1316              		.thumb
 1317              		.thumb_func
 1318              		.fpu fpv4-sp-d16
ARM GAS  /tmp/cc23A179.s 			page 23


 1320              	HAL_PWREx_EnterSTOP2Mode:
 1321              		@ args = 0, pretend = 0, frame = 0
 1322              		@ frame_needed = 0, uses_anonymous_args = 0
 1323              		@ link register save eliminated.
 1324 0000 0B4A     		ldr	r2, .L244
 1325 0002 1368     		ldr	r3, [r2]
 1326 0004 23F00703 		bic	r3, r3, #7
 1327 0008 43F00203 		orr	r3, r3, #2
 1328 000c 1360     		str	r3, [r2]
 1329 000e 094B     		ldr	r3, .L244+4
 1330 0010 1A69     		ldr	r2, [r3, #16]
 1331 0012 0128     		cmp	r0, #1
 1332 0014 42F00402 		orr	r2, r2, #4
 1333 0018 1A61     		str	r2, [r3, #16]
 1334 001a 05D1     		bne	.L242
 1335              		.syntax unified
 1336              	@ 1308 "mcu_drivers/STM32L4xx_HAL_Driver/Src/stm32l4xx_hal_pwr_ex.c" 1
 1337 001c 30BF     		wfi
 1338              	@ 0 "" 2
 1339              		.thumb
 1340              		.syntax unified
 1341              	.L243:
 1342 001e 1A69     		ldr	r2, [r3, #16]
 1343 0020 22F00402 		bic	r2, r2, #4
 1344 0024 1A61     		str	r2, [r3, #16]
 1345 0026 7047     		bx	lr
 1346              	.L242:
 1347              		.syntax unified
 1348              	@ 1313 "mcu_drivers/STM32L4xx_HAL_Driver/Src/stm32l4xx_hal_pwr_ex.c" 1
 1349 0028 40BF     		sev
 1350              	@ 0 "" 2
 1351              	@ 1314 "mcu_drivers/STM32L4xx_HAL_Driver/Src/stm32l4xx_hal_pwr_ex.c" 1
 1352 002a 20BF     		wfe
 1353              	@ 0 "" 2
 1354              	@ 1315 "mcu_drivers/STM32L4xx_HAL_Driver/Src/stm32l4xx_hal_pwr_ex.c" 1
 1355 002c 20BF     		wfe
 1356              	@ 0 "" 2
 1357              		.thumb
 1358              		.syntax unified
 1359 002e F6E7     		b	.L243
 1360              	.L245:
 1361              		.align	2
 1362              	.L244:
 1363 0030 00700040 		.word	1073770496
 1364 0034 00ED00E0 		.word	-536810240
 1366              		.section	.text.HAL_PWREx_EnterSHUTDOWNMode,"ax",%progbits
 1367              		.align	1
 1368              		.global	HAL_PWREx_EnterSHUTDOWNMode
 1369              		.syntax unified
 1370              		.thumb
 1371              		.thumb_func
 1372              		.fpu fpv4-sp-d16
 1374              	HAL_PWREx_EnterSHUTDOWNMode:
 1375              		@ args = 0, pretend = 0, frame = 0
 1376              		@ frame_needed = 0, uses_anonymous_args = 0
 1377              		@ link register save eliminated.
 1378 0000 064A     		ldr	r2, .L247
ARM GAS  /tmp/cc23A179.s 			page 24


 1379 0002 1368     		ldr	r3, [r2]
 1380 0004 23F00703 		bic	r3, r3, #7
 1381 0008 43F00403 		orr	r3, r3, #4
 1382 000c 1360     		str	r3, [r2]
 1383 000e 044A     		ldr	r2, .L247+4
 1384 0010 1369     		ldr	r3, [r2, #16]
 1385 0012 43F00403 		orr	r3, r3, #4
 1386 0016 1361     		str	r3, [r2, #16]
 1387              		.syntax unified
 1388              	@ 1349 "mcu_drivers/STM32L4xx_HAL_Driver/Src/stm32l4xx_hal_pwr_ex.c" 1
 1389 0018 30BF     		wfi
 1390              	@ 0 "" 2
 1391              		.thumb
 1392              		.syntax unified
 1393 001a 7047     		bx	lr
 1394              	.L248:
 1395              		.align	2
 1396              	.L247:
 1397 001c 00700040 		.word	1073770496
 1398 0020 00ED00E0 		.word	-536810240
 1400              		.section	.text.HAL_PWREx_PVM1Callback,"ax",%progbits
 1401              		.align	1
 1402              		.weak	HAL_PWREx_PVM1Callback
 1403              		.syntax unified
 1404              		.thumb
 1405              		.thumb_func
 1406              		.fpu fpv4-sp-d16
 1408              	HAL_PWREx_PVM1Callback:
 1409              		@ args = 0, pretend = 0, frame = 0
 1410              		@ frame_needed = 0, uses_anonymous_args = 0
 1411              		@ link register save eliminated.
 1412 0000 7047     		bx	lr
 1414              		.section	.text.HAL_PWREx_PVM2Callback,"ax",%progbits
 1415              		.align	1
 1416              		.weak	HAL_PWREx_PVM2Callback
 1417              		.syntax unified
 1418              		.thumb
 1419              		.thumb_func
 1420              		.fpu fpv4-sp-d16
 1422              	HAL_PWREx_PVM2Callback:
 1423              		@ args = 0, pretend = 0, frame = 0
 1424              		@ frame_needed = 0, uses_anonymous_args = 0
 1425              		@ link register save eliminated.
 1426 0000 7047     		bx	lr
 1428              		.section	.text.HAL_PWREx_PVM3Callback,"ax",%progbits
 1429              		.align	1
 1430              		.weak	HAL_PWREx_PVM3Callback
 1431              		.syntax unified
 1432              		.thumb
 1433              		.thumb_func
 1434              		.fpu fpv4-sp-d16
 1436              	HAL_PWREx_PVM3Callback:
 1437              		@ args = 0, pretend = 0, frame = 0
 1438              		@ frame_needed = 0, uses_anonymous_args = 0
 1439              		@ link register save eliminated.
 1440 0000 7047     		bx	lr
 1442              		.section	.text.HAL_PWREx_PVM4Callback,"ax",%progbits
ARM GAS  /tmp/cc23A179.s 			page 25


 1443              		.align	1
 1444              		.weak	HAL_PWREx_PVM4Callback
 1445              		.syntax unified
 1446              		.thumb
 1447              		.thumb_func
 1448              		.fpu fpv4-sp-d16
 1450              	HAL_PWREx_PVM4Callback:
 1451              		@ args = 0, pretend = 0, frame = 0
 1452              		@ frame_needed = 0, uses_anonymous_args = 0
 1453              		@ link register save eliminated.
 1454 0000 7047     		bx	lr
 1456              		.section	.text.HAL_PWREx_PVD_PVM_IRQHandler,"ax",%progbits
 1457              		.align	1
 1458              		.global	HAL_PWREx_PVD_PVM_IRQHandler
 1459              		.syntax unified
 1460              		.thumb
 1461              		.thumb_func
 1462              		.fpu fpv4-sp-d16
 1464              	HAL_PWREx_PVD_PVM_IRQHandler:
 1465              		@ args = 0, pretend = 0, frame = 0
 1466              		@ frame_needed = 0, uses_anonymous_args = 0
 1467 0000 10B5     		push	{r4, lr}
 1468 0002 134C     		ldr	r4, .L274
 1469 0004 6369     		ldr	r3, [r4, #20]
 1470 0006 DB03     		lsls	r3, r3, #15
 1471 0008 04D5     		bpl	.L254
 1472 000a FFF7FEFF 		bl	HAL_PWR_PVDCallback
 1473 000e 4FF48033 		mov	r3, #65536
 1474 0012 6361     		str	r3, [r4, #20]
 1475              	.L254:
 1476 0014 636B     		ldr	r3, [r4, #52]
 1477 0016 1807     		lsls	r0, r3, #28
 1478 0018 03D5     		bpl	.L255
 1479 001a FFF7FEFF 		bl	HAL_PWREx_PVM1Callback
 1480 001e 0823     		movs	r3, #8
 1481 0020 6363     		str	r3, [r4, #52]
 1482              	.L255:
 1483 0022 636B     		ldr	r3, [r4, #52]
 1484 0024 D906     		lsls	r1, r3, #27
 1485 0026 03D5     		bpl	.L256
 1486 0028 FFF7FEFF 		bl	HAL_PWREx_PVM2Callback
 1487 002c 1023     		movs	r3, #16
 1488 002e 6363     		str	r3, [r4, #52]
 1489              	.L256:
 1490 0030 636B     		ldr	r3, [r4, #52]
 1491 0032 9A06     		lsls	r2, r3, #26
 1492 0034 03D5     		bpl	.L257
 1493 0036 FFF7FEFF 		bl	HAL_PWREx_PVM3Callback
 1494 003a 2023     		movs	r3, #32
 1495 003c 6363     		str	r3, [r4, #52]
 1496              	.L257:
 1497 003e 636B     		ldr	r3, [r4, #52]
 1498 0040 5B06     		lsls	r3, r3, #25
 1499 0042 03D5     		bpl	.L253
 1500 0044 FFF7FEFF 		bl	HAL_PWREx_PVM4Callback
 1501 0048 4023     		movs	r3, #64
 1502 004a 6363     		str	r3, [r4, #52]
ARM GAS  /tmp/cc23A179.s 			page 26


 1503              	.L253:
 1504 004c 10BD     		pop	{r4, pc}
 1505              	.L275:
 1506 004e 00BF     		.align	2
 1507              	.L274:
 1508 0050 00040140 		.word	1073808384
 1510              		.ident	"GCC: (15:10.3-2021.07-4) 10.3.1 20210621 (release)"
ARM GAS  /tmp/cc23A179.s 			page 27

