ARM GAS  /tmp/ccZmFd3f.s 			page 1


   1              		.cpu cortex-m4
   2              		.eabi_attribute 27, 1
   3              		.eabi_attribute 28, 1
   4              		.eabi_attribute 23, 1
   5              		.eabi_attribute 24, 1
   6              		.eabi_attribute 25, 1
   7              		.eabi_attribute 26, 1
   8              		.eabi_attribute 30, 4
   9              		.eabi_attribute 34, 1
  10              		.eabi_attribute 18, 4
  11              		.file	"stm32l4xx_hal_flash_ex.c"
  12              		.text
  13              		.section	.text.FLASH_MassErase,"ax",%progbits
  14              		.align	1
  15              		.arch armv7e-m
  16              		.syntax unified
  17              		.thumb
  18              		.thumb_func
  19              		.fpu fpv4-sp-d16
  21              	FLASH_MassErase:
  22              		@ args = 0, pretend = 0, frame = 0
  23              		@ frame_needed = 0, uses_anonymous_args = 0
  24              		@ link register save eliminated.
  25 0000 094B     		ldr	r3, .L10
  26 0002 10F0010F 		tst	r0, #1
  27 0006 1EBF     		ittt	ne
  28 0008 5A69     		ldrne	r2, [r3, #20]
  29 000a 42F00402 		orrne	r2, r2, #4
  30 000e 5A61     		strne	r2, [r3, #20]
  31 0010 8207     		lsls	r2, r0, #30
  32 0012 42BF     		ittt	mi
  33 0014 5A69     		ldrmi	r2, [r3, #20]
  34 0016 42F40042 		orrmi	r2, r2, #32768
  35 001a 5A61     		strmi	r2, [r3, #20]
  36 001c 024A     		ldr	r2, .L10
  37 001e 5369     		ldr	r3, [r2, #20]
  38 0020 43F48033 		orr	r3, r3, #65536
  39 0024 5361     		str	r3, [r2, #20]
  40 0026 7047     		bx	lr
  41              	.L11:
  42              		.align	2
  43              	.L10:
  44 0028 00200240 		.word	1073881088
  46              		.section	.text.HAL_FLASHEx_OBProgram,"ax",%progbits
  47              		.align	1
  48              		.global	HAL_FLASHEx_OBProgram
  49              		.syntax unified
  50              		.thumb
  51              		.thumb_func
  52              		.fpu fpv4-sp-d16
  54              	HAL_FLASHEx_OBProgram:
  55              		@ args = 0, pretend = 0, frame = 0
  56              		@ frame_needed = 0, uses_anonymous_args = 0
  57 0000 2DE9F843 		push	{r3, r4, r5, r6, r7, r8, r9, lr}
  58 0004 DFF8F882 		ldr	r8, .L97+24
  59 0008 98F80030 		ldrb	r3, [r8]	@ zero_extendqisi2
  60 000c 012B     		cmp	r3, #1
ARM GAS  /tmp/ccZmFd3f.s 			page 2


  61 000e 0446     		mov	r4, r0
  62 0010 00F06781 		beq	.L45
  63 0014 4FF00109 		mov	r9, #1
  64 0018 88F80090 		strb	r9, [r8]
  65 001c 0068     		ldr	r0, [r0]
  66 001e 0023     		movs	r3, #0
  67 0020 10EA0900 		ands	r0, r0, r9
  68 0024 C8F80430 		str	r3, [r8, #4]
  69 0028 71D0     		beq	.L46
  70 002a 4CF25030 		movw	r0, #50000
  71 002e D4E90176 		ldrd	r7, r6, [r4, #4]
  72 0032 E568     		ldr	r5, [r4, #12]
  73 0034 FFF7FEFF 		bl	FLASH_WaitForLastOperation
  74 0038 D8B9     		cbnz	r0, .L14
  75 003a AB4B     		ldr	r3, .L97
  76 003c 002F     		cmp	r7, #0
  77 003e 48D1     		bne	.L15
  78 0040 DA6A     		ldr	r2, [r3, #44]
  79 0042 02F0FF22 		and	r2, r2, #-16711936
  80 0046 3243     		orrs	r2, r2, r6
  81 0048 42EA0542 		orr	r2, r2, r5, lsl #16
  82 004c DA62     		str	r2, [r3, #44]
  83              	.L16:
  84 004e A64D     		ldr	r5, .L97
  85 0050 6B69     		ldr	r3, [r5, #20]
  86 0052 43F40033 		orr	r3, r3, #131072
  87 0056 6B61     		str	r3, [r5, #20]
  88 0058 4CF25030 		movw	r0, #50000
  89 005c FFF7FEFF 		bl	FLASH_WaitForLastOperation
  90 0060 6B69     		ldr	r3, [r5, #20]
  91 0062 B0F10009 		subs	r9, r0, #0
  92 0066 23F40033 		bic	r3, r3, #131072
  93 006a 6B61     		str	r3, [r5, #20]
  94 006c 18BF     		it	ne
  95 006e 4FF00109 		movne	r9, #1
  96              	.L14:
  97 0072 2368     		ldr	r3, [r4]
  98 0074 9D07     		lsls	r5, r3, #30
  99 0076 08D5     		bpl	.L19
 100 0078 4CF25030 		movw	r0, #50000
 101 007c 2669     		ldr	r6, [r4, #16]
 102 007e FFF7FEFF 		bl	FLASH_WaitForLastOperation
 103 0082 0028     		cmp	r0, #0
 104 0084 45D0     		beq	.L20
 105              	.L21:
 106 0086 4FF00109 		mov	r9, #1
 107              	.L19:
 108 008a 2368     		ldr	r3, [r4]
 109 008c 5807     		lsls	r0, r3, #29
 110 008e 09D5     		bpl	.L22
 111 0090 4CF25030 		movw	r0, #50000
 112 0094 D4E90565 		ldrd	r6, r5, [r4, #20]
 113 0098 FFF7FEFF 		bl	FLASH_WaitForLastOperation
 114 009c 0028     		cmp	r0, #0
 115 009e 4DD0     		beq	.L23
 116              	.L37:
 117 00a0 4FF00109 		mov	r9, #1
ARM GAS  /tmp/ccZmFd3f.s 			page 3


 118              	.L22:
 119 00a4 2368     		ldr	r3, [r4]
 120 00a6 1D07     		lsls	r5, r3, #28
 121 00a8 0DD5     		bpl	.L38
 122 00aa D4E90865 		ldrd	r6, r5, [r4, #32]
 123 00ae AE42     		cmp	r6, r5
 124 00b0 09D0     		beq	.L38
 125 00b2 4CF25030 		movw	r0, #50000
 126 00b6 E469     		ldr	r4, [r4, #28]
 127 00b8 FFF7FEFF 		bl	FLASH_WaitForLastOperation
 128 00bc 0028     		cmp	r0, #0
 129 00be 00F0B080 		beq	.L39
 130              	.L44:
 131 00c2 4FF00109 		mov	r9, #1
 132              	.L38:
 133 00c6 0023     		movs	r3, #0
 134 00c8 88F80030 		strb	r3, [r8]
 135              	.L13:
 136 00cc 4846     		mov	r0, r9
 137 00ce BDE8F883 		pop	{r3, r4, r5, r6, r7, r8, r9, pc}
 138              	.L15:
 139 00d2 012F     		cmp	r7, #1
 140 00d4 07D1     		bne	.L17
 141 00d6 1A6B     		ldr	r2, [r3, #48]
 142 00d8 02F0FF22 		and	r2, r2, #-16711936
 143 00dc 3243     		orrs	r2, r2, r6
 144 00de 42EA0542 		orr	r2, r2, r5, lsl #16
 145 00e2 1A63     		str	r2, [r3, #48]
 146 00e4 B3E7     		b	.L16
 147              	.L17:
 148 00e6 022F     		cmp	r7, #2
 149 00e8 07D1     		bne	.L18
 150 00ea DA6C     		ldr	r2, [r3, #76]
 151 00ec 02F0FF22 		and	r2, r2, #-16711936
 152 00f0 3243     		orrs	r2, r2, r6
 153 00f2 42EA0542 		orr	r2, r2, r5, lsl #16
 154 00f6 DA64     		str	r2, [r3, #76]
 155 00f8 A9E7     		b	.L16
 156              	.L18:
 157 00fa 042F     		cmp	r7, #4
 158 00fc A7D1     		bne	.L16
 159 00fe 1A6D     		ldr	r2, [r3, #80]
 160 0100 02F0FF22 		and	r2, r2, #-16711936
 161 0104 3243     		orrs	r2, r2, r6
 162 0106 42EA0542 		orr	r2, r2, r5, lsl #16
 163 010a 1A65     		str	r2, [r3, #80]
 164 010c 9FE7     		b	.L16
 165              	.L46:
 166 010e 8146     		mov	r9, r0
 167 0110 AFE7     		b	.L14
 168              	.L20:
 169 0112 754D     		ldr	r5, .L97
 170 0114 2B6A     		ldr	r3, [r5, #32]
 171 0116 23F0FF03 		bic	r3, r3, #255
 172 011a 3343     		orrs	r3, r3, r6
 173 011c 2B62     		str	r3, [r5, #32]
 174 011e 6B69     		ldr	r3, [r5, #20]
ARM GAS  /tmp/ccZmFd3f.s 			page 4


 175 0120 43F40033 		orr	r3, r3, #131072
 176 0124 6B61     		str	r3, [r5, #20]
 177 0126 4CF25030 		movw	r0, #50000
 178 012a FFF7FEFF 		bl	FLASH_WaitForLastOperation
 179 012e 6B69     		ldr	r3, [r5, #20]
 180 0130 23F40033 		bic	r3, r3, #131072
 181 0134 6B61     		str	r3, [r5, #20]
 182 0136 0028     		cmp	r0, #0
 183 0138 A7D0     		beq	.L19
 184 013a A4E7     		b	.L21
 185              	.L23:
 186 013c 16F00103 		ands	r3, r6, #1
 187 0140 0EBF     		itee	eq
 188 0142 1A46     		moveq	r2, r3
 189 0144 05F4E063 		andne	r3, r5, #1792
 190 0148 4FF4E062 		movne	r2, #1792
 191 014c B107     		lsls	r1, r6, #30
 192 014e 42BF     		ittt	mi
 193 0150 05F48051 		andmi	r1, r5, #4096
 194 0154 0B43     		orrmi	r3, r3, r1
 195 0156 42F48052 		orrmi	r2, r2, #4096
 196 015a 7707     		lsls	r7, r6, #29
 197 015c 42BF     		ittt	mi
 198 015e 05F40051 		andmi	r1, r5, #8192
 199 0162 0B43     		orrmi	r3, r3, r1
 200 0164 42F40052 		orrmi	r2, r2, #8192
 201 0168 F004     		lsls	r0, r6, #19
 202 016a 42BF     		ittt	mi
 203 016c 05F48041 		andmi	r1, r5, #16384
 204 0170 0B43     		orrmi	r3, r3, r1
 205 0172 42F48042 		orrmi	r2, r2, #16384
 206 0176 3107     		lsls	r1, r6, #28
 207 0178 42BF     		ittt	mi
 208 017a 05F48031 		andmi	r1, r5, #65536
 209 017e 0B43     		orrmi	r3, r3, r1
 210 0180 42F48032 		orrmi	r2, r2, #65536
 211 0184 F706     		lsls	r7, r6, #27
 212 0186 42BF     		ittt	mi
 213 0188 05F40031 		andmi	r1, r5, #131072
 214 018c 0B43     		orrmi	r3, r3, r1
 215 018e 42F40032 		orrmi	r2, r2, #131072
 216 0192 B006     		lsls	r0, r6, #26
 217 0194 42BF     		ittt	mi
 218 0196 05F48021 		andmi	r1, r5, #262144
 219 019a 0B43     		orrmi	r3, r3, r1
 220 019c 42F48022 		orrmi	r2, r2, #262144
 221 01a0 7106     		lsls	r1, r6, #25
 222 01a2 42BF     		ittt	mi
 223 01a4 05F40021 		andmi	r1, r5, #524288
 224 01a8 0B43     		orrmi	r3, r3, r1
 225 01aa 42F40022 		orrmi	r2, r2, #524288
 226 01ae 3706     		lsls	r7, r6, #24
 227 01b0 42BF     		ittt	mi
 228 01b2 05F48011 		andmi	r1, r5, #1048576
 229 01b6 0B43     		orrmi	r3, r3, r1
 230 01b8 42F48012 		orrmi	r2, r2, #1048576
 231 01bc F005     		lsls	r0, r6, #23
ARM GAS  /tmp/ccZmFd3f.s 			page 5


 232 01be 42BF     		ittt	mi
 233 01c0 05F40011 		andmi	r1, r5, #2097152
 234 01c4 0B43     		orrmi	r3, r3, r1
 235 01c6 42F40012 		orrmi	r2, r2, #2097152
 236 01ca B105     		lsls	r1, r6, #22
 237 01cc 42BF     		ittt	mi
 238 01ce 05F40001 		andmi	r1, r5, #8388608
 239 01d2 0B43     		orrmi	r3, r3, r1
 240 01d4 42F40002 		orrmi	r2, r2, #8388608
 241 01d8 7705     		lsls	r7, r6, #21
 242 01da 42BF     		ittt	mi
 243 01dc 05F08071 		andmi	r1, r5, #16777216
 244 01e0 0B43     		orrmi	r3, r3, r1
 245 01e2 42F08072 		orrmi	r2, r2, #16777216
 246 01e6 3605     		lsls	r6, r6, #20
 247 01e8 44BF     		itt	mi
 248 01ea 05F00075 		andmi	r5, r5, #33554432
 249 01ee 2B43     		orrmi	r3, r3, r5
 250 01f0 3D4D     		ldr	r5, .L97
 251 01f2 296A     		ldr	r1, [r5, #32]
 252 01f4 48BF     		it	mi
 253 01f6 42F00072 		orrmi	r2, r2, #33554432
 254 01fa 21EA0202 		bic	r2, r1, r2
 255 01fe 1343     		orrs	r3, r3, r2
 256 0200 2B62     		str	r3, [r5, #32]
 257 0202 6B69     		ldr	r3, [r5, #20]
 258 0204 43F40033 		orr	r3, r3, #131072
 259 0208 6B61     		str	r3, [r5, #20]
 260 020a 4CF25030 		movw	r0, #50000
 261 020e FFF7FEFF 		bl	FLASH_WaitForLastOperation
 262 0212 6B69     		ldr	r3, [r5, #20]
 263 0214 23F40033 		bic	r3, r3, #131072
 264 0218 6B61     		str	r3, [r5, #20]
 265 021a 0028     		cmp	r0, #0
 266 021c 3FF442AF 		beq	.L22
 267 0220 3EE7     		b	.L37
 268              	.L39:
 269 0222 324B     		ldr	r3, .L97+4
 270 0224 1868     		ldr	r0, [r3]
 271 0226 324B     		ldr	r3, .L97+8
 272 0228 D3F8E025 		ldr	r2, [r3, #1504]
 273 022c C005     		lsls	r0, r0, #23
 274 022e 4FF6FF73 		movw	r3, #65535
 275 0232 91B2     		uxth	r1, r2
 276 0234 09D4     		bmi	.L40
 277 0236 9942     		cmp	r1, r3
 278 0238 3AD0     		beq	.L49
 279 023a 2E4B     		ldr	r3, .L97+12
 280 023c 03EA4223 		and	r3, r3, r2, lsl #9
 281 0240 03F1006C 		add	ip, r3, #134217728
 282              	.L96:
 283 0244 4FF00063 		mov	r3, #134217728
 284 0248 08E0     		b	.L41
 285              	.L40:
 286 024a 9942     		cmp	r1, r3
 287 024c 33D0     		beq	.L50
 288 024e 294B     		ldr	r3, .L97+12
ARM GAS  /tmp/ccZmFd3f.s 			page 6


 289 0250 03EA4223 		and	r3, r3, r2, lsl #9
 290 0254 03F10063 		add	r3, r3, #134217728
 291 0258 4FF0006C 		mov	ip, #134217728
 292              	.L41:
 293 025c 04F00301 		and	r1, r4, #3
 294 0260 0129     		cmp	r1, #1
 295 0262 214A     		ldr	r2, .L97
 296 0264 2BD1     		bne	.L42
 297 0266 506A     		ldr	r0, [r2, #36]
 298 0268 F11A     		subs	r1, r6, r3
 299 026a 234E     		ldr	r6, .L97+16
 300 026c 3040     		ands	r0, r0, r6
 301 026e 40EAD100 		orr	r0, r0, r1, lsr #3
 302 0272 5062     		str	r0, [r2, #36]
 303 0274 916A     		ldr	r1, [r2, #40]
 304 0276 EB1A     		subs	r3, r5, r3
 305 0278 3140     		ands	r1, r1, r6
 306 027a 41EAD303 		orr	r3, r1, r3, lsr #3
 307 027e 9362     		str	r3, [r2, #40]
 308              	.L43:
 309 0280 194D     		ldr	r5, .L97
 310 0282 AB6A     		ldr	r3, [r5, #40]
 311 0284 04F00044 		and	r4, r4, #-2147483648
 312 0288 23F00043 		bic	r3, r3, #-2147483648
 313 028c 2343     		orrs	r3, r3, r4
 314 028e AB62     		str	r3, [r5, #40]
 315 0290 6B69     		ldr	r3, [r5, #20]
 316 0292 43F40033 		orr	r3, r3, #131072
 317 0296 6B61     		str	r3, [r5, #20]
 318 0298 4CF25030 		movw	r0, #50000
 319 029c FFF7FEFF 		bl	FLASH_WaitForLastOperation
 320 02a0 6B69     		ldr	r3, [r5, #20]
 321 02a2 23F40033 		bic	r3, r3, #131072
 322 02a6 6B61     		str	r3, [r5, #20]
 323 02a8 0028     		cmp	r0, #0
 324 02aa 3FF40CAF 		beq	.L38
 325 02ae 08E7     		b	.L44
 326              	.L49:
 327 02b0 DFF848C0 		ldr	ip, .L97+20
 328 02b4 C6E7     		b	.L96
 329              	.L50:
 330 02b6 114B     		ldr	r3, .L97+20
 331 02b8 4FF0006C 		mov	ip, #134217728
 332 02bc CEE7     		b	.L41
 333              	.L42:
 334 02be 0229     		cmp	r1, #2
 335 02c0 DED1     		bne	.L43
 336 02c2 506C     		ldr	r0, [r2, #68]
 337 02c4 0C4F     		ldr	r7, .L97+16
 338 02c6 A6EB0C06 		sub	r6, r6, ip
 339 02ca 3840     		ands	r0, r0, r7
 340 02cc 40EAD600 		orr	r0, r0, r6, lsr #3
 341 02d0 5064     		str	r0, [r2, #68]
 342 02d2 916C     		ldr	r1, [r2, #72]
 343 02d4 A5EB0C03 		sub	r3, r5, ip
 344 02d8 3940     		ands	r1, r1, r7
 345 02da 41EAD301 		orr	r1, r1, r3, lsr #3
ARM GAS  /tmp/ccZmFd3f.s 			page 7


 346 02de 9164     		str	r1, [r2, #72]
 347 02e0 CEE7     		b	.L43
 348              	.L45:
 349 02e2 4FF00209 		mov	r9, #2
 350 02e6 F1E6     		b	.L13
 351              	.L98:
 352              		.align	2
 353              	.L97:
 354 02e8 00200240 		.word	1073881088
 355 02ec 00000140 		.word	1073807360
 356 02f0 0070FF1F 		.word	536834048
 357 02f4 00FEFF01 		.word	33553920
 358 02f8 0000FFFF 		.word	-65536
 359 02fc 00000808 		.word	134742016
 360 0300 00000000 		.word	pFlash
 362              		.section	.text.HAL_FLASHEx_OBGetConfig,"ax",%progbits
 363              		.align	1
 364              		.global	HAL_FLASHEx_OBGetConfig
 365              		.syntax unified
 366              		.thumb
 367              		.thumb_func
 368              		.fpu fpv4-sp-d16
 370              	HAL_FLASHEx_OBGetConfig:
 371              		@ args = 0, pretend = 0, frame = 0
 372              		@ frame_needed = 0, uses_anonymous_args = 0
 373 0000 4268     		ldr	r2, [r0, #4]
 374 0002 0623     		movs	r3, #6
 375 0004 022A     		cmp	r2, #2
 376 0006 30B5     		push	{r4, r5, lr}
 377 0008 0360     		str	r3, [r0]
 378 000a 01D9     		bls	.L100
 379 000c 042A     		cmp	r2, #4
 380 000e 0BD1     		bne	.L101
 381              	.L100:
 382 0010 0723     		movs	r3, #7
 383 0012 0360     		str	r3, [r0]
 384 0014 3F4B     		ldr	r3, .L125
 385 0016 002A     		cmp	r2, #0
 386 0018 31D1     		bne	.L102
 387 001a DA6A     		ldr	r2, [r3, #44]
 388 001c D2B2     		uxtb	r2, r2
 389 001e 8260     		str	r2, [r0, #8]
 390 0020 DB6A     		ldr	r3, [r3, #44]
 391              	.L122:
 392 0022 C3F30743 		ubfx	r3, r3, #16, #8
 393 0026 C360     		str	r3, [r0, #12]
 394              	.L101:
 395 0028 3A4A     		ldr	r2, .L125
 396 002a 136A     		ldr	r3, [r2, #32]
 397 002c DBB2     		uxtb	r3, r3
 398 002e AA2B     		cmp	r3, #170
 399 0030 01D0     		beq	.L106
 400 0032 CC2B     		cmp	r3, #204
 401 0034 38D1     		bne	.L113
 402              	.L106:
 403 0036 136A     		ldr	r3, [r2, #32]
 404 0038 DBB2     		uxtb	r3, r3
ARM GAS  /tmp/ccZmFd3f.s 			page 8


 405              	.L107:
 406 003a 0361     		str	r3, [r0, #16]
 407 003c 136A     		ldr	r3, [r2, #32]
 408 003e C469     		ldr	r4, [r0, #28]
 409 0040 23F0FF03 		bic	r3, r3, #255
 410 0044 8361     		str	r3, [r0, #24]
 411 0046 631E     		subs	r3, r4, #1
 412 0048 012B     		cmp	r3, #1
 413 004a 50D8     		bhi	.L99
 414 004c 0368     		ldr	r3, [r0]
 415 004e 43F00803 		orr	r3, r3, #8
 416 0052 0360     		str	r3, [r0]
 417 0054 304B     		ldr	r3, .L125+4
 418 0056 1B68     		ldr	r3, [r3]
 419 0058 13F4807F 		tst	r3, #256
 420 005c 4FF6FF75 		movw	r5, #65535
 421 0060 2E4B     		ldr	r3, .L125+8
 422 0062 23D1     		bne	.L109
 423 0064 D3F8E025 		ldr	r2, [r3, #1504]
 424 0068 93B2     		uxth	r3, r2
 425 006a AB42     		cmp	r3, r5
 426 006c 40D0     		beq	.L114
 427 006e 2C4B     		ldr	r3, .L125+12
 428 0070 03EA4223 		and	r3, r3, r2, lsl #9
 429 0074 03F10062 		add	r2, r3, #134217728
 430              	.L123:
 431 0078 4FF00061 		mov	r1, #134217728
 432 007c 22E0     		b	.L110
 433              	.L102:
 434 007e 012A     		cmp	r2, #1
 435 0080 04D1     		bne	.L103
 436 0082 1A6B     		ldr	r2, [r3, #48]
 437 0084 D2B2     		uxtb	r2, r2
 438 0086 8260     		str	r2, [r0, #8]
 439 0088 1B6B     		ldr	r3, [r3, #48]
 440 008a CAE7     		b	.L122
 441              	.L103:
 442 008c 022A     		cmp	r2, #2
 443 008e 04D1     		bne	.L104
 444 0090 DA6C     		ldr	r2, [r3, #76]
 445 0092 D2B2     		uxtb	r2, r2
 446 0094 8260     		str	r2, [r0, #8]
 447 0096 DB6C     		ldr	r3, [r3, #76]
 448 0098 C3E7     		b	.L122
 449              	.L104:
 450 009a 042A     		cmp	r2, #4
 451 009c C4D1     		bne	.L101
 452 009e 1A6D     		ldr	r2, [r3, #80]
 453 00a0 D2B2     		uxtb	r2, r2
 454 00a2 8260     		str	r2, [r0, #8]
 455 00a4 1B6D     		ldr	r3, [r3, #80]
 456 00a6 BCE7     		b	.L122
 457              	.L113:
 458 00a8 BB23     		movs	r3, #187
 459 00aa C6E7     		b	.L107
 460              	.L109:
 461 00ac D3F8E015 		ldr	r1, [r3, #1504]
ARM GAS  /tmp/ccZmFd3f.s 			page 9


 462 00b0 8BB2     		uxth	r3, r1
 463 00b2 AB42     		cmp	r3, r5
 464 00b4 1ED0     		beq	.L115
 465 00b6 1A4B     		ldr	r3, .L125+12
 466 00b8 03EA4123 		and	r3, r3, r1, lsl #9
 467 00bc 03F10061 		add	r1, r3, #134217728
 468 00c0 4FF00062 		mov	r2, #134217728
 469              	.L110:
 470 00c4 012C     		cmp	r4, #1
 471 00c6 134D     		ldr	r5, .L125
 472 00c8 164B     		ldr	r3, .L125+16
 473 00ca 17D1     		bne	.L111
 474 00cc 6A6A     		ldr	r2, [r5, #36]
 475 00ce 03EAC202 		and	r2, r3, r2, lsl #3
 476 00d2 0A44     		add	r2, r2, r1
 477 00d4 0262     		str	r2, [r0, #32]
 478 00d6 AA6A     		ldr	r2, [r5, #40]
 479 00d8 03EAC203 		and	r3, r3, r2, lsl #3
 480 00dc 0733     		adds	r3, r3, #7
 481 00de 0B44     		add	r3, r3, r1
 482              	.L124:
 483 00e0 4362     		str	r3, [r0, #36]
 484 00e2 0C4B     		ldr	r3, .L125
 485 00e4 9B6A     		ldr	r3, [r3, #40]
 486 00e6 03F00043 		and	r3, r3, #-2147483648
 487 00ea 1C43     		orrs	r4, r4, r3
 488 00ec C461     		str	r4, [r0, #28]
 489              	.L99:
 490 00ee 30BD     		pop	{r4, r5, pc}
 491              	.L114:
 492 00f0 0D4A     		ldr	r2, .L125+20
 493 00f2 C1E7     		b	.L123
 494              	.L115:
 495 00f4 0C49     		ldr	r1, .L125+20
 496 00f6 4FF00062 		mov	r2, #134217728
 497 00fa E3E7     		b	.L110
 498              	.L111:
 499 00fc 696C     		ldr	r1, [r5, #68]
 500 00fe 03EAC101 		and	r1, r3, r1, lsl #3
 501 0102 1144     		add	r1, r1, r2
 502 0104 0162     		str	r1, [r0, #32]
 503 0106 A96C     		ldr	r1, [r5, #72]
 504 0108 03EAC103 		and	r3, r3, r1, lsl #3
 505 010c 0733     		adds	r3, r3, #7
 506 010e 1344     		add	r3, r3, r2
 507 0110 E6E7     		b	.L124
 508              	.L126:
 509 0112 00BF     		.align	2
 510              	.L125:
 511 0114 00200240 		.word	1073881088
 512 0118 00000140 		.word	1073807360
 513 011c 0070FF1F 		.word	536834048
 514 0120 00FEFF01 		.word	33553920
 515 0124 F8FF0700 		.word	524280
 516 0128 00000808 		.word	134742016
 518              		.section	.text.FLASH_PageErase,"ax",%progbits
 519              		.align	1
ARM GAS  /tmp/ccZmFd3f.s 			page 10


 520              		.global	FLASH_PageErase
 521              		.syntax unified
 522              		.thumb
 523              		.thumb_func
 524              		.fpu fpv4-sp-d16
 526              	FLASH_PageErase:
 527              		@ args = 0, pretend = 0, frame = 0
 528              		@ frame_needed = 0, uses_anonymous_args = 0
 529              		@ link register save eliminated.
 530 0000 0D4B     		ldr	r3, .L131
 531 0002 5A69     		ldr	r2, [r3, #20]
 532 0004 11F0010F 		tst	r1, #1
 533 0008 14BF     		ite	ne
 534 000a 22F40062 		bicne	r2, r2, #2048
 535 000e 42F40062 		orreq	r2, r2, #2048
 536 0012 5A61     		str	r2, [r3, #20]
 537 0014 5A69     		ldr	r2, [r3, #20]
 538 0016 C000     		lsls	r0, r0, #3
 539 0018 22F4FF62 		bic	r2, r2, #2040
 540 001c 00F4FF60 		and	r0, r0, #2040
 541 0020 1043     		orrs	r0, r0, r2
 542 0022 5861     		str	r0, [r3, #20]
 543 0024 5A69     		ldr	r2, [r3, #20]
 544 0026 42F00202 		orr	r2, r2, #2
 545 002a 5A61     		str	r2, [r3, #20]
 546 002c 5A69     		ldr	r2, [r3, #20]
 547 002e 42F48032 		orr	r2, r2, #65536
 548 0032 5A61     		str	r2, [r3, #20]
 549 0034 7047     		bx	lr
 550              	.L132:
 551 0036 00BF     		.align	2
 552              	.L131:
 553 0038 00200240 		.word	1073881088
 555              		.section	.text.HAL_FLASHEx_Erase_IT,"ax",%progbits
 556              		.align	1
 557              		.global	HAL_FLASHEx_Erase_IT
 558              		.syntax unified
 559              		.thumb
 560              		.thumb_func
 561              		.fpu fpv4-sp-d16
 563              	HAL_FLASHEx_Erase_IT:
 564              		@ args = 0, pretend = 0, frame = 0
 565              		@ frame_needed = 0, uses_anonymous_args = 0
 566 0000 10B5     		push	{r4, lr}
 567 0002 224B     		ldr	r3, .L143
 568 0004 1A78     		ldrb	r2, [r3]	@ zero_extendqisi2
 569 0006 012A     		cmp	r2, #1
 570 0008 0446     		mov	r4, r0
 571 000a 3CD0     		beq	.L140
 572 000c 0022     		movs	r2, #0
 573 000e 5A60     		str	r2, [r3, #4]
 574 0010 0120     		movs	r0, #1
 575 0012 1F4A     		ldr	r2, .L143+4
 576 0014 1870     		strb	r0, [r3]
 577 0016 1168     		ldr	r1, [r2]
 578 0018 11F4007F 		tst	r1, #512
 579 001c 1168     		ldr	r1, [r2]
ARM GAS  /tmp/ccZmFd3f.s 			page 11


 580 001e 1ED0     		beq	.L135
 581 0020 21F40071 		bic	r1, r1, #512
 582 0024 1160     		str	r1, [r2]
 583 0026 1168     		ldr	r1, [r2]
 584 0028 4905     		lsls	r1, r1, #21
 585 002a 06D5     		bpl	.L136
 586 002c 1168     		ldr	r1, [r2]
 587 002e 21F48061 		bic	r1, r1, #1024
 588 0032 1160     		str	r1, [r2]
 589 0034 0322     		movs	r2, #3
 590              	.L141:
 591 0036 1A77     		strb	r2, [r3, #28]
 592 0038 00E0     		b	.L137
 593              	.L136:
 594 003a 1877     		strb	r0, [r3, #28]
 595              	.L137:
 596 003c 1449     		ldr	r1, .L143+4
 597 003e 4A69     		ldr	r2, [r1, #20]
 598 0040 42F04072 		orr	r2, r2, #50331648
 599 0044 4A61     		str	r2, [r1, #20]
 600 0046 2268     		ldr	r2, [r4]
 601 0048 6168     		ldr	r1, [r4, #4]
 602 004a 1961     		str	r1, [r3, #16]
 603 004c 012A     		cmp	r2, #1
 604 004e 11D1     		bne	.L139
 605 0050 0222     		movs	r2, #2
 606 0052 0846     		mov	r0, r1
 607 0054 1A72     		strb	r2, [r3, #8]
 608 0056 FFF7FEFF 		bl	FLASH_MassErase
 609              	.L142:
 610 005a 0020     		movs	r0, #0
 611              	.L134:
 612 005c 10BD     		pop	{r4, pc}
 613              	.L135:
 614 005e 11F48061 		ands	r1, r1, #1024
 615 0062 05D0     		beq	.L138
 616 0064 1168     		ldr	r1, [r2]
 617 0066 21F48061 		bic	r1, r1, #1024
 618 006a 1160     		str	r1, [r2]
 619 006c 0222     		movs	r2, #2
 620 006e E2E7     		b	.L141
 621              	.L138:
 622 0070 1977     		strb	r1, [r3, #28]
 623 0072 E3E7     		b	.L137
 624              	.L139:
 625 0074 0122     		movs	r2, #1
 626 0076 1A72     		strb	r2, [r3, #8]
 627 0078 A068     		ldr	r0, [r4, #8]
 628 007a E268     		ldr	r2, [r4, #12]
 629 007c 9A61     		str	r2, [r3, #24]
 630 007e 5861     		str	r0, [r3, #20]
 631 0080 FFF7FEFF 		bl	FLASH_PageErase
 632 0084 E9E7     		b	.L142
 633              	.L140:
 634 0086 0220     		movs	r0, #2
 635 0088 E8E7     		b	.L134
 636              	.L144:
ARM GAS  /tmp/ccZmFd3f.s 			page 12


 637 008a 00BF     		.align	2
 638              	.L143:
 639 008c 00000000 		.word	pFlash
 640 0090 00200240 		.word	1073881088
 642              		.section	.text.FLASH_FlushCaches,"ax",%progbits
 643              		.align	1
 644              		.global	FLASH_FlushCaches
 645              		.syntax unified
 646              		.thumb
 647              		.thumb_func
 648              		.fpu fpv4-sp-d16
 650              	FLASH_FlushCaches:
 651              		@ args = 0, pretend = 0, frame = 0
 652              		@ frame_needed = 0, uses_anonymous_args = 0
 653              		@ link register save eliminated.
 654 0000 1348     		ldr	r0, .L148
 655 0002 037F     		ldrb	r3, [r0, #28]	@ zero_extendqisi2
 656 0004 DAB2     		uxtb	r2, r3
 657 0006 03F0FD03 		and	r3, r3, #253
 658 000a 012B     		cmp	r3, #1
 659 000c 0CD1     		bne	.L146
 660 000e 114B     		ldr	r3, .L148+4
 661 0010 1968     		ldr	r1, [r3]
 662 0012 41F40061 		orr	r1, r1, #2048
 663 0016 1960     		str	r1, [r3]
 664 0018 1968     		ldr	r1, [r3]
 665 001a 21F40061 		bic	r1, r1, #2048
 666 001e 1960     		str	r1, [r3]
 667 0020 1968     		ldr	r1, [r3]
 668 0022 41F40071 		orr	r1, r1, #512
 669 0026 1960     		str	r1, [r3]
 670              	.L146:
 671 0028 931E     		subs	r3, r2, #2
 672 002a 012B     		cmp	r3, #1
 673 002c 0CD8     		bhi	.L147
 674 002e 094B     		ldr	r3, .L148+4
 675 0030 1A68     		ldr	r2, [r3]
 676 0032 42F48052 		orr	r2, r2, #4096
 677 0036 1A60     		str	r2, [r3]
 678 0038 1A68     		ldr	r2, [r3]
 679 003a 22F48052 		bic	r2, r2, #4096
 680 003e 1A60     		str	r2, [r3]
 681 0040 1A68     		ldr	r2, [r3]
 682 0042 42F48062 		orr	r2, r2, #1024
 683 0046 1A60     		str	r2, [r3]
 684              	.L147:
 685 0048 0023     		movs	r3, #0
 686 004a 0377     		strb	r3, [r0, #28]
 687 004c 7047     		bx	lr
 688              	.L149:
 689 004e 00BF     		.align	2
 690              	.L148:
 691 0050 00000000 		.word	pFlash
 692 0054 00200240 		.word	1073881088
 694              		.section	.text.HAL_FLASHEx_Erase,"ax",%progbits
 695              		.align	1
 696              		.global	HAL_FLASHEx_Erase
ARM GAS  /tmp/ccZmFd3f.s 			page 13


 697              		.syntax unified
 698              		.thumb
 699              		.thumb_func
 700              		.fpu fpv4-sp-d16
 702              	HAL_FLASHEx_Erase:
 703              		@ args = 0, pretend = 0, frame = 0
 704              		@ frame_needed = 0, uses_anonymous_args = 0
 705 0000 2DE9F047 		push	{r4, r5, r6, r7, r8, r9, r10, lr}
 706 0004 354D     		ldr	r5, .L164
 707 0006 2B78     		ldrb	r3, [r5]	@ zero_extendqisi2
 708 0008 012B     		cmp	r3, #1
 709 000a 0646     		mov	r6, r0
 710 000c 8846     		mov	r8, r1
 711 000e 62D0     		beq	.L162
 712 0010 0127     		movs	r7, #1
 713 0012 4CF25030 		movw	r0, #50000
 714 0016 2F70     		strb	r7, [r5]
 715 0018 FFF7FEFF 		bl	FLASH_WaitForLastOperation
 716 001c 0446     		mov	r4, r0
 717 001e 40BB     		cbnz	r0, .L152
 718 0020 2F4B     		ldr	r3, .L164+4
 719 0022 6860     		str	r0, [r5, #4]
 720 0024 1A68     		ldr	r2, [r3]
 721 0026 12F4007F 		tst	r2, #512
 722 002a 1A68     		ldr	r2, [r3]
 723 002c 26D0     		beq	.L153
 724 002e 22F40072 		bic	r2, r2, #512
 725 0032 1A60     		str	r2, [r3]
 726 0034 1A68     		ldr	r2, [r3]
 727 0036 5105     		lsls	r1, r2, #21
 728 0038 06D5     		bpl	.L154
 729 003a 1A68     		ldr	r2, [r3]
 730 003c 22F48062 		bic	r2, r2, #1024
 731 0040 1A60     		str	r2, [r3]
 732 0042 0323     		movs	r3, #3
 733              	.L163:
 734 0044 2B77     		strb	r3, [r5, #28]
 735 0046 00E0     		b	.L155
 736              	.L154:
 737 0048 2F77     		strb	r7, [r5, #28]
 738              	.L155:
 739 004a 3368     		ldr	r3, [r6]
 740 004c 012B     		cmp	r3, #1
 741 004e 1FD1     		bne	.L157
 742 0050 7068     		ldr	r0, [r6, #4]
 743 0052 FFF7FEFF 		bl	FLASH_MassErase
 744 0056 4CF25030 		movw	r0, #50000
 745 005a FFF7FEFF 		bl	FLASH_WaitForLastOperation
 746 005e 204A     		ldr	r2, .L164+4
 747 0060 5369     		ldr	r3, [r2, #20]
 748 0062 23F40043 		bic	r3, r3, #32768
 749 0066 23F00403 		bic	r3, r3, #4
 750 006a 0446     		mov	r4, r0
 751 006c 5361     		str	r3, [r2, #20]
 752              	.L158:
 753 006e FFF7FEFF 		bl	FLASH_FlushCaches
 754              	.L152:
ARM GAS  /tmp/ccZmFd3f.s 			page 14


 755 0072 0023     		movs	r3, #0
 756 0074 2B70     		strb	r3, [r5]
 757              	.L151:
 758 0076 2046     		mov	r0, r4
 759 0078 BDE8F087 		pop	{r4, r5, r6, r7, r8, r9, r10, pc}
 760              	.L153:
 761 007c 5205     		lsls	r2, r2, #21
 762 007e 05D5     		bpl	.L156
 763 0080 1A68     		ldr	r2, [r3]
 764 0082 22F48062 		bic	r2, r2, #1024
 765 0086 1A60     		str	r2, [r3]
 766 0088 0223     		movs	r3, #2
 767 008a DBE7     		b	.L163
 768              	.L156:
 769 008c 2877     		strb	r0, [r5, #28]
 770 008e DCE7     		b	.L155
 771              	.L157:
 772 0090 4FF0FF33 		mov	r3, #-1
 773 0094 C8F80030 		str	r3, [r8]
 774 0098 B768     		ldr	r7, [r6, #8]
 775 009a DFF84490 		ldr	r9, .L164+4
 776 009e DFF844A0 		ldr	r10, .L164+8
 777              	.L159:
 778 00a2 D6E90232 		ldrd	r3, r2, [r6, #8]
 779 00a6 1344     		add	r3, r3, r2
 780 00a8 BB42     		cmp	r3, r7
 781 00aa E0D9     		bls	.L158
 782 00ac 7168     		ldr	r1, [r6, #4]
 783 00ae 3846     		mov	r0, r7
 784 00b0 FFF7FEFF 		bl	FLASH_PageErase
 785 00b4 4CF25030 		movw	r0, #50000
 786 00b8 FFF7FEFF 		bl	FLASH_WaitForLastOperation
 787 00bc D9F81430 		ldr	r3, [r9, #20]
 788 00c0 03EA0A03 		and	r3, r3, r10
 789 00c4 C9F81430 		str	r3, [r9, #20]
 790 00c8 18B1     		cbz	r0, .L160
 791 00ca C8F80070 		str	r7, [r8]
 792 00ce 0446     		mov	r4, r0
 793 00d0 CDE7     		b	.L158
 794              	.L160:
 795 00d2 0137     		adds	r7, r7, #1
 796 00d4 E5E7     		b	.L159
 797              	.L162:
 798 00d6 0224     		movs	r4, #2
 799 00d8 CDE7     		b	.L151
 800              	.L165:
 801 00da 00BF     		.align	2
 802              	.L164:
 803 00dc 00000000 		.word	pFlash
 804 00e0 00200240 		.word	1073881088
 805 00e4 05F8FFFF 		.word	-2043
 807              		.ident	"GCC: (15:10.3-2021.07-4) 10.3.1 20210621 (release)"
ARM GAS  /tmp/ccZmFd3f.s 			page 15

